(dp0
S'./pypy-cli-35609_pystone'
p1
I3
sS'./pypy-c-39324-faassen_richards'
p2
I8
sS'./pypy-c-39302-faassen_richards'
p3
I9
sS'./pypy-c-37044_richards'
p4
I10
sS'./pypy-c-36395-prof--objspace-opcodes-CALL_LIKELY_BUILTIN_pystone'
p5
I10
sS'./pypy-llvm-35010-objspace-std-withstrdict-x86_pystone'
p6
I10
sS'./pypy-llvm-39247-faassen-c-prof_pystone'
p7
I10
sS'./pypy-llvm-35824-objspace-std-withstrdict-x86_richards'
p8
I10
sS'./pypy-c-35463-stackless--objspace-std-withstrdict--prof_pystone'
p9
I10
sS'./pypy-llvm-36066-faassen-x86_richards'
p10
I10
sS'./pypy-llvm-35010-objspace-std-withstrdict-c_richards'
p11
I10
sS'./pypy-c-36446-objspace-std-withstrdict--prof_richards'
p12
I10
sS'./pypy-c-36628-stackless--objspace-std-withstrdict--prof_pystone'
p13
I10
sS'./pypy-c-36344_richards'
p14
I10
sS'./pypy-c-36030_richards'
p15
I10
sS'./pypy-c-37415-prof--objspace-opcodes-CALL_LIKELY_BUILTIN_richards'
p16
I10
sS'./pypy-c-38651-prof--objspace-opcodes-CALL_LIKELY_BUILTIN_richards'
p17
I10
sS'./pypy-c-35557_pystone'
p18
I10
sS'./pypy-llvm-36009-faassen-c-prof_pystone'
p19
I10
sS'./pypy-c-38529-objspace-std-withstrdict--prof_richards'
p20
I10
sS'./pypy-c-36158-stackless--objspace-std-withstrdict--prof_richards'
p21
I10
sS'./pypy-c-35906-gc=framework--objspace-std-withstrdict--prof_pystone'
p22
I10
sS'./pypy-llvm-35065-objspace-std-withstrdict-c_richards'
p23
I10
sS'./pypy-cli-35544_richards'
p24
I5
sS'./pypy-c-35944-objspace-std-withstrdict--prof_pystone'
p25
I10
sS'./pypy-c-39218-objspace-std-withfastslice_pystone'
p26
I10
sS'./pypy-llvm-36066-faassen-c-prof_richards'
p27
I10
sS'./pypy-llvm-39348-faassen-c_pystone'
p28
I7
sS'./pypy-c-36859_pystone'
p29
I10
sS'./pypy-llvm-36082-faassen-c-prof_richards'
p30
I10
sS'./pypy-c-35609-objspace-std-withstrdict--prof_richards'
p31
I10
sS'./pypy-c-35923_richards'
p32
I10
sS'./pypy-llvm-35867-objspace-std-withstrdict-c-prof_pystone'
p33
I10
sS'./pypy-c-39374-stackless--objspace-std-withmultidict--prof_richards'
p34
I6
sS'./pypy-c-39474-objspace-std-withfastslice_pystone'
p35
I4
sS'./pypy-c-37310-stackless--objspace-std-withstrdict--prof_richards'
p36
I10
sS'./pypy-llvm-34976-objspace-std-withstrdict-c_pystone'
p37
I10
sS'./pypy-llvm-35771-objspace-std-withstrdict-c-prof_richards'
p38
I10
sS'./pypy-c-38994-faassen_richards'
p39
I10
sS'./pypy-cli-37163_pystone'
p40
I10
sS'./pypy-llvm-35944-faassen-c_pystone'
p41
I10
sS'./pypy-llvm-35837-objspace-std-withstrdict-c-prof_pystone'
p42
I10
sS'./pypy-c-35824-objspace-std-withstrdict--prof_richards'
p43
I10
sS'./pypy-llvm-38994-faassen-c_pystone'
p44
I10
sS'./pypy-llvm-unknown-objspace-std-withstrdict-c-prof_richards'
p45
I8
sS'./pypy-llvm-36446-faassen-x86_pystone'
p46
I10
sS'./pypy-c-35837-stackless--objspace-std-withstrdict--prof_pystone'
p47
I10
sS'./pypy-c-37084-objspace-std-withstrdict--prof_richards'
p48
I10
sS'./pypy-llvm-35923-objspace-std-withstrdict-x86_richards'
p49
I10
sS'./pypy-c-39247-prof--objspace-opcodes-CALL_LIKELY_BUILTIN_richards'
p50
I10
sS'./pypy-c-39072_richards'
p51
I10
sS'./pypy-llvm-36158-faassen-c-prof_richards'
p52
I10
sS'./pypy-c-35944-stackless--objspace-std-withstrdict--prof_pystone'
p53
I10
sS'./pypy-c-36182-objspace-std-withstrdict--prof_pystone'
p54
I10
sS'./pypy-c-36113-stackless--objspace-std-withstrdict--prof_pystone'
p55
I10
sS'./pypy-llvm-35906-objspace-opcodes-CALL_LIKELY_BUILTIN-c_pystone'
p56
I10
sS'./pypy-c-38140-objspace-std-withstrdict--prof_richards'
p57
I10
sS'./pypy-c-35512-stackless--objspace-std-withstrdict--prof_richards'
p58
I10
sS'./pypy-c-36113_richards'
p59
I10
sS'./pypy-c-38870_pystone'
p60
I10
sS'./pypy-c-35988-gc=framework--objspace-std-withstrdict--prof_richards'
p61
I10
sS'./pypy-llvm-36182-faassen-c_pystone'
p62
I10
sS'./pypy-c-34593-stackless--objspace-std-withstrdict--prof_richards'
p63
I10
sS'./pypy-c-39188-stackless--objspace-std-withmultidict--prof_richards'
p64
I10
sS'./pypy-c-35350_pystone'
p65
I10
sS'./pypy-c-35277-stackless--objspace-std-withstrdict--prof_richards'
p66
I10
sS'./pypy-c-35237-gc=framework--objspace-std-withstrdict--prof_richards'
p67
I10
sS'./pypy-llvm-39247-faassen-c-prof_richards'
p68
I10
sS'./pypy-c-35771-stackless--objspace-std-withstrdict--prof_pystone'
p69
I10
sS'./pypy-c-37111-prof--objspace-opcodes-CALL_LIKELY_BUILTIN_richards'
p70
I10
sS'./pypy-c-36977-objspace-std-withstrdict--prof_pystone'
p71
I10
sS'./pypy-llvm-39324-faassen-c_pystone'
p72
I8
sS'./pypy-c-38140-stackless--objspace-std-withstrdict--prof_pystone'
p73
I10
sS'./pypy-c-36395-gc=framework--objspace-std-withstrdict--prof_richards'
p74
I10
sS'./pypy-llvm-35944-faassen-x86_richards'
p75
I10
sS'./pypy-c-38529-faassen_pystone'
p76
I10
sS'./pypy-llvm-39374-faassen-c-prof_richards'
p77
I6
sS'./pypy-c-35237-stackless--objspace-std-withstrdict--prof_pystone'
p78
I10
sS'./pypy-llvm-39302-faassen-c-prof_pystone'
p79
I9
sS'./pypy-c-39374-prof--objspace-opcodes-CALL_LIKELY_BUILTIN_richards'
p80
I6
sS'./pypy-c-36082-stackless--objspace-std-withstrdict--prof_richards'
p81
I10
sS'./pypy-c-36052_richards'
p82
I10
sS'./pypy-c-38870-objspace-std-withstrdict--prof_richards'
p83
I10
sS'./pypy-c-35544-gc=framework--objspace-std-withstrdict--prof_richards'
p84
I10
sS'./pypy-c-35988-stackless--objspace-std-withstrdict--prof_pystone'
p85
I10
sS'./pypy-c-37111-stackless--objspace-std-withstrdict--prof_richards'
p86
I10
sS'./pypy-llvm-36220-faassen-c-prof_richards'
p87
I10
sS'./pypy-c-36893-objspace-std-withstrdict--prof_pystone'
p88
I10
sS'./pypy-llvm-39247-faassen-c_pystone'
p89
I10
sS'./pypy-c-34882-objspace-std-withstrdict--prof_pystone'
p90
I10
sS'./pypy-c-37310-faassen_richards'
p91
I10
sS'./pypy-c-35713-objspace-std-withstrdict--prof_richards'
p92
I10
sS'./pypy-c-39474-stackless--objspace-std-withmultidict--prof_pystone'
p93
I4
sS'./pypy-c-36395-gc=framework--objspace-std-withstrdict--prof_pystone'
p94
I10
sS'./pypy-cli-35713_richards'
p95
I10
sS'./pypy-c-39474_richards'
p96
I4
sS'./pypy-llvm-39247-faassen-x86_pystone'
p97
I10
sS'./pypy-c-35944-prof--objspace-opcodes-CALL_LIKELY_BUILTIN_richards'
p98
I10
sS'./pypy-llvm-36082-faassen-x86_pystone'
p99
I10
sS'./pypy-llvm-35982-faassen-x86_richards'
p100
I10
sS'./pypy-c-39547-prof--objspace-opcodes-CALL_LIKELY_BUILTIN_pystone'
p101
I3
sS'./pypy-c-35837-stackless--objspace-std-withstrdict--prof_richards'
p102
I10
sS'./pypy-c-36977_pystone'
p103
I10
sS'./pypy-c-39218_richards'
p104
I10
sS'./pypy-c-35923-objspace-std-withstrdict--prof_richards'
p105
I10
sS'./pypy-cli-38529_richards'
p106
I3
sS'./pypy-c-39324_richards'
p107
I8
sS'./pypy-c-37454-objspace-std-withstrdict--prof_richards'
p108
I10
sS'./pypy-c-39374-stackless--objspace-std-withmultidict--prof_pystone'
p109
I6
sS'./pypy-c-38870-objspace-std-withfastslice_richards'
p110
I10
sS'./pypy-c-34593-objspace-std-withstrdict--prof_richards'
p111
I10
sS'./pypy-llvm-36344-faassen-x86_pystone'
p112
I10
sS'./pypy-c-39218_pystone'
p113
I10
sS'./pypy-llvm-35963-faassen-c_richards'
p114
I10
sS'./pypy-c-39547-objspace-std-withfastslice_pystone'
p115
I3
sS'./pypy-c-36113-gc=framework--objspace-std-withstrdict--prof_pystone'
p116
I10
sS'./pypy-c-34593_richards'
p117
I10
sS'./pypy-c-36182-stackless--objspace-std-withstrdict--prof_pystone'
p118
I10
sS'./pypy-c-35350-gc=framework--objspace-std-withstrdict--prof_richards'
p119
I10
sS'./pypy-llvm-35979-faassen-c-prof_richards'
p120
I10
sS'./pypy-c-36113-stackless--objspace-std-withstrdict--prof_richards'
p121
I10
sS'./pypy-c-35824-objspace-std-withstrdict--prof_pystone'
p122
I10
sS'./pypy-c-36175-objspace-std-withstrdict--prof_richards'
p123
I10
sS'./pypy-c-36158-gc=framework--objspace-std-withstrdict--prof_pystone'
p124
I10
sS'./pypy-llvm-39617-faassen-c-prof_pystone'
p125
I2
sS'./pypy-c-37310-prof--objspace-opcodes-CALL_LIKELY_BUILTIN_richards'
p126
I10
sS'./pypy-llvm-35095-objspace-std-withstrdict-x86_richards'
p127
I10
sS'./pypy-c-39247-faassen_richards'
p128
I10
sS'./pypy-llvm-35923-objspace-opcodes-CALL_LIKELY_BUILTIN-c-prof_richards'
p129
I10
sS'./pypy-c-38529-objspace-std-withstrdict--prof_pystone'
p130
I10
sS'./pypy-cli-36977_pystone'
p131
I10
sS'./pypy-c-38769-prof--objspace-opcodes-CALL_LIKELY_BUILTIN_richards'
p132
I10
sS'./pypy-c-37367-objspace-std-withstrdict--prof_pystone'
p133
I10
sS'./pypy-c-36030_pystone'
p134
I10
sS'./pypy-c-39218-stackless--objspace-std-withmultidict--prof_richards'
p135
I10
sS'./pypy-c-37415-objspace-std-withstrdict--prof_pystone'
p136
I10
sS'./pypy-c-36066-objspace-std-withstrdict--prof_pystone'
p137
I10
sS'./pypy-c-36790-stackless--objspace-std-withstrdict--prof_richards'
p138
I10
sS'./pypy-c-35982-prof--objspace-opcodes-CALL_LIKELY_BUILTIN_richards'
p139
I10
sS'./pypy-llvm-36220-faassen-x86_pystone'
p140
I10
sS'./pypy-c-36628-gc=framework--objspace-std-withstrdict--prof_richards'
p141
I10
sS'./pypy-cli-39374_pystone'
p142
I6
sS'./pypy-c-35658-stackless--objspace-std-withstrdict--prof_pystone'
p143
I10
sS'./pypy-llvm-35867-objspace-std-withstrdict-x86_pystone'
p144
I10
sS'./pypy-cli-37415_pystone'
p145
I10
sS'./pypy-c-35837_richards'
p146
I10
sS'./pypy-cli-37084_pystone'
p147
I10
sS'./pypy-cli-35923_richards'
p148
I10
sS'./pypy-c-39646_pystone'
p149
I1
sS'./pypy-llvm-36100-faassen-c-prof_pystone'
p150
I10
sS'./pypy-llvm-35095-objspace-std-withstrdict-c_pystone'
p151
I10
sS'./pypy-llvm-35906-objspace-std-withstrdict-c-prof_richards'
p152
I10
sS'./pypy-llvm-35143-objspace-std-withstrdict-c_richards'
p153
I10
sS'./pypy-c-37243-objspace-std-withstrdict--prof_pystone'
p154
I10
sS'./pypy-c-35065-objspace-std-withstrdict--prof_richards'
p155
I10
sS'./pypy-c-35143_pystone'
p156
I10
sS'./pypy-c-38222_richards'
p157
I10
sS'./pypy-c-39547-gc=framework--objspace-std-withmultidict--prof_pystone'
p158
I3
sS'./pypy-c-36009_richards'
p159
I10
sS'./pypy-llvm-35183-objspace-std-withstrdict-c_richards'
p160
I10
sS'./pypy-c-35512-stackless--objspace-std-withstrdict--prof_pystone'
p161
I10
sS'./pypy-c-35277-objspace-std-withstrdict--prof_richards'
p162
I10
sS'./pypy-llvm-36220-faassen-x86_richards'
p163
I10
sS'./pypy-c-37647-stackless--objspace-std-withstrdict--prof_pystone'
p164
I10
sS'./pypy-c-36030-objspace-std-withstrdict--prof_pystone'
p165
I10
sS'./pypy-c-38651-stackless--objspace-std-withstrdict--prof_richards'
p166
I10
sS'./pypy-c-39072-prof--objspace-opcodes-CALL_LIKELY_BUILTIN_pystone'
p167
I10
sS'./pypy-c-36395-objspace-std-withstrdict--prof_richards'
p168
I10
sS'./pypy-c-39072-objspace-std-withfastslice_richards'
p169
I10
sS'./pypy-c-39324-objspace-std-withfastslice_pystone'
p170
I8
sS'./pypy-cli-36113_richards'
p171
I10
sS'./pypy-c-35217-gc=framework--objspace-std-withstrdict--prof_pystone'
p172
I10
sS'./pypy-c-35968-stackless--objspace-std-withstrdict--prof_richards'
p173
I10
sS'./pypy-c-36977_richards'
p174
I10
sS'./pypy-c-36182_pystone'
p175
I10
sS'./pypy-c-39302-stackless--objspace-std-withmultidict--prof_richards'
p176
I9
sS'./pypy-llvm-36030-faassen-c-prof_richards'
p177
I10
sS'./pypy-c-35771-objspace-std-withstrdict--prof_richards'
p178
I10
sS'./pypy-c-34593-prof_richards'
p179
I10
sS'./pypy-cli-35968_richards'
p180
I7
sS'./pypy-cli-37044_richards'
p181
I10
sS'./pypy-llvm-35982-faassen-c_richards'
p182
I10
sS'./pypy-c-36100-stackless--objspace-std-withstrdict--prof_pystone'
p183
I10
sS'./pypy-cli-35906_richards'
p184
I10
sS'./pypy-c-39147-gc=framework--objspace-std-withmultidict--prof_richards'
p185
I10
sS'./pypy-c-39348-gc=framework--objspace-std-withmultidict--prof_pystone'
p186
I7
sS'./pypy-llvm-unknown-objspace-std-withstrdict-c-prof_pystone'
p187
I8
sS'./pypy-c-35350_richards'
p188
I10
sS'./pypy-c-34948-objspace-std-withstrdict--prof_pystone'
p189
I10
sS'./pypy-c-38334_richards'
p190
I10
sS'./pypy-c-36030-gc=framework--objspace-std-withstrdict--prof_richards'
p191
I10
sS'./pypy-c-39324-gc=framework--objspace-std-withmultidict--prof_richards'
p192
I8
sS'./pypy-c-35411-objspace-std-withstrdict--prof_pystone'
p193
I10
sS'./pypy-llvm-38769-faassen-x86_pystone'
p194
I10
sS'./pypy-llvm-34948-objspace-std-withstrdict-c_richards'
p195
I10
sS'./pypy-cli-36790_pystone'
p196
I10
sS'./pypy-llvm-39147-faassen-c-prof_pystone'
p197
I10
sS'./pypy-llvm-36158-faassen-c_pystone'
p198
I10
sS'./pypy-c-37647_pystone'
p199
I10
sS'./pypy-c-35906-objspace-std-withstrdict--prof_pystone'
p200
I10
sS'./pypy-llvm-36009-faassen-x86_pystone'
p201
I10
sS'./pypy-c-38140-prof--objspace-opcodes-CALL_LIKELY_BUILTIN_richards'
p202
I10
sS'./pypy-c-35512_pystone'
p203
I10
sS'./pypy-c-35713-objspace-std-withstrdict--prof_pystone'
p204
I10
sS'./pypy-llvm-39147-faassen-x86_richards'
p205
I10
sS'./pypy-cli-35775_richards'
p206
I10
sS'./pypy-c-36628-objspace-std-withstrdict--prof_richards'
p207
I10
sS'./pypy-c-37647-prof--objspace-opcodes-CALL_LIKELY_BUILTIN_pystone'
p208
I10
sS'./pypy-c-35183-stackless--objspace-std-withstrdict--prof_pystone'
p209
I10
sS'./pypy-c-37367-gc=framework--objspace-std-withstrdict--prof_pystone'
p210
I10
sS'./pypy-cli-35944_richards'
p211
I9
sS'./pypy-llvm-34976-objspace-std-withstrdict-c_richards'
p212
I10
sS'./pypy-llvm-39072-faassen-c_richards'
p213
I10
sS'./pypy-llvm-35095-objspace-std-withstrdict-x86_pystone'
p214
I10
sS'./pypy-c-36344-gc=framework--objspace-std-withstrdict--prof_richards'
p215
I10
sS'./pypy-c-37647-gc=framework--objspace-std-withstrdict--prof_pystone'
p216
I10
sS'./pypy-c-36446-prof--objspace-opcodes-CALL_LIKELY_BUILTIN_pystone'
p217
I10
sS'./pypy-llvm-35183-objspace-std-withstrdict-x86_richards'
p218
I10
sS'./pypy-c-36175_richards'
p219
I10
sS'./pypy-c-37503-gc=framework--objspace-std-withstrdict--prof_richards'
p220
I10
sS'./pypy-cli-36790_richards'
p221
I10
sS'./pypy-cli-37243_pystone'
p222
I10
sS'./pypy-c-39218-prof--objspace-opcodes-CALL_LIKELY_BUILTIN_pystone'
p223
I10
sS'./pypy-c-38140_richards'
p224
I10
sS'./pypy-llvm-35183-objspace-std-withstrdict-x86_pystone'
p225
I10
sS'./pypy-c-35968-prof--objspace-opcodes-CALL_LIKELY_BUILTIN_pystone'
p226
I10
sS'./pypy-c-35609-gc=framework--objspace-std-withstrdict--prof_pystone'
p227
I10
sS'./pypy-c-36859-objspace-std-withstrdict--prof_pystone'
p228
I10
sS'./pypy-c-35658-objspace-std-withstrdict--prof_pystone'
p229
I10
sS'./pypy-c-35544-gc=framework--objspace-std-withstrdict--prof_pystone'
p230
I10
sS'./pypy-llvm-35923-objspace-std-withstrdict-c-prof_pystone'
p231
I10
sS'./pypy-c-36030-stackless--objspace-std-withstrdict--prof_pystone'
p232
I10
sS'./pypy-c-35237_pystone'
p233
I10
sS'./pypy-cli-37707_richards'
p234
I10
sS'./pypy-c-37163-gc=framework--objspace-std-withstrdict--prof_richards'
p235
I10
sS'./pypy-c-39247-prof--objspace-opcodes-CALL_LIKELY_BUILTIN_pystone'
p236
I10
sS'./pypy-c-39147-objspace-std-withmultidict--prof_pystone'
p237
I10
sS'./pypy-c-35906-stackless--prof--objspace-opcodes-CALL_LIKELY_BUILTIN_richards'
p238
I10
sS'./pypy-c-36539-objspace-std-withstrdict--prof_richards'
p239
I10
sS'./pypy-c-37782-prof--objspace-opcodes-CALL_LIKELY_BUILTIN_pystone'
p240
I10
sS'./pypy-c-35906-stackless--prof--objspace-opcodes-CALL_LIKELY_BUILTIN_pystone'
p241
I10
sS'./pypy-llvm-39374-faassen-c_richards'
p242
I6
sS'./pypy-llvm-35988-faassen-c_pystone'
p243
I10
sS'./pypy-c-39218-faassen_richards'
p244
I10
sS'./pypy-cli-35713~_richards'
p245
I1
sS'./pypy-cli-39247_pystone'
p246
I10
sS'./pypy-c-36790-stackless--objspace-std-withstrdict--prof_pystone'
p247
I10
sS'./pypy-c-39247-objspace-std-withmultidict--prof_richards'
p248
I10
sS'./pypy-llvm-35143-objspace-std-withstrdict-c_pystone'
p249
I10
sS'./pypy-c-35237-stackless--objspace-std-withstrdict--prof_richards'
p250
I10
sS'./pypy-c-39474-objspace-std-withfastslice_richards'
p251
I4
sS'./pypy-c-37163-objspace-std-withstrdict--prof_pystone'
p252
I10
sS'./pypy-cli-39348_pystone'
p253
I7
sS'./pypy-llvm-39474-faassen-c-prof_richards'
p254
I4
sS'./pypy-c-36052-stackless--objspace-std-withstrdict--prof_richards'
p255
I10
sS'./pypy-c-37367-gc=framework--objspace-std-withstrdict--prof_richards'
p256
I10
sS'./pypy-c-35713_pystone'
p257
I10
sS'./pypy-c-36893-stackless--objspace-std-withstrdict--prof_pystone'
p258
I10
sS'./pypy-c-37503-objspace-std-withstrdict--prof_richards'
p259
I10
sS'./pypy-c-35411-objspace-std-withstrdict--prof_richards'
p260
I10
sS'./pypy-c-36539-gc=framework--objspace-std-withstrdict--prof_richards'
p261
I10
sS'./pypy-llvm-35968-faassen-c-prof_pystone'
p262
I10
sS'./pypy-c-35771-gc=framework--objspace-std-withstrdict--prof_pystone'
p263
I10
sS'./pypy-c-35095-objspace-std-withstrdict--prof_richards'
p264
I10
sS'./pypy-c-39348_pystone'
p265
I7
sS'./pypy-c-35411-stackless--objspace-std-withstrdict--prof_pystone'
p266
I10
sS'./pypy-c-35277-objspace-std-withstrdict--prof_pystone'
p267
I10
sS'./pypy-c-35837-gc=framework--objspace-std-withstrdict--prof_richards'
p268
I10
sS'./pypy-llvm-39302-faassen-c-prof_richards'
p269
I9
sS'./pypy-c-37367-prof--objspace-opcodes-CALL_LIKELY_BUILTIN_richards'
p270
I10
sS'./pypy-llvm-35906-objspace-std-withstrdict-c-prof_pystone'
p271
I10
sS'./pypy-llvm-36113-faassen-c-prof_pystone'
p272
I10
sS'./pypy-llvm-35010-objspace-std-withstrdict-x86_richards'
p273
I10
sS'./pypy-llvm-36136-faassen-c_pystone'
p274
I10
sS'./pypy-c-36790-prof--objspace-opcodes-CALL_LIKELY_BUILTIN_richards'
p275
I10
sS'./pypy-c-37647-gc=framework--objspace-std-withstrdict--prof_richards'
p276
I10
sS'./pypy-llvm-35906-objspace-opcodes-CALL_LIKELY_BUILTIN-x86_richards'
p277
I10
sS'./pypy-llvm-39072-faassen-c-prof_richards'
p278
I10
sS'./pypy-c-38651_pystone'
p279
I10
sS'./pypy-llvm-35968-faassen-c_pystone'
p280
I10
sS'./pypy-c-35065_pystone'
p281
I10
sS'./pypy-cli-35512_pystone'
p282
I6
sS'./pypy-llvm-38994-faassen-c-prof_richards'
p283
I10
sS'./pypy-llvm-39547-faassen-c-prof_pystone'
p284
I3
sS'./pypy-c-39324-faassen_pystone'
p285
I8
sS'./pypy-c-unknown-objspace-std-withstrdict--prof_richards'
p286
I2
sS'./pypy-c-36082-gc=framework--objspace-std-withstrdict--prof_pystone'
p287
I10
sS'./pypy-cli-39147_richards'
p288
I10
sS'./pypy-llvm-36113-faassen-c_richards'
p289
I10
sS'./pypy-c-39646-stackless--objspace-std-withmultidict--prof_pystone'
p290
I1
sS'./pypy-c-39547-objspace-std-withfastslice_richards'
p291
I3
sS'./pypy-cli-35979_pystone'
p292
I6
sS'./pypy-cli-35982_richards'
p293
I5
sS'./pypy-llvm-36100-faassen-c_richards'
p294
I10
sS'./pypy-c-34976_richards'
p295
I10
sS'./pypy-llvm-36344-faassen-c_richards'
p296
I10
sS'./pypy-c-36158-gc=framework--objspace-std-withstrdict--prof_richards'
p297
I10
sS'./pypy-c-39617-faassen_richards'
p298
I2
sS'./pypy-c-36628-objspace-std-withstrdict--prof_pystone'
p299
I10
sS'./pypy-c-36790-gc=framework--objspace-std-withstrdict--prof_richards'
p300
I10
sS'./pypy-c-37707-faassen_richards'
p301
I10
sS'./pypy-c-37367-faassen_pystone'
p302
I10
sS'./pypy-c-35979-stackless--objspace-std-withstrdict--prof_richards'
p303
I10
sS'./pypy-c-36082_pystone'
p304
I10
sS'./pypy-c-35968_richards'
p305
I10
sS'./pypy-llvm-39072-faassen-c_pystone'
p306
I10
sS'./pypy-c-35544_pystone'
p307
I10
sS'./pypy-c-38140-faassen_pystone'
p308
I10
sS'./pypy-cli-39218_pystone'
p309
I10
sS'./pypy-llvm-35963-faassen-c-prof_richards'
p310
I10
sS'./pypy-c-37243-objspace-std-withstrdict--prof_richards'
p311
I10
sS'./pypy-c-38994-objspace-std-withfastslice_pystone'
p312
I10
sS'./pypy-c-39617-gc=framework--objspace-std-withmultidict--prof_pystone'
p313
I2
sS'./pypy-llvm-35824-objspace-std-withstrdict-c_pystone'
p314
I10
sS'./pypy-c-38651-objspace-std-withfastslice_richards'
p315
I10
sS'./pypy-c-36175_pystone'
p316
I10
sS'./pypy-llvm-35824-objspace-std-withstrdict-c_richards'
p317
I10
sS'./pypy-c-36066-stackless--objspace-std-withstrdict--prof_richards'
p318
I10
sS'./pypy-llvm-35968-faassen-x86_pystone'
p319
I10
sS'./pypy-llvm-35923-objspace-opcodes-CALL_LIKELY_BUILTIN-x86_richards'
p320
I10
sS'./pypy-llvm-39374-faassen-c-prof_pystone'
p321
I6
sS'./pypy-llvm-35923-objspace-opcodes-CALL_LIKELY_BUILTIN-c_richards'
p322
I10
sS'./pypy-c-37111-stackless--objspace-std-withstrdict--prof_pystone'
p323
I10
sS'./pypy-llvm-38870-faassen-x86_richards'
p324
I10
sS'./pypy-llvm-36100-faassen-x86_richards'
p325
I10
sS'./pypy-c-35544_richards'
p326
I10
sS'./pypy-c-36344_pystone'
p327
I10
sS'./pypy-c-36066-gc=framework--objspace-std-withstrdict--prof_richards'
p328
I10
sS'./pypy-c-39646-gc=framework--objspace-std-withmultidict--prof_pystone'
p329
I1
sS'./pypy-llvm-36082-faassen-c-prof_pystone'
p330
I10
sS'./pypy-cli-39302_pystone'
p331
I9
sS'./pypy-llvm-36030-faassen-x86_richards'
p332
I10
sS'./pypy-llvm-38769-faassen-c_pystone'
p333
I10
sS'./pypy-c-35411_richards'
p334
I10
sS'./pypy-llvm-35906-objspace-opcodes-CALL_LIKELY_BUILTIN-c-prof_richards'
p335
I10
sS'./pypy-c-36539-prof--objspace-opcodes-CALL_LIKELY_BUILTIN_richards'
p336
I10
sS'./pypy-c-36344-stackless--objspace-std-withstrdict--prof_pystone'
p337
I10
sS'./pypy-c-35277_richards'
p338
I10
sS'./pypy-c-39147-faassen_richards'
p339
I10
sS'./pypy-c-35771_richards'
p340
I10
sS'./pypy-c-36175-objspace-std-withstrdict--prof_pystone'
p341
I10
sS'./pypy-c-34593-prof_pystone'
p342
I10
sS'./pypy-llvm-39324-faassen-c-prof_richards'
p343
I8
sS'./pypy-c-35982-objspace-std-withstrdict--prof_richards'
p344
I10
sS'./pypy-cli-37111_richards'
p345
I10
sS'./pypy-c-35065-stackless--objspace-std-withstrdict--prof_richards'
p346
I10
sS'./pypy-c-39147-stackless--objspace-std-withmultidict--prof_richards'
p347
I10
sS'./pypy-c-39617-prof--objspace-opcodes-CALL_LIKELY_BUILTIN_pystone'
p348
I2
sS'./pypy-c-34593-stackless_richards'
p349
I10
sS'./pypy-c-36977-objspace-std-withstrdict--prof_richards'
p350
I10
sS'./pypy-c-36082-objspace-std-withstrdict--prof_richards'
p351
I10
sS'./pypy-c-35010_richards'
p352
I10
sS'./pypy-llvm-35923-objspace-opcodes-CALL_LIKELY_BUILTIN-x86_pystone'
p353
I10
sS'./pypy-c-36009-stackless--objspace-std-withstrdict--prof_richards'
p354
I10
sS'./pypy-c-38994-gc=framework--objspace-std-withmultidict--prof_pystone'
p355
I10
sS'./pypy-c-38651-faassen_pystone'
p356
I10
sS'./pypy-c-39072-objspace-std-withfastslice_pystone'
p357
I10
sS'./pypy-c-35143-objspace-std-withstrdict--prof_pystone'
p358
I10
sS'./pypy-llvm-39324-faassen-x86_richards'
p359
I8
sS'./pypy-c-35867_pystone'
p360
I10
sS'./pypy-c-34927-objspace-std-withstrdict--prof_richards'
p361
I10
sS'./pypy-c-34976-stackless--objspace-std-withstrdict--prof_pystone'
p362
I10
sS'./pypy-c-39374-prof--objspace-opcodes-CALL_LIKELY_BUILTIN_pystone'
p363
I6
sS'./pypy-c-35143-gc=framework--objspace-std-withstrdict--prof_richards'
p364
I10
sS'./pypy-cli-36175_richards'
p365
I10
sS'./pypy-c-39474-faassen_pystone'
p366
I4
sS'./pypy-c-38435_pystone'
p367
I10
sS'./pypy-c-37782-prof--objspace-opcodes-CALL_LIKELY_BUILTIN_richards'
p368
I10
sS'./pypy-c-39547_richards'
p369
I3
sS'./pypy-llvm-35713-objspace-std-withstrdict-x86_richards'
p370
I10
sS'./pypy-llvm-35837-objspace-std-withstrdict-x86_richards'
p371
I10
sS'./pypy-c-37415-gc=framework--objspace-std-withstrdict--prof_richards'
p372
I10
sS'./pypy-llvm-35923-objspace-std-withstrdict-c-prof_richards'
p373
I10
sS'./pypy-c-39617-prof--objspace-opcodes-CALL_LIKELY_BUILTIN_richards'
p374
I2
sS'./pypy-c-35713-gc=framework--objspace-std-withstrdict--prof_richards'
p375
I10
sS'./pypy-c-35658-objspace-std-withstrdict--prof_richards'
p376
I10
sS'./pypy-llvm-39374-faassen-c_pystone'
p377
I6
sS'./pypy-cli-35923_pystone'
p378
I10
sS'./pypy-c-36628_richards'
p379
I10
sS'./pypy-cli-37367_pystone'
p380
I10
sS'./pypy-c-39324-prof--objspace-opcodes-CALL_LIKELY_BUILTIN_richards'
p381
I8
sS'./pypy-c-34593_pystone'
p382
I10
sS'./pypy-c-36175-stackless--objspace-std-withstrdict--prof_richards'
p383
I10
sS'./pypy-cli-36113_pystone'
p384
I10
sS'./pypy-c-35923-gc=framework--objspace-std-withstrdict--prof_pystone'
p385
I10
sS'./pypy-c-35824-gc=framework--objspace-std-withstrdict--prof_richards'
p386
I10
sS'./pypy-llvm-36113-faassen-x86_richards'
p387
I10
sS'./pypy-c-39547-faassen_pystone'
p388
I3
sS'./pypy-c-38769-prof--objspace-opcodes-CALL_LIKELY_BUILTIN_pystone'
p389
I10
sS'./pypy-c-35557-objspace-std-withstrdict--prof_richards'
p390
I10
sS'./pypy-c-36009-objspace-std-withstrdict--prof_richards'
p391
I10
sS'./pypy-c-37647-prof--objspace-opcodes-CALL_LIKELY_BUILTIN_richards'
p392
I10
sS'./pypy-c-35183-stackless--objspace-std-withstrdict--prof_richards'
p393
I10
sS'./pypy-c-37454-prof--objspace-opcodes-CALL_LIKELY_BUILTIN_richards'
p394
I10
sS'./pypy-c-39188-prof--objspace-opcodes-CALL_LIKELY_BUILTIN_pystone'
p395
I10
sS'./pypy-c-35658_richards'
p396
I10
sS'./pypy-cli-37647_pystone'
p397
I10
sS'./pypy-c-39374-gc=framework--objspace-std-withmultidict--prof_pystone'
p398
I6
sS'./pypy-c-36220_richards'
p399
I10
sS'./pypy-cli-39324_richards'
p400
I8
sS'./pypy-c-39147-prof--objspace-opcodes-CALL_LIKELY_BUILTIN_pystone'
p401
I10
sS'./pypy-llvm-36344-faassen-c-prof_pystone'
p402
I10
sS'./pypy-c-36628-stackless--objspace-std-withstrdict--prof_richards'
p403
I10
sS'./pypy-c-39147-objspace-std-withmultidict--prof_richards'
p404
I10
sS'./pypy-llvm-unknown-objspace-std-withstrdict-c_richards'
p405
I8
sS'./pypy-cli-35968_pystone'
p406
I7
sS'./pypy-cli-35713_pystone'
p407
I10
sS'./pypy-c-36100-gc=framework--objspace-std-withstrdict--prof_richards'
p408
I10
sS'./pypy-c-37454-stackless--objspace-std-withstrdict--prof_pystone'
p409
I10
sS'./pypy-llvm-38994-faassen-x86_pystone'
p410
I10
sS'./pypy-c-39324-gc=framework--objspace-std-withmultidict--prof_pystone'
p411
I8
sS'./pypy-cli-36082_richards'
p412
I10
sS'./pypy-c-36066-objspace-std-withstrdict--prof_richards'
p413
I10
sS'./pypy-c-35982-prof--objspace-opcodes-CALL_LIKELY_BUILTIN_pystone'
p414
I10
sS'./pypy-llvm-39617-faassen-c_richards'
p415
I2
sS'./pypy-c-35411-gc=framework--objspace-std-withstrdict--prof_pystone'
p416
I10
sS'./pypy-llvm-38870-faassen-c_pystone'
p417
I10
sS'./pypy-c-35277-gc=framework--objspace-std-withstrdict--prof_richards'
p418
I10
sS'./pypy-cli-35544~_richards'
p419
I1
sS'./pypy-c-37707-faassen_pystone'
p420
I10
sS'./pypy-c-36100-objspace-std-withstrdict--prof_pystone'
p421
I10
sS'./pypy-c-36052-prof--objspace-opcodes-CALL_LIKELY_BUILTIN_pystone'
p422
I10
sS'./pypy-c-36790-prof--objspace-opcodes-CALL_LIKELY_BUILTIN_pystone'
p423
I10
sS'./pypy-llvm-39646-faassen-c_richards'
p424
I1
sS'./pypy-c-39247-faassen_pystone'
p425
I10
sS'./pypy-llvm-39474-faassen-x86_pystone'
p426
I4
sS'./pypy-llvm-36344-faassen-c_pystone'
p427
I10
sS'./pypy-c-36220-gc=framework--objspace-std-withstrdict--prof_pystone'
p428
I10
sS'./pypy-cli-35609_richards'
p429
I3
sS'./pypy-c-36030-stackless--objspace-std-withstrdict--prof_richards'
p430
I10
sS'./pypy-c-35979-objspace-std-withstrdict--prof_pystone'
p431
I10
sS'./pypy-c-36344-objspace-std-withstrdict--prof_pystone'
p432
I10
sS'./pypy-c-37782_pystone'
p433
I10
sS'./pypy-c-35277-stackless--objspace-std-withstrdict--prof_pystone'
p434
I10
sS'./pypy-c-39374-faassen_richards'
p435
I6
sS'./pypy-llvm-35988-faassen-x86_pystone'
p436
I10
sS'./pypy-c-34593-stackless--objspace-std-withstrdict--prof_pystone'
p437
I10
sS'./pypy-c-37310-prof--objspace-opcodes-CALL_LIKELY_BUILTIN_pystone'
p438
I10
sS'./pypy-llvm-35183-objspace-std-withstrdict-c_pystone'
p439
I10
sS'./pypy-llvm-38769-faassen-x86_richards'
p440
I10
sS'./pypy-llvm-39302-faassen-c_richards'
p441
I9
sS'./pypy-c-34593-gc=framework--objspace-std-withstrdict--prof_richards'
p442
I10
sS'./pypy-llvm-39348-faassen-c_richards'
p443
I7
sS'./pypy-c-35944_pystone'
p444
I10
sS'./pypy-cli-35988_richards'
p445
I4
sS'./pypy-cli-38334_richards'
p446
I10
sS'./pypy-c-35350-gc=framework--objspace-std-withstrdict--prof_pystone'
p447
I10
sS'./pypy-c-36977-stackless--objspace-std-withstrdict--prof_richards'
p448
I10
sS'./pypy-c-35867-stackless--objspace-std-withstrdict--prof_richards'
p449
I10
sS'./pypy-c-35923-stackless--prof_richards'
p450
I10
sS'./pypy-llvm-36052-faassen-c-prof_pystone'
p451
I10
sS'./pypy-llvm-36446-faassen-c_richards'
p452
I10
sS'./pypy-llvm-35979-faassen-c_richards'
p453
I10
sS'./pypy-c-36158-prof--objspace-opcodes-CALL_LIKELY_BUILTIN_richards'
p454
I10
sS'./pypy-llvm-39646-faassen-c-prof_pystone'
p455
I1
sS'./pypy-c-34948-stackless--objspace-std-withstrdict--prof_richards'
p456
I10
sS'./pypy-c-34882-stackless--objspace-std-withstrdict--prof_richards'
p457
I10
sS'./pypy-c-35963-stackless--objspace-std-withstrdict--prof_pystone'
p458
I10
sS'./pypy-c-39646-faassen_pystone'
p459
I1
sS'./pypy-c-35963_pystone'
p460
I10
sS'./pypy-c-35982_pystone'
p461
I10
sS'./pypy-c-39147-faassen_pystone'
p462
I10
sS'./pypy-c-37084-gc=framework--objspace-std-withstrdict--prof_pystone'
p463
I10
sS'./pypy-c-39072-prof--objspace-opcodes-CALL_LIKELY_BUILTIN_richards'
p464
I10
sS'./pypy-c-35988-objspace-std-withstrdict--prof_richards'
p465
I10
sS'./pypy-cli-35658_richards'
p466
I2
sS'./pypy-c-35609-gc=framework--objspace-std-withstrdict--prof_richards'
p467
I10
sS'./pypy-llvm-35824-objspace-std-withstrdict-c-prof_pystone'
p468
I10
sS'./pypy-c-35988-gc=framework--objspace-std-withstrdict--prof_pystone'
p469
I10
sS'./pypy-c-36628-prof--objspace-opcodes-CALL_LIKELY_BUILTIN_pystone'
p470
I10
sS'./pypy-c-36009-gc=framework--objspace-std-withstrdict--prof_richards'
p471
I10
sS'./pypy-c-35944-stackless--objspace-std-withstrdict--prof_richards'
p472
I10
sS'./pypy-llvm-39547-faassen-c_pystone'
p473
I3
sS'./pypy-c-35217-gc=framework--objspace-std-withstrdict--prof_richards'
p474
I10
sS'./pypy-llvm-35867-objspace-std-withstrdict-c-prof_richards'
p475
I10
sS'./pypy-c-38529-gc=framework--objspace-std-withstrdict--prof_pystone'
p476
I10
sS'./pypy-c-37367_richards'
p477
I10
sS'./pypy-cli-39302_richards'
p478
I9
sS'./pypy-cli-38651_pystone'
p479
I10
sS'./pypy-c-37575-gc=framework--objspace-std-withstrdict--prof_richards'
p480
I10
sS'./pypy-c-35867-stackless--objspace-std-withstrdict--prof_pystone'
p481
I10
sS'./pypy-c-39374-gc=framework--objspace-std-withmultidict--prof_richards'
p482
I6
sS'./pypy-c-35979_pystone'
p483
I10
sS'./pypy-c-36136-gc=framework--objspace-std-withstrdict--prof_pystone'
p484
I10
sS'./pypy-c-35979_richards'
p485
I10
sS'./pypy-c-39247-objspace-std-withmultidict--prof_pystone'
p486
I10
sS'./pypy-llvm-35824-objspace-std-withstrdict-c-prof_richards'
p487
I10
sS'./pypy-c-36395-stackless--objspace-std-withstrdict--prof_pystone'
p488
I10
sS'./pypy-cli-36344_richards'
p489
I10
sS'./pypy-c-39072-faassen_richards'
p490
I10
sS'./pypy-cli-38529_pystone'
p491
I3
sS'./pypy-cli-37084_richards'
p492
I10
sS'./pypy-c-39188-stackless--objspace-std-withmultidict--prof_pystone'
p493
I10
sS'./pypy-c-39348-stackless--objspace-std-withmultidict--prof_pystone'
p494
I7
sS'./pypy-llvm-39147-faassen-x86_pystone'
p495
I10
sS'./pypy-c-38651_richards'
p496
I10
sS'./pypy-llvm-35771-objspace-std-withstrdict-x86_richards'
p497
I10
sS'./pypy-c-35968-objspace-std-withstrdict--prof_pystone'
p498
I10
sS'./pypy-c-39547-objspace-std-withmultidict--prof_pystone'
p499
I3
sS'./pypy-c-35713-stackless--objspace-std-withstrdict--prof_richards'
p500
I10
sS'./pypy-c-35867-objspace-std-withstrdict--prof_richards'
p501
I10
sS'./pypy-c-39348-objspace-std-withmultidict--prof_pystone'
p502
I7
sS'./pypy-llvm-39188-faassen-c_richards'
p503
I10
sS'./pypy-c-37243_pystone'
p504
I10
sS'./pypy-c-36893-gc=framework--objspace-std-withstrdict--prof_richards'
p505
I10
sS'./pypy-llvm-39072-faassen-x86_richards'
p506
I10
sS'./pypy-c-38769-faassen_richards'
p507
I10
sS'./pypy-c-36100-stackless--objspace-std-withstrdict--prof_richards'
p508
I10
sS'./pypy-llvm-35837-objspace-std-withstrdict-x86_pystone'
p509
I10
sS'./pypy-c-35463-objspace-std-withstrdict--prof_richards'
p510
I10
sS'./pypy-c-35982_richards'
p511
I10
sS'./pypy-c-37111_pystone'
p512
I10
sS'./pypy-c-35212_pystone'
p513
I10
sS'./pypy-c-38994-faassen_pystone'
p514
I10
sS'./pypy-c-35065-gc=framework--objspace-std-withstrdict--prof_pystone'
p515
I10
sS'./pypy-llvm-34632-objspace-std-withstrdict-c-prof_richards'
p516
I10
sS'./pypy-llvm-39218-faassen-c_richards'
p517
I10
sS'./pypy-c-35095-gc=framework--objspace-std-withstrdict--prof_pystone'
p518
I10
sS'./pypy-c-36446-prof--objspace-opcodes-CALL_LIKELY_BUILTIN_richards'
p519
I10
sS'./pypy-llvm-34948-objspace-std-withstrdict-c_pystone'
p520
I10
sS'./pypy-c-37503-stackless--objspace-std-withstrdict--prof_richards'
p521
I10
sS'./pypy-c-35557-gc=framework--objspace-std-withstrdict--prof_pystone'
p522
I10
sS'./pypy-c-37243-gc=framework--objspace-std-withstrdict--prof_pystone'
p523
I10
sS'./pypy-cli-36100_pystone'
p524
I10
sS'./pypy-c-36790-objspace-std-withstrdict--prof_richards'
p525
I10
sS'./pypy-c-39646-prof--objspace-opcodes-CALL_LIKELY_BUILTIN_pystone'
p526
I1
sS'./pypy-c-37367-stackless--objspace-std-withstrdict--prof_pystone'
p527
I10
sS'./pypy-llvm-39188-faassen-c_pystone'
p528
I10
sS'./pypy-c-38529-gc=framework--objspace-std-withstrdict--prof_richards'
p529
I10
sS'./pypy-llvm-35906-objspace-std-withstrdict-c_richards'
p530
I10
sS'./pypy-llvm-35713-objspace-std-withstrdict-c_richards'
p531
I10
sS'./pypy-cli-39324_pystone'
p532
I8
sS'./pypy-c-35183-gc=framework--objspace-std-withstrdict--prof_richards'
p533
I10
sS'./pypy-c-36052-stackless--objspace-std-withstrdict--prof_pystone'
p534
I10
sS'./pypy-c-37575-objspace-std-withstrdict--prof_richards'
p535
I10
sS'./pypy-c-34882-stackless--objspace-std-withstrdict--prof_pystone'
p536
I10
sS'./pypy-c-36893-gc=framework--objspace-std-withstrdict--prof_pystone'
p537
I10
sS'./pypy-c-35411_pystone'
p538
I10
sS'./pypy-c-37782-objspace-std-withstrdict--prof_pystone'
p539
I10
sS'./pypy-cli-39072_pystone'
p540
I10
sS'./pypy-c-36052-gc=framework--objspace-std-withstrdict--prof_richards'
p541
I10
sS'./pypy-c-37575-objspace-std-withstrdict--prof_pystone'
p542
I10
sS'./pypy-cli-35544_pystone'
p543
I5
sS'./pypy-c-35906-gc=framework--objspace-std-withstrdict--prof_richards'
p544
I10
sS'./pypy-c-38769-objspace-std-withstrdict--prof_richards'
p545
I10
sS'./pypy-c-36859-stackless--objspace-std-withstrdict--prof_richards'
p546
I10
sS'./pypy-c-37782_richards'
p547
I10
sS'./pypy-llvm-39474-faassen-c-prof_pystone'
p548
I4
sS'./pypy-cli-36859_richards'
p549
I10
sS'./pypy-c-34976-stackless--objspace-std-withstrdict--prof_richards'
p550
I10
sS'./pypy-llvm-35988-faassen-c-prof_pystone'
p551
I10
sS'./pypy-c-39348-faassen_pystone'
p552
I7
sS'./pypy-llvm-39374-faassen-x86_pystone'
p553
I6
sS'./pypy-c-39374_richards'
p554
I6
sS'./pypy-cli-39474_richards'
p555
I4
sS'./pypy-c-37503_pystone'
p556
I10
sS'./pypy-c-36082-objspace-std-withstrdict--prof_pystone'
p557
I10
sS'./pypy-c-37044-prof--objspace-opcodes-CALL_LIKELY_BUILTIN_pystone'
p558
I10
sS'./pypy-llvm-35143-objspace-std-withstrdict-x86_richards'
p559
I10
sS'./pypy-cli-35979_richards'
p560
I6
sS'./pypy-cli-36009_richards'
p561
I3
sS'./pypy-c-36446_richards'
p562
I10
sS'./pypy-llvm-36539-faassen-c_pystone'
p563
I10
sS'./pypy-c-35350-stackless--objspace-std-withstrdict--prof_richards'
p564
I10
sS'./pypy-c-35557-gc=framework--objspace-std-withstrdict--prof_richards'
p565
I10
sS'./pypy-c-37243-stackless--objspace-std-withstrdict--prof_pystone'
p566
I10
sS'./pypy-llvm-36082-faassen-x86_richards'
p567
I10
sS'./pypy-c-35609-objspace-std-withstrdict--prof_pystone'
p568
I10
sS'./pypy-c-35544-objspace-std-withstrdict--prof_pystone'
p569
I10
sS'./pypy-c-35979-objspace-std-withstrdict--prof_richards'
p570
I10
sS'./pypy-c-38529_pystone'
p571
I3
sS'./pypy-c-36395_pystone'
p572
I10
sS'./pypy-llvm-35988-faassen-x86_richards'
p573
I10
sS'./pypy-cli-39374_richards'
p574
I6
sS'./pypy-c-37415-faassen_richards'
p575
I10
sS'./pypy-c-39188_richards'
p576
I10
sS'./pypy-c-39147-objspace-std-withfastslice_richards'
p577
I10
sS'./pypy-c-35867-gc=framework--objspace-std-withstrdict--prof_richards'
p578
I10
sS'./pypy-c-36066-prof--objspace-opcodes-CALL_LIKELY_BUILTIN_richards'
p579
I10
sS'./pypy-c-36158_richards'
p580
I10
sS'./pypy-c-36100_pystone'
p581
I10
sS'./pypy-c-36113-gc=framework--objspace-std-withstrdict--prof_richards'
p582
I10
sS'./pypy-c-36220-stackless--objspace-std-withstrdict--prof_pystone'
p583
I10
sS'./pypy-llvm-39348-faassen-x86_richards'
p584
I7
sS'./pypy-c-38140-prof--objspace-opcodes-CALL_LIKELY_BUILTIN_pystone'
p585
I10
sS'./pypy-c-39374-objspace-std-withfastslice_richards'
p586
I6
sS'./pypy-c-39348-objspace-std-withfastslice_pystone'
p587
I7
sS'./pypy-c-39072-gc=framework--objspace-std-withmultidict--prof_richards'
p588
I10
sS'./pypy-c-36893-stackless--objspace-std-withstrdict--prof_richards'
p589
I10
sS'./pypy-c-38870-objspace-std-withstrdict--prof_pystone'
p590
I10
sS'./pypy-cli-36066_richards'
p591
I10
sS'./pypy-c-35065-stackless--objspace-std-withstrdict--prof_pystone'
p592
I10
sS'./pypy-c-34593-stackless_pystone'
p593
I10
sS'./pypy-c-37310-faassen_pystone'
p594
I10
sS'./pypy-c-36082-prof--objspace-opcodes-CALL_LIKELY_BUILTIN_pystone'
p595
I10
sS'./pypy-c-36539-stackless--objspace-std-withstrdict--prof_pystone'
p596
I10
sS'./pypy-c-34882-objspace-std-withstrdict--prof_richards'
p597
I10
sS'./pypy-cli-35867_richards'
p598
I10
sS'./pypy-llvm-39147-faassen-c-prof_richards'
p599
I10
sS'./pypy-c-37415-stackless--objspace-std-withstrdict--prof_richards'
p600
I10
sS'./pypy-cli-35982_pystone'
p601
I5
sS'./pypy-llvm-34976-objspace-std-withstrdict-c-prof_pystone'
p602
I10
sS'./pypy-c-39646-objspace-std-withfastslice_richards'
p603
I1
sS'./pypy-cli-37367_richards'
p604
I10
sS'./pypy-cli-35963_richards'
p605
I8
sS'./pypy-llvm-35713-objspace-std-withstrdict-x86_pystone'
p606
I10
sS'./pypy-c-35183-objspace-std-withstrdict--prof_pystone'
p607
I10
sS'./pypy-c-39348-gc=framework--objspace-std-withmultidict--prof_richards'
p608
I7
sS'./pypy-llvm-35713-objspace-std-withstrdict-c-prof_pystone'
p609
I10
sS'./pypy-c-39072-objspace-std-withmultidict--prof_pystone'
p610
I10
sS'./pypy-cli-39188_richards'
p611
I10
sS'./pypy-cli-35988_pystone'
p612
I4
sS'./pypy-c-39188-objspace-std-withfastslice_richards'
p613
I10
sS'./pypy-c-35979-gc=framework--objspace-std-withstrdict--prof_richards'
p614
I10
sS'./pypy-llvm-35867-objspace-std-withstrdict-c_pystone'
p615
I10
sS'./pypy-c-35771-objspace-std-withstrdict--prof_pystone'
p616
I10
sS'./pypy-llvm-36539-faassen-x86_pystone'
p617
I10
sS'./pypy-llvm-39646-faassen-c_pystone'
p618
I1
sS'./pypy-c-35512_richards'
p619
I10
sS'./pypy-c-36030-gc=framework--objspace-std-withstrdict--prof_pystone'
p620
I10
sS'./pypy-c-35010-objspace-std-withstrdict--prof_richards'
p621
I10
sS'./pypy-c-36009-stackless--objspace-std-withstrdict--prof_pystone'
p622
I10
sS'./pypy-c-36136_pystone'
p623
I10
sS'./pypy-llvm-35982-faassen-c_pystone'
p624
I10
sS'./pypy-llvm-39302-faassen-x86_richards'
p625
I9
sS'./pypy-c-39247-objspace-std-withfastslice_pystone'
p626
I10
sS'./pypy-c-35923-stackless--objspace-std-withstrdict--prof_pystone'
p627
I10
sS'./pypy-c-37415-stackless--objspace-std-withstrdict--prof_pystone'
p628
I10
sS'./pypy-c-37310-objspace-std-withstrdict--prof_pystone'
p629
I10
sS'./pypy-llvm-36539-faassen-c-prof_richards'
p630
I10
sS'./pypy-c-39147-gc=framework--objspace-std-withmultidict--prof_pystone'
p631
I10
sS'./pypy-c-35837_pystone'
p632
I10
sS'./pypy-llvm-35713-objspace-std-withstrdict-c-prof_richards'
p633
I10
sS'./pypy-cli-39474_pystone'
p634
I4
sS'./pypy-cli-38870_pystone'
p635
I10
sS'./pypy-c-35212-objspace-std-withstrdict--prof_pystone'
p636
I10
sS'./pypy-c-39324-objspace-std-withfastslice_richards'
p637
I8
sS'./pypy-llvm-36030-faassen-x86_pystone'
p638
I10
sS'./pypy-llvm-35065-objspace-std-withstrdict-c_pystone'
p639
I10
sS'./pypy-c-36113-prof--objspace-opcodes-CALL_LIKELY_BUILTIN_richards'
p640
I10
sS'./pypy-c-39188-faassen_pystone'
p641
I10
sS'./pypy-c-36175-stackless--objspace-std-withstrdict--prof_pystone'
p642
I10
sS'./pypy-c-35867-objspace-std-withstrdict--prof_pystone'
p643
I10
sS'./pypy-c-39302-objspace-std-withmultidict--prof_richards'
p644
I9
sS'./pypy-c-37707-objspace-std-withstrdict--prof_pystone'
p645
I10
sS'./pypy-c-39247-stackless--objspace-std-withmultidict--prof_richards'
p646
I10
sS'./pypy-c-37782-gc=framework--objspace-std-withstrdict--prof_pystone'
p647
I10
sS'./pypy-c-36182-objspace-std-withstrdict--prof_richards'
p648
I10
sS'./pypy-c-35350-objspace-std-withstrdict--prof_richards'
p649
I10
sS'./pypy-c-38334-objspace-std-withfastslice_pystone'
p650
I10
sS'./pypy-c-38870-gc=framework--objspace-std-withstrdict--prof_richards'
p651
I10
sS'./pypy-c-39188-objspace-std-withfastslice_pystone'
p652
I10
sS'./pypy-llvm-35944-faassen-c-prof_richards'
p653
I10
sS'./pypy-c-39547-stackless--objspace-std-withmultidict--prof_richards'
p654
I3
sS'./pypy-llvm-39348-faassen-c-prof_richards'
p655
I7
sS'./pypy-c-36220-gc=framework--objspace-std-withstrdict--prof_richards'
p656
I10
sS'./pypy-c-36030-prof--objspace-opcodes-CALL_LIKELY_BUILTIN_richards'
p657
I10
sS'./pypy-c-39218-faassen_pystone'
p658
I10
sS'./pypy-c-36158-objspace-std-withstrdict--prof_richards'
p659
I10
sS'./pypy-c-39302_richards'
p660
I9
sS'./pypy-c-37575-stackless--objspace-std-withstrdict--prof_pystone'
p661
I10
sS'./pypy-c-37415_pystone'
p662
I10
sS'./pypy-c-35824-gc=framework--objspace-std-withstrdict--prof_pystone'
p663
I10
sS'./pypy-c-37454_pystone'
p664
I10
sS'./pypy-c-38870-stackless--objspace-std-withstrdict--prof_richards'
p665
I10
sS'./pypy-c-38651-prof--objspace-opcodes-CALL_LIKELY_BUILTIN_pystone'
p666
I10
sS'./pypy-llvm-36030-faassen-c-prof_pystone'
p667
I10
sS'./pypy-cli-36136_pystone'
p668
I10
sS'./pypy-c-35824_richards'
p669
I10
sS'./pypy-c-39147_richards'
p670
I10
sS'./pypy-c-39646-objspace-std-withmultidict--prof_richards'
p671
I1
sS'./pypy-c-39188-gc=framework--objspace-std-withmultidict--prof_pystone'
p672
I10
sS'./pypy-c-36446_pystone'
p673
I10
sS'./pypy-c-36066_pystone'
p674
I10
sS'./pypy-c-34948-gc=framework--objspace-std-withstrdict--prof_richards'
p675
I10
sS'./pypy-llvm-39188-faassen-c-prof_richards'
p676
I10
sS'./pypy-c-35963-objspace-std-withstrdict--prof_richards'
p677
I10
sS'./pypy-c-37111_richards'
p678
I10
sS'./pypy-c-36158-objspace-std-withstrdict--prof_pystone'
p679
I10
sS'./pypy-c-35979-prof--objspace-opcodes-CALL_LIKELY_BUILTIN_richards'
p680
I10
sS'./pypy-c-34976-objspace-std-withstrdict--prof_richards'
p681
I10
sS'./pypy-c-39374-objspace-std-withmultidict--prof_richards'
p682
I6
sS'./pypy-c-36066-prof--objspace-opcodes-CALL_LIKELY_BUILTIN_pystone'
p683
I10
sS'./pypy-cli-35713~_pystone'
p684
I1
sS'./pypy-c-35095-objspace-std-withstrdict--prof_pystone'
p685
I10
sS'./pypy-c-39072-stackless--objspace-std-withmultidict--prof_richards'
p686
I10
sS'./pypy-c-36220-prof--objspace-opcodes-CALL_LIKELY_BUILTIN_pystone'
p687
I10
sS'./pypy-llvm-35944-faassen-c-prof_pystone'
p688
I10
sS'./pypy-c-37503-stackless--objspace-std-withstrdict--prof_pystone'
p689
I10
sS'./pypy-c-35143-stackless--objspace-std-withstrdict--prof_pystone'
p690
I10
sS'./pypy-c-36344-stackless--objspace-std-withstrdict--prof_richards'
p691
I10
sS'./pypy-llvm-39547-faassen-c-prof_richards'
p692
I3
sS'./pypy-llvm-35713-objspace-std-withstrdict-c_pystone'
p693
I10
sS'./pypy-c-37647-stackless--objspace-std-withstrdict--prof_richards'
p694
I10
sS'./pypy-c-36182-prof--objspace-opcodes-CALL_LIKELY_BUILTIN_richards'
p695
I10
sS'./pypy-c-36030-prof--objspace-opcodes-CALL_LIKELY_BUILTIN_pystone'
p696
I10
sS'./pypy-c-39474_pystone'
p697
I4
sS'./pypy-c-35771_pystone'
p698
I10
sS'./pypy-c-35944-gc=framework--objspace-std-withstrdict--prof_pystone'
p699
I10
sS'./pypy-c-36859-stackless--objspace-std-withstrdict--prof_pystone'
p700
I10
sS'./pypy-c-34948-gc=framework--objspace-std-withstrdict--prof_pystone'
p701
I10
sS'./pypy-c-39072_pystone'
p702
I10
sS'./pypy-llvm-36082-faassen-c_pystone'
p703
I10
sS'./pypy-c-35065_richards'
p704
I10
sS'./pypy-cli-35463_richards'
p705
I7
sS'./pypy-c-37782-faassen_richards'
p706
I10
sS'./pypy-c-37163-stackless--objspace-std-withstrdict--prof_pystone'
p707
I10
sS'./pypy-llvm-35988-faassen-c_richards'
p708
I10
sS'./pypy-c-36893-objspace-std-withstrdict--prof_richards'
p709
I10
sS'./pypy-llvm-34976-objspace-std-withstrdict-x86_richards'
p710
I10
sS'./pypy-c-37044-gc=framework--objspace-std-withstrdict--prof_richards'
p711
I10
sS'./pypy-c-39646-faassen_richards'
p712
I1
sS'./pypy-c-39617-objspace-std-withmultidict--prof_richards'
p713
I2
sS'./pypy-c-35771-gc=framework--objspace-std-withstrdict--prof_richards'
p714
I10
sS'2.3.5_pystone'
p715
I10
sS'./pypy-c-37707-gc=framework--objspace-std-withstrdict--prof_pystone'
p716
I10
sS'./pypy-llvm-36009-faassen-c_richards'
p717
I10
sS'./pypy-c-39188-gc=framework--objspace-std-withmultidict--prof_richards'
p718
I10
sS'./pypy-c-38529-faassen_richards'
p719
I10
sS'./pypy-c-36158-stackless--objspace-std-withstrdict--prof_pystone'
p720
I10
sS'./pypy-c-35906_pystone'
p721
I10
sS'./pypy-cli-37707_pystone'
p722
I10
sS'./pypy-llvm-35982-faassen-c-prof_richards'
p723
I10
sS'./pypy-c-36082-prof--objspace-opcodes-CALL_LIKELY_BUILTIN_richards'
p724
I10
sS'./pypy-llvm-34632-objspace-std-withstrdict-c_pystone'
p725
I10
sS'./pypy-llvm-35979-faassen-c_pystone'
p726
I10
sS'./pypy-llvm-39218-faassen-c-prof_richards'
p727
I10
sS'./pypy-llvm-39218-faassen-x86_pystone'
p728
I10
sS'./pypy-cli-35658_pystone'
p729
I2
sS'./pypy-llvm-35143-objspace-std-withstrdict-c-prof_richards'
p730
I10
sS'./pypy-c-36182-gc=framework--objspace-std-withstrdict--prof_richards'
p731
I10
sS'./pypy-c-35143-objspace-std-withstrdict--prof_richards'
p732
I10
sS'./pypy-llvm-36113-faassen-c-prof_richards'
p733
I10
sS'./pypy-c-39547-stackless--objspace-std-withmultidict--prof_pystone'
p734
I3
sS'./pypy-c-35557-objspace-std-withstrdict--prof_pystone'
p735
I10
sS'./pypy-llvm-38870-faassen-c-prof_richards'
p736
I10
sS'./pypy-c-35217_pystone'
p737
I10
sS'./pypy-c-35824_pystone'
p738
I10
sS'./pypy-cli-37575_richards'
p739
I10
sS'./pypy-c-37782-stackless--objspace-std-withstrdict--prof_richards'
p740
I10
sS'./pypy-llvm-36175-faassen-c-prof_pystone'
p741
I10
sS'./pypy-c-34927-gc=framework--objspace-std-withstrdict--prof_richards'
p742
I10
sS'./pypy-c-36977-prof--objspace-opcodes-CALL_LIKELY_BUILTIN_richards'
p743
I10
sS'./pypy-llvm-38769-faassen-c_richards'
p744
I10
sS'./pypy-c-35217_richards'
p745
I10
sS'./pypy-c-34882-gc=framework--objspace-std-withstrdict--prof_pystone'
p746
I10
sS'./pypy-c-34976-objspace-std-withstrdict--prof_pystone'
p747
I10
sS'./pypy-llvm-36066-faassen-c-prof_pystone'
p748
I10
sS'./pypy-c-37367_pystone'
p749
I10
sS'./pypy-c-35217-objspace-std-withstrdict--prof_richards'
p750
I10
sS'./pypy-c-34593-thread--objspace-std-withstrdict--prof_pystone'
p751
I10
sS'./pypy-c-39348_richards'
p752
I7
sS'./pypy-cli-37782_pystone'
p753
I10
sS'./pypy-llvm-35143-objspace-std-withstrdict-x86_pystone'
p754
I10
sS'./pypy-llvm-38769-faassen-c-prof_pystone'
p755
I10
sS'./pypy-c-36182-stackless--objspace-std-withstrdict--prof_richards'
p756
I10
sS'./pypy-c-35544-objspace-std-withstrdict--prof_richards'
p757
I10
sS'./pypy-llvm-35963-faassen-c-prof_pystone'
p758
I10
sS'./pypy-cli-37575_pystone'
p759
I10
sS'./pypy-c-36628_pystone'
p760
I10
sS'./pypy-llvm-36113-faassen-x86_pystone'
p761
I10
sS'./pypy-c-39147-prof--objspace-opcodes-CALL_LIKELY_BUILTIN_richards'
p762
I10
sS'./pypy-cli-36539_richards'
p763
I10
sS'./pypy-c-34927-stackless--objspace-std-withstrdict--prof_richards'
p764
I10
sS'./pypy-cli-36158_richards'
p765
I10
sS'./pypy-llvm-39218-faassen-x86_richards'
p766
I10
sS'./pypy-c-37163_pystone'
p767
I10
sS'./pypy-c-35982-gc=framework--objspace-std-withstrdict--prof_richards'
p768
I10
sS'./pypy-c-39188-prof--objspace-opcodes-CALL_LIKELY_BUILTIN_richards'
p769
I10
sS'./pypy-c-35963-prof--objspace-opcodes-CALL_LIKELY_BUILTIN_richards'
p770
I10
sS'./pypy-c-36175-prof--objspace-opcodes-CALL_LIKELY_BUILTIN_richards'
p771
I10
sS'./pypy-c-38651-gc=framework--objspace-std-withstrdict--prof_pystone'
p772
I10
sS'./pypy-cli-39072_richards'
p773
I10
sS'./pypy-c-36066-stackless--objspace-std-withstrdict--prof_pystone'
p774
I10
sS'./pypy-c-37310_pystone'
p775
I10
sS'./pypy-c-unknown_richards'
p776
I7
sS'./pypy-llvm-35906-objspace-opcodes-CALL_LIKELY_BUILTIN-c-prof_pystone'
p777
I10
sS'./pypy-c-36182-prof--objspace-opcodes-CALL_LIKELY_BUILTIN_pystone'
p778
I10
sS'./pypy-c-39302_pystone'
p779
I9
sS'./pypy-llvm-36030-faassen-c_richards'
p780
I10
sS'./pypy-c-35237_richards'
p781
I10
sS'./pypy-c-35350-objspace-std-withstrdict--prof_pystone'
p782
I10
sS'./pypy-c-35923-objspace-std-withstrdict--prof_pystone'
p783
I10
sS'./pypy-llvm-39348-faassen-c-prof_pystone'
p784
I7
sS'./pypy-llvm-34948-objspace-std-withstrdict-c-prof_pystone'
p785
I10
sS'./pypy-c-37782-faassen_pystone'
p786
I10
sS'./pypy-c-35183_pystone'
p787
I10
sS'./pypy-c-39348-prof--objspace-opcodes-CALL_LIKELY_BUILTIN_pystone'
p788
I7
sS'./pypy-c-34927-gc=framework--objspace-std-withstrdict--prof_pystone'
p789
I10
sS'./pypy-cli-35867_pystone'
p790
I10
sS'./pypy-cli-39218_richards'
p791
I10
sS'./pypy-llvm-35867-objspace-std-withstrdict-x86_richards'
p792
I10
sS'./pypy-c-36539_pystone'
p793
I10
sS'./pypy-llvm-35944-faassen-x86_pystone'
p794
I10
sS'./pypy-llvm-36052-faassen-x86_pystone'
p795
I10
sS'./pypy-c-39324-objspace-std-withmultidict--prof_pystone'
p796
I8
sS'./pypy-c-38529_richards'
p797
I3
sS'./pypy-c-38334_pystone'
p798
I10
sS'./pypy-c-36893_pystone'
p799
I10
sS'./pypy-llvm-35095-objspace-std-withstrdict-c_richards'
p800
I10
sS'./pypy-c-36790-gc=framework--objspace-std-withstrdict--prof_pystone'
p801
I10
sS'./pypy-c-36344-gc=framework--objspace-std-withstrdict--prof_pystone'
p802
I10
sS'./pypy-c-38870-prof--objspace-opcodes-CALL_LIKELY_BUILTIN_richards'
p803
I10
sS'./pypy-llvm-39218-faassen-c_pystone'
p804
I10
sS'./pypy-c-35979-stackless--objspace-std-withstrdict--prof_pystone'
p805
I10
sS'./pypy-llvm-34948-objspace-std-withstrdict-c-prof_richards'
p806
I10
sS'./pypy-c-39547-objspace-std-withmultidict--prof_richards'
p807
I3
sS'./pypy-c-36052-prof--objspace-opcodes-CALL_LIKELY_BUILTIN_richards'
p808
I10
sS'./pypy-c-35906-stackless--objspace-std-withstrdict--prof_richards'
p809
I10
sS'./pypy-c-38222-objspace-std-withfastslice_richards'
p810
I10
sS'./pypy-c-39348-prof--objspace-opcodes-CALL_LIKELY_BUILTIN_richards'
p811
I7
sS'./pypy-llvm-35968-faassen-c-prof_richards'
p812
I10
sS'./pypy-c-39147-objspace-std-withfastslice_pystone'
p813
I10
sS'./pypy-c-39218-objspace-std-withmultidict--prof_richards'
p814
I10
sS'./pypy-c-39617-faassen_pystone'
p815
I2
sS'./pypy-c-39188-objspace-std-withmultidict--prof_pystone'
p816
I10
sS'./pypy-cli-38769_pystone'
p817
I10
sS'./pypy-c-37454-prof--objspace-opcodes-CALL_LIKELY_BUILTIN_pystone'
p818
I10
sS'./pypy-llvm-36175-faassen-c-prof_richards'
p819
I10
sS'./pypy-llvm-39474-faassen-c_pystone'
p820
I4
sS'./pypy-c-37111-gc=framework--objspace-std-withstrdict--prof_richards'
p821
I10
sS'./pypy-c-38651-gc=framework--objspace-std-withstrdict--prof_richards'
p822
I10
sS'./pypy-c-36220-prof--objspace-opcodes-CALL_LIKELY_BUILTIN_richards'
p823
I10
sS'./pypy-cli-36628_pystone'
p824
I10
sS'./pypy-llvm-38870-faassen-c_richards'
p825
I10
sS'./pypy-c-35867_richards'
p826
I10
sS'./pypy-c-37084-prof--objspace-opcodes-CALL_LIKELY_BUILTIN_richards'
p827
I10
sS'./pypy-cli-35837_pystone'
p828
I10
sS'./pypy-c-39374-objspace-std-withfastslice_pystone'
p829
I6
sS'2.4.4_pystone'
p830
I10
sS'./pypy-c-37243-faassen_richards'
p831
I10
sS'./pypy-llvm-36182-faassen-x86_pystone'
p832
I10
sS'./pypy-c-34927-stackless--objspace-std-withstrdict--prof_pystone'
p833
I10
sS'./pypy-c-36859-gc=framework--objspace-std-withstrdict--prof_pystone'
p834
I10
sS'./pypy-c-37707_pystone'
p835
I10
sS'./pypy-llvm-35968-faassen-x86_richards'
p836
I10
sS'./pypy-llvm-36446-faassen-c-prof_richards'
p837
I10
sS'./pypy-llvm-35906-objspace-std-withstrdict-x86_richards'
p838
I10
sS'./pypy-c-39218-prof--objspace-opcodes-CALL_LIKELY_BUILTIN_richards'
p839
I10
sS'./pypy-llvm-38994-faassen-c-prof_pystone'
p840
I10
sS'./pypy-c-35944-gc=framework--objspace-std-withstrdict--prof_richards'
p841
I10
sS'./pypy-cli-38994_pystone'
p842
I10
sS'./pypy-c-34593-gc=framework--objspace-std-withstrdict--prof_pystone'
p843
I10
sS'./pypy-c-36446-stackless--objspace-std-withstrdict--prof_richards'
p844
I10
sS'./pypy-llvm-39617-faassen-x86_richards'
p845
I2
sS'./pypy-c-35867-gc=framework--objspace-std-withstrdict--prof_pystone'
p846
I10
sS'./pypy-llvm-36136-faassen-c-prof_pystone'
p847
I10
sS'./pypy-c-38140-stackless--objspace-std-withstrdict--prof_richards'
p848
I10
sS'./pypy-llvm-39474-faassen-x86_richards'
p849
I4
sS'./pypy-cli-36009_pystone'
p850
I3
sS'./pypy-llvm-39617-faassen-x86_pystone'
p851
I2
sS'./pypy-c-35095-stackless--objspace-std-withstrdict--prof_pystone'
p852
I10
sS'./pypy-llvm-36220-faassen-c_richards'
p853
I10
sS'./pypy-c-37367-stackless--objspace-std-withstrdict--prof_richards'
p854
I10
sS'./pypy-c-34927-objspace-std-withstrdict--prof_pystone'
p855
I10
sS'./pypy-c-38140-gc=framework--objspace-std-withstrdict--prof_richards'
p856
I10
sS'./pypy-c-36182_richards'
p857
I10
sS'./pypy-llvm-36175-faassen-c_richards'
p858
I10
sS'./pypy-c-35095_pystone'
p859
I10
sS'./pypy-c-36446-objspace-std-withstrdict--prof_pystone'
p860
I10
sS'./pypy-c-35923_pystone'
p861
I10
sS'./pypy-c-38994-objspace-std-withfastslice_richards'
p862
I10
sS'./pypy-c-37503_richards'
p863
I10
sS'./pypy-c-37310-gc=framework--objspace-std-withstrdict--prof_pystone'
p864
I10
sS'./pypy-c-39218-stackless--objspace-std-withmultidict--prof_pystone'
p865
I10
sS'./pypy-c-34593-objspace-std-withstrdict--prof_pystone'
p866
I10
sS'./pypy-c-35212_richards'
p867
I10
sS'./pypy-c-35658_pystone'
p868
I10
sS'./pypy-c-36113-prof--objspace-opcodes-CALL_LIKELY_BUILTIN_pystone'
p869
I10
sS'./pypy-c-34948-objspace-std-withstrdict--prof_richards'
p870
I10
sS'./pypy-c-37782-stackless--objspace-std-withstrdict--prof_pystone'
p871
I10
sS'./pypy-cli-36066_pystone'
p872
I10
sS'./pypy-c-35824-stackless--objspace-std-withstrdict--prof_pystone'
p873
I10
sS'./pypy-llvm-34632-objspace-std-withstrdict-c_richards'
p874
I10
sS'./pypy-c-35010-gc=framework--objspace-std-withstrdict--prof_richards'
p875
I10
sS'./pypy-cli-38435_richards'
p876
I10
sS'./pypy-cli-39188_pystone'
p877
I10
sS'./pypy-cli-36446_pystone'
p878
I10
sS'./pypy-c-36136_richards'
p879
I10
sS'./pypy-c-39374-faassen_pystone'
p880
I6
sS'2.3.5_richards'
p881
I10
sS'./pypy-cli-36136_richards'
p882
I10
sS'./pypy-c-36628-gc=framework--objspace-std-withstrdict--prof_pystone'
p883
I10
sS'./pypy-c-35963-gc=framework--objspace-std-withstrdict--prof_richards'
p884
I10
sS'./pypy-c-39072-objspace-std-withmultidict--prof_richards'
p885
I10
sS'./pypy-c-36220-objspace-std-withstrdict--prof_pystone'
p886
I10
sS'./pypy-cli-37310_richards'
p887
I10
sS'./pypy-cli-37415_richards'
p888
I10
sS'./pypy-c-36136-prof--objspace-opcodes-CALL_LIKELY_BUILTIN_pystone'
p889
I10
sS'./pypy-c-36790-objspace-std-withstrdict--prof_pystone'
p890
I10
sS'./pypy-cli-35775_pystone'
p891
I10
sS'./pypy-c-39617-gc=framework--objspace-std-withmultidict--prof_richards'
p892
I2
sS'./pypy-c-35837-gc=framework--objspace-std-withstrdict--prof_pystone'
p893
I10
sS'./pypy-cli-36158_pystone'
p894
I10
sS'./pypy-c-unknown-stackless--objspace-std-withstrdict--prof_richards'
p895
I2
sS'./pypy-llvm-35095-objspace-std-withstrdict-c-prof_richards'
p896
I10
sS'./pypy-cli-38994_richards'
p897
I10
sS'./pypy-cli-35963_pystone'
p898
I8
sS'./pypy-cli-36539_pystone'
p899
I10
sS'./pypy-c-37454-gc=framework--objspace-std-withstrdict--prof_richards'
p900
I10
sS'./pypy-c-38769-gc=framework--objspace-std-withstrdict--prof_richards'
p901
I10
sS'./pypy-c-35968-gc=framework--objspace-std-withstrdict--prof_pystone'
p902
I10
sS'./pypy-c-36182-gc=framework--objspace-std-withstrdict--prof_pystone'
p903
I10
sS'./pypy-c-37310_richards'
p904
I10
sS'./pypy-c-39147-stackless--objspace-std-withmultidict--prof_pystone'
p905
I10
sS'./pypy-c-38334-objspace-std-withfastslice_richards'
p906
I10
sS'./pypy-c-38870-faassen_pystone'
p907
I10
sS'./pypy-c-39348-stackless--objspace-std-withmultidict--prof_richards'
p908
I7
sS'./pypy-llvm-35824-objspace-std-withstrdict-x86_pystone'
p909
I10
sS'./pypy-c-38651-objspace-std-withstrdict--prof_pystone'
p910
I10
sS'./pypy-c-34882_pystone'
p911
I10
sS'./pypy-c-38994_pystone'
p912
I10
sS'./pypy-c-36009_pystone'
p913
I10
sS'./pypy-c-36893-prof--objspace-opcodes-CALL_LIKELY_BUILTIN_pystone'
p914
I10
sS'./pypy-llvm-36182-faassen-c-prof_richards'
p915
I10
sS'./pypy-c-38529-objspace-std-withfastslice_richards'
p916
I10
sS'./pypy-c-39374-objspace-std-withmultidict--prof_pystone'
p917
I6
sS'./pypy-cli-36182_richards'
p918
I10
sS'./pypy-c-36859-objspace-std-withstrdict--prof_richards'
p919
I10
sS'./pypy-c-36136-objspace-std-withstrdict--prof_richards'
p920
I10
sS'./pypy-c-39547-gc=framework--objspace-std-withmultidict--prof_richards'
p921
I3
sS'./pypy-llvm-36158-faassen-c_richards'
p922
I10
sS'./pypy-c-35212-gc=framework--objspace-std-withstrdict--prof_pystone'
p923
I10
sS'./pypy-c-37415_richards'
p924
I10
sS'./pypy-cli-38222_richards'
p925
I10
sS'./pypy-c-36082-gc=framework--objspace-std-withstrdict--prof_richards'
p926
I10
sS'./pypy-c-unknown-objspace-std-withstrdict--prof_pystone'
p927
I2
sS'./pypy-c-34593-gc=framework_pystone'
p928
I10
sS'./pypy-llvm-35963-faassen-x86_richards'
p929
I10
sS'./pypy-cli-36052_pystone'
p930
I10
sS'./pypy-c-35463_richards'
p931
I10
sS'./pypy-c-39617-objspace-std-withmultidict--prof_pystone'
p932
I2
sS'./pypy-c-35237-objspace-std-withstrdict--prof_pystone'
p933
I10
sS'./pypy-c-39348-faassen_richards'
p934
I7
sS'./pypy-c-37044-prof--objspace-opcodes-CALL_LIKELY_BUILTIN_richards'
p935
I10
sS'./pypy-c-38994-gc=framework--objspace-std-withmultidict--prof_richards'
p936
I10
sS'./pypy-llvm-35988-faassen-c-prof_richards'
p937
I10
sS'./pypy-c-36175-gc=framework--objspace-std-withstrdict--prof_richards'
p938
I10
sS'./pypy-llvm-36158-faassen-x86_richards'
p939
I10
sS'./pypy-c-36859-prof--objspace-opcodes-CALL_LIKELY_BUILTIN_richards'
p940
I10
sS'./pypy-c-37163-prof--objspace-opcodes-CALL_LIKELY_BUILTIN_richards'
p941
I10
sS'./pypy-c-36009-objspace-std-withstrdict--prof_pystone'
p942
I10
sS'./pypy-llvm-36446-faassen-x86_richards'
p943
I10
sS'./pypy-c-39474-prof--objspace-opcodes-CALL_LIKELY_BUILTIN_richards'
p944
I4
sS'./pypy-llvm-36100-faassen-c_pystone'
p945
I10
sS'./pypy-c-35277_pystone'
p946
I10
sS'./pypy-c-37044_pystone'
p947
I10
sS'./pypy-cli-38222_pystone'
p948
I10
sS'./pypy-llvm-36136-faassen-x86_pystone'
p949
I10
sS'./pypy-llvm-34976-objspace-std-withstrdict-c-prof_richards'
p950
I10
sS'./pypy-c-35095_richards'
p951
I10
sS'./pypy-cli-39547_pystone'
p952
I3
sS'./pypy-c-36539_richards'
p953
I10
sS'./pypy-llvm-35906-objspace-std-withstrdict-x86_pystone'
p954
I10
sS'./pypy-c-38994-prof--objspace-opcodes-CALL_LIKELY_BUILTIN_pystone'
p955
I10
sS'./pypy-c-35095-stackless--objspace-std-withstrdict--prof_richards'
p956
I10
sS'./pypy-c-35010-objspace-std-withstrdict--prof_pystone'
p957
I10
sS'./pypy-c-39547_pystone'
p958
I3
sS'./pypy-llvm-36100-faassen-c-prof_richards'
p959
I10
sS'./pypy-c-36344-prof--objspace-opcodes-CALL_LIKELY_BUILTIN_pystone'
p960
I10
sS'./pypy-c-35968-prof--objspace-opcodes-CALL_LIKELY_BUILTIN_richards'
p961
I10
sS'./pypy-cli-35944_pystone'
p962
I9
sS'./pypy-llvm-35923-objspace-std-withstrdict-x86_pystone'
p963
I10
sS'./pypy-c-37084-objspace-std-withstrdict--prof_pystone'
p964
I10
sS'./pypy-c-35411-stackless--objspace-std-withstrdict--prof_richards'
p965
I10
sS'./pypy-llvm-39072-faassen-x86_pystone'
p966
I10
sS'./pypy-c-36052-objspace-std-withstrdict--prof_pystone'
p967
I10
sS'./pypy-llvm-39646-faassen-c-prof_richards'
p968
I1
sS'./pypy-c-38994_richards'
p969
I10
sS'./pypy-c-35237-objspace-std-withstrdict--prof_richards'
p970
I10
sS'./pypy-llvm-38870-faassen-x86_pystone'
p971
I10
sS'./pypy-llvm-35923-objspace-std-withstrdict-c_richards'
p972
I10
sS'./pypy-c-39247-gc=framework--objspace-std-withmultidict--prof_richards'
p973
I10
sS'./pypy-c-35609_richards'
p974
I10
sS'./pypy-c-34976-gc=framework--objspace-std-withstrdict--prof_pystone'
p975
I10
sS'./pypy-c-35968-objspace-std-withstrdict--prof_richards'
p976
I10
sS'./pypy-c-39547-prof--objspace-opcodes-CALL_LIKELY_BUILTIN_richards'
p977
I3
sS'./pypy-c-36136-prof--objspace-opcodes-CALL_LIKELY_BUILTIN_richards'
p978
I10
sS'./pypy-c-37503-faassen_pystone'
p979
I10
sS'./pypy-c-35944_richards'
p980
I10
sS'./pypy-c-39147_pystone'
p981
I10
sS'./pypy-c-36066_richards'
p982
I10
sS'./pypy-c-39617-stackless--objspace-std-withmultidict--prof_pystone'
p983
I2
sS'./pypy-c-36113-objspace-std-withstrdict--prof_richards'
p984
I10
sS'./pypy-llvm-39547-faassen-x86_pystone'
p985
I3
sS'./pypy-c-35988_pystone'
p986
I10
sS'./pypy-c-39247_pystone'
p987
I10
sS'./pypy-c-38769-objspace-std-withfastslice_richards'
p988
I10
sS'./pypy-c-37310-objspace-std-withstrdict--prof_richards'
p989
I10
sS'./pypy-c-35183-objspace-std-withstrdict--prof_richards'
p990
I10
sS'./pypy-c-35837-objspace-std-withstrdict--prof_richards'
p991
I10
sS'./pypy-c-37243-prof--objspace-opcodes-CALL_LIKELY_BUILTIN_richards'
p992
I10
sS'./pypy-llvm-35771-objspace-std-withstrdict-c_pystone'
p993
I10
sS'./pypy-cli-37647_richards'
p994
I10
sS'./pypy-c-35982-gc=framework--objspace-std-withstrdict--prof_pystone'
p995
I10
sS'./pypy-c-35713-stackless--objspace-std-withstrdict--prof_pystone'
p996
I10
sS'./pypy-c-34948_richards'
p997
I10
sS'./pypy-cli-39348_richards'
p998
I7
sS'./pypy-cli-35557_pystone'
p999
I4
sS'./pypy-c-38769-stackless--objspace-std-withstrdict--prof_pystone'
p1000
I10
sS'./pypy-c-35065-objspace-std-withstrdict--prof_pystone'
p1001
I10
sS'./pypy-c-34948-stackless--objspace-std-withstrdict--prof_pystone'
p1002
I10
sS'./pypy-c-38222-objspace-std-withfastslice_pystone'
p1003
I10
sS'./pypy-c-37111-prof--objspace-opcodes-CALL_LIKELY_BUILTIN_pystone'
p1004
I10
sS'./pypy-c-35923-gc=framework--objspace-std-withstrdict--prof_richards'
p1005
I10
sS'./pypy-cli-37310_pystone'
p1006
I10
sS'./pypy-c-35658-gc=framework--objspace-std-withstrdict--prof_richards'
p1007
I10
sS'./pypy-c-39474-objspace-std-withmultidict--prof_richards'
p1008
I4
sS'./pypy-c-39302-objspace-std-withfastslice_pystone'
p1009
I9
sS'./pypy-c-39247-stackless--objspace-std-withmultidict--prof_pystone'
p1010
I10
sS'./pypy-llvm-39374-faassen-x86_richards'
p1011
I6
sS'./pypy-llvm-35963-faassen-c_pystone'
p1012
I10
sS'./pypy-c-37454_richards'
p1013
I10
sS'./pypy-llvm-35906-objspace-opcodes-CALL_LIKELY_BUILTIN-x86_pystone'
p1014
I10
sS'./pypy-llvm-39617-faassen-c_pystone'
p1015
I2
sS'./pypy-cli-39147_pystone'
p1016
I10
sS'./pypy-llvm-38994-faassen-x86_richards'
p1017
I10
sS'./pypy-c-35906_richards'
p1018
I10
sS'./pypy-llvm-36175-faassen-x86_pystone'
p1019
I10
sS'./pypy-llvm-36539-faassen-x86_richards'
p1020
I10
sS'./pypy-c-37503-prof--objspace-opcodes-CALL_LIKELY_BUILTIN_richards'
p1021
I10
sS'./pypy-c-37111-gc=framework--objspace-std-withstrdict--prof_pystone'
p1022
I10
sS'./pypy-llvm-35183-objspace-std-withstrdict-c-prof_pystone'
p1023
I10
sS'./pypy-cli-38435_pystone'
p1024
I10
sS'./pypy-c-38870-objspace-std-withfastslice_pystone'
p1025
I10
sS'./pypy-c-35988-prof--objspace-opcodes-CALL_LIKELY_BUILTIN_pystone'
p1026
I10
sS'./pypy-c-35658-stackless--objspace-std-withstrdict--prof_richards'
p1027
I10
sS'./pypy-c-35512-objspace-std-withstrdict--prof_pystone'
p1028
I10
sS'./pypy-c-39247-objspace-std-withfastslice_richards'
p1029
I10
sS'./pypy-c-37415-gc=framework--objspace-std-withstrdict--prof_pystone'
p1030
I10
sS'./pypy-c-39474-gc=framework--objspace-std-withmultidict--prof_pystone'
p1031
I4
sS'./pypy-llvm-39188-faassen-x86_pystone'
p1032
I10
sS'./pypy-c-35944-prof--objspace-opcodes-CALL_LIKELY_BUILTIN_pystone'
p1033
I10
sS'./pypy-llvm-36220-faassen-c-prof_pystone'
p1034
I10
sS'./pypy-c-35923-prof--objspace-opcodes-CALL_LIKELY_BUILTIN_pystone'
p1035
I10
sS'./pypy-c-37111-objspace-std-withstrdict--prof_pystone'
p1036
I10
sS'./pypy-c-35212-gc=framework--objspace-std-withstrdict--prof_richards'
p1037
I10
sS'./pypy-c-39302-objspace-std-withfastslice_richards'
p1038
I9
sS'./pypy-llvm-35010-objspace-std-withstrdict-c_pystone'
p1039
I10
sS'./pypy-c-39646-prof--objspace-opcodes-CALL_LIKELY_BUILTIN_richards'
p1040
I1
sS'./pypy-llvm-36082-faassen-c_richards'
p1041
I10
sS'./pypy-c-36977-stackless--objspace-std-withstrdict--prof_pystone'
p1042
I10
sS'./pypy-c-35512-objspace-std-withstrdict--prof_richards'
p1043
I10
sS'./pypy-llvm-35867-objspace-std-withstrdict-c_richards'
p1044
I10
sS'./pypy-cli-36446_richards'
p1045
I10
sS'./pypy-c-35557_richards'
p1046
I10
sS'./pypy-c-36859-prof--objspace-opcodes-CALL_LIKELY_BUILTIN_pystone'
p1047
I10
sS'./pypy-c-36859-gc=framework--objspace-std-withstrdict--prof_richards'
p1048
I10
sS'./pypy-c-35350-stackless--objspace-std-withstrdict--prof_pystone'
p1049
I10
sS'./pypy-c-35143_richards'
p1050
I10
sS'./pypy-c-37163-stackless--objspace-std-withstrdict--prof_richards'
p1051
I10
sS'./pypy-c-37310-gc=framework--objspace-std-withstrdict--prof_richards'
p1052
I10
sS'./pypy-c-37503-gc=framework--objspace-std-withstrdict--prof_pystone'
p1053
I10
sS'./pypy-cli-39247_richards'
p1054
I10
sS'./pypy-c-39188-objspace-std-withmultidict--prof_richards'
p1055
I10
sS'./pypy-c-35963-gc=framework--objspace-std-withstrdict--prof_pystone'
p1056
I10
sS'./pypy-c-39302-prof--objspace-opcodes-CALL_LIKELY_BUILTIN_pystone'
p1057
I9
sS'./pypy-cli-35463_pystone'
p1058
I7
sS'./pypy-llvm-39247-faassen-x86_richards'
p1059
I10
sS'./pypy-c-36100_richards'
p1060
I10
sS'./pypy-c-39302-objspace-std-withmultidict--prof_pystone'
p1061
I9
sS'./pypy-c-37707-objspace-std-withstrdict--prof_richards'
p1062
I10
sS'./pypy-c-36175-prof--objspace-opcodes-CALL_LIKELY_BUILTIN_pystone'
p1063
I10
sS'./pypy-c-34948_pystone'
p1064
I10
sS'./pypy-llvm-39324-faassen-c_richards'
p1065
I8
sS'./pypy-cli-38651_richards'
p1066
I10
sS'./pypy-c-36893_richards'
p1067
I10
sS'./pypy-llvm-36446-faassen-c_pystone'
p1068
I10
sS'./pypy-cli-36175_pystone'
p1069
I10
sS'./pypy-c-36100-gc=framework--objspace-std-withstrdict--prof_pystone'
p1070
I10
sS'./pypy-c-37084-prof--objspace-opcodes-CALL_LIKELY_BUILTIN_pystone'
p1071
I10
sS'./pypy-llvm-35982-faassen-x86_pystone'
p1072
I10
sS'./pypy-llvm-35183-objspace-std-withstrdict-c-prof_richards'
p1073
I10
sS'./pypy-c-36082-stackless--objspace-std-withstrdict--prof_pystone'
p1074
I10
sS'./pypy-llvm-35906-objspace-opcodes-CALL_LIKELY_BUILTIN-c_richards'
p1075
I10
sS'./pypy-c-38222_pystone'
p1076
I10
sS'./pypy-c-35143-gc=framework--objspace-std-withstrdict--prof_pystone'
p1077
I10
sS'./pypy-c-39247-gc=framework--objspace-std-withmultidict--prof_pystone'
p1078
I10
sS'./pypy-c-37454-objspace-std-withstrdict--prof_pystone'
p1079
I10
sS'./pypy-c-35010-gc=framework--objspace-std-withstrdict--prof_pystone'
p1080
I10
sS'./pypy-c-35982-objspace-std-withstrdict--prof_pystone'
p1081
I10
sS'./pypy-cli-38140_richards'
p1082
I10
sS'./pypy-c-35010-stackless--objspace-std-withstrdict--prof_pystone'
p1083
I10
sS'./pypy-llvm-39188-faassen-x86_richards'
p1084
I10
sS'./pypy-c-38651-objspace-std-withfastslice_pystone'
p1085
I10
sS'./pypy-c-39617-objspace-std-withfastslice_pystone'
p1086
I2
sS'./pypy-llvm-39324-faassen-x86_pystone'
p1087
I8
sS'./pypy-llvm-39147-faassen-c_richards'
p1088
I10
sS'./pypy-c-38529-objspace-std-withfastslice_pystone'
p1089
I10
sS'./pypy-c-36113-objspace-std-withstrdict--prof_pystone'
p1090
I10
sS'./pypy-c-35463-gc=framework--objspace-std-withstrdict--prof_richards'
p1091
I10
sS'./pypy-llvm-35771-objspace-std-withstrdict-c_richards'
p1092
I10
sS'./pypy-c-36628-prof--objspace-opcodes-CALL_LIKELY_BUILTIN_richards'
p1093
I10
sS'./pypy-c-36790_pystone'
p1094
I10
sS'./pypy-c-35277-gc=framework--objspace-std-withstrdict--prof_pystone'
p1095
I10
sS'./pypy-c-36009-gc=framework--objspace-std-withstrdict--prof_pystone'
p1096
I10
sS'./pypy-cli-35906_pystone'
p1097
I10
sS'./pypy-llvm-35771-objspace-std-withstrdict-x86_pystone'
p1098
I10
sS'./pypy-c-35658-gc=framework--objspace-std-withstrdict--prof_pystone'
p1099
I10
sS'./pypy-c-39348-objspace-std-withmultidict--prof_richards'
p1100
I7
sS'./pypy-c-36136-stackless--objspace-std-withstrdict--prof_richards'
p1101
I10
sS'./pypy-c-38140-objspace-std-withstrdict--prof_pystone'
p1102
I10
sS'./pypy-llvm-36136-faassen-c_richards'
p1103
I10
sS'./pypy-c-39474-gc=framework--objspace-std-withmultidict--prof_richards'
p1104
I4
sS'./pypy-cli-37163_richards'
p1105
I10
sS'./pypy-c-37454-stackless--objspace-std-withstrdict--prof_richards'
p1106
I10
sS'./pypy-llvm-35968-faassen-c_richards'
p1107
I10
sS'./pypy-c-35609_pystone'
p1108
I10
sS'./pypy-llvm-36136-faassen-c-prof_richards'
p1109
I10
sS'./pypy-c-34593-gc=framework_richards'
p1110
I10
sS'./pypy-llvm-39646-faassen-x86_pystone'
p1111
I1
sS'./pypy-cli-38769_richards'
p1112
I10
sS'./pypy-c-39218-objspace-std-withmultidict--prof_pystone'
p1113
I10
sS'./pypy-c-35988-objspace-std-withstrdict--prof_pystone'
p1114
I10
sS'./pypy-llvm-unknown-objspace-std-withstrdict-c_pystone'
p1115
I7
sS'./pypy-c-39324-stackless--objspace-std-withmultidict--prof_richards'
p1116
I8
sS'./pypy-c-37707-stackless--objspace-std-withstrdict--prof_richards'
p1117
I10
sS'./pypy-c-37163-objspace-std-withstrdict--prof_richards'
p1118
I10
sS'./pypy-c-39072-faassen_pystone'
p1119
I10
sS'./pypy-c-37707_richards'
p1120
I10
sS'./pypy-c-39188-faassen_richards'
p1121
I10
sS'./pypy-c-37647-objspace-std-withstrdict--prof_pystone'
p1122
I10
sS'./pypy-c-36158_pystone'
p1123
I10
sS'./pypy-c-38140-faassen_richards'
p1124
I10
sS'./pypy-llvm-39147-faassen-c_pystone'
p1125
I10
sS'./pypy-c-36859_richards'
p1126
I10
sS'./pypy-c-38994-objspace-std-withmultidict--prof_richards'
p1127
I10
sS'./pypy-llvm-35065-objspace-std-withstrdict-c-prof_pystone'
p1128
I10
sS'./pypy-c-35968-stackless--objspace-std-withstrdict--prof_pystone'
p1129
I10
sS'./pypy-c-unknown-gc=framework--objspace-std-withstrdict--prof_richards'
p1130
I2
sS'./pypy-c-35463_pystone'
p1131
I10
sS'./pypy-c-39218-objspace-std-withfastslice_richards'
p1132
I10
sS'./pypy-c-36158-prof--objspace-opcodes-CALL_LIKELY_BUILTIN_pystone'
p1133
I10
sS'./pypy-c-38435_richards'
p1134
I10
sS'./pypy-cli-35512_richards'
p1135
I6
sS'./pypy-c-37367-faassen_richards'
p1136
I10
sS'./pypy-c-37243_richards'
p1137
I10
sS'./pypy-c-39188_pystone'
p1138
I10
sS'./pypy-c-37084-stackless--objspace-std-withstrdict--prof_richards'
p1139
I10
sS'./pypy-c-36344-prof--objspace-opcodes-CALL_LIKELY_BUILTIN_richards'
p1140
I10
sS'./pypy-llvm-35143-objspace-std-withstrdict-c-prof_pystone'
p1141
I10
sS'./pypy-c-36220_pystone'
p1142
I10
sS'./pypy-c-36395-stackless--objspace-std-withstrdict--prof_richards'
p1143
I10
sS'./pypy-c-34593-thread--objspace-std-withstrdict--prof_richards'
p1144
I10
sS'./pypy-llvm-36539-faassen-c-prof_pystone'
p1145
I10
sS'./pypy-cli-37044_pystone'
p1146
I10
sS'./pypy-c-35979-gc=framework--objspace-std-withstrdict--prof_pystone'
p1147
I10
sS'./pypy-c-39302-gc=framework--objspace-std-withmultidict--prof_pystone'
p1148
I9
sS'./pypy-llvm-36113-faassen-c_pystone'
p1149
I10
sS'./pypy-cli-37111_pystone'
p1150
I10
sS'./pypy-c-36030-objspace-std-withstrdict--prof_richards'
p1151
I10
sS'./pypy-c-35713_richards'
p1152
I10
sS'./pypy-c-35183-gc=framework--objspace-std-withstrdict--prof_pystone'
p1153
I10
sS'./pypy-c-37575-gc=framework--objspace-std-withstrdict--prof_pystone'
p1154
I10
sS'./pypy-llvm-35837-objspace-std-withstrdict-c_richards'
p1155
I10
sS'./pypy-llvm-36009-faassen-c-prof_richards'
p1156
I10
sS'./pypy-llvm-39617-faassen-c-prof_richards'
p1157
I2
sS'./pypy-c-35963-prof--objspace-opcodes-CALL_LIKELY_BUILTIN_pystone'
p1158
I10
sS'./pypy-c-37503-objspace-std-withstrdict--prof_pystone'
p1159
I10
sS'2.4.4_richards'
p1160
I10
sS'./pypy-c-38651-objspace-std-withstrdict--prof_richards'
p1161
I10
sS'./pypy-llvm-34976-objspace-std-withstrdict-x86_pystone'
p1162
I10
sS'./pypy-llvm-36100-faassen-x86_pystone'
p1163
I10
sS'./pypy-c-37044-gc=framework--objspace-std-withstrdict--prof_pystone'
p1164
I10
sS'./pypy-llvm-39302-faassen-c_pystone'
p1165
I9
sS'./pypy-llvm-35771-objspace-std-withstrdict-c-prof_pystone'
p1166
I10
sS'./pypy-c-36009-prof--objspace-opcodes-CALL_LIKELY_BUILTIN_richards'
p1167
I10
sS'./pypy-llvm-36158-faassen-x86_pystone'
p1168
I10
sS'./pypy-c-35963-stackless--objspace-std-withstrdict--prof_richards'
p1169
I10
sS'./pypy-c-37782-gc=framework--objspace-std-withstrdict--prof_richards'
p1170
I10
sS'./pypy-c-37647-faassen_pystone'
p1171
I10
sS'./pypy-c-35713-gc=framework--objspace-std-withstrdict--prof_pystone'
p1172
I10
sS'./pypy-c-36136-gc=framework--objspace-std-withstrdict--prof_richards'
p1173
I10
sS'./pypy-c-39617-objspace-std-withfastslice_richards'
p1174
I2
sS'./pypy-c-39646-gc=framework--objspace-std-withmultidict--prof_richards'
p1175
I1
sS'./pypy-c-36082_richards'
p1176
I10
sS'./pypy-c-37243-gc=framework--objspace-std-withstrdict--prof_richards'
p1177
I10
sS'./pypy-c-39324_pystone'
p1178
I8
sS'./pypy-c-35906-objspace-std-withstrdict--prof_richards'
p1179
I10
sS'./pypy-llvm-38870-faassen-c-prof_pystone'
p1180
I10
sS'./pypy-c-36539-prof--objspace-opcodes-CALL_LIKELY_BUILTIN_pystone'
p1181
I10
sS'./pypy-c-36100-objspace-std-withstrdict--prof_richards'
p1182
I10
sS'./pypy-c-35837-objspace-std-withstrdict--prof_pystone'
p1183
I10
sS'./pypy-c-39302-gc=framework--objspace-std-withmultidict--prof_richards'
p1184
I9
sS'./pypy-llvm-36066-faassen-c_richards'
p1185
I10
sS'./pypy-llvm-39547-faassen-c_richards'
p1186
I3
sS'./pypy-llvm-35906-objspace-std-withstrdict-c_pystone'
p1187
I10
sS'./pypy-llvm-39348-faassen-x86_pystone'
p1188
I7
sS'./pypy-c-35963-objspace-std-withstrdict--prof_pystone'
p1189
I10
sS'./pypy-c-unknown-gc=framework--objspace-std-withstrdict--prof_pystone'
p1190
I2
sS'./pypy-c-36052_pystone'
p1191
I10
sS'./pypy-c-39302-stackless--objspace-std-withmultidict--prof_pystone'
p1192
I9
sS'./pypy-llvm-38769-faassen-c-prof_richards'
p1193
I10
sS'./pypy-cli-38870_richards'
p1194
I10
sS'./pypy-llvm-35837-objspace-std-withstrdict-c-prof_richards'
p1195
I10
sS'./pypy-llvm-36344-faassen-c-prof_richards'
p1196
I10
sS'./pypy-llvm-36030-faassen-c_pystone'
p1197
I10
sS'./pypy-c-37647_richards'
p1198
I10
sS'./pypy-cli-36220_richards'
p1199
I10
sS'./pypy-c-37044-stackless--objspace-std-withstrdict--prof_richards'
p1200
I10
sS'./pypy-c-38994-prof--objspace-opcodes-CALL_LIKELY_BUILTIN_richards'
p1201
I10
sS'./pypy-llvm-39324-faassen-c-prof_pystone'
p1202
I8
sS'./pypy-c-36066-gc=framework--objspace-std-withstrdict--prof_pystone'
p1203
I10
sS'./pypy-c-36446-gc=framework--objspace-std-withstrdict--prof_pystone'
p1204
I10
sS'./pypy-c-37243-prof--objspace-opcodes-CALL_LIKELY_BUILTIN_pystone'
p1205
I10
sS'./pypy-c-35923-stackless--objspace-std-withstrdict--prof_richards'
p1206
I10
sS'./pypy-c-36052-gc=framework--objspace-std-withstrdict--prof_pystone'
p1207
I10
sS'./pypy-c-39474-faassen_richards'
p1208
I4
sS'./pypy-llvm-36052-faassen-x86_richards'
p1209
I10
sS'./pypy-c-38435-objspace-std-withfastslice_richards'
p1210
I10
sS'./pypy-c-37415-prof--objspace-opcodes-CALL_LIKELY_BUILTIN_pystone'
p1211
I10
sS'./pypy-llvm-35979-faassen-x86_richards'
p1212
I10
sS'./pypy-llvm-36175-faassen-c_pystone'
p1213
I10
sS'./pypy-c-36446-gc=framework--objspace-std-withstrdict--prof_richards'
p1214
I10
sS'./pypy-llvm-35010-objspace-std-withstrdict-c-prof_pystone'
p1215
I10
sS'./pypy-c-35771-stackless--objspace-std-withstrdict--prof_richards'
p1216
I10
sS'./pypy-c-36009-prof--objspace-opcodes-CALL_LIKELY_BUILTIN_pystone'
p1217
I10
sS'./pypy-c-39374_pystone'
p1218
I6
sS'./pypy-llvm-35923-objspace-std-withstrdict-c_pystone'
p1219
I10
sS'./pypy-c-35212-objspace-std-withstrdict--prof_richards'
p1220
I10
sS'./pypy-c-36539-objspace-std-withstrdict--prof_pystone'
p1221
I10
sS'./pypy-c-36395-objspace-std-withstrdict--prof_pystone'
p1222
I10
sS'./pypy-llvm-39188-faassen-c-prof_pystone'
p1223
I10
sS'./pypy-c-37044-stackless--objspace-std-withstrdict--prof_pystone'
p1224
I10
sS'./pypy-c-38651-stackless--objspace-std-withstrdict--prof_pystone'
p1225
I10
sS'./pypy-c-35212-stackless--objspace-std-withstrdict--prof_richards'
p1226
I10
sS'./pypy-llvm-36009-faassen-x86_richards'
p1227
I10
sS'./pypy-llvm-35923-objspace-opcodes-CALL_LIKELY_BUILTIN-c_pystone'
p1228
I10
sS'./pypy-llvm-35837-objspace-std-withstrdict-c_pystone'
p1229
I10
sS'./pypy-llvm-36182-faassen-c_richards'
p1230
I10
sS'./pypy-c-36052-objspace-std-withstrdict--prof_richards'
p1231
I10
sS'./pypy-c-38870_richards'
p1232
I10
sS'./pypy-c-35010-stackless--objspace-std-withstrdict--prof_richards'
p1233
I10
sS'./pypy-c-36790_richards'
p1234
I10
sS'./pypy-cli-37782_richards'
p1235
I10
sS'./pypy-c-35968_pystone'
p1236
I10
sS'./pypy-llvm-36182-faassen-c-prof_pystone'
p1237
I10
sS'./pypy-c-35463-objspace-std-withstrdict--prof_pystone'
p1238
I10
sS'./pypy-cli-37243_richards'
p1239
I10
sS'./pypy-c-35237-gc=framework--objspace-std-withstrdict--prof_pystone'
p1240
I10
sS'./pypy-llvm-36182-faassen-x86_richards'
p1241
I10
sS'./pypy-llvm-35982-faassen-c-prof_pystone'
p1242
I10
sS'./pypy-c-34882-gc=framework--objspace-std-withstrdict--prof_richards'
p1243
I10
sS'./pypy-c-37367-objspace-std-withstrdict--prof_richards'
p1244
I10
sS'./pypy-c-unknown-stackless--objspace-std-withstrdict--prof_pystone'
p1245
I2
sS'./pypy-llvm-36158-faassen-c-prof_pystone'
p1246
I10
sS'./pypy-c-37367-prof--objspace-opcodes-CALL_LIKELY_BUILTIN_pystone'
p1247
I10
sS'./pypy-c-39646-stackless--objspace-std-withmultidict--prof_richards'
p1248
I1
sS'./pypy-cli-36977_richards'
p1249
I10
sS'./pypy-c-39324-stackless--objspace-std-withmultidict--prof_pystone'
p1250
I8
sS'./pypy-c-37647-faassen_richards'
p1251
I10
sS'./pypy-c-36136-stackless--objspace-std-withstrdict--prof_pystone'
p1252
I10
sS'./pypy-c-35963_richards'
p1253
I10
sS'./pypy-llvm-35979-faassen-x86_pystone'
p1254
I10
sS'./pypy-c-37707-stackless--objspace-std-withstrdict--prof_pystone'
p1255
I10
sS'./pypy-c-38435-objspace-std-withfastslice_pystone'
p1256
I10
sS'./pypy-c-38870-faassen_richards'
p1257
I10
sS'./pypy-c-35512-gc=framework--objspace-std-withstrdict--prof_richards'
p1258
I10
sS'./pypy-c-36344-objspace-std-withstrdict--prof_richards'
p1259
I10
sS'./pypy-c-36395_richards'
p1260
I10
sS'./pypy-cli-36030_richards'
p1261
I2
sS'./pypy-llvm-36539-faassen-c_richards'
p1262
I10
sS'./pypy-c-35212-stackless--objspace-std-withstrdict--prof_pystone'
p1263
I10
sS'./pypy-c-36220-objspace-std-withstrdict--prof_richards'
p1264
I10
sS'./pypy-c-38140-gc=framework--objspace-std-withstrdict--prof_pystone'
p1265
I10
sS'./pypy-cli-35544~_pystone'
p1266
I1
sS'./pypy-c-35217-objspace-std-withstrdict--prof_pystone'
p1267
I10
sS'./pypy-c-37084_richards'
p1268
I10
sS'./pypy-c-37707-gc=framework--objspace-std-withstrdict--prof_richards'
p1269
I10
sS'./pypy-llvm-39474-faassen-c_richards'
p1270
I4
sS'./pypy-c-35217-stackless--objspace-std-withstrdict--prof_richards'
p1271
I10
sS'./pypy-c-37084-gc=framework--objspace-std-withstrdict--prof_richards'
p1272
I10
sS'./pypy-c-34927_pystone'
p1273
I10
sS'./pypy-c-39474-stackless--objspace-std-withmultidict--prof_richards'
p1274
I4
sS'./pypy-c-35979-prof--objspace-opcodes-CALL_LIKELY_BUILTIN_pystone'
p1275
I10
sS'./pypy-c-39617-stackless--objspace-std-withmultidict--prof_richards'
p1276
I2
sS'./pypy-c-35988-prof--objspace-opcodes-CALL_LIKELY_BUILTIN_richards'
p1277
I10
sS'./pypy-c-35512-gc=framework--objspace-std-withstrdict--prof_pystone'
p1278
I10
sS'./pypy-llvm-35979-faassen-c-prof_pystone'
p1279
I10
sS'./pypy-llvm-36052-faassen-c_richards'
p1280
I10
sS'./pypy-c-37575_richards'
p1281
I10
sS'./pypy-c-38769-stackless--objspace-std-withstrdict--prof_richards'
p1282
I10
sS'./pypy-c-39474-objspace-std-withmultidict--prof_pystone'
p1283
I4
sS'./pypy-c-unknown_pystone'
p1284
I7
sS'./pypy-llvm-35065-objspace-std-withstrdict-x86_richards'
p1285
I10
sS'./pypy-cli-38334_pystone'
p1286
I10
sS'./pypy-cli-38140_pystone'
p1287
I10
sS'./pypy-llvm-36136-faassen-x86_richards'
p1288
I10
sS'./pypy-c-36977-prof--objspace-opcodes-CALL_LIKELY_BUILTIN_pystone'
p1289
I10
sS'./pypy-c-35923-stackless--prof_pystone'
p1290
I10
sS'./pypy-cli-35557_richards'
p1291
I4
sS'./pypy-llvm-36009-faassen-c_pystone'
p1292
I10
sS'./pypy-c-36136-objspace-std-withstrdict--prof_pystone'
p1293
I10
sS'./pypy-llvm-35095-objspace-std-withstrdict-c-prof_pystone'
p1294
I10
sS'./pypy-llvm-34632-objspace-std-withstrdict-c-prof_pystone'
p1295
I10
sS'./pypy-c-39302-prof--objspace-opcodes-CALL_LIKELY_BUILTIN_richards'
p1296
I9
sS'./pypy-llvm-39646-faassen-x86_richards'
p1297
I1
sS'./pypy-cli-39547_richards'
p1298
I3
sS'./pypy-cli-36628_richards'
p1299
I10
sS'./pypy-cli-36052_richards'
p1300
I10
sS'./pypy-c-36539-gc=framework--objspace-std-withstrdict--prof_pystone'
p1301
I10
sS'./pypy-cli-36220_pystone'
p1302
I10
sS'./pypy-c-39302-faassen_pystone'
p1303
I9
sS'./pypy-llvm-35065-objspace-std-withstrdict-c-prof_richards'
p1304
I10
sS'./pypy-c-38769-gc=framework--objspace-std-withstrdict--prof_pystone'
p1305
I10
sS'./pypy-c-38769-faassen_pystone'
p1306
I10
sS'./pypy-c-36539-stackless--objspace-std-withstrdict--prof_richards'
p1307
I10
sS'./pypy-c-35906-stackless--objspace-std-withstrdict--prof_pystone'
p1308
I10
sS'./pypy-c-38870-prof--objspace-opcodes-CALL_LIKELY_BUILTIN_pystone'
p1309
I10
sS'./pypy-c-37647-objspace-std-withstrdict--prof_richards'
p1310
I10
sS'./pypy-c-37415-objspace-std-withstrdict--prof_richards'
p1311
I10
sS'./pypy-c-38769-objspace-std-withfastslice_pystone'
p1312
I10
sS'./pypy-llvm-38994-faassen-c_richards'
p1313
I10
sS'./pypy-llvm-35010-objspace-std-withstrdict-c-prof_richards'
p1314
I10
sS'./pypy-c-39474-prof--objspace-opcodes-CALL_LIKELY_BUILTIN_pystone'
p1315
I4
sS'./pypy-c-39072-gc=framework--objspace-std-withmultidict--prof_pystone'
p1316
I10
sS'./pypy-c-38140_pystone'
p1317
I10
sS'./pypy-c-35183_richards'
p1318
I10
sS'./pypy-llvm-39072-faassen-c-prof_pystone'
p1319
I10
sS'./pypy-c-37503-prof--objspace-opcodes-CALL_LIKELY_BUILTIN_pystone'
p1320
I10
sS'./pypy-c-37243-faassen_pystone'
p1321
I10
sS'./pypy-c-34927_richards'
p1322
I10
sS'./pypy-c-37163_richards'
p1323
I10
sS'./pypy-c-35988-stackless--objspace-std-withstrdict--prof_richards'
p1324
I10
sS'./pypy-c-37575-stackless--objspace-std-withstrdict--prof_richards'
p1325
I10
sS'./pypy-llvm-36446-faassen-c-prof_pystone'
p1326
I10
sS'./pypy-cli-36082_pystone'
p1327
I10
sS'./pypy-llvm-36052-faassen-c_pystone'
p1328
I10
sS'./pypy-cli-35837_richards'
p1329
I10
sS'./pypy-c-39646_richards'
p1330
I1
sS'./pypy-llvm-35065-objspace-std-withstrdict-x86_pystone'
p1331
I10
sS'./pypy-c-37084_pystone'
p1332
I10
sS'./pypy-c-34976_pystone'
p1333
I10
sS'./pypy-c-37415-faassen_pystone'
p1334
I10
sS'./pypy-c-35217-stackless--objspace-std-withstrdict--prof_pystone'
p1335
I10
sS'./pypy-c-38994-objspace-std-withmultidict--prof_pystone'
p1336
I10
sS'./pypy-c-39348-objspace-std-withfastslice_richards'
p1337
I7
sS'./pypy-cli-36182_pystone'
p1338
I10
sS'./pypy-llvm-39302-faassen-x86_pystone'
p1339
I9
sS'./pypy-c-37454-faassen_pystone'
p1340
I10
sS'./pypy-c-35463-stackless--objspace-std-withstrdict--prof_richards'
p1341
I10
sS'./pypy-c-36113_pystone'
p1342
I10
sS'./pypy-c-37575_pystone'
p1343
I10
sS'./pypy-llvm-35923-objspace-opcodes-CALL_LIKELY_BUILTIN-c-prof_pystone'
p1344
I10
sS'./pypy-c-38870-stackless--objspace-std-withstrdict--prof_pystone'
p1345
I10
sS'./pypy-llvm-35963-faassen-x86_pystone'
p1346
I10
sS'./pypy-c-38651-faassen_richards'
p1347
I10
sS'./pypy-c-36220-stackless--objspace-std-withstrdict--prof_richards'
p1348
I10
sS'./pypy-llvm-36220-faassen-c_pystone'
p1349
I10
sS'./pypy-llvm-36175-faassen-x86_richards'
p1350
I10
sS'./pypy-c-35095-gc=framework--objspace-std-withstrdict--prof_richards'
p1351
I10
sS'./pypy-cli-36344_pystone'
p1352
I10
sS'./pypy-c-35824-stackless--objspace-std-withstrdict--prof_richards'
p1353
I10
sS'./pypy-c-35944-objspace-std-withstrdict--prof_richards'
p1354
I10
sS'./pypy-c-39324-objspace-std-withmultidict--prof_richards'
p1355
I8
sS'./pypy-llvm-39218-faassen-c-prof_pystone'
p1356
I10
sS'./pypy-c-35968-gc=framework--objspace-std-withstrdict--prof_richards'
p1357
I10
sS'./pypy-c-37243-stackless--objspace-std-withstrdict--prof_richards'
p1358
I10
sS'./pypy-cli-36893_richards'
p1359
I10
sS'./pypy-c-36100-prof--objspace-opcodes-CALL_LIKELY_BUILTIN_richards'
p1360
I10
sS'./pypy-c-38870-gc=framework--objspace-std-withstrdict--prof_pystone'
p1361
I10
sS'./pypy-c-39072-stackless--objspace-std-withmultidict--prof_pystone'
p1362
I10
sS'./pypy-llvm-35944-faassen-c_richards'
p1363
I10
sS'./pypy-c-39247_richards'
p1364
I10
sS'./pypy-c-39324-prof--objspace-opcodes-CALL_LIKELY_BUILTIN_pystone'
p1365
I8
sS'./pypy-c-37163-gc=framework--objspace-std-withstrdict--prof_pystone'
p1366
I10
sS'./pypy-cli-36859_pystone'
p1367
I10
sS'./pypy-c-37084-stackless--objspace-std-withstrdict--prof_pystone'
p1368
I10
sS'./pypy-cli-36030_pystone'
p1369
I2
sS'./pypy-c-37163-prof--objspace-opcodes-CALL_LIKELY_BUILTIN_pystone'
p1370
I10
sS'./pypy-c-36100-prof--objspace-opcodes-CALL_LIKELY_BUILTIN_pystone'
p1371
I10
sS'./pypy-c-37310-stackless--objspace-std-withstrdict--prof_pystone'
p1372
I10
sS'./pypy-llvm-39547-faassen-x86_richards'
p1373
I3
sS'./pypy-c-37454-gc=framework--objspace-std-withstrdict--prof_pystone'
p1374
I10
sS'./pypy-c-39547-faassen_richards'
p1375
I3
sS'./pypy-llvm-36066-faassen-x86_pystone'
p1376
I10
sS'./pypy-c-36446-stackless--objspace-std-withstrdict--prof_pystone'
p1377
I10
sS'./pypy-c-36175-gc=framework--objspace-std-withstrdict--prof_pystone'
p1378
I10
sS'./pypy-c-35982-stackless--objspace-std-withstrdict--prof_pystone'
p1379
I10
sS'./pypy-c-38769-objspace-std-withstrdict--prof_pystone'
p1380
I10
sS'./pypy-cli-36893_pystone'
p1381
I10
sS'./pypy-c-35463-gc=framework--objspace-std-withstrdict--prof_pystone'
p1382
I10
sS'./pypy-c-37111-objspace-std-withstrdict--prof_richards'
p1383
I10
sS'./pypy-c-34882_richards'
p1384
I10
sS'./pypy-c-35065-gc=framework--objspace-std-withstrdict--prof_richards'
p1385
I10
sS'./pypy-c-37503-faassen_richards'
p1386
I10
sS'./pypy-c-34976-gc=framework--objspace-std-withstrdict--prof_richards'
p1387
I10
sS'./pypy-llvm-36066-faassen-c_pystone'
p1388
I10
sS'./pypy-llvm-36344-faassen-x86_richards'
p1389
I10
sS'./pypy-c-35982-stackless--objspace-std-withstrdict--prof_richards'
p1390
I10
sS'./pypy-llvm-36052-faassen-c-prof_richards'
p1391
I10
sS'./pypy-c-39646-objspace-std-withfastslice_pystone'
p1392
I1
sS'./pypy-c-35923-prof--objspace-opcodes-CALL_LIKELY_BUILTIN_richards'
p1393
I10
sS'./pypy-c-35143-stackless--objspace-std-withstrdict--prof_richards'
p1394
I10
sS'./pypy-cli-36100_richards'
p1395
I10
sS'./pypy-c-35988_richards'
p1396
I10
sS'./pypy-c-37782-objspace-std-withstrdict--prof_richards'
p1397
I10
sS'./pypy-c-35411-gc=framework--objspace-std-withstrdict--prof_richards'
p1398
I10
sS'./pypy-c-39646-objspace-std-withmultidict--prof_pystone'
p1399
I1
sS'./pypy-c-35010_pystone'
p1400
I10
sS'./pypy-c-36395-prof--objspace-opcodes-CALL_LIKELY_BUILTIN_richards'
p1401
I10
sS'./pypy-c-37454-faassen_richards'
p1402
I10
sS'./pypy-llvm-39247-faassen-c_richards'
p1403
I10
sS'./pypy-c-36893-prof--objspace-opcodes-CALL_LIKELY_BUILTIN_richards'
p1404
I10
s.(dp0
S'./pypy-cli-35609_pystone'
p1
F480.43788107792199
sS'./pypy-c-39324-faassen_richards'
p2
F2163.3800000000001
sS'./pypy-c-39302-faassen_richards'
p3
F2204.3400000000001
sS'./pypy-c-37044_richards'
p4
F5441.2200000000003
sS'./pypy-c-36395-prof--objspace-opcodes-CALL_LIKELY_BUILTIN_pystone'
p5
F10000.0
sS'./pypy-llvm-35010-objspace-std-withstrdict-x86_pystone'
p6
F8375.2099999999991
sS'./pypy-llvm-39247-faassen-c-prof_pystone'
p7
F18181.799999999999
sS'./pypy-llvm-35824-objspace-std-withstrdict-x86_richards'
p8
F2869.4499999999998
sS'./pypy-c-35463-stackless--objspace-std-withstrdict--prof_pystone'
p9
F8116.8800000000001
sS'./pypy-llvm-36066-faassen-x86_richards'
p10
F3409.7199999999998
sS'./pypy-llvm-35010-objspace-std-withstrdict-c_richards'
p11
F3994.3000000000002
sS'./pypy-c-36446-objspace-std-withstrdict--prof_richards'
p12
F3312.4299999999998
sS'./pypy-c-36628-stackless--objspace-std-withstrdict--prof_pystone'
p13
F9328.3600000000006
sS'./pypy-c-36344_richards'
p14
F5303.1499999999996
sS'./pypy-c-36030_richards'
p15
F4965.9300000000003
sS'./pypy-c-37415-prof--objspace-opcodes-CALL_LIKELY_BUILTIN_richards'
p16
F3237.46
sS'./pypy-c-38651-prof--objspace-opcodes-CALL_LIKELY_BUILTIN_richards'
p17
F2820.9200000000001
sS'./pypy-c-35557_pystone'
p18
F7022.4700000000003
sS'./pypy-llvm-36009-faassen-c-prof_pystone'
p19
F15290.5
sS'./pypy-c-38529-objspace-std-withstrdict--prof_richards'
p20
F2981.4099999999999
sS'./pypy-c-36158-stackless--objspace-std-withstrdict--prof_richards'
p21
F3810.1300000000001
sS'./pypy-c-35906-gc=framework--objspace-std-withstrdict--prof_pystone'
p22
F10020.0
sS'./pypy-llvm-35065-objspace-std-withstrdict-c_richards'
p23
F99999.0
sS'./pypy-cli-35544_richards'
p24
F68798.592090606704
sS'./pypy-c-35944-objspace-std-withstrdict--prof_pystone'
p25
F9803.9200000000001
sS'./pypy-c-39218-objspace-std-withfastslice_pystone'
p26
F7062.1499999999996
sS'./pypy-llvm-36066-faassen-c-prof_richards'
p27
F3215.8600000000001
sS'./pypy-llvm-39348-faassen-c_pystone'
p28
F15974.4
sS'./pypy-c-36859_pystone'
p29
F6944.4399999999996
sS'./pypy-llvm-36082-faassen-c-prof_richards'
p30
F2153.46
sS'./pypy-c-35609-objspace-std-withstrdict--prof_richards'
p31
F3082.2199999999998
sS'./pypy-c-35923_richards'
p32
F5417.9300000000003
sS'./pypy-llvm-35867-objspace-std-withstrdict-c-prof_pystone'
p33
F13054.799999999999
sS'./pypy-c-39374-stackless--objspace-std-withmultidict--prof_richards'
p34
F3256.9099999999999
sS'./pypy-c-39474-objspace-std-withfastslice_pystone'
p35
F6561.6800000000003
sS'./pypy-c-37310-stackless--objspace-std-withstrdict--prof_richards'
p36
F3830.0999999999999
sS'./pypy-llvm-34976-objspace-std-withstrdict-c_pystone'
p37
F8264.4599999999991
sS'./pypy-llvm-35771-objspace-std-withstrdict-c-prof_richards'
p38
F2448.5500000000002
sS'./pypy-c-38994-faassen_richards'
p39
F2125.4400000000001
sS'./pypy-cli-37163_pystone'
p40
F697.26277088013705
sS'./pypy-llvm-35944-faassen-c_pystone'
p41
F14164.299999999999
sS'./pypy-llvm-35837-objspace-std-withstrdict-c-prof_pystone'
p42
F12562.799999999999
sS'./pypy-c-35824-objspace-std-withstrdict--prof_richards'
p43
F3239.0700000000002
sS'./pypy-llvm-38994-faassen-c_pystone'
p44
F15060.200000000001
sS'./pypy-llvm-unknown-objspace-std-withstrdict-c-prof_richards'
p45
F3701.4299999999998
sS'./pypy-llvm-36446-faassen-x86_pystone'
p46
F13262.6
sS'./pypy-c-35837-stackless--objspace-std-withstrdict--prof_pystone'
p47
F9041.5900000000001
sS'./pypy-c-37084-objspace-std-withstrdict--prof_richards'
p48
F3245.5599999999999
sS'./pypy-llvm-35923-objspace-std-withstrdict-x86_richards'
p49
F3085.0500000000002
sS'./pypy-c-39247-prof--objspace-opcodes-CALL_LIKELY_BUILTIN_richards'
p50
F2864.3400000000001
sS'./pypy-c-39072_richards'
p51
F4720.96
sS'./pypy-llvm-36158-faassen-c-prof_richards'
p52
F2190.3800000000001
sS'./pypy-c-35944-stackless--objspace-std-withstrdict--prof_pystone'
p53
F8849.5599999999995
sS'./pypy-c-36182-objspace-std-withstrdict--prof_pystone'
p54
F10266.9
sS'./pypy-c-36113-stackless--objspace-std-withstrdict--prof_pystone'
p55
F9191.1800000000003
sS'./pypy-llvm-35906-objspace-opcodes-CALL_LIKELY_BUILTIN-c_pystone'
p56
F11600.9
sS'./pypy-c-38140-objspace-std-withstrdict--prof_richards'
p57
F3208.6399999999999
sS'./pypy-c-35512-stackless--objspace-std-withstrdict--prof_richards'
p58
F3937.4000000000001
sS'./pypy-c-36113_richards'
p59
F5345.4399999999996
sS'./pypy-c-38870_pystone'
p60
F7142.8599999999997
sS'./pypy-c-35988-gc=framework--objspace-std-withstrdict--prof_richards'
p61
F3156.02
sS'./pypy-llvm-36182-faassen-c_pystone'
p62
F13698.6
sS'./pypy-c-34593-stackless--objspace-std-withstrdict--prof_richards'
p63
F3940.23
sS'./pypy-c-39188-stackless--objspace-std-withmultidict--prof_richards'
p64
F3475.0
sS'./pypy-c-35350_pystone'
p65
F6426.7399999999998
sS'./pypy-c-35277-stackless--objspace-std-withstrdict--prof_richards'
p66
F3993.1900000000001
sS'./pypy-c-35237-gc=framework--objspace-std-withstrdict--prof_richards'
p67
F3633.6700000000001
sS'./pypy-llvm-39247-faassen-c-prof_richards'
p68
F1601.24
sS'./pypy-c-35771-stackless--objspace-std-withstrdict--prof_pystone'
p69
F8880.9899999999998
sS'./pypy-c-37111-prof--objspace-opcodes-CALL_LIKELY_BUILTIN_richards'
p70
F3211.1399999999999
sS'./pypy-c-36977-objspace-std-withstrdict--prof_pystone'
p71
F9560.2299999999996
sS'./pypy-llvm-39324-faassen-c_pystone'
p72
F15723.299999999999
sS'./pypy-c-38140-stackless--objspace-std-withstrdict--prof_pystone'
p73
F9025.2700000000004
sS'./pypy-c-36395-gc=framework--objspace-std-withstrdict--prof_richards'
p74
F3309.6900000000001
sS'./pypy-llvm-35944-faassen-x86_richards'
p75
F2511.1599999999999
sS'./pypy-c-38529-faassen_pystone'
p76
F11820.299999999999
sS'./pypy-llvm-39374-faassen-c-prof_richards'
p77
F1620.52
sS'./pypy-c-35237-stackless--objspace-std-withstrdict--prof_pystone'
p78
F8169.9300000000003
sS'./pypy-llvm-39302-faassen-c-prof_pystone'
p79
F17421.599999999999
sS'./pypy-c-39374-prof--objspace-opcodes-CALL_LIKELY_BUILTIN_richards'
p80
F2875.52
sS'./pypy-c-36082-stackless--objspace-std-withstrdict--prof_richards'
p81
F3272.2399999999998
sS'./pypy-c-36052_richards'
p82
F8364.6499999999996
sS'./pypy-c-38870-objspace-std-withstrdict--prof_richards'
p83
F2885.9200000000001
sS'./pypy-c-35544-gc=framework--objspace-std-withstrdict--prof_richards'
p84
F3371.5100000000002
sS'./pypy-c-35988-stackless--objspace-std-withstrdict--prof_pystone'
p85
F8865.25
sS'./pypy-c-37111-stackless--objspace-std-withstrdict--prof_richards'
p86
F3527.7199999999998
sS'./pypy-llvm-36220-faassen-c-prof_richards'
p87
F2144.21
sS'./pypy-c-36893-objspace-std-withstrdict--prof_pystone'
p88
F9708.7399999999998
sS'./pypy-llvm-39247-faassen-c_pystone'
p89
F15576.299999999999
sS'./pypy-c-34882-objspace-std-withstrdict--prof_pystone'
p90
F8960.5699999999997
sS'./pypy-c-37310-faassen_richards'
p91
F2971.3299999999999
sS'./pypy-c-35713-objspace-std-withstrdict--prof_richards'
p92
F3497.77
sS'./pypy-c-39474-stackless--objspace-std-withmultidict--prof_pystone'
p93
F8771.9300000000003
sS'./pypy-c-36395-gc=framework--objspace-std-withstrdict--prof_pystone'
p94
F9980.0400000000009
sS'./pypy-cli-35713_richards'
p95
F69800.940036773696
sS'./pypy-c-39474_richards'
p96
F4750.5100000000002
sS'./pypy-llvm-39247-faassen-x86_pystone'
p97
F14662.799999999999
sS'./pypy-c-35944-prof--objspace-opcodes-CALL_LIKELY_BUILTIN_richards'
p98
F3333.3899999999999
sS'./pypy-llvm-36082-faassen-x86_pystone'
p99
F12165.5
sS'./pypy-llvm-35982-faassen-x86_richards'
p100
F2548.54
sS'./pypy-c-39547-prof--objspace-opcodes-CALL_LIKELY_BUILTIN_pystone'
p101
F10706.6
sS'./pypy-c-35837-stackless--objspace-std-withstrdict--prof_richards'
p102
F3603.8800000000001
sS'./pypy-c-36977_pystone'
p103
F6915.6300000000001
sS'./pypy-c-39218_richards'
p104
F4822.8800000000001
sS'./pypy-c-35923-objspace-std-withstrdict--prof_richards'
p105
F3363.23
sS'./pypy-cli-38529_richards'
p106
F99999.0
sS'./pypy-c-39324_richards'
p107
F4939.8299999999999
sS'./pypy-c-37454-objspace-std-withstrdict--prof_richards'
p108
F3224.0100000000002
sS'./pypy-c-39374-stackless--objspace-std-withmultidict--prof_pystone'
p109
F9107.4699999999993
sS'./pypy-c-38870-objspace-std-withfastslice_richards'
p110
F4625.29
sS'./pypy-c-34593-objspace-std-withstrdict--prof_richards'
p111
F3363.75
sS'./pypy-llvm-36344-faassen-x86_pystone'
p112
F13587.0
sS'./pypy-c-39218_pystone'
p113
F7122.5100000000002
sS'./pypy-llvm-35963-faassen-c_richards'
p114
F2352.6999999999998
sS'./pypy-c-39547-objspace-std-withfastslice_pystone'
p115
F6839.9499999999998
sS'./pypy-c-36113-gc=framework--objspace-std-withstrdict--prof_pystone'
p116
F10121.5
sS'./pypy-c-34593_richards'
p117
F5630.2700000000004
sS'./pypy-c-36182-stackless--objspace-std-withstrdict--prof_pystone'
p118
F8488.9599999999991
sS'./pypy-c-35350-gc=framework--objspace-std-withstrdict--prof_richards'
p119
F3581.5100000000002
sS'./pypy-llvm-35979-faassen-c-prof_richards'
p120
F2288.0300000000002
sS'./pypy-c-36113-stackless--objspace-std-withstrdict--prof_richards'
p121
F3333.0100000000002
sS'./pypy-c-35824-objspace-std-withstrdict--prof_pystone'
p122
F10020.0
sS'./pypy-c-36175-objspace-std-withstrdict--prof_richards'
p123
F3000.1100000000001
sS'./pypy-c-36158-gc=framework--objspace-std-withstrdict--prof_pystone'
p124
F10020.0
sS'./pypy-llvm-39617-faassen-c-prof_pystone'
p125
F16778.5
sS'./pypy-c-37310-prof--objspace-opcodes-CALL_LIKELY_BUILTIN_richards'
p126
F2949.46
sS'./pypy-llvm-35095-objspace-std-withstrdict-x86_richards'
p127
F99999.0
sS'./pypy-c-39247-faassen_richards'
p128
F2163.8000000000002
sS'./pypy-llvm-35923-objspace-opcodes-CALL_LIKELY_BUILTIN-c-prof_richards'
p129
F2266.0900000000001
sS'./pypy-c-38529-objspace-std-withstrdict--prof_pystone'
p130
F9940.3600000000006
sS'./pypy-cli-36977_pystone'
p131
F702.08866885617203
sS'./pypy-c-38769-prof--objspace-opcodes-CALL_LIKELY_BUILTIN_richards'
p132
F2909.8099999999999
sS'./pypy-c-37367-objspace-std-withstrdict--prof_pystone'
p133
F9523.8099999999995
sS'./pypy-c-36030_pystone'
p134
F7062.1499999999996
sS'./pypy-c-39218-stackless--objspace-std-withmultidict--prof_richards'
p135
F3287.2600000000002
sS'./pypy-c-37415-objspace-std-withstrdict--prof_pystone'
p136
F9451.7999999999993
sS'./pypy-c-36066-objspace-std-withstrdict--prof_pystone'
p137
F6702.4099999999999
sS'./pypy-c-36790-stackless--objspace-std-withstrdict--prof_richards'
p138
F3658.52
sS'./pypy-c-35982-prof--objspace-opcodes-CALL_LIKELY_BUILTIN_richards'
p139
F3270.3200000000002
sS'./pypy-llvm-36220-faassen-x86_pystone'
p140
F12690.4
sS'./pypy-c-36628-gc=framework--objspace-std-withstrdict--prof_richards'
p141
F3584.2399999999998
sS'./pypy-cli-39374_pystone'
p142
F639.99766528851706
sS'./pypy-c-35658-stackless--objspace-std-withstrdict--prof_pystone'
p143
F9074.4099999999999
sS'./pypy-llvm-35867-objspace-std-withstrdict-x86_pystone'
p144
F11933.200000000001
sS'./pypy-cli-37415_pystone'
p145
F687.26849274913195
sS'./pypy-c-35837_richards'
p146
F5359.3599999999997
sS'./pypy-cli-37084_pystone'
p147
F681.52587537023601
sS'./pypy-cli-35923_richards'
p148
F50604.163169860803
sS'./pypy-c-39646_pystone'
p149
F7288.6300000000001
sS'./pypy-llvm-36100-faassen-c-prof_pystone'
p150
F15625.0
sS'./pypy-llvm-35095-objspace-std-withstrdict-c_pystone'
p151
F99999.0
sS'./pypy-llvm-35906-objspace-std-withstrdict-c-prof_richards'
p152
F2547.4499999999998
sS'./pypy-llvm-35143-objspace-std-withstrdict-c_richards'
p153
F99999.0
sS'./pypy-c-37243-objspace-std-withstrdict--prof_pystone'
p154
F9784.7399999999998
sS'./pypy-c-35065-objspace-std-withstrdict--prof_richards'
p155
F3559.6799999999998
sS'./pypy-c-35143_pystone'
p156
F6265.6599999999999
sS'./pypy-c-38222_richards'
p157
F5579.1000000000004
sS'./pypy-c-39547-gc=framework--objspace-std-withmultidict--prof_pystone'
p158
F10288.1
sS'./pypy-c-36009_richards'
p159
F5301.1000000000004
sS'./pypy-llvm-35183-objspace-std-withstrdict-c_richards'
p160
F99999.0
sS'./pypy-c-35512-stackless--objspace-std-withstrdict--prof_pystone'
p161
F7949.1300000000001
sS'./pypy-c-35277-objspace-std-withstrdict--prof_richards'
p162
F3571.1599999999999
sS'./pypy-llvm-36220-faassen-x86_richards'
p163
F2647.5700000000002
sS'./pypy-c-37647-stackless--objspace-std-withstrdict--prof_pystone'
p164
F9057.9699999999993
sS'./pypy-c-36030-objspace-std-withstrdict--prof_pystone'
p165
F9861.9300000000003
sS'./pypy-c-38651-stackless--objspace-std-withstrdict--prof_richards'
p166
F3255.5599999999999
sS'./pypy-c-39072-prof--objspace-opcodes-CALL_LIKELY_BUILTIN_pystone'
p167
F10661.0
sS'./pypy-c-36395-objspace-std-withstrdict--prof_richards'
p168
F3343.9400000000001
sS'./pypy-c-39072-objspace-std-withfastslice_richards'
p169
F4483.6199999999999
sS'./pypy-c-39324-objspace-std-withfastslice_pystone'
p170
F6666.6700000000001
sS'./pypy-cli-36113_richards'
p171
F64548.238992690996
sS'./pypy-c-35217-gc=framework--objspace-std-withstrdict--prof_pystone'
p172
F9451.7999999999993
sS'./pypy-c-35968-stackless--objspace-std-withstrdict--prof_richards'
p173
F3639.0
sS'./pypy-c-36977_richards'
p174
F5172.9399999999996
sS'./pypy-c-36182_pystone'
p175
F6868.1300000000001
sS'./pypy-c-39302-stackless--objspace-std-withmultidict--prof_richards'
p176
F3011.5100000000002
sS'./pypy-llvm-36030-faassen-c-prof_richards'
p177
F2239.5799999999999
sS'./pypy-c-35771-objspace-std-withstrdict--prof_richards'
p178
F3306.9099999999999
sS'./pypy-c-34593-prof_richards'
p179
F5565.46
sS'./pypy-cli-35968_richards'
p180
F50464.357137680097
sS'./pypy-cli-37044_richards'
p181
F47606.956005096399
sS'./pypy-llvm-35982-faassen-c_richards'
p182
F2333.4699999999998
sS'./pypy-c-36100-stackless--objspace-std-withstrdict--prof_pystone'
p183
F9310.9899999999998
sS'./pypy-cli-35906_richards'
p184
F62764.541864395098
sS'./pypy-c-39147-gc=framework--objspace-std-withmultidict--prof_richards'
p185
F3072.96
sS'./pypy-c-39348-gc=framework--objspace-std-withmultidict--prof_pystone'
p186
F10526.299999999999
sS'./pypy-llvm-unknown-objspace-std-withstrdict-c-prof_pystone'
p187
F9057.9699999999993
sS'./pypy-c-35350_richards'
p188
F5494.7700000000004
sS'./pypy-c-34948-objspace-std-withstrdict--prof_pystone'
p189
F7352.9399999999996
sS'./pypy-c-38334_richards'
p190
F5427.0100000000002
sS'./pypy-c-36030-gc=framework--objspace-std-withstrdict--prof_richards'
p191
F3533.0500000000002
sS'./pypy-c-39324-gc=framework--objspace-std-withmultidict--prof_richards'
p192
F3131.52
sS'./pypy-c-35411-objspace-std-withstrdict--prof_pystone'
p193
F8802.8199999999997
sS'./pypy-llvm-38769-faassen-x86_pystone'
p194
F14749.299999999999
sS'./pypy-llvm-34948-objspace-std-withstrdict-c_richards'
p195
F3585.23
sS'./pypy-cli-36790_pystone'
p196
F696.40308780115004
sS'./pypy-llvm-39147-faassen-c-prof_pystone'
p197
F17857.099999999999
sS'./pypy-llvm-36158-faassen-c_pystone'
p198
F13661.200000000001
sS'./pypy-c-37647_pystone'
p199
F6934.8100000000004
sS'./pypy-c-35906-objspace-std-withstrdict--prof_pystone'
p200
F9746.5900000000001
sS'./pypy-llvm-36009-faassen-x86_pystone'
p201
F13192.6
sS'./pypy-c-38140-prof--objspace-opcodes-CALL_LIKELY_BUILTIN_richards'
p202
F3124.3099999999999
sS'./pypy-c-35512_pystone'
p203
F6666.6700000000001
sS'./pypy-c-35713-objspace-std-withstrdict--prof_pystone'
p204
F9523.8099999999995
sS'./pypy-llvm-39147-faassen-x86_richards'
p205
F1857.74
sS'./pypy-cli-35775_richards'
p206
F71631.805896759004
sS'./pypy-c-36628-objspace-std-withstrdict--prof_richards'
p207
F3305.1199999999999
sS'./pypy-c-37647-prof--objspace-opcodes-CALL_LIKELY_BUILTIN_pystone'
p208
F10183.299999999999
sS'./pypy-c-35183-stackless--objspace-std-withstrdict--prof_pystone'
p209
F8116.8800000000001
sS'./pypy-c-37367-gc=framework--objspace-std-withstrdict--prof_pystone'
p210
F10121.5
sS'./pypy-cli-35944_richards'
p211
F50181.558132171602
sS'./pypy-llvm-34976-objspace-std-withstrdict-c_richards'
p212
F4084.9899999999998
sS'./pypy-llvm-39072-faassen-c_richards'
p213
F1866.73
sS'./pypy-llvm-35095-objspace-std-withstrdict-x86_pystone'
p214
F99999.0
sS'./pypy-c-36344-gc=framework--objspace-std-withstrdict--prof_richards'
p215
F3670.3699999999999
sS'./pypy-c-37647-gc=framework--objspace-std-withstrdict--prof_pystone'
p216
F10352.0
sS'./pypy-c-36446-prof--objspace-opcodes-CALL_LIKELY_BUILTIN_pystone'
p217
F10352.0
sS'./pypy-llvm-35183-objspace-std-withstrdict-x86_richards'
p218
F99999.0
sS'./pypy-c-36175_richards'
p219
F5323.5799999999999
sS'./pypy-c-37503-gc=framework--objspace-std-withstrdict--prof_richards'
p220
F3592.4099999999999
sS'./pypy-cli-36790_richards'
p221
F47052.5670051575
sS'./pypy-cli-37243_pystone'
p222
F682.15102190588902
sS'./pypy-c-39218-prof--objspace-opcodes-CALL_LIKELY_BUILTIN_pystone'
p223
F10416.700000000001
sS'./pypy-c-38140_richards'
p224
F5294.0900000000001
sS'./pypy-llvm-35183-objspace-std-withstrdict-x86_pystone'
p225
F99999.0
sS'./pypy-c-35968-prof--objspace-opcodes-CALL_LIKELY_BUILTIN_pystone'
p226
F10224.9
sS'./pypy-c-35609-gc=framework--objspace-std-withstrdict--prof_pystone'
p227
F9920.6299999999992
sS'./pypy-c-36859-objspace-std-withstrdict--prof_pystone'
p228
F9940.3600000000006
sS'./pypy-c-35658-objspace-std-withstrdict--prof_pystone'
p229
F9980.0400000000009
sS'./pypy-c-35544-gc=framework--objspace-std-withstrdict--prof_pystone'
p230
F10204.1
sS'./pypy-llvm-35923-objspace-std-withstrdict-c-prof_pystone'
p231
F13020.799999999999
sS'./pypy-c-36030-stackless--objspace-std-withstrdict--prof_pystone'
p232
F8880.9899999999998
sS'./pypy-c-35237_pystone'
p233
F6273.5299999999997
sS'./pypy-cli-37707_richards'
p234
F47950.798034667998
sS'./pypy-c-37163-gc=framework--objspace-std-withstrdict--prof_richards'
p235
F3431.75
sS'./pypy-c-39247-prof--objspace-opcodes-CALL_LIKELY_BUILTIN_pystone'
p236
F10706.6
sS'./pypy-c-39147-objspace-std-withmultidict--prof_pystone'
p237
F10330.6
sS'./pypy-c-35906-stackless--prof--objspace-opcodes-CALL_LIKELY_BUILTIN_richards'
p238
F3447.9499999999998
sS'./pypy-c-36539-objspace-std-withstrdict--prof_richards'
p239
F3344.1999999999998
sS'./pypy-c-37782-prof--objspace-opcodes-CALL_LIKELY_BUILTIN_pystone'
p240
F10729.6
sS'./pypy-c-35906-stackless--prof--objspace-opcodes-CALL_LIKELY_BUILTIN_pystone'
p241
F9107.4699999999993
sS'./pypy-llvm-39374-faassen-c_richards'
p242
F1850.1900000000001
sS'./pypy-llvm-35988-faassen-c_pystone'
p243
F14164.299999999999
sS'./pypy-c-39218-faassen_richards'
p244
F2169.6799999999998
sS'./pypy-cli-35713~_richards'
p245
F99999.0
sS'./pypy-cli-39247_pystone'
p246
F663.07800011961899
sS'./pypy-c-36790-stackless--objspace-std-withstrdict--prof_pystone'
p247
F8756.5699999999997
sS'./pypy-c-39247-objspace-std-withmultidict--prof_richards'
p248
F2989.1999999999998
sS'./pypy-llvm-35143-objspace-std-withstrdict-c_pystone'
p249
F99999.0
sS'./pypy-c-35237-stackless--objspace-std-withstrdict--prof_richards'
p250
F4002.3600000000001
sS'./pypy-c-39474-objspace-std-withfastslice_richards'
p251
F4874.8699999999999
sS'./pypy-c-37163-objspace-std-withstrdict--prof_pystone'
p252
F9652.5100000000002
sS'./pypy-cli-39348_pystone'
p253
F648.77586763456804
sS'./pypy-llvm-39474-faassen-c-prof_richards'
p254
F1677.78
sS'./pypy-c-36052-stackless--objspace-std-withstrdict--prof_richards'
p255
F5159.8000000000002
sS'./pypy-c-37367-gc=framework--objspace-std-withstrdict--prof_richards'
p256
F3315.9699999999998
sS'./pypy-c-35713_pystone'
p257
F6811.9899999999998
sS'./pypy-c-36893-stackless--objspace-std-withstrdict--prof_pystone'
p258
F8605.8500000000004
sS'./pypy-c-37503-objspace-std-withstrdict--prof_richards'
p259
F3039.1900000000001
sS'./pypy-c-35411-objspace-std-withstrdict--prof_richards'
p260
F3424.8499999999999
sS'./pypy-c-36539-gc=framework--objspace-std-withstrdict--prof_richards'
p261
F3487.7399999999998
sS'./pypy-llvm-35968-faassen-c-prof_pystone'
p262
F15432.1
sS'./pypy-c-35771-gc=framework--objspace-std-withstrdict--prof_pystone'
p263
F9980.0400000000009
sS'./pypy-c-35095-objspace-std-withstrdict--prof_richards'
p264
F3414.73
sS'./pypy-c-39348_pystone'
p265
F7002.8000000000002
sS'./pypy-c-35411-stackless--objspace-std-withstrdict--prof_pystone'
p266
F8025.6800000000003
sS'./pypy-c-35277-objspace-std-withstrdict--prof_pystone'
p267
F8818.3400000000001
sS'./pypy-c-35837-gc=framework--objspace-std-withstrdict--prof_richards'
p268
F3466.5799999999999
sS'./pypy-llvm-39302-faassen-c-prof_richards'
p269
F1632.26
sS'./pypy-c-37367-prof--objspace-opcodes-CALL_LIKELY_BUILTIN_richards'
p270
F3091.3200000000002
sS'./pypy-llvm-35906-objspace-std-withstrdict-c-prof_pystone'
p271
F13297.9
sS'./pypy-llvm-36113-faassen-c-prof_pystone'
p272
F15015.0
sS'./pypy-llvm-35010-objspace-std-withstrdict-x86_richards'
p273
F3921.4899999999998
sS'./pypy-llvm-36136-faassen-c_pystone'
p274
F14367.799999999999
sS'./pypy-c-36790-prof--objspace-opcodes-CALL_LIKELY_BUILTIN_richards'
p275
F3002.54
sS'./pypy-c-37647-gc=framework--objspace-std-withstrdict--prof_richards'
p276
F3406.8200000000002
sS'./pypy-llvm-35906-objspace-opcodes-CALL_LIKELY_BUILTIN-x86_richards'
p277
F3060.73
sS'./pypy-llvm-39072-faassen-c-prof_richards'
p278
F1688.78
sS'./pypy-c-38651_pystone'
p279
F6849.3199999999997
sS'./pypy-llvm-35968-faassen-c_pystone'
p280
F14245.0
sS'./pypy-c-35065_pystone'
p281
F6605.0200000000004
sS'./pypy-cli-35512_pystone'
p282
F475.95074659871102
sS'./pypy-llvm-38994-faassen-c-prof_richards'
p283
F1692.5599999999999
sS'./pypy-llvm-39547-faassen-c-prof_pystone'
p284
F17543.900000000001
sS'./pypy-c-39324-faassen_pystone'
p285
F12953.4
sS'./pypy-c-unknown-objspace-std-withstrdict--prof_richards'
p286
F4425.1999999999998
sS'./pypy-c-36082-gc=framework--objspace-std-withstrdict--prof_pystone'
p287
F9980.0400000000009
sS'./pypy-cli-39147_richards'
p288
F45330.018997192397
sS'./pypy-llvm-36113-faassen-c_richards'
p289
F2387.9099999999999
sS'./pypy-c-39646-stackless--objspace-std-withmultidict--prof_pystone'
p290
F8976.6599999999999
sS'./pypy-c-39547-objspace-std-withfastslice_richards'
p291
F4737.5
sS'./pypy-cli-35979_pystone'
p292
F666.64617840744995
sS'./pypy-cli-35982_richards'
p293
F50194.116830825798
sS'./pypy-llvm-36100-faassen-c_richards'
p294
F2332.8099999999999
sS'./pypy-c-34976_richards'
p295
F6251.3900000000003
sS'./pypy-llvm-36344-faassen-c_richards'
p296
F2353.79
sS'./pypy-c-36158-gc=framework--objspace-std-withstrdict--prof_richards'
p297
F3487.6199999999999
sS'./pypy-c-39617-faassen_richards'
p298
F2148.9899999999998
sS'./pypy-c-36628-objspace-std-withstrdict--prof_pystone'
p299
F9727.6299999999992
sS'./pypy-c-36790-gc=framework--objspace-std-withstrdict--prof_richards'
p300
F3650.3699999999999
sS'./pypy-c-37707-faassen_richards'
p301
F2788.5999999999999
sS'./pypy-c-37367-faassen_pystone'
p302
F10989.0
sS'./pypy-c-35979-stackless--objspace-std-withstrdict--prof_richards'
p303
F3284.21
sS'./pypy-c-36082_pystone'
p304
F6747.6400000000003
sS'./pypy-c-35968_richards'
p305
F5445.1199999999999
sS'./pypy-llvm-39072-faassen-c_pystone'
p306
F15772.9
sS'./pypy-c-35544_pystone'
p307
F6830.6000000000004
sS'./pypy-c-38140-faassen_pystone'
p308
F11494.299999999999
sS'./pypy-cli-39218_pystone'
p309
F657.44864063815203
sS'./pypy-llvm-35963-faassen-c-prof_richards'
p310
F2349.0999999999999
sS'./pypy-c-37243-objspace-std-withstrdict--prof_richards'
p311
F3243.9099999999999
sS'./pypy-c-38994-objspace-std-withfastslice_pystone'
p312
F7541.4799999999996
sS'./pypy-c-39617-gc=framework--objspace-std-withmultidict--prof_pystone'
p313
F9633.9099999999999
sS'./pypy-llvm-35824-objspace-std-withstrdict-c_pystone'
p314
F11961.700000000001
sS'./pypy-c-38651-objspace-std-withfastslice_richards'
p315
F4457.3000000000002
sS'./pypy-c-36175_pystone'
p316
F6622.5200000000004
sS'./pypy-llvm-35824-objspace-std-withstrdict-c_richards'
p317
F2897.25
sS'./pypy-c-36066-stackless--objspace-std-withstrdict--prof_richards'
p318
F5412.5799999999999
sS'./pypy-llvm-35968-faassen-x86_pystone'
p319
F13812.200000000001
sS'./pypy-llvm-35923-objspace-opcodes-CALL_LIKELY_BUILTIN-x86_richards'
p320
F2874.4099999999999
sS'./pypy-llvm-39374-faassen-c-prof_pystone'
p321
F18382.400000000001
sS'./pypy-llvm-35923-objspace-opcodes-CALL_LIKELY_BUILTIN-c_richards'
p322
F2575.5100000000002
sS'./pypy-c-37111-stackless--objspace-std-withstrdict--prof_pystone'
p323
F8665.5100000000002
sS'./pypy-llvm-38870-faassen-x86_richards'
p324
F1931.53
sS'./pypy-llvm-36100-faassen-x86_richards'
p325
F2427.0100000000002
sS'./pypy-c-35544_richards'
p326
F5301.6300000000001
sS'./pypy-c-36344_pystone'
p327
F6587.6199999999999
sS'./pypy-c-36066-gc=framework--objspace-std-withstrdict--prof_richards'
p328
F4784.4899999999998
sS'./pypy-c-39646-gc=framework--objspace-std-withmultidict--prof_pystone'
p329
F10330.6
sS'./pypy-llvm-36082-faassen-c-prof_pystone'
p330
F15384.6
sS'./pypy-cli-39302_pystone'
p331
F641.46991651063797
sS'./pypy-llvm-36030-faassen-x86_richards'
p332
F2687.0700000000002
sS'./pypy-llvm-38769-faassen-c_pystone'
p333
F15822.799999999999
sS'./pypy-c-35411_richards'
p334
F5426.3599999999997
sS'./pypy-llvm-35906-objspace-opcodes-CALL_LIKELY_BUILTIN-c-prof_richards'
p335
F2577.6599999999999
sS'./pypy-c-36539-prof--objspace-opcodes-CALL_LIKELY_BUILTIN_richards'
p336
F3197.9400000000001
sS'./pypy-c-36344-stackless--objspace-std-withstrdict--prof_pystone'
p337
F8771.9300000000003
sS'./pypy-c-35277_richards'
p338
F5188.75
sS'./pypy-c-39147-faassen_richards'
p339
F2154.3200000000002
sS'./pypy-c-35771_richards'
p340
F5289.7200000000003
sS'./pypy-c-36175-objspace-std-withstrdict--prof_pystone'
p341
F10288.1
sS'./pypy-c-34593-prof_pystone'
p342
F6426.7399999999998
sS'./pypy-llvm-39324-faassen-c-prof_richards'
p343
F1656.8399999999999
sS'./pypy-c-35982-objspace-std-withstrdict--prof_richards'
p344
F3274.3699999999999
sS'./pypy-cli-37111_richards'
p345
F47068.382024765
sS'./pypy-c-35065-stackless--objspace-std-withstrdict--prof_richards'
p346
F3958.4699999999998
sS'./pypy-c-39147-stackless--objspace-std-withmultidict--prof_richards'
p347
F3161.4899999999998
sS'./pypy-c-39617-prof--objspace-opcodes-CALL_LIKELY_BUILTIN_pystone'
p348
F9861.9300000000003
sS'./pypy-c-34593-stackless_richards'
p349
F6129.8500000000004
sS'./pypy-c-36977-objspace-std-withstrdict--prof_richards'
p350
F3268.1100000000001
sS'./pypy-c-36082-objspace-std-withstrdict--prof_richards'
p351
F3246.6599999999999
sS'./pypy-c-35010_richards'
p352
F6540.8900000000003
sS'./pypy-llvm-35923-objspace-opcodes-CALL_LIKELY_BUILTIN-x86_pystone'
p353
F11061.9
sS'./pypy-c-36009-stackless--objspace-std-withstrdict--prof_richards'
p354
F3704.48
sS'./pypy-c-38994-gc=framework--objspace-std-withmultidict--prof_pystone'
p355
F10548.5
sS'./pypy-c-38651-faassen_pystone'
p356
F12019.200000000001
sS'./pypy-c-39072-objspace-std-withfastslice_pystone'
p357
F7235.8900000000003
sS'./pypy-c-35143-objspace-std-withstrdict--prof_pystone'
p358
F9009.0100000000002
sS'./pypy-llvm-39324-faassen-x86_richards'
p359
F1854.3800000000001
sS'./pypy-c-35867_pystone'
p360
F6369.4300000000003
sS'./pypy-c-34927-objspace-std-withstrdict--prof_richards'
p361
F4373.1300000000001
sS'./pypy-c-34976-stackless--objspace-std-withstrdict--prof_pystone'
p362
F6443.3000000000002
sS'./pypy-c-39374-prof--objspace-opcodes-CALL_LIKELY_BUILTIN_pystone'
p363
F10683.799999999999
sS'./pypy-c-35143-gc=framework--objspace-std-withstrdict--prof_richards'
p364
F3606.5100000000002
sS'./pypy-cli-36175_richards'
p365
F62573.691129684397
sS'./pypy-c-39474-faassen_pystone'
p366
F13587.0
sS'./pypy-c-38435_pystone'
p367
F6297.2299999999996
sS'./pypy-c-37782-prof--objspace-opcodes-CALL_LIKELY_BUILTIN_richards'
p368
F2911.5500000000002
sS'./pypy-c-39547_richards'
p369
F5191.0600000000004
sS'./pypy-llvm-35713-objspace-std-withstrdict-x86_richards'
p370
F2898.52
sS'./pypy-llvm-35837-objspace-std-withstrdict-x86_richards'
p371
F2941.1900000000001
sS'./pypy-c-37415-gc=framework--objspace-std-withstrdict--prof_richards'
p372
F3569.8600000000001
sS'./pypy-llvm-35923-objspace-std-withstrdict-c-prof_richards'
p373
F2451.1199999999999
sS'./pypy-c-39617-prof--objspace-opcodes-CALL_LIKELY_BUILTIN_richards'
p374
F2972.23
sS'./pypy-c-35713-gc=framework--objspace-std-withstrdict--prof_richards'
p375
F3132.02
sS'./pypy-c-35658-objspace-std-withstrdict--prof_richards'
p376
F3095.02
sS'./pypy-llvm-39374-faassen-c_pystone'
p377
F15772.9
sS'./pypy-cli-35923_pystone'
p378
F666.70796700286303
sS'./pypy-c-36628_richards'
p379
F5305.3400000000001
sS'./pypy-cli-37367_pystone'
p380
F690.97227039834399
sS'./pypy-c-39324-prof--objspace-opcodes-CALL_LIKELY_BUILTIN_richards'
p381
F2775.9099999999999
sS'./pypy-c-34593_pystone'
p382
F6393.8599999999997
sS'./pypy-c-36175-stackless--objspace-std-withstrdict--prof_richards'
p383
F3836.8099999999999
sS'./pypy-cli-36113_pystone'
p384
F544.21402047914398
sS'./pypy-c-35923-gc=framework--objspace-std-withstrdict--prof_pystone'
p385
F10266.9
sS'./pypy-c-35824-gc=framework--objspace-std-withstrdict--prof_richards'
p386
F3436.1500000000001
sS'./pypy-llvm-36113-faassen-x86_richards'
p387
F2556.0100000000002
sS'./pypy-c-39547-faassen_pystone'
p388
F13192.6
sS'./pypy-c-38769-prof--objspace-opcodes-CALL_LIKELY_BUILTIN_pystone'
p389
F10183.299999999999
sS'./pypy-c-35557-objspace-std-withstrdict--prof_richards'
p390
F2958.96
sS'./pypy-c-36009-objspace-std-withstrdict--prof_richards'
p391
F3260.0599999999999
sS'./pypy-c-37647-prof--objspace-opcodes-CALL_LIKELY_BUILTIN_richards'
p392
F3095.21
sS'./pypy-c-35183-stackless--objspace-std-withstrdict--prof_richards'
p393
F4043.8200000000002
sS'./pypy-c-37454-prof--objspace-opcodes-CALL_LIKELY_BUILTIN_richards'
p394
F3264.0900000000001
sS'./pypy-c-39188-prof--objspace-opcodes-CALL_LIKELY_BUILTIN_pystone'
p395
F10183.299999999999
sS'./pypy-c-35658_richards'
p396
F5354.2299999999996
sS'./pypy-cli-37647_pystone'
p397
F703.90901936505804
sS'./pypy-c-39374-gc=framework--objspace-std-withmultidict--prof_pystone'
p398
F10504.200000000001
sS'./pypy-c-36220_richards'
p399
F5279.2700000000004
sS'./pypy-cli-39324_richards'
p400
F47383.9371204376
sS'./pypy-c-39147-prof--objspace-opcodes-CALL_LIKELY_BUILTIN_pystone'
p401
F10706.6
sS'./pypy-llvm-36344-faassen-c-prof_pystone'
p402
F15822.799999999999
sS'./pypy-c-36628-stackless--objspace-std-withstrdict--prof_richards'
p403
F3321.23
sS'./pypy-c-39147-objspace-std-withmultidict--prof_richards'
p404
F3038.21
sS'./pypy-llvm-unknown-objspace-std-withstrdict-c_richards'
p405
F4184.46
sS'./pypy-cli-35968_pystone'
p406
F658.81729777520695
sS'./pypy-cli-35713_pystone'
p407
F482.26100781728701
sS'./pypy-c-36100-gc=framework--objspace-std-withstrdict--prof_richards'
p408
F3497.3400000000001
sS'./pypy-c-37454-stackless--objspace-std-withstrdict--prof_pystone'
p409
F8576.3299999999999
sS'./pypy-llvm-38994-faassen-x86_pystone'
p410
F14084.5
sS'./pypy-c-39324-gc=framework--objspace-std-withmultidict--prof_pystone'
p411
F10615.700000000001
sS'./pypy-cli-36082_richards'
p412
F62594.981908798203
sS'./pypy-c-36066-objspace-std-withstrdict--prof_richards'
p413
F5167.9899999999998
sS'./pypy-c-35982-prof--objspace-opcodes-CALL_LIKELY_BUILTIN_pystone'
p414
F9960.1599999999999
sS'./pypy-llvm-39617-faassen-c_richards'
p415
F1632.1099999999999
sS'./pypy-c-35411-gc=framework--objspace-std-withstrdict--prof_pystone'
p416
F9363.2999999999993
sS'./pypy-llvm-38870-faassen-c_pystone'
p417
F15528.0
sS'./pypy-c-35277-gc=framework--objspace-std-withstrdict--prof_richards'
p418
F3360.8600000000001
sS'./pypy-cli-35544~_richards'
p419
F96284.034013748198
sS'./pypy-c-37707-faassen_pystone'
p420
F11520.700000000001
sS'./pypy-c-36100-objspace-std-withstrdict--prof_pystone'
p421
F9920.6299999999992
sS'./pypy-c-36052-prof--objspace-opcodes-CALL_LIKELY_BUILTIN_pystone'
p422
F6587.6199999999999
sS'./pypy-c-36790-prof--objspace-opcodes-CALL_LIKELY_BUILTIN_pystone'
p423
F10204.1
sS'./pypy-llvm-39646-faassen-c_richards'
p424
F1576.0899999999999
sS'./pypy-c-39247-faassen_pystone'
p425
F13192.6
sS'./pypy-llvm-39474-faassen-x86_pystone'
p426
F14836.799999999999
sS'./pypy-llvm-36344-faassen-c_pystone'
p427
F14084.5
sS'./pypy-c-36220-gc=framework--objspace-std-withstrdict--prof_pystone'
p428
F9980.0400000000009
sS'./pypy-cli-35609_richards'
p429
F68936.759948730498
sS'./pypy-c-36030-stackless--objspace-std-withstrdict--prof_richards'
p430
F3665.6199999999999
sS'./pypy-c-35979-objspace-std-withstrdict--prof_pystone'
p431
F9823.1800000000003
sS'./pypy-c-36344-objspace-std-withstrdict--prof_pystone'
p432
F9784.7399999999998
sS'./pypy-c-37782_pystone'
p433
F6459.9499999999998
sS'./pypy-c-35277-stackless--objspace-std-withstrdict--prof_pystone'
p434
F7861.6400000000003
sS'./pypy-c-39374-faassen_richards'
p435
F2164.6900000000001
sS'./pypy-llvm-35988-faassen-x86_pystone'
p436
F13369.0
sS'./pypy-c-34593-stackless--objspace-std-withstrdict--prof_pystone'
p437
F8375.2099999999991
sS'./pypy-c-37310-prof--objspace-opcodes-CALL_LIKELY_BUILTIN_pystone'
p438
F10183.299999999999
sS'./pypy-llvm-35183-objspace-std-withstrdict-c_pystone'
p439
F99999.0
sS'./pypy-llvm-38769-faassen-x86_richards'
p440
F1950.9000000000001
sS'./pypy-llvm-39302-faassen-c_richards'
p441
F1822.6600000000001
sS'./pypy-c-34593-gc=framework--objspace-std-withstrdict--prof_richards'
p442
F3684.3600000000001
sS'./pypy-llvm-39348-faassen-c_richards'
p443
F1757.49
sS'./pypy-c-35944_pystone'
p444
F6578.9499999999998
sS'./pypy-cli-35988_richards'
p445
F50151.942968368501
sS'./pypy-cli-38334_richards'
p446
F47268.691062927202
sS'./pypy-c-35350-gc=framework--objspace-std-withstrdict--prof_pystone'
p447
F9433.9599999999991
sS'./pypy-c-36977-stackless--objspace-std-withstrdict--prof_richards'
p448
F3585.1199999999999
sS'./pypy-c-35867-stackless--objspace-std-withstrdict--prof_richards'
p449
F3697.3400000000001
sS'./pypy-c-35923-stackless--prof_richards'
p450
F6350.9099999999999
sS'./pypy-llvm-36052-faassen-c-prof_pystone'
p451
F11160.700000000001
sS'./pypy-llvm-36446-faassen-c_richards'
p452
F2267.9899999999998
sS'./pypy-llvm-35979-faassen-c_richards'
p453
F2354.21
sS'./pypy-c-36158-prof--objspace-opcodes-CALL_LIKELY_BUILTIN_richards'
p454
F3123.0
sS'./pypy-llvm-39646-faassen-c-prof_pystone'
p455
F17421.599999999999
sS'./pypy-c-34948-stackless--objspace-std-withstrdict--prof_richards'
p456
F5050.5
sS'./pypy-c-34882-stackless--objspace-std-withstrdict--prof_richards'
p457
F4210.7299999999996
sS'./pypy-c-35963-stackless--objspace-std-withstrdict--prof_pystone'
p458
F9380.8600000000006
sS'./pypy-c-39646-faassen_pystone'
p459
F13297.9
sS'./pypy-c-35963_pystone'
p460
F6915.6300000000001
sS'./pypy-c-35982_pystone'
p461
F6934.8100000000004
sS'./pypy-c-39147-faassen_pystone'
p462
F12820.5
sS'./pypy-c-37084-gc=framework--objspace-std-withstrdict--prof_pystone'
p463
F9803.9200000000001
sS'./pypy-c-39072-prof--objspace-opcodes-CALL_LIKELY_BUILTIN_richards'
p464
F2866.73
sS'./pypy-c-35988-objspace-std-withstrdict--prof_richards'
p465
F3379.0100000000002
sS'./pypy-cli-35658_richards'
p466
F68534.044027328506
sS'./pypy-c-35609-gc=framework--objspace-std-withstrdict--prof_richards'
p467
F3474.1700000000001
sS'./pypy-llvm-35824-objspace-std-withstrdict-c-prof_pystone'
p468
F12820.5
sS'./pypy-c-35988-gc=framework--objspace-std-withstrdict--prof_pystone'
p469
F10352.0
sS'./pypy-c-36628-prof--objspace-opcodes-CALL_LIKELY_BUILTIN_pystone'
p470
F9363.2999999999993
sS'./pypy-c-36009-gc=framework--objspace-std-withstrdict--prof_richards'
p471
F3588.3899999999999
sS'./pypy-c-35944-stackless--objspace-std-withstrdict--prof_richards'
p472
F3611.3099999999999
sS'./pypy-llvm-39547-faassen-c_pystone'
p473
F15290.5
sS'./pypy-c-35217-gc=framework--objspace-std-withstrdict--prof_richards'
p474
F3458.1900000000001
sS'./pypy-llvm-35867-objspace-std-withstrdict-c-prof_richards'
p475
F2536.02
sS'./pypy-c-38529-gc=framework--objspace-std-withstrdict--prof_pystone'
p476
F10373.4
sS'./pypy-c-37367_richards'
p477
F5231.1899999999996
sS'./pypy-cli-39302_richards'
p478
F47496.8359470367
sS'./pypy-cli-38651_pystone'
p479
F646.41409923268304
sS'./pypy-c-37575-gc=framework--objspace-std-withstrdict--prof_richards'
p480
F3133.7399999999998
sS'./pypy-c-35867-stackless--objspace-std-withstrdict--prof_pystone'
p481
F8865.25
sS'./pypy-c-39374-gc=framework--objspace-std-withmultidict--prof_richards'
p482
F3100.0500000000002
sS'./pypy-c-35979_pystone'
p483
F6329.1099999999997
sS'./pypy-c-36136-gc=framework--objspace-std-withstrdict--prof_pystone'
p484
F10080.6
sS'./pypy-c-35979_richards'
p485
F5697.5299999999997
sS'./pypy-c-39247-objspace-std-withmultidict--prof_pystone'
p486
F10121.5
sS'./pypy-llvm-35824-objspace-std-withstrdict-c-prof_richards'
p487
F2576.2399999999998
sS'./pypy-c-36395-stackless--objspace-std-withstrdict--prof_pystone'
p488
F7923.9300000000003
sS'./pypy-cli-36344_richards'
p489
F47873.358011245698
sS'./pypy-c-39072-faassen_richards'
p490
F2202.7800000000002
sS'./pypy-cli-38529_pystone'
p491
F99999.0
sS'./pypy-cli-37084_richards'
p492
F48448.585033416697
sS'./pypy-c-39188-stackless--objspace-std-withmultidict--prof_pystone'
p493
F8771.9300000000003
sS'./pypy-c-39348-stackless--objspace-std-withmultidict--prof_pystone'
p494
F9276.4400000000005
sS'./pypy-llvm-39147-faassen-x86_pystone'
p495
F15015.0
sS'./pypy-c-38651_richards'
p496
F4816.8599999999997
sS'./pypy-llvm-35771-objspace-std-withstrdict-x86_richards'
p497
F2855.1399999999999
sS'./pypy-c-35968-objspace-std-withstrdict--prof_pystone'
p498
F9746.5900000000001
sS'./pypy-c-39547-objspace-std-withmultidict--prof_pystone'
p499
F10142.0
sS'./pypy-c-35713-stackless--objspace-std-withstrdict--prof_richards'
p500
F3397.3600000000001
sS'./pypy-c-35867-objspace-std-withstrdict--prof_richards'
p501
F3313.5799999999999
sS'./pypy-c-39348-objspace-std-withmultidict--prof_pystone'
p502
F10080.6
sS'./pypy-llvm-39188-faassen-c_richards'
p503
F1915.1700000000001
sS'./pypy-c-37243_pystone'
p504
F6666.6700000000001
sS'./pypy-c-36893-gc=framework--objspace-std-withstrdict--prof_richards'
p505
F3436.6799999999998
sS'./pypy-llvm-39072-faassen-x86_richards'
p506
F1853.1199999999999
sS'./pypy-c-38769-faassen_richards'
p507
F2202.1500000000001
sS'./pypy-c-36100-stackless--objspace-std-withstrdict--prof_richards'
p508
F3277.9099999999999
sS'./pypy-llvm-35837-objspace-std-withstrdict-x86_pystone'
p509
F10869.6
sS'./pypy-c-35463-objspace-std-withstrdict--prof_richards'
p510
F3555.54
sS'./pypy-c-35982_richards'
p511
F5224.9799999999996
sS'./pypy-c-37111_pystone'
p512
F6553.0799999999999
sS'./pypy-c-35212_pystone'
p513
F6468.3100000000004
sS'./pypy-c-38994-faassen_pystone'
p514
F13262.6
sS'./pypy-c-35065-gc=framework--objspace-std-withstrdict--prof_pystone'
p515
F9074.4099999999999
sS'./pypy-llvm-34632-objspace-std-withstrdict-c-prof_richards'
p516
F3454.2800000000002
sS'./pypy-llvm-39218-faassen-c_richards'
p517
F1839.23
sS'./pypy-c-35095-gc=framework--objspace-std-withstrdict--prof_pystone'
p518
F9157.5100000000002
sS'./pypy-c-36446-prof--objspace-opcodes-CALL_LIKELY_BUILTIN_richards'
p519
F3171.1100000000001
sS'./pypy-llvm-34948-objspace-std-withstrdict-c_pystone'
p520
F9107.4699999999993
sS'./pypy-c-37503-stackless--objspace-std-withstrdict--prof_richards'
p521
F4067.5100000000002
sS'./pypy-c-35557-gc=framework--objspace-std-withstrdict--prof_pystone'
p522
F10040.200000000001
sS'./pypy-c-37243-gc=framework--objspace-std-withstrdict--prof_pystone'
p523
F9784.7399999999998
sS'./pypy-cli-36100_pystone'
p524
F553.47692377038697
sS'./pypy-c-36790-objspace-std-withstrdict--prof_richards'
p525
F3281.5599999999999
sS'./pypy-c-39646-prof--objspace-opcodes-CALL_LIKELY_BUILTIN_pystone'
p526
F10162.6
sS'./pypy-c-37367-stackless--objspace-std-withstrdict--prof_pystone'
p527
F8460.2399999999998
sS'./pypy-llvm-39188-faassen-c_pystone'
p528
F15197.6
sS'./pypy-c-38529-gc=framework--objspace-std-withstrdict--prof_richards'
p529
F3022.0100000000002
sS'./pypy-llvm-35906-objspace-std-withstrdict-c_richards'
p530
F2767.25
sS'./pypy-llvm-35713-objspace-std-withstrdict-c_richards'
p531
F2876.7399999999998
sS'./pypy-cli-39324_pystone'
p532
F638.15736095179705
sS'./pypy-c-35183-gc=framework--objspace-std-withstrdict--prof_richards'
p533
F3775.6999999999998
sS'./pypy-c-36052-stackless--objspace-std-withstrdict--prof_pystone'
p534
F6009.6199999999999
sS'./pypy-c-37575-objspace-std-withstrdict--prof_richards'
p535
F2979.5999999999999
sS'./pypy-c-34882-stackless--objspace-std-withstrdict--prof_pystone'
p536
F7267.4399999999996
sS'./pypy-c-36893-gc=framework--objspace-std-withstrdict--prof_pystone'
p537
F9842.5200000000004
sS'./pypy-c-35411_pystone'
p538
F6476.6800000000003
sS'./pypy-c-37782-objspace-std-withstrdict--prof_pystone'
p539
F10162.6
sS'./pypy-cli-39072_pystone'
p540
F653.285225060941
sS'./pypy-c-36052-gc=framework--objspace-std-withstrdict--prof_richards'
p541
F4939.9499999999998
sS'./pypy-c-37575-objspace-std-withstrdict--prof_pystone'
p542
F10204.1
sS'./pypy-cli-35544_pystone'
p543
F479.25493723883397
sS'./pypy-c-35906-gc=framework--objspace-std-withstrdict--prof_richards'
p544
F3480.73
sS'./pypy-c-38769-objspace-std-withstrdict--prof_richards'
p545
F2900.6900000000001
sS'./pypy-c-36859-stackless--objspace-std-withstrdict--prof_richards'
p546
F3815.6100000000001
sS'./pypy-c-37782_richards'
p547
F5572.71
sS'./pypy-llvm-39474-faassen-c-prof_pystone'
p548
F17482.5
sS'./pypy-cli-36859_richards'
p549
F48998.996973037698
sS'./pypy-c-34976-stackless--objspace-std-withstrdict--prof_richards'
p550
F4870.0699999999997
sS'./pypy-llvm-35988-faassen-c-prof_pystone'
p551
F15528.0
sS'./pypy-c-39348-faassen_pystone'
p552
F12853.5
sS'./pypy-llvm-39374-faassen-x86_pystone'
p553
F14705.9
sS'./pypy-c-39374_richards'
p554
F5105.4799999999996
sS'./pypy-cli-39474_richards'
p555
F45988.880872726397
sS'./pypy-c-37503_pystone'
p556
F7002.8000000000002
sS'./pypy-c-36082-objspace-std-withstrdict--prof_pystone'
p557
F9940.3600000000006
sS'./pypy-c-37044-prof--objspace-opcodes-CALL_LIKELY_BUILTIN_pystone'
p558
F10204.1
sS'./pypy-llvm-35143-objspace-std-withstrdict-x86_richards'
p559
F99999.0
sS'./pypy-cli-35979_richards'
p560
F49869.193077087402
sS'./pypy-cli-36009_richards'
p561
F50453.392982482903
sS'./pypy-c-36446_richards'
p562
F5466.5299999999997
sS'./pypy-llvm-36539-faassen-c_pystone'
p563
F14450.9
sS'./pypy-c-35350-stackless--objspace-std-withstrdict--prof_richards'
p564
F3879.1100000000001
sS'./pypy-c-35557-gc=framework--objspace-std-withstrdict--prof_richards'
p565
F3436.79
sS'./pypy-c-37243-stackless--objspace-std-withstrdict--prof_pystone'
p566
F8726.0
sS'./pypy-llvm-36082-faassen-x86_richards'
p567
F2725.0100000000002
sS'./pypy-c-35609-objspace-std-withstrdict--prof_pystone'
p568
F10460.299999999999
sS'./pypy-c-35544-objspace-std-withstrdict--prof_pystone'
p569
F10142.0
sS'./pypy-c-35979-objspace-std-withstrdict--prof_richards'
p570
F3270.6399999999999
sS'./pypy-c-38529_pystone'
p571
F99999.0
sS'./pypy-c-36395_pystone'
p572
F6493.5100000000002
sS'./pypy-llvm-35988-faassen-x86_richards'
p573
F2575.4299999999998
sS'./pypy-cli-39374_richards'
p574
F46781.165838241599
sS'./pypy-c-37415-faassen_richards'
p575
F2910.1599999999999
sS'./pypy-c-39188_richards'
p576
F4330.8000000000002
sS'./pypy-c-39147-objspace-std-withfastslice_richards'
p577
F4222.4300000000003
sS'./pypy-c-35867-gc=framework--objspace-std-withstrdict--prof_richards'
p578
F3266.4899999999998
sS'./pypy-c-36066-prof--objspace-opcodes-CALL_LIKELY_BUILTIN_richards'
p579
F4867.96
sS'./pypy-c-36158_richards'
p580
F5231.54
sS'./pypy-c-36100_pystone'
p581
F6775.0699999999997
sS'./pypy-c-36113-gc=framework--objspace-std-withstrdict--prof_richards'
p582
F3212.4499999999998
sS'./pypy-c-36220-stackless--objspace-std-withstrdict--prof_pystone'
p583
F9009.0100000000002
sS'./pypy-llvm-39348-faassen-x86_richards'
p584
F2045.3699999999999
sS'./pypy-c-38140-prof--objspace-opcodes-CALL_LIKELY_BUILTIN_pystone'
p585
F10330.6
sS'./pypy-c-39374-objspace-std-withfastslice_richards'
p586
F5060.9899999999998
sS'./pypy-c-39348-objspace-std-withfastslice_pystone'
p587
F6640.1099999999997
sS'./pypy-c-39072-gc=framework--objspace-std-withmultidict--prof_richards'
p588
F3109.8400000000001
sS'./pypy-c-36893-stackless--objspace-std-withstrdict--prof_richards'
p589
F3829.6999999999998
sS'./pypy-c-38870-objspace-std-withstrdict--prof_pystone'
p590
F10395.0
sS'./pypy-cli-36066_richards'
p591
F50349.507093429602
sS'./pypy-c-35065-stackless--objspace-std-withstrdict--prof_pystone'
p592
F7974.4799999999996
sS'./pypy-c-34593-stackless_pystone'
p593
F5500.5500000000002
sS'./pypy-c-37310-faassen_pystone'
p594
F10893.200000000001
sS'./pypy-c-36082-prof--objspace-opcodes-CALL_LIKELY_BUILTIN_pystone'
p595
F9881.4200000000001
sS'./pypy-c-36539-stackless--objspace-std-withstrdict--prof_pystone'
p596
F8865.25
sS'./pypy-c-34882-objspace-std-withstrdict--prof_richards'
p597
F3543.1799999999998
sS'./pypy-cli-35867_richards'
p598
F63281.657934188799
sS'./pypy-llvm-39147-faassen-c-prof_richards'
p599
F1625.46
sS'./pypy-c-37415-stackless--objspace-std-withstrdict--prof_richards'
p600
F3720.52
sS'./pypy-cli-35982_pystone'
p601
F656.03663392536498
sS'./pypy-llvm-34976-objspace-std-withstrdict-c-prof_pystone'
p602
F9140.7700000000004
sS'./pypy-c-39646-objspace-std-withfastslice_richards'
p603
F4266.9200000000001
sS'./pypy-cli-37367_richards'
p604
F48221.861124038704
sS'./pypy-cli-35963_richards'
p605
F50861.653089523301
sS'./pypy-llvm-35713-objspace-std-withstrdict-x86_pystone'
p606
F11363.6
sS'./pypy-c-35183-objspace-std-withstrdict--prof_pystone'
p607
F9124.0900000000001
sS'./pypy-c-39348-gc=framework--objspace-std-withmultidict--prof_richards'
p608
F3162.8000000000002
sS'./pypy-llvm-35713-objspace-std-withstrdict-c-prof_pystone'
p609
F12953.4
sS'./pypy-c-39072-objspace-std-withmultidict--prof_pystone'
p610
F9980.0400000000009
sS'./pypy-cli-39188_richards'
p611
F46943.6841011047
sS'./pypy-cli-35988_pystone'
p612
F668.81363870454504
sS'./pypy-c-39188-objspace-std-withfastslice_richards'
p613
F4453.8500000000004
sS'./pypy-c-35979-gc=framework--objspace-std-withstrdict--prof_richards'
p614
F3487.8699999999999
sS'./pypy-llvm-35867-objspace-std-withstrdict-c_pystone'
p615
F12106.5
sS'./pypy-c-35771-objspace-std-withstrdict--prof_pystone'
p616
F9708.7399999999998
sS'./pypy-llvm-36539-faassen-x86_pystone'
p617
F13020.799999999999
sS'./pypy-llvm-39646-faassen-c_pystone'
p618
F15974.4
sS'./pypy-c-35512_richards'
p619
F5288.9799999999996
sS'./pypy-c-36030-gc=framework--objspace-std-withstrdict--prof_pystone'
p620
F10080.6
sS'./pypy-c-35010-objspace-std-withstrdict--prof_richards'
p621
F4502.8599999999997
sS'./pypy-c-36009-stackless--objspace-std-withstrdict--prof_pystone'
p622
F8944.5400000000009
sS'./pypy-c-36136_pystone'
p623
F6675.5699999999997
sS'./pypy-llvm-35982-faassen-c_pystone'
p624
F13888.9
sS'./pypy-llvm-39302-faassen-x86_richards'
p625
F1805.3599999999999
sS'./pypy-c-39247-objspace-std-withfastslice_pystone'
p626
F6729.4799999999996
sS'./pypy-c-35923-stackless--objspace-std-withstrdict--prof_pystone'
p627
F8196.7199999999993
sS'./pypy-c-37415-stackless--objspace-std-withstrdict--prof_pystone'
p628
F8818.3400000000001
sS'./pypy-c-37310-objspace-std-withstrdict--prof_pystone'
p629
F9823.1800000000003
sS'./pypy-llvm-36539-faassen-c-prof_richards'
p630
F2043.9300000000001
sS'./pypy-c-39147-gc=framework--objspace-std-withmultidict--prof_pystone'
p631
F10615.700000000001
sS'./pypy-c-35837_pystone'
p632
F6811.9899999999998
sS'./pypy-llvm-35713-objspace-std-withstrdict-c-prof_richards'
p633
F2577.8699999999999
sS'./pypy-cli-39474_pystone'
p634
F656.21334556304998
sS'./pypy-cli-38870_pystone'
p635
F651.79444681820701
sS'./pypy-c-35212-objspace-std-withstrdict--prof_pystone'
p636
F9242.1399999999994
sS'./pypy-c-39324-objspace-std-withfastslice_richards'
p637
F4767.7600000000002
sS'./pypy-llvm-36030-faassen-x86_pystone'
p638
F12658.200000000001
sS'./pypy-llvm-35065-objspace-std-withstrdict-c_pystone'
p639
F99999.0
sS'./pypy-c-36113-prof--objspace-opcodes-CALL_LIKELY_BUILTIN_richards'
p640
F3253.3499999999999
sS'./pypy-c-39188-faassen_pystone'
p641
F12886.6
sS'./pypy-c-36175-stackless--objspace-std-withstrdict--prof_pystone'
p642
F8403.3600000000006
sS'./pypy-c-35867-objspace-std-withstrdict--prof_pystone'
p643
F9823.1800000000003
sS'./pypy-c-39302-objspace-std-withmultidict--prof_richards'
p644
F2994.6999999999998
sS'./pypy-c-37707-objspace-std-withstrdict--prof_pystone'
p645
F10060.4
sS'./pypy-c-39247-stackless--objspace-std-withmultidict--prof_richards'
p646
F3167.5500000000002
sS'./pypy-c-37782-gc=framework--objspace-std-withstrdict--prof_pystone'
p647
F10309.299999999999
sS'./pypy-c-36182-objspace-std-withstrdict--prof_richards'
p648
F2983.71
sS'./pypy-c-35350-objspace-std-withstrdict--prof_richards'
p649
F3575.9099999999999
sS'./pypy-c-38334-objspace-std-withfastslice_pystone'
p650
F6622.5200000000004
sS'./pypy-c-38870-gc=framework--objspace-std-withstrdict--prof_richards'
p651
F2979.1900000000001
sS'./pypy-c-39188-objspace-std-withfastslice_pystone'
p652
F7215.0100000000002
sS'./pypy-llvm-35944-faassen-c-prof_richards'
p653
F2158.1500000000001
sS'./pypy-c-39547-stackless--objspace-std-withmultidict--prof_richards'
p654
F3307.5999999999999
sS'./pypy-llvm-39348-faassen-c-prof_richards'
p655
F1625.45
sS'./pypy-c-36220-gc=framework--objspace-std-withstrdict--prof_richards'
p656
F3424.8600000000001
sS'./pypy-c-36030-prof--objspace-opcodes-CALL_LIKELY_BUILTIN_richards'
p657
F3399.9499999999998
sS'./pypy-c-39218-faassen_pystone'
p658
F12787.700000000001
sS'./pypy-c-36158-objspace-std-withstrdict--prof_richards'
p659
F3205.75
sS'./pypy-c-39302_richards'
p660
F4666.1000000000004
sS'./pypy-c-37575-stackless--objspace-std-withstrdict--prof_pystone'
p661
F8912.6599999999999
sS'./pypy-c-37415_pystone'
p662
F6535.9499999999998
sS'./pypy-c-35824-gc=framework--objspace-std-withstrdict--prof_pystone'
p663
F10162.6
sS'./pypy-c-37454_pystone'
p664
F7112.3800000000001
sS'./pypy-c-38870-stackless--objspace-std-withstrdict--prof_richards'
p665
F3208.2199999999998
sS'./pypy-c-38651-prof--objspace-opcodes-CALL_LIKELY_BUILTIN_pystone'
p666
F10683.799999999999
sS'./pypy-llvm-36030-faassen-c-prof_pystone'
p667
F14881.0
sS'./pypy-cli-36136_pystone'
p668
F558.04538665720395
sS'./pypy-c-35824_richards'
p669
F5440.1099999999997
sS'./pypy-c-39147_richards'
p670
F4713.0799999999999
sS'./pypy-c-39646-objspace-std-withmultidict--prof_richards'
p671
F2855.9099999999999
sS'./pypy-c-39188-gc=framework--objspace-std-withmultidict--prof_pystone'
p672
F10729.6
sS'./pypy-c-36446_pystone'
p673
F6561.6800000000003
sS'./pypy-c-36066_pystone'
p674
F4537.21
sS'./pypy-c-34948-gc=framework--objspace-std-withstrdict--prof_richards'
p675
F4322.0
sS'./pypy-llvm-39188-faassen-c-prof_richards'
p676
F1689.3900000000001
sS'./pypy-c-35963-objspace-std-withstrdict--prof_richards'
p677
F3334.3299999999999
sS'./pypy-c-37111_richards'
p678
F5532.1300000000001
sS'./pypy-c-36158-objspace-std-withstrdict--prof_pystone'
p679
F10000.0
sS'./pypy-c-35979-prof--objspace-opcodes-CALL_LIKELY_BUILTIN_richards'
p680
F3195.5
sS'./pypy-c-34976-objspace-std-withstrdict--prof_richards'
p681
F4405.3699999999999
sS'./pypy-c-39374-objspace-std-withmultidict--prof_richards'
p682
F2967.73
sS'./pypy-c-36066-prof--objspace-opcodes-CALL_LIKELY_BUILTIN_pystone'
p683
F6983.2399999999998
sS'./pypy-cli-35713~_pystone'
p684
F99999.0
sS'./pypy-c-35095-objspace-std-withstrdict--prof_pystone'
p685
F9124.0900000000001
sS'./pypy-c-39072-stackless--objspace-std-withmultidict--prof_richards'
p686
F2948.3600000000001
sS'./pypy-c-36220-prof--objspace-opcodes-CALL_LIKELY_BUILTIN_pystone'
p687
F10288.1
sS'./pypy-llvm-35944-faassen-c-prof_pystone'
p688
F15576.299999999999
sS'./pypy-c-37503-stackless--objspace-std-withstrdict--prof_pystone'
p689
F8183.3100000000004
sS'./pypy-c-35143-stackless--objspace-std-withstrdict--prof_pystone'
p690
F8130.0799999999999
sS'./pypy-c-36344-stackless--objspace-std-withstrdict--prof_richards'
p691
F3682.96
sS'./pypy-llvm-39547-faassen-c-prof_richards'
p692
F1458.8599999999999
sS'./pypy-llvm-35713-objspace-std-withstrdict-c_pystone'
p693
F11547.299999999999
sS'./pypy-c-37647-stackless--objspace-std-withstrdict--prof_richards'
p694
F3425.5100000000002
sS'./pypy-c-36182-prof--objspace-opcodes-CALL_LIKELY_BUILTIN_richards'
p695
F3129.29
sS'./pypy-c-36030-prof--objspace-opcodes-CALL_LIKELY_BUILTIN_pystone'
p696
F9328.3600000000006
sS'./pypy-c-39474_pystone'
p697
F7278.0200000000004
sS'./pypy-c-35771_pystone'
p698
F6784.2600000000002
sS'./pypy-c-35944-gc=framework--objspace-std-withstrdict--prof_pystone'
p699
F10373.4
sS'./pypy-c-36859-stackless--objspace-std-withstrdict--prof_pystone'
p700
F8710.7999999999993
sS'./pypy-c-34948-gc=framework--objspace-std-withstrdict--prof_pystone'
p701
F7462.6899999999996
sS'./pypy-c-39072_pystone'
p702
F7352.9399999999996
sS'./pypy-llvm-36082-faassen-c_pystone'
p703
F13812.200000000001
sS'./pypy-c-35065_richards'
p704
F5242.0900000000001
sS'./pypy-cli-35463_richards'
p705
F69375.231981277495
sS'./pypy-c-37782-faassen_richards'
p706
F2790.71
sS'./pypy-c-37163-stackless--objspace-std-withstrdict--prof_pystone'
p707
F8680.5599999999995
sS'./pypy-llvm-35988-faassen-c_richards'
p708
F2308.7199999999998
sS'./pypy-c-36893-objspace-std-withstrdict--prof_richards'
p709
F3275.6700000000001
sS'./pypy-llvm-34976-objspace-std-withstrdict-x86_richards'
p710
F3691.8699999999999
sS'./pypy-c-37044-gc=framework--objspace-std-withstrdict--prof_richards'
p711
F3627.0799999999999
sS'./pypy-c-39646-faassen_richards'
p712
F2050.4499999999998
sS'./pypy-c-39617-objspace-std-withmultidict--prof_richards'
p713
F3019.8499999999999
sS'./pypy-c-35771-gc=framework--objspace-std-withstrdict--prof_richards'
p714
F3458.5
sS'2.3.5_pystone'
p715
F36231.900000000001
sS'./pypy-c-37707-gc=framework--objspace-std-withstrdict--prof_pystone'
p716
F10288.1
sS'./pypy-llvm-36009-faassen-c_richards'
p717
F2368.0599999999999
sS'./pypy-c-39188-gc=framework--objspace-std-withmultidict--prof_richards'
p718
F3060.2800000000002
sS'./pypy-c-38529-faassen_richards'
p719
F2689.9400000000001
sS'./pypy-c-36158-stackless--objspace-std-withstrdict--prof_pystone'
p720
F8503.3999999999996
sS'./pypy-c-35906_pystone'
p721
F6510.4200000000001
sS'./pypy-cli-37707_pystone'
p722
F694.96980300608402
sS'./pypy-llvm-35982-faassen-c-prof_richards'
p723
F2304.1900000000001
sS'./pypy-c-36082-prof--objspace-opcodes-CALL_LIKELY_BUILTIN_richards'
p724
F3108.6799999999998
sS'./pypy-llvm-34632-objspace-std-withstrdict-c_pystone'
p725
F9652.5100000000002
sS'./pypy-llvm-35979-faassen-c_pystone'
p726
F13513.5
sS'./pypy-llvm-39218-faassen-c-prof_richards'
p727
F1640.5
sS'./pypy-llvm-39218-faassen-x86_pystone'
p728
F15432.1
sS'./pypy-cli-35658_pystone'
p729
F482.51465795090797
sS'./pypy-llvm-35143-objspace-std-withstrdict-c-prof_richards'
p730
F99999.0
sS'./pypy-c-36182-gc=framework--objspace-std-withstrdict--prof_richards'
p731
F3535.5799999999999
sS'./pypy-c-35143-objspace-std-withstrdict--prof_richards'
p732
F3493.1900000000001
sS'./pypy-llvm-36113-faassen-c-prof_richards'
p733
F2193.0999999999999
sS'./pypy-c-39547-stackless--objspace-std-withmultidict--prof_pystone'
p734
F9174.3099999999995
sS'./pypy-c-35557-objspace-std-withstrdict--prof_pystone'
p735
F10482.200000000001
sS'./pypy-llvm-38870-faassen-c-prof_richards'
p736
F1727.5999999999999
sS'./pypy-c-35217_pystone'
p737
F6518.8999999999996
sS'./pypy-c-35824_pystone'
p738
F6596.3100000000004
sS'./pypy-cli-37575_richards'
p739
F47255.622148513801
sS'./pypy-c-37782-stackless--objspace-std-withstrdict--prof_richards'
p740
F3593.3099999999999
sS'./pypy-llvm-36175-faassen-c-prof_pystone'
p741
F15674.0
sS'./pypy-c-34927-gc=framework--objspace-std-withstrdict--prof_richards'
p742
F4362.1000000000004
sS'./pypy-c-36977-prof--objspace-opcodes-CALL_LIKELY_BUILTIN_richards'
p743
F3050.6799999999998
sS'./pypy-llvm-38769-faassen-c_richards'
p744
F1816.1400000000001
sS'./pypy-c-35217_richards'
p745
F5250.5100000000002
sS'./pypy-c-34882-gc=framework--objspace-std-withstrdict--prof_pystone'
p746
F9025.2700000000004
sS'./pypy-c-34976-objspace-std-withstrdict--prof_pystone'
p747
F7299.2700000000004
sS'./pypy-llvm-36066-faassen-c-prof_pystone'
p748
F10504.200000000001
sS'./pypy-c-37367_pystone'
p749
F6631.3000000000002
sS'./pypy-c-35217-objspace-std-withstrdict--prof_richards'
p750
F3476.5
sS'./pypy-c-34593-thread--objspace-std-withstrdict--prof_pystone'
p751
F8319.4699999999993
sS'./pypy-c-39348_richards'
p752
F4958.6000000000004
sS'./pypy-cli-37782_pystone'
p753
F701.57543253458402
sS'./pypy-llvm-35143-objspace-std-withstrdict-x86_pystone'
p754
F99999.0
sS'./pypy-llvm-38769-faassen-c-prof_pystone'
p755
F17006.799999999999
sS'./pypy-c-36182-stackless--objspace-std-withstrdict--prof_richards'
p756
F3610.8499999999999
sS'./pypy-c-35544-objspace-std-withstrdict--prof_richards'
p757
F3097.4099999999999
sS'./pypy-llvm-35963-faassen-c-prof_pystone'
p758
F14326.6
sS'./pypy-cli-37575_pystone'
p759
F699.513018622799
sS'./pypy-c-36628_pystone'
p760
F6613.7600000000002
sS'./pypy-llvm-36113-faassen-x86_pystone'
p761
F13123.4
sS'./pypy-c-39147-prof--objspace-opcodes-CALL_LIKELY_BUILTIN_richards'
p762
F2681.6599999999999
sS'./pypy-cli-36539_richards'
p763
F54847.146987915003
sS'./pypy-c-34927-stackless--objspace-std-withstrdict--prof_richards'
p764
F5014.8000000000002
sS'./pypy-cli-36158_richards'
p765
F62707.854032516501
sS'./pypy-llvm-39218-faassen-x86_richards'
p766
F1848.98
sS'./pypy-c-37163_pystone'
p767
F6915.6300000000001
sS'./pypy-c-35982-gc=framework--objspace-std-withstrdict--prof_richards'
p768
F3483.2600000000002
sS'./pypy-c-39188-prof--objspace-opcodes-CALL_LIKELY_BUILTIN_richards'
p769
F2938.8899999999999
sS'./pypy-c-35963-prof--objspace-opcodes-CALL_LIKELY_BUILTIN_richards'
p770
F2929.3499999999999
sS'./pypy-c-36175-prof--objspace-opcodes-CALL_LIKELY_BUILTIN_richards'
p771
F2909.9499999999998
sS'./pypy-c-38651-gc=framework--objspace-std-withstrdict--prof_pystone'
p772
F10706.6
sS'./pypy-cli-39072_richards'
p773
F47044.425010681203
sS'./pypy-c-36066-stackless--objspace-std-withstrdict--prof_pystone'
p774
F5931.1999999999998
sS'./pypy-c-37310_pystone'
p775
F6993.0100000000002
sS'./pypy-c-unknown_richards'
p776
F6920.8699999999999
sS'./pypy-llvm-35906-objspace-opcodes-CALL_LIKELY_BUILTIN-c-prof_pystone'
p777
F12376.200000000001
sS'./pypy-c-36182-prof--objspace-opcodes-CALL_LIKELY_BUILTIN_pystone'
p778
F10245.9
sS'./pypy-c-39302_pystone'
p779
F7012.6199999999999
sS'./pypy-llvm-36030-faassen-c_richards'
p780
F2345.2199999999998
sS'./pypy-c-35237_richards'
p781
F5593.79
sS'./pypy-c-35350-objspace-std-withstrdict--prof_pystone'
p782
F8912.6599999999999
sS'./pypy-c-35923-objspace-std-withstrdict--prof_pystone'
p783
F9784.7399999999998
sS'./pypy-llvm-39348-faassen-c-prof_pystone'
p784
F18181.799999999999
sS'./pypy-llvm-34948-objspace-std-withstrdict-c-prof_pystone'
p785
F9765.6200000000008
sS'./pypy-c-37782-faassen_pystone'
p786
F11627.9
sS'./pypy-c-35183_pystone'
p787
F6361.3199999999997
sS'./pypy-c-39348-prof--objspace-opcodes-CALL_LIKELY_BUILTIN_pystone'
p788
F10752.700000000001
sS'./pypy-c-34927-gc=framework--objspace-std-withstrdict--prof_pystone'
p789
F7633.5900000000001
sS'./pypy-cli-35867_pystone'
p790
F554.44990851133002
sS'./pypy-cli-39218_richards'
p791
F46355.895042419397
sS'./pypy-llvm-35867-objspace-std-withstrdict-x86_richards'
p792
F2854.5900000000001
sS'./pypy-c-36539_pystone'
p793
F6765.8999999999996
sS'./pypy-llvm-35944-faassen-x86_pystone'
p794
F13812.200000000001
sS'./pypy-llvm-36052-faassen-x86_pystone'
p795
F9578.5400000000009
sS'./pypy-c-39324-objspace-std-withmultidict--prof_pystone'
p796
F9920.6299999999992
sS'./pypy-c-38529_richards'
p797
F99999.0
sS'./pypy-c-38334_pystone'
p798
F6468.3100000000004
sS'./pypy-c-36893_pystone'
p799
F6963.79
sS'./pypy-llvm-35095-objspace-std-withstrdict-c_richards'
p800
F99999.0
sS'./pypy-c-36790-gc=framework--objspace-std-withstrdict--prof_pystone'
p801
F9487.6700000000001
sS'./pypy-c-36344-gc=framework--objspace-std-withstrdict--prof_pystone'
p802
F10060.4
sS'./pypy-c-38870-prof--objspace-opcodes-CALL_LIKELY_BUILTIN_richards'
p803
F2899.79
sS'./pypy-llvm-39218-faassen-c_pystone'
p804
F15822.799999999999
sS'./pypy-c-35979-stackless--objspace-std-withstrdict--prof_pystone'
p805
F9363.2999999999993
sS'./pypy-llvm-34948-objspace-std-withstrdict-c-prof_richards'
p806
F3353.9000000000001
sS'./pypy-c-39547-objspace-std-withmultidict--prof_richards'
p807
F3006.9699999999998
sS'./pypy-c-36052-prof--objspace-opcodes-CALL_LIKELY_BUILTIN_richards'
p808
F5048.7399999999998
sS'./pypy-c-35906-stackless--objspace-std-withstrdict--prof_richards'
p809
F3671.5
sS'./pypy-c-38222-objspace-std-withfastslice_richards'
p810
F5061.9300000000003
sS'./pypy-c-39348-prof--objspace-opcodes-CALL_LIKELY_BUILTIN_richards'
p811
F2823.4200000000001
sS'./pypy-llvm-35968-faassen-c-prof_richards'
p812
F2190.1900000000001
sS'./pypy-c-39147-objspace-std-withfastslice_pystone'
p813
F7396.4499999999998
sS'./pypy-c-39218-objspace-std-withmultidict--prof_richards'
p814
F2716.04
sS'./pypy-c-39617-faassen_pystone'
p815
F12048.200000000001
sS'./pypy-c-39188-objspace-std-withmultidict--prof_pystone'
p816
F10593.200000000001
sS'./pypy-cli-38769_pystone'
p817
F653.89305759517504
sS'./pypy-c-37454-prof--objspace-opcodes-CALL_LIKELY_BUILTIN_pystone'
p818
F10142.0
sS'./pypy-llvm-36175-faassen-c-prof_richards'
p819
F2055.5100000000002
sS'./pypy-llvm-39474-faassen-c_pystone'
p820
F15060.200000000001
sS'./pypy-c-37111-gc=framework--objspace-std-withstrdict--prof_richards'
p821
F3153.7199999999998
sS'./pypy-c-38651-gc=framework--objspace-std-withstrdict--prof_richards'
p822
F3102.4099999999999
sS'./pypy-c-36220-prof--objspace-opcodes-CALL_LIKELY_BUILTIN_richards'
p823
F2995.5500000000002
sS'./pypy-cli-36628_pystone'
p824
F723.09658418429296
sS'./pypy-llvm-38870-faassen-c_richards'
p825
F1928.4400000000001
sS'./pypy-c-35867_richards'
p826
F5666.79
sS'./pypy-c-37084-prof--objspace-opcodes-CALL_LIKELY_BUILTIN_richards'
p827
F3176.0999999999999
sS'./pypy-cli-35837_pystone'
p828
F557.84531844103503
sS'./pypy-c-39374-objspace-std-withfastslice_pystone'
p829
F6265.6599999999999
sS'2.4.4_pystone'
p830
F44642.900000000001
sS'./pypy-c-37243-faassen_richards'
p831
F2822.25
sS'./pypy-llvm-36182-faassen-x86_pystone'
p832
F12722.6
sS'./pypy-c-34927-stackless--objspace-std-withstrdict--prof_pystone'
p833
F6410.2600000000002
sS'./pypy-c-36859-gc=framework--objspace-std-withstrdict--prof_pystone'
p834
F9765.6200000000008
sS'./pypy-c-37707_pystone'
p835
F6821.2799999999997
sS'./pypy-llvm-35968-faassen-x86_richards'
p836
F2533.1300000000001
sS'./pypy-llvm-36446-faassen-c-prof_richards'
p837
F2039.52
sS'./pypy-llvm-35906-objspace-std-withstrdict-x86_richards'
p838
F2974.9200000000001
sS'./pypy-c-39218-prof--objspace-opcodes-CALL_LIKELY_BUILTIN_richards'
p839
F2861.8000000000002
sS'./pypy-llvm-38994-faassen-c-prof_pystone'
p840
F17301.0
sS'./pypy-c-35944-gc=framework--objspace-std-withstrdict--prof_richards'
p841
F3164.7800000000002
sS'./pypy-cli-38994_pystone'
p842
F659.83510351255597
sS'./pypy-c-34593-gc=framework--objspace-std-withstrdict--prof_pystone'
p843
F9025.2700000000004
sS'./pypy-c-36446-stackless--objspace-std-withstrdict--prof_richards'
p844
F3770.46
sS'./pypy-llvm-39617-faassen-x86_richards'
p845
F1707.9100000000001
sS'./pypy-c-35867-gc=framework--objspace-std-withstrdict--prof_pystone'
p846
F10373.4
sS'./pypy-llvm-36136-faassen-c-prof_pystone'
p847
F15432.1
sS'./pypy-c-38140-stackless--objspace-std-withstrdict--prof_richards'
p848
F3375.25
sS'./pypy-llvm-39474-faassen-x86_richards'
p849
F1819.21
sS'./pypy-cli-36009_pystone'
p850
F666.51266669331801
sS'./pypy-llvm-39617-faassen-x86_pystone'
p851
F14881.0
sS'./pypy-c-35095-stackless--objspace-std-withstrdict--prof_pystone'
p852
F7716.0500000000002
sS'./pypy-llvm-36220-faassen-c_richards'
p853
F2348.9699999999998
sS'./pypy-c-37367-stackless--objspace-std-withstrdict--prof_richards'
p854
F3832.8400000000001
sS'./pypy-c-34927-objspace-std-withstrdict--prof_pystone'
p855
F7451.5600000000004
sS'./pypy-c-38140-gc=framework--objspace-std-withstrdict--prof_richards'
p856
F3314.8499999999999
sS'./pypy-c-36182_richards'
p857
F5161.0699999999997
sS'./pypy-llvm-36175-faassen-c_richards'
p858
F2227.9000000000001
sS'./pypy-c-35095_pystone'
p859
F6297.2299999999996
sS'./pypy-c-36446-objspace-std-withstrdict--prof_pystone'
p860
F9652.5100000000002
sS'./pypy-c-35923_pystone'
p861
F6468.3100000000004
sS'./pypy-c-38994-objspace-std-withfastslice_richards'
p862
F4294.7600000000002
sS'./pypy-c-37503_richards'
p863
F5047.9200000000001
sS'./pypy-c-37310-gc=framework--objspace-std-withstrdict--prof_pystone'
p864
F10080.6
sS'./pypy-c-39218-stackless--objspace-std-withmultidict--prof_pystone'
p865
F9293.6800000000003
sS'./pypy-c-34593-objspace-std-withstrdict--prof_pystone'
p866
F9380.8600000000006
sS'./pypy-c-35212_richards'
p867
F5357.6300000000001
sS'./pypy-c-35658_pystone'
p868
F6675.5699999999997
sS'./pypy-c-36113-prof--objspace-opcodes-CALL_LIKELY_BUILTIN_pystone'
p869
F9578.5400000000009
sS'./pypy-c-34948-objspace-std-withstrdict--prof_richards'
p870
F4400.3599999999997
sS'./pypy-c-37782-stackless--objspace-std-withstrdict--prof_pystone'
p871
F8944.5400000000009
sS'./pypy-cli-36066_pystone'
p872
F669.040672748764
sS'./pypy-c-35824-stackless--objspace-std-withstrdict--prof_pystone'
p873
F8944.5400000000009
sS'./pypy-llvm-34632-objspace-std-withstrdict-c_richards'
p874
F3531.6900000000001
sS'./pypy-c-35010-gc=framework--objspace-std-withstrdict--prof_richards'
p875
F4655.5600000000004
sS'./pypy-cli-38435_richards'
p876
F50884.289026260398
sS'./pypy-cli-39188_pystone'
p877
F635.41038100185006
sS'./pypy-cli-36446_pystone'
p878
F676.036249658619
sS'./pypy-c-36136_richards'
p879
F5282.4899999999998
sS'./pypy-c-39374-faassen_pystone'
p880
F13054.799999999999
sS'2.3.5_richards'
p881
F973.13999999999999
sS'./pypy-cli-36136_richards'
p882
F63001.344919204697
sS'./pypy-c-36628-gc=framework--objspace-std-withstrdict--prof_pystone'
p883
F10060.4
sS'./pypy-c-35963-gc=framework--objspace-std-withstrdict--prof_richards'
p884
F3482.4299999999998
sS'./pypy-c-39072-objspace-std-withmultidict--prof_richards'
p885
F3039.5999999999999
sS'./pypy-c-36220-objspace-std-withstrdict--prof_pystone'
p886
F9980.0400000000009
sS'./pypy-cli-37310_richards'
p887
F48405.558109283404
sS'./pypy-cli-37415_richards'
p888
F48393.4779167175
sS'./pypy-c-36136-prof--objspace-opcodes-CALL_LIKELY_BUILTIN_pystone'
p889
F9784.7399999999998
sS'./pypy-c-36790-objspace-std-withstrdict--prof_pystone'
p890
F9560.2299999999996
sS'./pypy-cli-35775_pystone'
p891
F480.36249768093001
sS'./pypy-c-39617-gc=framework--objspace-std-withmultidict--prof_richards'
p892
F3256.6500000000001
sS'./pypy-c-35837-gc=framework--objspace-std-withstrdict--prof_pystone'
p893
F10309.299999999999
sS'./pypy-cli-36158_pystone'
p894
F561.74309962359996
sS'./pypy-c-unknown-stackless--objspace-std-withstrdict--prof_richards'
p895
F5133.5200000000004
sS'./pypy-llvm-35095-objspace-std-withstrdict-c-prof_richards'
p896
F99999.0
sS'./pypy-cli-38994_richards'
p897
F46162.909030914299
sS'./pypy-cli-35963_pystone'
p898
F670.59309654181402
sS'./pypy-cli-36539_pystone'
p899
F615.53012291779498
sS'./pypy-c-37454-gc=framework--objspace-std-withstrdict--prof_richards'
p900
F3229.8099999999999
sS'./pypy-c-38769-gc=framework--objspace-std-withstrdict--prof_richards'
p901
F3058.1399999999999
sS'./pypy-c-35968-gc=framework--objspace-std-withstrdict--prof_pystone'
p902
F10142.0
sS'./pypy-c-36182-gc=framework--objspace-std-withstrdict--prof_pystone'
p903
F9861.9300000000003
sS'./pypy-c-37310_richards'
p904
F5191.1000000000004
sS'./pypy-c-39147-stackless--objspace-std-withmultidict--prof_pystone'
p905
F9487.6700000000001
sS'./pypy-c-38334-objspace-std-withfastslice_richards'
p906
F5204.3100000000004
sS'./pypy-c-38870-faassen_pystone'
p907
F12853.5
sS'./pypy-c-39348-stackless--objspace-std-withmultidict--prof_richards'
p908
F3207.6900000000001
sS'./pypy-llvm-35824-objspace-std-withstrdict-x86_pystone'
p909
F11494.299999999999
sS'./pypy-c-38651-objspace-std-withstrdict--prof_pystone'
p910
F11013.200000000001
sS'./pypy-c-34882_pystone'
p911
F6402.0500000000002
sS'./pypy-c-38994_pystone'
p912
F7299.2700000000004
sS'./pypy-c-36009_pystone'
p913
F6775.0699999999997
sS'./pypy-c-36893-prof--objspace-opcodes-CALL_LIKELY_BUILTIN_pystone'
p914
F10121.5
sS'./pypy-llvm-36182-faassen-c-prof_richards'
p915
F2098.6999999999998
sS'./pypy-c-38529-objspace-std-withfastslice_richards'
p916
F4681.4499999999998
sS'./pypy-c-39374-objspace-std-withmultidict--prof_pystone'
p917
F10309.299999999999
sS'./pypy-cli-36182_richards'
p918
F62752.619981765703
sS'./pypy-c-36859-objspace-std-withstrdict--prof_richards'
p919
F3023.9899999999998
sS'./pypy-c-36136-objspace-std-withstrdict--prof_richards'
p920
F3248.25
sS'./pypy-c-39547-gc=framework--objspace-std-withmultidict--prof_richards'
p921
F3188.8400000000001
sS'./pypy-llvm-36158-faassen-c_richards'
p922
F2328.73
sS'./pypy-c-35212-gc=framework--objspace-std-withstrdict--prof_pystone'
p923
F9433.9599999999991
sS'./pypy-c-37415_richards'
p924
F5504.1300000000001
sS'./pypy-cli-38222_richards'
p925
F48951.274156570398
sS'./pypy-c-36082-gc=framework--objspace-std-withstrdict--prof_richards'
p926
F3530.3600000000001
sS'./pypy-c-unknown-objspace-std-withstrdict--prof_pystone'
p927
F7122.5100000000002
sS'./pypy-c-34593-gc=framework_pystone'
p928
F6195.79
sS'./pypy-llvm-35963-faassen-x86_richards'
p929
F2470.1900000000001
sS'./pypy-cli-36052_pystone'
p930
F99999.0
sS'./pypy-c-35463_richards'
p931
F5439.8299999999999
sS'./pypy-c-39617-objspace-std-withmultidict--prof_pystone'
p932
F10183.299999999999
sS'./pypy-c-35237-objspace-std-withstrdict--prof_pystone'
p933
F8802.8199999999997
sS'./pypy-c-39348-faassen_richards'
p934
F2237.5799999999999
sS'./pypy-c-37044-prof--objspace-opcodes-CALL_LIKELY_BUILTIN_richards'
p935
F3069.52
sS'./pypy-c-38994-gc=framework--objspace-std-withmultidict--prof_richards'
p936
F3169.6999999999998
sS'./pypy-llvm-35988-faassen-c-prof_richards'
p937
F2177.7199999999998
sS'./pypy-c-36175-gc=framework--objspace-std-withstrdict--prof_richards'
p938
F3539.3299999999999
sS'./pypy-llvm-36158-faassen-x86_richards'
p939
F2622.8000000000002
sS'./pypy-c-36859-prof--objspace-opcodes-CALL_LIKELY_BUILTIN_richards'
p940
F2948.8400000000001
sS'./pypy-c-37163-prof--objspace-opcodes-CALL_LIKELY_BUILTIN_richards'
p941
F3214.3000000000002
sS'./pypy-c-36009-objspace-std-withstrdict--prof_pystone'
p942
F9842.5200000000004
sS'./pypy-llvm-36446-faassen-x86_richards'
p943
F2516.48
sS'./pypy-c-39474-prof--objspace-opcodes-CALL_LIKELY_BUILTIN_richards'
p944
F2882.02
sS'./pypy-llvm-36100-faassen-c_pystone'
p945
F13774.1
sS'./pypy-c-35277_pystone'
p946
F6596.3100000000004
sS'./pypy-c-37044_pystone'
p947
F6596.3100000000004
sS'./pypy-cli-38222_pystone'
p948
F688.80053720931505
sS'./pypy-llvm-36136-faassen-x86_pystone'
p949
F13850.4
sS'./pypy-llvm-34976-objspace-std-withstrdict-c-prof_richards'
p950
F3683.3499999999999
sS'./pypy-c-35095_richards'
p951
F5528.5100000000002
sS'./pypy-cli-39547_pystone'
p952
F668.15960248245301
sS'./pypy-c-36539_richards'
p953
F5283.3999999999996
sS'./pypy-llvm-35906-objspace-std-withstrdict-x86_pystone'
p954
F11600.9
sS'./pypy-c-38994-prof--objspace-opcodes-CALL_LIKELY_BUILTIN_pystone'
p955
F10288.1
sS'./pypy-c-35095-stackless--objspace-std-withstrdict--prof_richards'
p956
F4135.6999999999998
sS'./pypy-c-35010-objspace-std-withstrdict--prof_pystone'
p957
F7215.0100000000002
sS'./pypy-c-39547_pystone'
p958
F6944.4399999999996
sS'./pypy-llvm-36100-faassen-c-prof_richards'
p959
F2208.9400000000001
sS'./pypy-c-36344-prof--objspace-opcodes-CALL_LIKELY_BUILTIN_pystone'
p960
F9900.9899999999998
sS'./pypy-c-35968-prof--objspace-opcodes-CALL_LIKELY_BUILTIN_richards'
p961
F3179.0
sS'./pypy-cli-35944_pystone'
p962
F650.47989935150497
sS'./pypy-llvm-35923-objspace-std-withstrdict-x86_pystone'
p963
F10775.9
sS'./pypy-c-37084-objspace-std-withstrdict--prof_pystone'
p964
F9861.9300000000003
sS'./pypy-c-35411-stackless--objspace-std-withstrdict--prof_richards'
p965
F3984.8499999999999
sS'./pypy-llvm-39072-faassen-x86_pystone'
p966
F15432.1
sS'./pypy-c-36052-objspace-std-withstrdict--prof_pystone'
p967
F6830.6000000000004
sS'./pypy-llvm-39646-faassen-c-prof_richards'
p968
F1472.21
sS'./pypy-c-38994_richards'
p969
F4539.2600000000002
sS'./pypy-c-35237-objspace-std-withstrdict--prof_richards'
p970
F3674.0900000000001
sS'./pypy-llvm-38870-faassen-x86_pystone'
p971
F14836.799999999999
sS'./pypy-llvm-35923-objspace-std-withstrdict-c_richards'
p972
F2581.3800000000001
sS'./pypy-c-39247-gc=framework--objspace-std-withmultidict--prof_richards'
p973
F3168.6199999999999
sS'./pypy-c-35609_richards'
p974
F5428.1199999999999
sS'./pypy-c-34976-gc=framework--objspace-std-withstrdict--prof_pystone'
p975
F7716.0500000000002
sS'./pypy-c-35968-objspace-std-withstrdict--prof_richards'
p976
F3279.73
sS'./pypy-c-39547-prof--objspace-opcodes-CALL_LIKELY_BUILTIN_richards'
p977
F2841.9699999999998
sS'./pypy-c-36136-prof--objspace-opcodes-CALL_LIKELY_BUILTIN_richards'
p978
F3240.3600000000001
sS'./pypy-c-37503-faassen_pystone'
p979
F11236.0
sS'./pypy-c-35944_richards'
p980
F5473.1899999999996
sS'./pypy-c-39147_pystone'
p981
F7352.9399999999996
sS'./pypy-c-36066_richards'
p982
F8355.2199999999993
sS'./pypy-c-39617-stackless--objspace-std-withmultidict--prof_pystone'
p983
F8896.7999999999993
sS'./pypy-c-36113-objspace-std-withstrdict--prof_richards'
p984
F3249.0300000000002
sS'./pypy-llvm-39547-faassen-x86_pystone'
p985
F15151.5
sS'./pypy-c-35988_pystone'
p986
F6830.6000000000004
sS'./pypy-c-39247_pystone'
p987
F6858.71
sS'./pypy-c-38769-objspace-std-withfastslice_richards'
p988
F4608.0299999999997
sS'./pypy-c-37310-objspace-std-withstrdict--prof_richards'
p989
F3026.2600000000002
sS'./pypy-c-35183-objspace-std-withstrdict--prof_richards'
p990
F3455.3499999999999
sS'./pypy-c-35837-objspace-std-withstrdict--prof_richards'
p991
F3350.3499999999999
sS'./pypy-c-37243-prof--objspace-opcodes-CALL_LIKELY_BUILTIN_richards'
p992
F3151.3000000000002
sS'./pypy-llvm-35771-objspace-std-withstrdict-c_pystone'
p993
F12437.799999999999
sS'./pypy-cli-37647_richards'
p994
F47033.993959426902
sS'./pypy-c-35982-gc=framework--objspace-std-withstrdict--prof_pystone'
p995
F10080.6
sS'./pypy-c-35713-stackless--objspace-std-withstrdict--prof_pystone'
p996
F9074.4099999999999
sS'./pypy-c-34948_richards'
p997
F6717.1499999999996
sS'./pypy-cli-39348_richards'
p998
F46597.933053970301
sS'./pypy-cli-35557_pystone'
p999
F479.65731132814
sS'./pypy-c-38769-stackless--objspace-std-withstrdict--prof_pystone'
p1000
F9276.4400000000005
sS'./pypy-c-35065-objspace-std-withstrdict--prof_pystone'
p1001
F9009.0100000000002
sS'./pypy-c-34948-stackless--objspace-std-withstrdict--prof_pystone'
p1002
F6377.5500000000002
sS'./pypy-c-38222-objspace-std-withfastslice_pystone'
p1003
F6738.54
sS'./pypy-c-37111-prof--objspace-opcodes-CALL_LIKELY_BUILTIN_pystone'
p1004
F9823.1800000000003
sS'./pypy-c-35923-gc=framework--objspace-std-withstrdict--prof_richards'
p1005
F3322.9400000000001
sS'./pypy-cli-37310_pystone'
p1006
F689.84143911740898
sS'./pypy-c-35658-gc=framework--objspace-std-withstrdict--prof_richards'
p1007
F3365.1500000000001
sS'./pypy-c-39474-objspace-std-withmultidict--prof_richards'
p1008
F3015.77
sS'./pypy-c-39302-objspace-std-withfastslice_pystone'
p1009
F6711.4099999999999
sS'./pypy-c-39247-stackless--objspace-std-withmultidict--prof_pystone'
p1010
F9293.6800000000003
sS'./pypy-llvm-39374-faassen-x86_richards'
p1011
F1901.3
sS'./pypy-llvm-35963-faassen-c_pystone'
p1012
F13850.4
sS'./pypy-c-37454_richards'
p1013
F5119.8699999999999
sS'./pypy-llvm-35906-objspace-opcodes-CALL_LIKELY_BUILTIN-x86_pystone'
p1014
F10504.200000000001
sS'./pypy-llvm-39617-faassen-c_pystone'
p1015
F16611.299999999999
sS'./pypy-cli-39147_pystone'
p1016
F660.96968085805997
sS'./pypy-llvm-38994-faassen-x86_richards'
p1017
F2106.6399999999999
sS'./pypy-c-35906_richards'
p1018
F5447.8199999999997
sS'./pypy-llvm-36175-faassen-x86_pystone'
p1019
F12853.5
sS'./pypy-llvm-36539-faassen-x86_richards'
p1020
F2497.4499999999998
sS'./pypy-c-37503-prof--objspace-opcodes-CALL_LIKELY_BUILTIN_richards'
p1021
F3271.5999999999999
sS'./pypy-c-37111-gc=framework--objspace-std-withstrdict--prof_pystone'
p1022
F10309.299999999999
sS'./pypy-llvm-35183-objspace-std-withstrdict-c-prof_pystone'
p1023
F99999.0
sS'./pypy-cli-38435_pystone'
p1024
F643.511550897201
sS'./pypy-c-38870-objspace-std-withfastslice_pystone'
p1025
F7012.6199999999999
sS'./pypy-c-35988-prof--objspace-opcodes-CALL_LIKELY_BUILTIN_pystone'
p1026
F10438.4
sS'./pypy-c-35658-stackless--objspace-std-withstrdict--prof_richards'
p1027
F3561.1199999999999
sS'./pypy-c-35512-objspace-std-withstrdict--prof_pystone'
p1028
F9259.2600000000002
sS'./pypy-c-39247-objspace-std-withfastslice_richards'
p1029
F4797.4300000000003
sS'./pypy-c-37415-gc=framework--objspace-std-withstrdict--prof_pystone'
p1030
F9920.6299999999992
sS'./pypy-c-39474-gc=framework--objspace-std-withmultidict--prof_pystone'
p1031
F10460.299999999999
sS'./pypy-llvm-39188-faassen-x86_pystone'
p1032
F14749.299999999999
sS'./pypy-c-35944-prof--objspace-opcodes-CALL_LIKELY_BUILTIN_pystone'
p1033
F9746.5900000000001
sS'./pypy-llvm-36220-faassen-c-prof_pystone'
p1034
F15337.4
sS'./pypy-c-35923-prof--objspace-opcodes-CALL_LIKELY_BUILTIN_pystone'
p1035
F10183.299999999999
sS'./pypy-c-37111-objspace-std-withstrdict--prof_pystone'
p1036
F9560.2299999999996
sS'./pypy-c-35212-gc=framework--objspace-std-withstrdict--prof_richards'
p1037
F3486.0900000000001
sS'./pypy-c-39302-objspace-std-withfastslice_richards'
p1038
F4839.2399999999998
sS'./pypy-llvm-35010-objspace-std-withstrdict-c_pystone'
p1039
F8741.2600000000002
sS'./pypy-c-39646-prof--objspace-opcodes-CALL_LIKELY_BUILTIN_richards'
p1040
F2925.0300000000002
sS'./pypy-llvm-36082-faassen-c_richards'
p1041
F2404.46
sS'./pypy-c-36977-stackless--objspace-std-withstrdict--prof_pystone'
p1042
F9074.4099999999999
sS'./pypy-c-35512-objspace-std-withstrdict--prof_richards'
p1043
F3395.9099999999999
sS'./pypy-llvm-35867-objspace-std-withstrdict-c_richards'
p1044
F2769.4000000000001
sS'./pypy-cli-36446_richards'
p1045
F49426.156044006297
sS'./pypy-c-35557_richards'
p1046
F5194.6999999999998
sS'./pypy-c-36859-prof--objspace-opcodes-CALL_LIKELY_BUILTIN_pystone'
p1047
F10162.6
sS'./pypy-c-36859-gc=framework--objspace-std-withstrdict--prof_richards'
p1048
F3698.9400000000001
sS'./pypy-c-35350-stackless--objspace-std-withstrdict--prof_pystone'
p1049
F8143.3199999999997
sS'./pypy-c-35143_richards'
p1050
F5419.3299999999999
sS'./pypy-c-37163-stackless--objspace-std-withstrdict--prof_richards'
p1051
F3803.96
sS'./pypy-c-37310-gc=framework--objspace-std-withstrdict--prof_richards'
p1052
F3465.73
sS'./pypy-c-37503-gc=framework--objspace-std-withstrdict--prof_pystone'
p1053
F9900.9899999999998
sS'./pypy-cli-39247_richards'
p1054
F46365.128993988001
sS'./pypy-c-39188-objspace-std-withmultidict--prof_richards'
p1055
F3040.0799999999999
sS'./pypy-c-35963-gc=framework--objspace-std-withstrdict--prof_pystone'
p1056
F9960.1599999999999
sS'./pypy-c-39302-prof--objspace-opcodes-CALL_LIKELY_BUILTIN_pystone'
p1057
F10752.700000000001
sS'./pypy-cli-35463_pystone'
p1058
F99999.0
sS'./pypy-llvm-39247-faassen-x86_richards'
p1059
F1920.6300000000001
sS'./pypy-c-36100_richards'
p1060
F5166.8599999999997
sS'./pypy-c-39302-objspace-std-withmultidict--prof_pystone'
p1061
F10142.0
sS'./pypy-c-37707-objspace-std-withstrdict--prof_richards'
p1062
F3237.46
sS'./pypy-c-36175-prof--objspace-opcodes-CALL_LIKELY_BUILTIN_pystone'
p1063
F10416.700000000001
sS'./pypy-c-34948_pystone'
p1064
F5117.71
sS'./pypy-llvm-39324-faassen-c_richards'
p1065
F1826.02
sS'./pypy-cli-38651_richards'
p1066
F46635.348081588701
sS'./pypy-c-36893_richards'
p1067
F5125.1499999999996
sS'./pypy-llvm-36446-faassen-c_pystone'
p1068
F14367.799999999999
sS'./pypy-cli-36175_pystone'
p1069
F560.984338125097
sS'./pypy-c-36100-gc=framework--objspace-std-withstrdict--prof_pystone'
p1070
F10101.0
sS'./pypy-c-37084-prof--objspace-opcodes-CALL_LIKELY_BUILTIN_pystone'
p1071
F10142.0
sS'./pypy-llvm-35982-faassen-x86_pystone'
p1072
F13054.799999999999
sS'./pypy-llvm-35183-objspace-std-withstrdict-c-prof_richards'
p1073
F99999.0
sS'./pypy-c-36082-stackless--objspace-std-withstrdict--prof_pystone'
p1074
F9276.4400000000005
sS'./pypy-llvm-35906-objspace-opcodes-CALL_LIKELY_BUILTIN-c_richards'
p1075
F2749.6399999999999
sS'./pypy-c-38222_pystone'
p1076
F6527.4200000000001
sS'./pypy-c-35143-gc=framework--objspace-std-withstrdict--prof_pystone'
p1077
F9380.8600000000006
sS'./pypy-c-39247-gc=framework--objspace-std-withmultidict--prof_pystone'
p1078
F10638.299999999999
sS'./pypy-c-37454-objspace-std-withstrdict--prof_pystone'
p1079
F9560.2299999999996
sS'./pypy-c-35010-gc=framework--objspace-std-withstrdict--prof_pystone'
p1080
F7374.6300000000001
sS'./pypy-c-35982-objspace-std-withstrdict--prof_pystone'
p1081
F9727.6299999999992
sS'./pypy-cli-38140_richards'
p1082
F48225.253105163603
sS'./pypy-c-35010-stackless--objspace-std-withstrdict--prof_pystone'
p1083
F6329.1099999999997
sS'./pypy-llvm-39188-faassen-x86_richards'
p1084
F1893.74
sS'./pypy-c-38651-objspace-std-withfastslice_pystone'
p1085
F7163.3199999999997
sS'./pypy-c-39617-objspace-std-withfastslice_pystone'
p1086
F6906.0799999999999
sS'./pypy-llvm-39324-faassen-x86_pystone'
p1087
F14662.799999999999
sS'./pypy-llvm-39147-faassen-c_richards'
p1088
F1846.5999999999999
sS'./pypy-c-38529-objspace-std-withfastslice_pystone'
p1089
F7153.0799999999999
sS'./pypy-c-36113-objspace-std-withstrdict--prof_pystone'
p1090
F9727.6299999999992
sS'./pypy-c-35463-gc=framework--objspace-std-withstrdict--prof_richards'
p1091
F3680.8499999999999
sS'./pypy-llvm-35771-objspace-std-withstrdict-c_richards'
p1092
F2654.6700000000001
sS'./pypy-c-36628-prof--objspace-opcodes-CALL_LIKELY_BUILTIN_richards'
p1093
F3376.9099999999999
sS'./pypy-c-36790_pystone'
p1094
F6973.5
sS'./pypy-c-35277-gc=framework--objspace-std-withstrdict--prof_pystone'
p1095
F9596.9300000000003
sS'./pypy-c-36009-gc=framework--objspace-std-withstrdict--prof_pystone'
p1096
F9960.1599999999999
sS'./pypy-cli-35906_pystone'
p1097
F555.39603964190303
sS'./pypy-llvm-35771-objspace-std-withstrdict-x86_pystone'
p1098
F11467.9
sS'./pypy-c-35658-gc=framework--objspace-std-withstrdict--prof_pystone'
p1099
F10245.9
sS'./pypy-c-39348-objspace-std-withmultidict--prof_richards'
p1100
F3085.79
sS'./pypy-c-36136-stackless--objspace-std-withstrdict--prof_richards'
p1101
F3656.4400000000001
sS'./pypy-c-38140-objspace-std-withstrdict--prof_pystone'
p1102
F10183.299999999999
sS'./pypy-llvm-36136-faassen-c_richards'
p1103
F2288.9099999999999
sS'./pypy-c-39474-gc=framework--objspace-std-withmultidict--prof_richards'
p1104
F3134.0100000000002
sS'./pypy-cli-37163_richards'
p1105
F47607.441902160601
sS'./pypy-c-37454-stackless--objspace-std-withstrdict--prof_richards'
p1106
F3766.29
sS'./pypy-llvm-35968-faassen-c_richards'
p1107
F2327.3600000000001
sS'./pypy-c-35609_pystone'
p1108
F6648.9399999999996
sS'./pypy-llvm-36136-faassen-c-prof_richards'
p1109
F2163.2600000000002
sS'./pypy-c-34593-gc=framework_richards'
p1110
F6086.0200000000004
sS'./pypy-llvm-39646-faassen-x86_pystone'
p1111
F15290.5
sS'./pypy-cli-38769_richards'
p1112
F45344.499111175501
sS'./pypy-c-39218-objspace-std-withmultidict--prof_pystone'
p1113
F10846.0
sS'./pypy-c-35988-objspace-std-withstrdict--prof_pystone'
p1114
F9689.9200000000001
sS'./pypy-llvm-unknown-objspace-std-withstrdict-c_pystone'
p1115
F7861.6400000000003
sS'./pypy-c-39324-stackless--objspace-std-withmultidict--prof_richards'
p1116
F3175.4299999999998
sS'./pypy-c-37707-stackless--objspace-std-withstrdict--prof_richards'
p1117
F3772.0700000000002
sS'./pypy-c-37163-objspace-std-withstrdict--prof_richards'
p1118
F3284.6700000000001
sS'./pypy-c-39072-faassen_pystone'
p1119
F12690.4
sS'./pypy-c-37707_richards'
p1120
F5281.6700000000001
sS'./pypy-c-39188-faassen_richards'
p1121
F2143.8299999999999
sS'./pypy-c-37647-objspace-std-withstrdict--prof_pystone'
p1122
F9980.0400000000009
sS'./pypy-c-36158_pystone'
p1123
F6821.2799999999997
sS'./pypy-c-38140-faassen_richards'
p1124
F2784.0900000000001
sS'./pypy-llvm-39147-faassen-c_pystone'
p1125
F15528.0
sS'./pypy-c-36859_richards'
p1126
F5122.2799999999997
sS'./pypy-c-38994-objspace-std-withmultidict--prof_richards'
p1127
F2694.3699999999999
sS'./pypy-llvm-35065-objspace-std-withstrdict-c-prof_pystone'
p1128
F99999.0
sS'./pypy-c-35968-stackless--objspace-std-withstrdict--prof_pystone'
p1129
F8818.3400000000001
sS'./pypy-c-unknown-gc=framework--objspace-std-withstrdict--prof_richards'
p1130
F4653.9200000000001
sS'./pypy-c-35463_pystone'
p1131
F6561.6800000000003
sS'./pypy-c-39218-objspace-std-withfastslice_richards'
p1132
F4632.7799999999997
sS'./pypy-c-36158-prof--objspace-opcodes-CALL_LIKELY_BUILTIN_pystone'
p1133
F10224.9
sS'./pypy-c-38435_richards'
p1134
F5532.6000000000004
sS'./pypy-cli-35512_richards'
p1135
F68813.671112060503
sS'./pypy-c-37367-faassen_richards'
p1136
F2928.9200000000001
sS'./pypy-c-37243_richards'
p1137
F5348.9899999999998
sS'./pypy-c-39188_pystone'
p1138
F7680.4899999999998
sS'./pypy-c-37084-stackless--objspace-std-withstrdict--prof_richards'
p1139
F3467.3200000000002
sS'./pypy-c-36344-prof--objspace-opcodes-CALL_LIKELY_BUILTIN_richards'
p1140
F3103.1900000000001
sS'./pypy-llvm-35143-objspace-std-withstrdict-c-prof_pystone'
p1141
F99999.0
sS'./pypy-c-36220_pystone'
p1142
F6666.6700000000001
sS'./pypy-c-36395-stackless--objspace-std-withstrdict--prof_richards'
p1143
F4021.48
sS'./pypy-c-34593-thread--objspace-std-withstrdict--prof_richards'
p1144
F3527.8499999999999
sS'./pypy-llvm-36539-faassen-c-prof_pystone'
p1145
F16025.6
sS'./pypy-cli-37044_pystone'
p1146
F695.76830792890701
sS'./pypy-c-35979-gc=framework--objspace-std-withstrdict--prof_pystone'
p1147
F9823.1800000000003
sS'./pypy-c-39302-gc=framework--objspace-std-withmultidict--prof_pystone'
p1148
F10460.299999999999
sS'./pypy-llvm-36113-faassen-c_pystone'
p1149
F13736.299999999999
sS'./pypy-cli-37111_pystone'
p1150
F696.47288302331197
sS'./pypy-c-36030-objspace-std-withstrdict--prof_richards'
p1151
F3261.0300000000002
sS'./pypy-c-35713_richards'
p1152
F5200.5500000000002
sS'./pypy-c-35183-gc=framework--objspace-std-withstrdict--prof_pystone'
p1153
F9041.5900000000001
sS'./pypy-c-37575-gc=framework--objspace-std-withstrdict--prof_pystone'
p1154
F10917.0
sS'./pypy-llvm-35837-objspace-std-withstrdict-c_richards'
p1155
F2704.5700000000002
sS'./pypy-llvm-36009-faassen-c-prof_richards'
p1156
F2250.2199999999998
sS'./pypy-llvm-39617-faassen-c-prof_richards'
p1157
F1541.29
sS'./pypy-c-35963-prof--objspace-opcodes-CALL_LIKELY_BUILTIN_pystone'
p1158
F10416.700000000001
sS'./pypy-c-37503-objspace-std-withstrdict--prof_pystone'
p1159
F9823.1800000000003
sS'2.4.4_richards'
p1160
F827.38999999999999
sS'./pypy-c-38651-objspace-std-withstrdict--prof_richards'
p1161
F2609.71
sS'./pypy-llvm-34976-objspace-std-withstrdict-x86_pystone'
p1162
F8726.0
sS'./pypy-llvm-36100-faassen-x86_pystone'
p1163
F13736.299999999999
sS'./pypy-c-37044-gc=framework--objspace-std-withstrdict--prof_pystone'
p1164
F9578.5400000000009
sS'./pypy-llvm-39302-faassen-c_pystone'
p1165
F15479.9
sS'./pypy-llvm-35771-objspace-std-withstrdict-c-prof_pystone'
p1166
F13369.0
sS'./pypy-c-36009-prof--objspace-opcodes-CALL_LIKELY_BUILTIN_richards'
p1167
F3125.1100000000001
sS'./pypy-llvm-36158-faassen-x86_pystone'
p1168
F13054.799999999999
sS'./pypy-c-35963-stackless--objspace-std-withstrdict--prof_richards'
p1169
F3382.6100000000001
sS'./pypy-c-37782-gc=framework--objspace-std-withstrdict--prof_richards'
p1170
F3367.0500000000002
sS'./pypy-c-37647-faassen_pystone'
p1171
F12195.1
sS'./pypy-c-35713-gc=framework--objspace-std-withstrdict--prof_pystone'
p1172
F10593.200000000001
sS'./pypy-c-36136-gc=framework--objspace-std-withstrdict--prof_richards'
p1173
F3440.6399999999999
sS'./pypy-c-39617-objspace-std-withfastslice_richards'
p1174
F4699.3900000000003
sS'./pypy-c-39646-gc=framework--objspace-std-withmultidict--prof_richards'
p1175
F3216.3800000000001
sS'./pypy-c-36082_richards'
p1176
F5220.9200000000001
sS'./pypy-c-37243-gc=framework--objspace-std-withstrdict--prof_richards'
p1177
F3474.6799999999998
sS'./pypy-c-39324_pystone'
p1178
F7022.4700000000003
sS'./pypy-c-35906-objspace-std-withstrdict--prof_richards'
p1179
F3412.77
sS'./pypy-llvm-38870-faassen-c-prof_pystone'
p1180
F16891.900000000001
sS'./pypy-c-36539-prof--objspace-opcodes-CALL_LIKELY_BUILTIN_pystone'
p1181
F9861.9300000000003
sS'./pypy-c-36100-objspace-std-withstrdict--prof_richards'
p1182
F3240.1799999999998
sS'./pypy-c-35837-objspace-std-withstrdict--prof_pystone'
p1183
F9633.9099999999999
sS'./pypy-c-39302-gc=framework--objspace-std-withmultidict--prof_richards'
p1184
F3160.4499999999998
sS'./pypy-llvm-36066-faassen-c_richards'
p1185
F3328.1599999999999
sS'./pypy-llvm-39547-faassen-c_richards'
p1186
F1588.8299999999999
sS'./pypy-llvm-35906-objspace-std-withstrdict-c_pystone'
p1187
F11820.299999999999
sS'./pypy-llvm-39348-faassen-x86_pystone'
p1188
F14044.9
sS'./pypy-c-35963-objspace-std-withstrdict--prof_pystone'
p1189
F9727.6299999999992
sS'./pypy-c-unknown-gc=framework--objspace-std-withstrdict--prof_pystone'
p1190
F7342.1400000000003
sS'./pypy-c-36052_pystone'
p1191
F4549.5900000000001
sS'./pypy-c-39302-stackless--objspace-std-withmultidict--prof_pystone'
p1192
F9416.2000000000007
sS'./pypy-llvm-38769-faassen-c-prof_richards'
p1193
F1609.03
sS'./pypy-cli-38870_richards'
p1194
F46157.076835632302
sS'./pypy-llvm-35837-objspace-std-withstrdict-c-prof_richards'
p1195
F2606.21
sS'./pypy-llvm-36344-faassen-c-prof_richards'
p1196
F2108.6500000000001
sS'./pypy-llvm-36030-faassen-c_pystone'
p1197
F13927.6
sS'./pypy-c-37647_richards'
p1198
F5243.1999999999998
sS'./pypy-cli-36220_richards'
p1199
F63048.5520362854
sS'./pypy-c-37044-stackless--objspace-std-withstrdict--prof_richards'
p1200
F3930.1500000000001
sS'./pypy-c-38994-prof--objspace-opcodes-CALL_LIKELY_BUILTIN_richards'
p1201
F2766.21
sS'./pypy-llvm-39324-faassen-c-prof_pystone'
p1202
F17730.5
sS'./pypy-c-36066-gc=framework--objspace-std-withstrdict--prof_pystone'
p1203
F7451.5600000000004
sS'./pypy-c-36446-gc=framework--objspace-std-withstrdict--prof_pystone'
p1204
F9842.5200000000004
sS'./pypy-c-37243-prof--objspace-opcodes-CALL_LIKELY_BUILTIN_pystone'
p1205
F10040.200000000001
sS'./pypy-c-35923-stackless--objspace-std-withstrdict--prof_richards'
p1206
F3955.9499999999998
sS'./pypy-c-36052-gc=framework--objspace-std-withstrdict--prof_pystone'
p1207
F7194.2399999999998
sS'./pypy-c-39474-faassen_richards'
p1208
F2177.8699999999999
sS'./pypy-llvm-36052-faassen-x86_richards'
p1209
F3583.8000000000002
sS'./pypy-c-38435-objspace-std-withfastslice_richards'
p1210
F5380.0799999999999
sS'./pypy-c-37415-prof--objspace-opcodes-CALL_LIKELY_BUILTIN_pystone'
p1211
F9746.5900000000001
sS'./pypy-llvm-35979-faassen-x86_richards'
p1212
F2649.0100000000002
sS'./pypy-llvm-36175-faassen-c_pystone'
p1213
F14534.9
sS'./pypy-c-36446-gc=framework--objspace-std-withstrdict--prof_richards'
p1214
F3502.7399999999998
sS'./pypy-llvm-35010-objspace-std-withstrdict-c-prof_pystone'
p1215
F8849.5599999999995
sS'./pypy-c-35771-stackless--objspace-std-withstrdict--prof_richards'
p1216
F3516.0500000000002
sS'./pypy-c-36009-prof--objspace-opcodes-CALL_LIKELY_BUILTIN_pystone'
p1217
F9578.5400000000009
sS'./pypy-c-39374_pystone'
p1218
F6849.3199999999997
sS'./pypy-llvm-35923-objspace-std-withstrdict-c_pystone'
p1219
F12376.200000000001
sS'./pypy-c-35212-objspace-std-withstrdict--prof_richards'
p1220
F3435.1799999999998
sS'./pypy-c-36539-objspace-std-withstrdict--prof_pystone'
p1221
F9652.5100000000002
sS'./pypy-c-36395-objspace-std-withstrdict--prof_pystone'
p1222
F9328.3600000000006
sS'./pypy-llvm-39188-faassen-c-prof_pystone'
p1223
F17241.400000000001
sS'./pypy-c-37044-stackless--objspace-std-withstrdict--prof_pystone'
p1224
F8156.6099999999997
sS'./pypy-c-38651-stackless--objspace-std-withstrdict--prof_pystone'
p1225
F9025.2700000000004
sS'./pypy-c-35212-stackless--objspace-std-withstrdict--prof_richards'
p1226
F3661.6300000000001
sS'./pypy-llvm-36009-faassen-x86_richards'
p1227
F2614.77
sS'./pypy-llvm-35923-objspace-opcodes-CALL_LIKELY_BUILTIN-c_pystone'
p1228
F11655.0
sS'./pypy-llvm-35837-objspace-std-withstrdict-c_pystone'
p1229
F11933.200000000001
sS'./pypy-llvm-36182-faassen-c_richards'
p1230
F2319.0300000000002
sS'./pypy-c-36052-objspace-std-withstrdict--prof_richards'
p1231
F4955.96
sS'./pypy-c-38870_richards'
p1232
F4675.4200000000001
sS'./pypy-c-35010-stackless--objspace-std-withstrdict--prof_richards'
p1233
F4828.79
sS'./pypy-c-36790_richards'
p1234
F5237.54
sS'./pypy-cli-37782_richards'
p1235
F47472.757101059004
sS'./pypy-c-35968_pystone'
p1236
F6587.6199999999999
sS'./pypy-llvm-36182-faassen-c-prof_pystone'
p1237
F15432.1
sS'./pypy-c-35463-objspace-std-withstrdict--prof_pystone'
p1238
F8896.7999999999993
sS'./pypy-cli-37243_richards'
p1239
F48961.3389968872
sS'./pypy-c-35237-gc=framework--objspace-std-withstrdict--prof_pystone'
p1240
F9276.4400000000005
sS'./pypy-llvm-36182-faassen-x86_richards'
p1241
F2615.73
sS'./pypy-llvm-35982-faassen-c-prof_pystone'
p1242
F15015.0
sS'./pypy-c-34882-gc=framework--objspace-std-withstrdict--prof_richards'
p1243
F3567.0799999999999
sS'./pypy-c-37367-objspace-std-withstrdict--prof_richards'
p1244
F3274.21
sS'./pypy-c-unknown-stackless--objspace-std-withstrdict--prof_pystone'
p1245
F6410.2600000000002
sS'./pypy-llvm-36158-faassen-c-prof_pystone'
p1246
F14970.1
sS'./pypy-c-37367-prof--objspace-opcodes-CALL_LIKELY_BUILTIN_pystone'
p1247
F10080.6
sS'./pypy-c-39646-stackless--objspace-std-withmultidict--prof_richards'
p1248
F3448.4099999999999
sS'./pypy-cli-36977_richards'
p1249
F46406.007051467903
sS'./pypy-c-39324-stackless--objspace-std-withmultidict--prof_pystone'
p1250
F9505.7000000000007
sS'./pypy-c-37647-faassen_richards'
p1251
F2628.4499999999998
sS'./pypy-c-36136-stackless--objspace-std-withstrdict--prof_pystone'
p1252
F8680.5599999999995
sS'./pypy-c-35963_richards'
p1253
F5102.8800000000001
sS'./pypy-llvm-35979-faassen-x86_pystone'
p1254
F12500.0
sS'./pypy-c-37707-stackless--objspace-std-withstrdict--prof_pystone'
p1255
F8710.7999999999993
sS'./pypy-c-38435-objspace-std-withfastslice_pystone'
p1256
F6570.3000000000002
sS'./pypy-c-38870-faassen_richards'
p1257
F2233.5500000000002
sS'./pypy-c-35512-gc=framework--objspace-std-withstrdict--prof_richards'
p1258
F3598.6199999999999
sS'./pypy-c-36344-objspace-std-withstrdict--prof_richards'
p1259
F3324.7800000000002
sS'./pypy-c-36395_richards'
p1260
F5536.9499999999998
sS'./pypy-cli-36030_richards'
p1261
F51116.893053054802
sS'./pypy-llvm-36539-faassen-c_richards'
p1262
F2207.1900000000001
sS'./pypy-c-35212-stackless--objspace-std-withstrdict--prof_pystone'
p1263
F8250.8299999999999
sS'./pypy-c-36220-objspace-std-withstrdict--prof_richards'
p1264
F3165.1300000000001
sS'./pypy-c-38140-gc=framework--objspace-std-withstrdict--prof_pystone'
p1265
F10416.700000000001
sS'./pypy-cli-35544~_pystone'
p1266
F359.68572215440503
sS'./pypy-c-35217-objspace-std-withstrdict--prof_pystone'
p1267
F9157.5100000000002
sS'./pypy-c-37084_richards'
p1268
F5364.8400000000001
sS'./pypy-c-37707-gc=framework--objspace-std-withstrdict--prof_richards'
p1269
F3246.2199999999998
sS'./pypy-llvm-39474-faassen-c_richards'
p1270
F1849.0599999999999
sS'./pypy-c-35217-stackless--objspace-std-withstrdict--prof_richards'
p1271
F3569.1399999999999
sS'./pypy-c-37084-gc=framework--objspace-std-withstrdict--prof_richards'
p1272
F3595.0900000000001
sS'./pypy-c-34927_pystone'
p1273
F5382.1300000000001
sS'./pypy-c-39474-stackless--objspace-std-withmultidict--prof_richards'
p1274
F3353.96
sS'./pypy-c-35979-prof--objspace-opcodes-CALL_LIKELY_BUILTIN_pystone'
p1275
F10101.0
sS'./pypy-c-39617-stackless--objspace-std-withmultidict--prof_richards'
p1276
F3497.6500000000001
sS'./pypy-c-35988-prof--objspace-opcodes-CALL_LIKELY_BUILTIN_richards'
p1277
F2916.8400000000001
sS'./pypy-c-35512-gc=framework--objspace-std-withstrdict--prof_pystone'
p1278
F9487.6700000000001
sS'./pypy-llvm-35979-faassen-c-prof_pystone'
p1279
F15290.5
sS'./pypy-llvm-36052-faassen-c_richards'
p1280
F3234.1500000000001
sS'./pypy-c-37575_richards'
p1281
F5280.8199999999997
sS'./pypy-c-38769-stackless--objspace-std-withstrdict--prof_richards'
p1282
F3226.9000000000001
sS'./pypy-c-39474-objspace-std-withmultidict--prof_pystone'
p1283
F10142.0
sS'./pypy-c-unknown_pystone'
p1284
F5107.25
sS'./pypy-llvm-35065-objspace-std-withstrdict-x86_richards'
p1285
F99999.0
sS'./pypy-cli-38334_pystone'
p1286
F705.05345228788406
sS'./pypy-cli-38140_pystone'
p1287
F690.24997748059502
sS'./pypy-llvm-36136-faassen-x86_richards'
p1288
F2364.9899999999998
sS'./pypy-c-36977-prof--objspace-opcodes-CALL_LIKELY_BUILTIN_pystone'
p1289
F10330.6
sS'./pypy-c-35923-stackless--prof_pystone'
p1290
F5488.4700000000003
sS'./pypy-cli-35557_richards'
p1291
F69753.593921661406
sS'./pypy-llvm-36009-faassen-c_pystone'
p1292
F13966.5
sS'./pypy-c-36136-objspace-std-withstrdict--prof_pystone'
p1293
F9746.5900000000001
sS'./pypy-llvm-35095-objspace-std-withstrdict-c-prof_pystone'
p1294
F99999.0
sS'./pypy-llvm-34632-objspace-std-withstrdict-c-prof_pystone'
p1295
F9727.6299999999992
sS'./pypy-c-39302-prof--objspace-opcodes-CALL_LIKELY_BUILTIN_richards'
p1296
F2797.0799999999999
sS'./pypy-llvm-39646-faassen-x86_richards'
p1297
F1693.5799999999999
sS'./pypy-cli-39547_richards'
p1298
F46401.371955871597
sS'./pypy-cli-36628_richards'
p1299
F46990.438938140898
sS'./pypy-cli-36052_richards'
p1300
F50074.877977371201
sS'./pypy-c-36539-gc=framework--objspace-std-withstrdict--prof_pystone'
p1301
F9861.9300000000003
sS'./pypy-cli-36220_pystone'
p1302
F568.02782454761098
sS'./pypy-c-39302-faassen_pystone'
p1303
F13404.799999999999
sS'./pypy-llvm-35065-objspace-std-withstrdict-c-prof_richards'
p1304
F99999.0
sS'./pypy-c-38769-gc=framework--objspace-std-withstrdict--prof_pystone'
p1305
F10706.6
sS'./pypy-c-38769-faassen_pystone'
p1306
F13020.799999999999
sS'./pypy-c-36539-stackless--objspace-std-withstrdict--prof_richards'
p1307
F3703.25
sS'./pypy-c-35906-stackless--objspace-std-withstrdict--prof_pystone'
p1308
F8912.6599999999999
sS'./pypy-c-38870-prof--objspace-opcodes-CALL_LIKELY_BUILTIN_pystone'
p1309
F10080.6
sS'./pypy-c-37647-objspace-std-withstrdict--prof_richards'
p1310
F3194.1500000000001
sS'./pypy-c-37415-objspace-std-withstrdict--prof_richards'
p1311
F3333.1799999999998
sS'./pypy-c-38769-objspace-std-withfastslice_pystone'
p1312
F7225.4300000000003
sS'./pypy-llvm-38994-faassen-c_richards'
p1313
F1995.52
sS'./pypy-llvm-35010-objspace-std-withstrdict-c-prof_richards'
p1314
F3694.4899999999998
sS'./pypy-c-39474-prof--objspace-opcodes-CALL_LIKELY_BUILTIN_pystone'
p1315
F10548.5
sS'./pypy-c-39072-gc=framework--objspace-std-withmultidict--prof_pystone'
p1316
F10638.299999999999
sS'./pypy-c-38140_pystone'
p1317
F6756.7600000000002
sS'./pypy-c-35183_richards'
p1318
F5474.7200000000003
sS'./pypy-llvm-39072-faassen-c-prof_pystone'
p1319
F17182.099999999999
sS'./pypy-c-37503-prof--objspace-opcodes-CALL_LIKELY_BUILTIN_pystone'
p1320
F9708.7399999999998
sS'./pypy-c-37243-faassen_pystone'
p1321
F11286.700000000001
sS'./pypy-c-34927_richards'
p1322
F6220.5799999999999
sS'./pypy-c-37163_richards'
p1323
F5178.71
sS'./pypy-c-35988-stackless--objspace-std-withstrdict--prof_richards'
p1324
F3631.2800000000002
sS'./pypy-c-37575-stackless--objspace-std-withstrdict--prof_richards'
p1325
F3572.48
sS'./pypy-llvm-36446-faassen-c-prof_pystone'
p1326
F15384.6
sS'./pypy-cli-36082_pystone'
p1327
F559.66122407692603
sS'./pypy-llvm-36052-faassen-c_pystone'
p1328
F10020.0
sS'./pypy-cli-35837_richards'
p1329
F63587.2900485992
sS'./pypy-c-39646_richards'
p1330
F4784.2799999999997
sS'./pypy-llvm-35065-objspace-std-withstrdict-x86_pystone'
p1331
F99999.0
sS'./pypy-c-37084_pystone'
p1332
F6684.4899999999998
sS'./pypy-c-34976_pystone'
p1333
F5341.8800000000001
sS'./pypy-c-37415-faassen_pystone'
p1334
F11160.700000000001
sS'./pypy-c-35217-stackless--objspace-std-withstrdict--prof_pystone'
p1335
F8431.7000000000007
sS'./pypy-c-38994-objspace-std-withmultidict--prof_pystone'
p1336
F11013.200000000001
sS'./pypy-c-39348-objspace-std-withfastslice_richards'
p1337
F4794.7799999999997
sS'./pypy-cli-36182_pystone'
p1338
F564.35634791688506
sS'./pypy-llvm-39302-faassen-x86_pystone'
p1339
F15105.700000000001
sS'./pypy-c-37454-faassen_pystone'
p1340
F10964.9
sS'./pypy-c-35463-stackless--objspace-std-withstrdict--prof_richards'
p1341
F3909.1999999999998
sS'./pypy-c-36113_pystone'
p1342
F6561.6800000000003
sS'./pypy-c-37575_pystone'
p1343
F6811.9899999999998
sS'./pypy-llvm-35923-objspace-opcodes-CALL_LIKELY_BUILTIN-c-prof_pystone'
p1344
F12953.4
sS'./pypy-c-38870-stackless--objspace-std-withstrdict--prof_pystone'
p1345
F9469.7000000000007
sS'./pypy-llvm-35963-faassen-x86_pystone'
p1346
F13550.1
sS'./pypy-c-38651-faassen_richards'
p1347
F2558.71
sS'./pypy-c-36220-stackless--objspace-std-withstrdict--prof_richards'
p1348
F3684.4899999999998
sS'./pypy-llvm-36220-faassen-c_pystone'
p1349
F13513.5
sS'./pypy-llvm-36175-faassen-x86_richards'
p1350
F2650.6199999999999
sS'./pypy-c-35095-gc=framework--objspace-std-withstrdict--prof_richards'
p1351
F3664.8499999999999
sS'./pypy-cli-36344_pystone'
p1352
F700.04986035125398
sS'./pypy-c-35824-stackless--objspace-std-withstrdict--prof_richards'
p1353
F3721.0
sS'./pypy-c-35944-objspace-std-withstrdict--prof_richards'
p1354
F3346.5700000000002
sS'./pypy-c-39324-objspace-std-withmultidict--prof_richards'
p1355
F3051.3699999999999
sS'./pypy-llvm-39218-faassen-c-prof_pystone'
p1356
F17482.5
sS'./pypy-c-35968-gc=framework--objspace-std-withstrdict--prof_richards'
p1357
F3237.96
sS'./pypy-c-37243-stackless--objspace-std-withstrdict--prof_richards'
p1358
F3860.48
sS'./pypy-cli-36893_richards'
p1359
F47774.488925933802
sS'./pypy-c-36100-prof--objspace-opcodes-CALL_LIKELY_BUILTIN_richards'
p1360
F3104.6599999999999
sS'./pypy-c-38870-gc=framework--objspace-std-withstrdict--prof_pystone'
p1361
F10893.200000000001
sS'./pypy-c-39072-stackless--objspace-std-withmultidict--prof_pystone'
p1362
F9451.7999999999993
sS'./pypy-llvm-35944-faassen-c_richards'
p1363
F2296.7800000000002
sS'./pypy-c-39247_richards'
p1364
F5249.0699999999997
sS'./pypy-c-39324-prof--objspace-opcodes-CALL_LIKELY_BUILTIN_pystone'
p1365
F10706.6
sS'./pypy-c-37163-gc=framework--objspace-std-withstrdict--prof_pystone'
p1366
F10080.6
sS'./pypy-cli-36859_pystone'
p1367
F684.05926569083499
sS'./pypy-c-37084-stackless--objspace-std-withstrdict--prof_pystone'
p1368
F8896.7999999999993
sS'./pypy-cli-36030_pystone'
p1369
F663.80092302314904
sS'./pypy-c-37163-prof--objspace-opcodes-CALL_LIKELY_BUILTIN_pystone'
p1370
F9940.3600000000006
sS'./pypy-c-36100-prof--objspace-opcodes-CALL_LIKELY_BUILTIN_pystone'
p1371
F9881.4200000000001
sS'./pypy-c-37310-stackless--objspace-std-withstrdict--prof_pystone'
p1372
F8787.3500000000004
sS'./pypy-llvm-39547-faassen-x86_richards'
p1373
F1673.3599999999999
sS'./pypy-c-37454-gc=framework--objspace-std-withstrdict--prof_pystone'
p1374
F10352.0
sS'./pypy-c-39547-faassen_richards'
p1375
F2071.8400000000001
sS'./pypy-llvm-36066-faassen-x86_pystone'
p1376
F9803.9200000000001
sS'./pypy-c-36446-stackless--objspace-std-withstrdict--prof_pystone'
p1377
F8517.8899999999994
sS'./pypy-c-36175-gc=framework--objspace-std-withstrdict--prof_pystone'
p1378
F9900.9899999999998
sS'./pypy-c-35982-stackless--objspace-std-withstrdict--prof_pystone'
p1379
F8818.3400000000001
sS'./pypy-c-38769-objspace-std-withstrdict--prof_pystone'
p1380
F10661.0
sS'./pypy-cli-36893_pystone'
p1381
F697.65262912835101
sS'./pypy-c-35463-gc=framework--objspace-std-withstrdict--prof_pystone'
p1382
F9174.3099999999995
sS'./pypy-c-37111-objspace-std-withstrdict--prof_richards'
p1383
F3254.29
sS'./pypy-c-34882_richards'
p1384
F5477.2700000000004
sS'./pypy-c-35065-gc=framework--objspace-std-withstrdict--prof_richards'
p1385
F3811.1399999999999
sS'./pypy-c-37503-faassen_richards'
p1386
F2882.5300000000002
sS'./pypy-c-34976-gc=framework--objspace-std-withstrdict--prof_richards'
p1387
F4066.96
sS'./pypy-llvm-36066-faassen-c_pystone'
p1388
F10000.0
sS'./pypy-llvm-36344-faassen-x86_richards'
p1389
F2462.7600000000002
sS'./pypy-c-35982-stackless--objspace-std-withstrdict--prof_richards'
p1390
F3610.6500000000001
sS'./pypy-llvm-36052-faassen-c-prof_richards'
p1391
F3088.0500000000002
sS'./pypy-c-39646-objspace-std-withfastslice_pystone'
p1392
F7331.3800000000001
sS'./pypy-c-35923-prof--objspace-opcodes-CALL_LIKELY_BUILTIN_richards'
p1393
F3141.4299999999998
sS'./pypy-c-35143-stackless--objspace-std-withstrdict--prof_richards'
p1394
F3903.3800000000001
sS'./pypy-cli-36100_richards'
p1395
F62768.2371139526
sS'./pypy-c-35988_richards'
p1396
F5141.29
sS'./pypy-c-37782-objspace-std-withstrdict--prof_richards'
p1397
F3027.9400000000001
sS'./pypy-c-35411-gc=framework--objspace-std-withstrdict--prof_richards'
p1398
F3620.1700000000001
sS'./pypy-c-39646-objspace-std-withmultidict--prof_pystone'
p1399
F10661.0
sS'./pypy-c-35010_pystone'
p1400
F5296.6099999999997
sS'./pypy-c-36395-prof--objspace-opcodes-CALL_LIKELY_BUILTIN_richards'
p1401
F3052.6900000000001
sS'./pypy-c-37454-faassen_richards'
p1402
F2934.5300000000002
sS'./pypy-llvm-39247-faassen-c_richards'
p1403
F1795.95
sS'./pypy-c-36893-prof--objspace-opcodes-CALL_LIKELY_BUILTIN_richards'
p1404
F2947.9499999999998
s.