LIBRARY CMUTIL.DLL
EXPORTS
WzToSzWithAlloc
WzToSz
UpdateFont
SzToWzWithAlloc
SzToWz
ReleaseBold
MakeBold
IsLogonAsSystem
IsFarEastNonOSR2Win95
GetOSVersion
GetOSMajorVersion
GetOSBuildNumber
CmWinHelp
CmStrtokW
CmStrtokA
CmStrrchrW
CmStrrchrA
CmStripPathAndExtW
CmStripPathAndExtA
CmStripFileNameW
CmStripFileNameA
CmStrchrW
CmStrchrA
CmStrTrimW
CmStrTrimA
CmStrStrW
CmStrStrA
CmStrCpyAllocW
CmStrCpyAllocA
CmStrCharStuffingW
CmStrCharStuffingA
CmStrCharCountW
CmStrCharCountA
CmStrCatAllocW
CmStrCatAllocA
CmRealloc
CmParsePathW
CmParsePathA
CmMalloc
CmLoadStringW
CmLoadStringA
CmLoadSmallIconW
CmLoadSmallIconA
CmLoadImageW
CmLoadImageA
CmLoadIconW
CmLoadIconA
CmIsSpaceW
CmIsSpaceA
CmIsIPv6AddressW
CmIsIPv6AddressA
CmIsDigitW
CmIsDigitA
CmFree
CmFmtMsgW
CmFmtMsgA
CmEndOfStrW
CmEndOfStrA
CmConvertStrToIPv6AddrW
CmConvertStrToIPv6AddrA
CmConvertRelativePathW
CmConvertRelativePathA
CmCompareStringW
CmCompareStringA
CmBuildFullPathFromRelativeW
CmBuildFullPathFromRelativeA
CmAtolW
CmAtolA
?kMaxValueLength@CIniW@@2KB
?Write@CmLogFile@@AEAAJPEAG@Z
?WPPS@CIniW@@QEAAXPEBG00@Z
?WPPS@CIniA@@QEAAXPEBD00@Z
?WPPI@CIniW@@QEAAXPEBG0K@Z
?WPPI@CIniA@@QEAAXPEBD0K@Z
?WPPB@CIniW@@QEAAXPEBG0H@Z
?WPPB@CIniA@@QEAAXPEBD0H@Z
?Stop@CmLogFile@@QEAAJXZ
?Start@CmLogFile@@QEAAJH@Z
?SetWriteICSData@CIniW@@QEAAXH@Z
?SetWriteICSData@CIniA@@QEAAXH@Z
?SetSection@CIniW@@QEAAXPEBG@Z
?SetSection@CIniA@@QEAAXPEBD@Z
?SetRegPath@CIniW@@QEAAXPEBG@Z
?SetRegPath@CIniA@@QEAAXPEBD@Z
?SetReadICSData@CIniW@@QEAAXH@Z
?SetReadICSData@CIniA@@QEAAXH@Z
?SetPrimaryRegPath@CIniW@@QEAAXPEBG@Z
?SetPrimaryRegPath@CIniA@@QEAAXPEBD@Z
?SetPrimaryFile@CIniW@@QEAAXPEBG@Z
?SetPrimaryFile@CIniA@@QEAAXPEBD@Z
?SetParams@CmLogFile@@QEAAJHKPEBG@Z
?SetParams@CmLogFile@@QEAAJHKPEBD@Z
?SetICSDataPath@CIniW@@QEAAXPEBG@Z
?SetICSDataPath@CIniA@@QEAAXPEBD@Z
?SetHInst@CIniW@@QEAAXPEAUHINSTANCE__@@@Z
?SetHInst@CIniA@@QEAAXPEAUHINSTANCE__@@@Z
?SetFile@CIniW@@QEAAXPEBG@Z
?SetFile@CIniA@@QEAAXPEBD@Z
?SetEntryFromIdx@CIniW@@QEAAXK@Z
?SetEntryFromIdx@CIniA@@QEAAXK@Z
?SetEntry@CIniW@@QEAAXPEBG@Z
?SetEntry@CIniA@@QEAAXPEBD@Z
?OpenFile@CmLogFile@@AEAAJXZ
?Log@CmLogFile@@QEAAXW4_CMLOG_ITEM@@ZZ
?LoadSection@CIniW@@QEBAPEAGPEBG@Z
?LoadSection@CIniA@@QEBAPEADPEBD@Z
?LoadEntry@CIniW@@IEBAPEAGPEBG@Z
?LoadEntry@CIniA@@IEBAPEADPEBD@Z
?IsEnabled@CmLogFile@@QEAAHXZ
?Init@CmLogFile@@QEAAJPEAUHINSTANCE__@@HPEBG@Z
?Init@CmLogFile@@QEAAJPEAUHINSTANCE__@@HPEBD@Z
?Init@CRandom@@QEAAXK@Z
?GetSection@CIniW@@QEBAPEBGXZ
?GetSection@CIniA@@QEBAPEBDXZ
?GetRegPath@CIniW@@QEBAPEBGXZ
?GetRegPath@CIniA@@QEBAPEBDXZ
?GetPrimaryRegPath@CIniW@@QEBAPEBGXZ
?GetPrimaryRegPath@CIniA@@QEBAPEBDXZ
?GetPrimaryFile@CIniW@@QEBAPEBGXZ
?GetPrimaryFile@CIniA@@QEBAPEBDXZ
?GetLogFilePath@CmLogFile@@QEAAPEBGXZ
?GetHInst@CIniW@@QEBAPEAUHINSTANCE__@@XZ
?GetHInst@CIniA@@QEBAPEAUHINSTANCE__@@XZ
?GetFile@CIniW@@QEBAPEBGXZ
?GetFile@CIniA@@QEBAPEBDXZ
?Generate@CRandom@@QEAAHXZ
?GPPS@CIniW@@QEBAPEAGPEBG00@Z
?GPPS@CIniA@@QEBAPEADPEBD00@Z
?GPPI@CIniW@@QEBAKPEBG0K@Z
?GPPI@CIniA@@QEBAKPEBD0K@Z
?GPPB@CIniW@@QEBAHPEBG0H@Z
?GPPB@CIniA@@QEBAHPEBD0H@Z
?FormatWrite@CmLogFile@@AEAAXW4_CMLOG_ITEM@@PEAG@Z
?DeInit@CmLogFile@@QEAAJXZ
?CloseFile@CmLogFile@@AEAAJXZ
?Clear@CmLogFile@@QEAAXH@Z
?Clear@CIniW@@QEAAXXZ
?Clear@CIniA@@QEAAXXZ
?CIni_SetFile@CIniW@@KAXPEAPEAGPEBG@Z
?CIni_SetFile@CIniA@@KAXPEAPEADPEBD@Z
?CIniW_WriteEntryToReg@CIniW@@IEBAHPEAUHKEY__@@PEBG1PEBEKK@Z
?CIniW_GetEntryFromReg@CIniW@@IEBAPEAEPEAUHKEY__@@PEBG1KK@Z
?CIniW_DeleteEntryFromReg@CIniW@@IEBAHPEAUHKEY__@@PEBG1@Z
?CIniA_WriteEntryToReg@CIniA@@IEBAHPEAUHKEY__@@PEBD1PEBEKK@Z
?CIniA_GetEntryFromReg@CIniA@@IEBAPEAEPEAUHKEY__@@PEBD1KK@Z
?CIniA_DeleteEntryFromReg@CIniA@@IEBAHPEAUHKEY__@@PEBD1@Z
?Banner@CmLogFile@@QEAAXXZ
??_FCIniW@@QEAAXXZ
??_FCIniA@@QEAAXXZ
??4CmLogFile@@QEAAAEAV0@AEBV0@@Z
??4CRandom@@QEAAAEAV0@AEBV0@@Z
??4CIniW@@QEAAAEAV0@AEBV0@@Z
??4CIniA@@QEAAAEAV0@AEBV0@@Z
??1CmLogFile@@QEAA@XZ
??1CIniW@@QEAA@XZ
??1CIniA@@QEAA@XZ
??0CmLogFile@@QEAA@XZ
??0CRandom@@QEAA@XZ
??0CRandom@@QEAA@I@Z
??0CIniW@@QEAA@PEAUHINSTANCE__@@PEBG111@Z
??0CIniA@@QEAA@PEAUHINSTANCE__@@PEBD111@Z
