LIBRARY DMDSKMGR.DLL
EXPORTS
LoadPropertyPageData
IsRequestPending
IsFailPopupMgmtSupported
GetPropertyPageData
DllRegisterServer
DllGetClassObject
DllCanUnloadNow
?namecmp@@YAHPEBG0@Z
?VolumeContainsActiveRegion@CDMNodeObj@@QEAAHXZ
?UpDateConsoleView@CDMSnapin@@QEAAXXZ
?UIStateChange@CDMComponentData@@QEAAXK@Z
?SupportGpt@CTaskData@@QEAAHXZ
?SupportGpt@CDataCache@@QEAAHXZ
?ShowContextMenu@CContextMenu@@QEAAJPEAVCWnd@@JJ_J@Z
?SetVolumeList@CDataCache@@QEAAXPEAUvolumeinfo@@K@Z
?SetUIState@CTaskData@@QEAAXK@Z
?SetOcxViewTypeForce@CDMComponentData@@QEAAXXZ
?SetOcxViewType@CDMComponentData@@QEAAXXZ
?SetFSId@CDMNodeObj@@QEAAX_J@Z
?SetDriveLetterInUse@CDataCache@@QEAAXGH@Z
?SetDiskList@CDataCache@@QEAAXPEAUdiskinfoex@@K@Z
?SetDescriptionBarText@CDMSnapin@@QEAAXXZ
?RoundUpToMB@@YA_J_J@Z
?ReloadData@CDMComponentData@@QEAAXXZ
?RefreshFileSys@CContextMenu@@QEAAX_J@Z
?RefreshDiskView@CDMComponentData@@QEAAXXZ
?RecalculateSpace@CDMNodeObj@@QEAAXXZ
?PopulateEncapsulateData@CDataCache@@QEAAXPEAUENCAPSULATE_DATA@@@Z
?PopulateDiskGroupData@CDataCache@@QEAAXPEAUDISK_GROUP_DATA@@@Z
?PopUpInit@CContextMenu@@QEAAXPEAVCDMNodeObj@@AEAHH@Z
?ParseDeviceName@@YAXPEAH00PEAG@Z
?LoadData@CDMComponentData@@QEAAXJ@Z
?IsWolfpack@CTaskData@@QEAAHXZ
?IsUpgradeable@CDMNodeObj@@QEAAHXZ
?IsUnknownPartition@CDMNodeObj@@QEAAHXZ
?IsSecureSystemPartition@CTaskData@@QEAAHXZ
?IsRevertable@CDMNodeObj@@QEAAHXZ
?IsPersonalOrLapTopServer@CDataCache@@QEAAHXZ
?IsOemPartition@CDMNodeObj@@QEAAHXZ
?IsNTServer@CTaskData@@QEAAHXZ
?IsNEC_98Server@CTaskData@@QEAAHXZ
?IsNEC_98Server@CDataCache@@QEAAHXZ
?IsNEC_98Disk@CDMNodeObj@@QEAAHXZ
?IsMember@CDMNodeObj@@QEAAHPEAV1@@Z
?IsMbrEEPartition@CDMNodeObj@@QEAAHXZ
?IsMbrEEPartition@@YAHAEAUregioninfoex@@@Z
?IsLocalMachine@CTaskData@@QEAAHXZ
?IsInFlux@CDMNodeObj@@QEAAHXZ
?IsHiddenRegion@CDMNodeObj@@QEAAHXZ
?IsHiddenRegion@@YAHAEAUregioninfoex@@@Z
?IsFirstFreeRegion@CDMNodeObj@@QEAAHXZ
?IsFakeVolume@CDMNodeObj@@QEAAHXZ
?IsFTVolume@CDMNodeObj@@QEAAHXZ
?IsEfi@CTaskData@@QEAAHXZ
?IsEfi@CDataCache@@QEAAHXZ
?IsESPPartition@CDMNodeObj@@QEAAHXZ
?IsEECoveredGPTDisk@CDMNodeObj@@QEAAHXZ
?IsDynamic1394@CDataCache@@QEAAHXZ
?IsDiskEmpty@CDMNodeObj@@QEAAHXZ
?IsCurrSystemVolume@CDMNodeObj@@QEAAHXZ
?IsCurrBootVolume@CDMNodeObj@@QEAAHXZ
?IsAlpha@CTaskData@@QEAAHXZ
?IsAlpha@CDataCache@@QEAAHXZ
?IsActive@CDMNodeObj@@QEAAHXZ
?HasVMDisk@CDataCache@@QEAAHXZ
?HasNTFSwithDriveLetter@CTaskData@@QEAAHXZ
?HasNTFSwithDriveLetter@CDataCache@@QEAAHXZ
?HasExtendedPartition@CDMNodeObj@@QEAAHXZ
?GetWaitCursor@CDMSnapin@@QEAAHXZ
?GetVolumeStatus@CDMNodeObj@@QEAAHAEAVCString@@@Z
?GetVolumeInfo@CDMNodeObj@@QEAAHAEAUvolumeinfo@@@Z
?GetVolumeCount@CDataCache@@QEAAKXZ
?GetVolumeCookies@CDataCache@@IEAAXAEAKPEAPEA_J@Z
?GetUnallocSpace@CDMNodeObj@@QEAA_JH@Z
?GetUIState@CTaskData@@QEAAKXZ
?GetTopViewStyle@CDMSnapin@@QEAAHXZ
?GetStringFromRc@@YA?AVCString@@K@Z
?GetStorageType@CDMNodeObj@@QEAAXAEAVCString@@H@Z
?GetStorageType@CDMNodeObj@@QEAA?AW4_STORAGE_TYPES@@XZ
?GetStatus@CDMNodeObj@@QEAAHXZ
?GetStartOffset@CDMNodeObj@@QEAA_JXZ
?GetSizeString@CDMNodeObj@@QEAAXAEAVCString@@@Z
?GetSize@CDMNodeObj@@QEAAXAEA_JH@Z
?GetSize@CDMNodeObj@@QEAAXAEAJ@Z
?GetShortName@CDMNodeObj@@QEAAXAEAVCString@@@Z
?GetServerName@CTaskData@@QEAA?AVCString@@XZ
?GetServerName@CDataCache@@QEAA?AVCString@@XZ
?GetRevertDiskName@CServerRequests@@QEAAAEAVCString@@XZ
?GetResultStringArray@CDMNodeObj@@QEAAHAEAVCStringArray@@@Z
?GetRegionScaling@CDMSnapin@@QEAAHXZ
?GetRegionInfo@CDMNodeObj@@QEAAHAEAUregioninfoex@@@Z
?GetRegionColorStructPtr@CTaskData@@QEAAXPEAPEAU_REGION_COLORS@@AEAH@Z
?GetPrimaryPartitionCount@CDMNodeObj@@QEAAKXZ
?GetPort@CDMNodeObj@@QEAAHXZ
?GetPatternRef@CDMNodeObj@@QEAAHXZ
?GetPartitionStyleStringHelper@@YAXW4_PARTITIONSTYLE@@AEAVCString@@HKKH@Z
?GetPartitionStyleString@CDMNodeObj@@QEAAXAEAVCString@@H@Z
?GetPartitionStyle@CDMNodeObj@@QEAA?AW4_PARTITIONSTYLE@@XZ
?GetParentVolumePtr@CDMNodeObj@@QEAAPEAV1@XZ
?GetParentDiskPtr@CDMNodeObj@@QEAAPEAV1@XZ
?GetOcxFrameCWndPtr@CTaskData@@QEAAPEAVCWnd@@XZ
?GetObjectId@CDMNodeObj@@QEAAXAEA_J@Z
?GetNumRegions@CDMNodeObj@@QEAAKXZ
?GetNumMembers@CDMNodeObj@@QEAAKXZ
?GetName@CDMNodeObj@@QEAAXAEAVCString@@@Z
?GetMinMaxPartitionSizes@CTaskData@@QEAAX_JAEAK1@Z
?GetMinMaxPartitionSizes@CDataCache@@IEAAX_JAEAK1@Z
?GetMaxPartitionCount@CDMNodeObj@@QEAAKXZ
?GetMaxAdjustedFreeSize@CDMNodeObj@@QEAAXAEA_J@Z
?GetMMCWindow@CDMComponentData@@QEAAPEAUHWND__@@XZ
?GetLongName@CDMNodeObj@@QEAAXAEAVCString@@H@Z
?GetLogicalDriveCount@CDMNodeObj@@QEAAKXZ
?GetListBehavior@CDMSnapin@@QEAAHXZ
?GetLdmObjectId@CDMNodeObj@@QEAA_JXZ
?GetLayoutType@CDMNodeObj@@QEAA?AW4_LAYOUT_TYPES@@XZ
?GetLastKnownState@CDataCache@@QEAA_J_J@Z
?GetImageNum@CDMNodeObj@@QEAAHXZ
?GetIconId@CDMNodeObj@@QEAAIH@Z
?GetIVolumeClientVersion@CTaskData@@QEAAFXZ
?GetIVolumeClientVersion@CDMNodeObj@@QEAAFXZ
?GetFlags@CDMNodeObj@@QEAAJXZ
?GetFilterToggle@CDMSnapin@@QEAAHXZ
?GetFileSystemTypes@CTaskData@@QEAAXAEAKPEAPEAUifilesysteminfo@@@Z
?GetFileSystemTypes@CDataCache@@QEAAXAEAKPEAPEAUifilesysteminfo@@@Z
?GetFileSystemType@CDMNodeObj@@QEAAHXZ
?GetFileSystemSize@CDMNodeObj@@QEAAXAEAJ@Z
?GetFileSystemName@CDMNodeObj@@QEAAXAEAVCString@@@Z
?GetFileSystemLabel@CDMNodeObj@@QEAAXAEAVCString@@@Z
?GetExtraRegionStatus@CDMNodeObj@@QEAAHAEAVCString@@H@Z
?GetExtendedRegionColor@CDMNodeObj@@QEAAKXZ
?GetDriveLetters@CTaskData@@QEAAXAEAFPEAPEAGG@Z
?GetDriveLetters@CDataCache@@IEAAXAEAFPEAPEAGG@Z
?GetDriveLetter@CDMNodeObj@@QEAAXAEAG@Z
?GetDiskTypeNameHelper@@YAXPEAUdiskinfoex@@AEAVCString@@G@Z
?GetDiskTypeName@CDMNodeObj@@QEAAXAEAVCString@@@Z
?GetDiskStatusHelper@@YAHPEAUdiskinfoex@@AEAVCString@@H@Z
?GetDiskStatus@CDMNodeObj@@QEAAHAEAVCString@@@Z
?GetDiskSpec@CDMNodeObj@@QEAAHAEAUdiskspec@@@Z
?GetDiskScaling@CDMSnapin@@QEAAHXZ
?GetDiskInfoFromVolCookie@CTaskData@@QEAAX_JAEAHAEAKPEAPEA_JKH@Z
?GetDiskInfo@CDMNodeObj@@QEAAHAEAUdiskinfoex@@@Z
?GetDiskCount@CDataCache@@QEAAKXZ
?GetDiskCookiesToEncap@CTaskData@@QEAAXAEAKPEAPEA_J@Z
?GetDiskCookiesForUpgrade@CTaskData@@QEAAXAEAKPEAPEA_J@Z
?GetDiskCookiesForSig@CTaskData@@QEAAXAEAKPEAPEA_J@Z
?GetDiskCookies@CTaskData@@QEAAXAEAKPEAPEA_JHKH@Z
?GetDiskCookies@CDataCache@@IEAAXAEAKPEAPEA_J@Z
?GetDeviceType@CDMNodeObj@@QEAAKXZ
?GetDeviceState@CDMNodeObj@@QEAAKXZ
?GetDMDataObjPtrFromId@CTaskData@@QEAAPEAVCDMNodeObj@@_J@Z
?GetColorRef@CDMNodeObj@@QEAAKXZ
?GetBottomViewStyle@CDMSnapin@@QEAAHXZ
?GetBootPort@CTaskData@@QEAAHXZ
?GetAssignedDriveLetter@CTaskData@@QEAAH_JAEAG@Z
?FindRegionPtrOnDiskFromRegionId@CDataCache@@QEAAHPEAVCDMNodeObj@@_JPEAPEAV2@AEAPEAU__POSITION@@@Z
?FindRegionPtrFromRegionId@CTaskData@@QEAAH_JPEAPEAVCDMNodeObj@@@Z
?FindRegionPtrFromRegionId@CDataCache@@QEAAH_JPEAPEAVCDMNodeObj@@@Z
?FindFileSystem@CTaskData@@QEAAH_JAEAUfilesysteminfo@@@Z
?FindFileSystem@CDataCache@@QEAAH_JAEAUfilesysteminfo@@@Z
?FindDriveLetterHelper@@YAHPEAUdriveletterinfo@@H_JAEAG@Z
?FindDriveLetter@CTaskData@@QEAAX_JAEAG@Z
?FindDriveLetter@CDataCache@@QEAAH_JAEAG@Z
?FindDiskPtrFromDiskId@CDataCache@@QEAAH_JPEAPEAVCDMNodeObj@@@Z
?FindDeviceInstanceId@CDataCache@@QEAAPEAG_J@Z
?FindCookieAndRemoveFromList@CDataCache@@QEAAH_JPEAV?$CList@PEAVCDMNodeObj@@PEAV1@@@@Z
?FilterCookiesBigEnoughForRAID5Repair@CTaskData@@QEAAXAEAKPEA_JPEAPEA_JJPEAVCDMNodeObj@@@Z
?FilterCookiesBigEnoughForFTRepair@CTaskData@@QEAAXAEAKPEA_JPEAPEA_JJPEAVCDMNodeObj@@@Z
?FillDeviceInstanceId@CDataCache@@QEAAXPEAG0@Z
?EnumVolumes@CTaskData@@QEAAXAEAKPEAPEA_J@Z
?EnumVolumeMembers@CDMNodeObj@@QEAAXPEAPEA_JAEAJ@Z
?EnumNTFSwithDriveLetter@CTaskData@@QEAAXPEAHPEAPEAG@Z
?EnumNTFSwithDriveLetter@CDataCache@@QEAAXPEAHPEAPEAG@Z
?EnumFirstVolumeMember@CDMNodeObj@@QEAAXAEA_JAEAJ@Z
?EnumDisks@CTaskData@@QEAAXAEAKPEAPEA_J@Z
?EnumDiskRegions@CDMNodeObj@@QEAAXPEAPEA_JAEAJ@Z
?EnhancedIsUpgradeable@CDMNodeObj@@QEAAHPEAVCTaskData@@@Z
?EmptyOcxViewData@CDMComponentData@@QEAAXXZ
?DoDelete@CContextMenu@@QEAAX_J@Z
?DeleteRow@CDMComponentData@@QEAAX_J@Z
?DeleteRegionFromVolumeMemberList@CDataCache@@QEAAXPEAVCDMNodeObj@@@Z
?DeleteLists@CDataCache@@QEAAXXZ
?DeleteEncapsulateData@CDataCache@@QEAAXPEAUENCAPSULATE_DATA@@@Z
?DeleteDiskGroupData@CDataCache@@QEAAXPEAUDISK_GROUP_DATA@@@Z
?CreateVolumeList@CDataCache@@QEAAXXZ
?CreateShortDiskName@CDataCache@@QEAAXAEAUdiskinfoex@@@Z
?CreateRegionNodeObj@CDataCache@@QEAAPEAVCDMNodeObj@@PEAV2@PEAUregioninfoex@@@Z
?CreateNodeObjAndAddToMap@CDataCache@@QEAAPEAVCDMNodeObj@@HW4_NODEOBJ_TYPES@@PEAV1@PEAX_J@Z
?CreateDiskList@CDataCache@@QEAAXXZ
?CookieSort@@YAXPEA_JJJP6AH_J1@Z@Z
?ConvertMBToBytes@@YA_J_J@Z
?ConvertBytesToMB@@YAK_J@Z
?ContainsSystemPartition@CDMNodeObj@@QEAAHXZ
?ContainsSystemInformation@CDMNodeObj@@QEAAHXZ
?ContainsSubDiskNeedResync@CDMNodeObj@@QEAAHXZ
?ContainsRealSystemPartition@CDMNodeObj@@QEAAHXZ
?ContainsPageFile@CDMNodeObj@@QEAAHXZ
?ContainsLogicalDrvBootPartition@CDMNodeObj@@QEAAHXZ
?ContainsESPPartition@CDMNodeObj@@QEAAHXZ
?ContainsBootVolumesNumberChange@CDMNodeObj@@QEAAH_JPEAH@Z
?ContainsBootIniPartitionForWolfpack@CDMNodeObj@@QEAAHXZ
?ContainsBootIniPartition@CDMNodeObj@@QEAAHXZ
?ContainsActivePartition@CDMNodeObj@@QEAAHXZ
?CompareDiskNames@@YAH_J0@Z
?Command@CContextMenu@@QEAAJJPEAUIDataObject@@_J@Z
?ChangeRow@CDMComponentData@@QEAAX_J@Z
?CanHaveGPT@CDMNodeObj@@QEAAHXZ
?AdjustVolumeCountInLegendList@CDataCache@@QEAAXW4_VOLUMELAYOUT@@H@Z
?AdjustRegionCountInLegendList@CDataCache@@QEAAXW4_REGIONTYPE@@H@Z
?AddRow@CDMComponentData@@QEAAX_J@Z
?AddRegionToVolumeMemberList@CDataCache@@QEAAXPEAVCDMNodeObj@@@Z
?AddLDMObjMapEntry@CDataCache@@QEAAXPEAU_LDM_OBJ_MAP_ENTRY@@@Z
?AddInstalledFileSystemsToList@CDataCache@@QEAAXKPEAUifilesysteminfo@@@Z
?AddFileSystemInfoToListAndMap@CDataCache@@QEAAXKPEAUfilesysteminfo@@@Z
??1CDataCache@@UEAA@XZ
??1CDMNodeObj@@QEAA@XZ
??0CDataCache@@QEAA@XZ
