LIBRARY FASTPROX.DLL
EXPORTS
GetObjectCount
DllUnregisterServer
DllRegisterServer
DllGetClassObject
DllCanUnloadNow
?fast_wcsncpy@CCompressedString@@SAPEAGPEAGPEBGH@Z
?fast_wcslen@CCompressedString@@SAHPEBG@Z
?fast_wcscpy@CCompressedString@@SAPEAGPEAGPEBG@Z
?_GetCoreInfo@CWbemObject@@UEAAJJPEAPEAX@Z
?WriteTransferArrayHeader@CWbemInstance@@SAXJPEAPEAE@Z
?WriteToStream@CWbemObject@@UEAAJPEAUIStream@@@Z
?WriteToStream@CWbemInstance@@UEAAJPEAUIStream@@@Z
?WriteSmallerVersion@CQualifierSetList@@QEAAPEAEHPEAE@Z
?WriteSmallerVersion@CDataTable@@QEAAPEAEHKPEAE@Z
?WriteQWORD@CWbemObject@@UEAAJJ_K@Z
?WritePropertyValue@CWbemObject@@UEAAJJJPEBE@Z
?WritePropertyAsMethodParam@CWbemClass@@QEAAJAEAVWString@@HJPEAV1@H@Z
?WritePropagatedVersion@CPropertyLookupTable@@QEAAPEAEPEAVCFastHeap@@PEAE0@Z
?WritePropagatedVersion@CDataTable@@QEAAPEAEPEAVCPropertyLookupTable@@PEAVCFastHeap@@PEAE1@Z
?WritePropagatedVersion@CBasicQualifierSet@@SAPEAEPEAVCPtrSource@@E0PEAVCFastHeap@@1@Z
?WriteProp@CWbemObject@@UEAAJPEBGJKKJPEAX@Z
?WriteDerivedClass@CWbemClass@@QEAAJPEAEHPEAVCDecorationPart@@@Z
?WriteDWORD@CWbemObject@@UEAAJJK@Z
?WrapRemoteRefresher@CWbemRefreshingSvc@@IEAAJPEAPEAUIWbemRemoteRefresher@@@Z
?WbemStringFree@@YAXPEAG@Z
?WbemStringCopy@@YAPEAGPEBG@Z
?WbemObjectFromCOMPtr@CWbemObject@@SAJPEAUIUnknown@@PEAPEAV1@@Z
?ValidateSize@CCompressedString@@QEBAHH@Z
?ValidateSet@CQualifierSet@@QEAAJPEBGEPEAVCTypedValue@@HH@Z
?ValidateRange@CWbemObject@@QEAAHPEAPEAG@Z
?ValidateRange@CPropertyLookupTable@@QEAAJPEAPEAGPEAVCDataTable@@PEAVCFastHeap@@@Z
?ValidatePath@CWbemObject@@QEAAJPEAUParsedObjectPath@@@Z
?ValidateOutParams@CMethodPart@@IEAAJPEAVCWbemObject@@@Z
?ValidateObject@CWbemObject@@UEAAJJ@Z
?ValidateInstance@CLimitationMapping@@QEAAJPEAVCWbemInstance@@@Z
?ValidateBuffer@CWbemInstance@@SA_KPEAE_KAEAV?$vector@UEmbeddedObj@@V?$wbem_allocator@UEmbeddedObj@@@@@std@@@Z
?ValidateBuffer@CWbemInstance@@SA_KPEAEHPEAV1@AEAV?$vector@UEmbeddedObj@@V?$wbem_allocator@UEmbeddedObj@@@@@std@@@Z
?ValidateBuffer@CWbemInstance@@SA_KPEAEHKAEAV?$vector@UEmbeddedObj@@V?$wbem_allocator@UEmbeddedObj@@@@@std@@@Z
?ValidateBuffer@CWbemClass@@SA_KPEAE_K@Z
?ValidateBuffer@CQualifierSetList@@SA_KPEAE_KH@Z
?ValidateBuffer@CPropertyLookupTable@@SA_KPEAE_K@Z
?ValidateBuffer@CMethodPart@@SA_KPEAE_K@Z
?ValidateBuffer@CInstancePart@@SA_KPEAE_KAEAVCClassPart@@AEAV?$vector@UEmbeddedObj@@V?$wbem_allocator@UEmbeddedObj@@@@@std@@@Z
?ValidateBuffer@CFastHeap@@SA_KPEAE_K@Z
?ValidateBuffer@CEmbeddedObject@@SAXPEAE_KAEAV?$vector@UEmbeddedObj@@V?$wbem_allocator@UEmbeddedObj@@@@@std@@@Z
?ValidateBuffer@CDecorationPart@@SA_KPEAE_K@Z
?ValidateBuffer@CDataTable@@SA_KPEAE_KH@Z
?ValidateBuffer@CCompressedStringList@@SA_KPEAE_K@Z
?ValidateBuffer@CClassPart@@SA_KPEAE_K@Z
?ValidateBuffer@CClassAndMethods@@SA_KPEAE_K@Z
?ValidateBuffer@CBasicQualifierSet@@SA_KPEAE_K@Z
?Validate@CWbemInstance@@QEAAJXZ
?VARTYPEToType@CType@@SA?AV1@G@Z
?UpperByte@CCompressedString@@KADG@Z
?Upgrade@CWbemInstance@@UEAAJPEAU_IWmiObject@@JPEAPEAU2@@Z
?Upgrade@CWbemClass@@UEAAJPEAU_IWmiObject@@JPEAPEAU2@@Z
?UpdateProperties@CClassPart@@SAJAEAV1@0J@Z
?Update@CWbemInstance@@UEAAJPEAU_IWmiObject@@JPEAPEAU2@@Z
?Update@CWbemClass@@UEAAJPEAU_IWmiObject@@JPEAPEAU2@@Z
?Update@CWbemClass@@QEAAJPEAV1@JPEAPEAV1@@Z
?Update@CQualifierSet@@QEAAJAEAVCBasicQualifierSet@@JPEAVCFixedBSTRArray@@@Z
?Update@CMethodPart@@SAJAEAV1@0J@Z
?Update@CClassPart@@SAJAEAV1@0J@Z
?Update@CClassAndMethods@@SAJAEAV1@0J@Z
?Unmerge@CWbemObject@@UEAAJJKPEAKPEAX@Z
?Unmerge@CWbemObject@@QEAAKPEAPEAE@Z
?Unmerge@CWbemInstance@@UEAAJPEAEHPEAK@Z
?Unmerge@CWbemClass@@UEAAJPEAEHPEAK@Z
?Unmerge@CPropertyLookupTable@@QEAAPEAEPEAVCDataTable@@PEAVCFastHeap@@PEAE1@Z
?Unmerge@CMethodPart@@QEAAPEAEPEAEK@Z
?Unmerge@CDerivationList@@QEAAPEAEPEAE@Z
?Unmerge@CDataTable@@QEAAPEAEPEAVCPropertyLookupTable@@PEAVCFastHeap@@PEAE1@Z
?Unmerge@CClassPart@@QEAAPEAEPEAEH@Z
?Unmerge@CClassAndMethods@@QEAAPEAEPEAEK@Z
?Unmerge@CBasicQualifierSet@@SAPEAEPEAEPEAVCFastHeap@@01@Z
?UnmarshalPacket@CWbemSmartEnumNextPacket@@QEAAJAEAJAEAPEAPEAUIWbemClassObject@@AEAVCWbemClassCache@@@Z
?UnmarshalPacket@CWbemObjectArrayPacket@@QEAAJAEAJAEAPEAPEAUIWbemClassObject@@AEAVCWbemClassCache@@@Z
?UnmarshalPacket@CWbemMtgtDeliverEventPacket@@QEAAJAEAJAEAPEAPEAUIWbemClassObject@@AEAVCWbemClassCache@@@Z
?UnmarshalInterface@CWbemObject@@UEAAJPEAUIStream@@AEBU_GUID@@PEAPEAX@Z
?Unlock@CWbemObject@@UEAAJJ@Z
?Unlock@CSharedLock@@QEAAHXZ
?Unlock@CHiPerfLock@@QEAAHXZ
?Uninit@XFetchRefrMgr@CWbemFetchRefrMgr@@UEAAJXZ
?Uninit@CWbemFetchRefrMgr@@QEAAJXZ
?Undecorate@CWbemInstance@@UEAAXXZ
?Undecorate@CWbemClass@@UEAAXXZ
?UnbindPtr@?$CPointerArray@VCWmiTextSource@@V?$CReferenceManager@VCWmiTextSource@@@@VCFlexArray@@@@QEAAPEAPEAVCWmiTextSource@@XZ
?UnbindPtr@?$CPointerArray@VCFastPropertyBagItem@@V?$CReferenceManager@VCFastPropertyBagItem@@@@VCFlexArray@@@@QEAAPEAPEAVCFastPropertyBagItem@@XZ
?Unbind@CInternalString@@QEAAXXZ
?Trim@CFastHeap@@QEAAXXZ
?Trim@?$CPointerArray@VCWmiTextSource@@V?$CReferenceManager@VCWmiTextSource@@@@VCFlexArray@@@@QEAAXXZ
?Trim@?$CPointerArray@VCFastPropertyBagItem@@V?$CReferenceManager@VCFastPropertyBagItem@@@@VCFlexArray@@@@QEAAXXZ
?TranslateToNewHeap@CUntypedArray@@SAHPEAVCPtrSource@@VCType@@PEAVCFastHeap@@2@Z
?TranslateToNewHeap@CQualifierSetList@@QEAAHPEAVCFastHeap@@0@Z
?TranslateToNewHeap@CInstancePart@@QEAAHAEAVCClassPart@@PEAVCFastHeap@@1@Z
?TranslateToNewHeap@CDataTable@@QEAAHPEAVCPropertyLookupTable@@HPEAVCFastHeap@@1@Z
?TranslateToNewHeap@CCompressedString@@QEAAHPEAVCFastHeap@@0@Z
?TranslateToNewHeap@CBasicQualifierSet@@SAHPEAVCPtrSource@@PEAVCFastHeap@@1@Z
?ThreeWayMergeOrdered@CFixedBSTRArray@@QEAAXAEAV1@00@Z
?TestCircularReference@CClassPart@@QEAAJPEBG@Z
?Swap@?$CPointerArray@VCWmiTextSource@@V?$CReferenceManager@VCWmiTextSource@@@@VCFlexArray@@@@QEAAXHH@Z
?Swap@?$CPointerArray@VCFastPropertyBagItem@@V?$CReferenceManager@VCFastPropertyBagItem@@@@VCFlexArray@@@@QEAAXHH@Z
?StripClassPart@CWbemInstance@@UEAAJXZ
?StripClassPart@CWbemClass@@UEAAJXZ
?StoreToCVar@CEmbeddedObject@@QEAAXAEAVCVar@@@Z
?StoreToCVar@CCompressedString@@QEBAHAEAVCVar@@@Z
?StoreQualifierConflicts@CQualifierSet@@IEAAJPEBGAEAVCVar@@AEAVCQualifierFlavor@@AEAVCVarVector@@@Z
?StoreEmbedded@CEmbeddedObject@@QEAAXKPEAVCWbemObject@@@Z
?StoreEmbedded@CEmbeddedObject@@QEAAXKAEAVCVar@@@Z
?StopRefreshing@XWbemRemoteRefr@CWbemRemoteRefresher@@UEAAJJPEAJJ@Z
?StartsWithNoCase@CCompressedString@@QEBAHPEBG@Z
?SpawnKeyedInstance@CWbemInstance@@UEAAJJPEBGPEAPEAU_IWmiObject@@@Z
?SpawnKeyedInstance@CWbemClass@@UEAAJJPEBGPEAPEAU_IWmiObject@@@Z
?SpawnInstance@CWbemInstance@@UEAAJJPEAPEAUIWbemClassObject@@@Z
?SpawnInstance@CWbemClass@@UEAAJJPEAPEAUIWbemClassObject@@@Z
?SpawnDerivedClass@CWbemInstance@@UEAAJJPEAPEAUIWbemClassObject@@@Z
?SpawnDerivedClass@CWbemClass@@UEAAJJPEAPEAUIWbemClassObject@@@Z
?SortInPlace@CFixedBSTRArray@@QEAAXXZ
?Skip@CPropertyLookupTable@@QEAAPEAEXZ
?Skip@CFastHeap@@QEAAPEAEXZ
?Skip@CBasicQualifierSet@@QEAAPEAEXZ
?Size@CFastPropertyBag@@QEAAHXZ
?ShouldIncludeServer@CLimitationMapping@@QEAAHXZ
?ShouldIncludeNamespace@CLimitationMapping@@QEAAHXZ
?ShouldIncludeDerivation@CLimitationMapping@@QEAAHXZ
?ShouldAddChildKeys@CLimitationMapping@@QEAAHXZ
?SetupDataPacketHeader@CWbemDataPacket@@IEAAJKEKK@Z
?SetVtableLength@CLimitationMapping@@QEAAXKH@Z
?SetUsedLength@CFastHeap@@QEAAXK@Z
?SetThreadSecurity@CWbemCallSecurity@@UEAAJPEAU_IWmiThreadSecHandle@@@Z
?SetSize@?$CPointerArray@VCWmiTextSource@@V?$CReferenceManager@VCWmiTextSource@@@@VCFlexArray@@@@QEAAXH@Z
?SetSize@?$CPointerArray@VCFastPropertyBagItem@@V?$CReferenceManager@VCFastPropertyBagItem@@@@VCFlexArray@@@@QEAAXH@Z
?SetSignature@CMethodPart@@IEAAJHW4METHOD_SIGNATURE_TYPE@@PEAVCWbemObject@@@Z
?SetSig@CMethodDescription@@QEAAXHK@Z
?SetServiceData@XCfgRefrSrvc@CWbemRefreshingSvc@@UEAAJPEAG0@Z
?SetServiceData@CWbemRefreshingSvc@@MEAAJPEAG0@Z
?SetServerNamespace@CWbemObject@@UEAAJPEBG0@Z
?SetSecondarySetData@CInstancePQSContainer@@QEAAXXZ
?SetRange@CUntypedArray@@SAJPEAVCPtrSource@@JKKPEAVCFastHeap@@KKKPEAX@Z
?SetQualifierValue@CQualifierSet@@QEAAJPEBGEPEAVCTypedValue@@HH@Z
?SetQualifierArrayRange@CWbemObject@@QEAAJPEBG0HJKJKKKPEAX@Z
?SetQualifier@CWbemInstance@@UEAAJPEBGPEAVCVar@@J@Z
?SetQualifier@CWbemInstance@@UEAAJPEBGJPEAVCTypedValue@@@Z
?SetQualifier@CWbemClass@@UEAAJPEBGPEAVCVar@@J@Z
?SetQualifier@CWbemClass@@UEAAJPEBGJPEAVCTypedValue@@@Z
?SetPropertyOrigin@CWbemInstance@@UEAAJPEBGJ@Z
?SetPropertyOrigin@CWbemClass@@UEAAJPEBGJ@Z
?SetPropertyOrigin@CClassPart@@QEAAJPEBGJ@Z
?SetPropValue@CWbemInstance@@UEAAJPEBGPEAVCVar@@J@Z
?SetPropValue@CWbemClass@@UEAAJPEBGPEAVCVar@@J@Z
?SetPropQualifier@CWbemInstance@@UEAAJPEBG0JPEAVCVar@@@Z
?SetPropQualifier@CWbemInstance@@UEAAJPEBG0JPEAVCTypedValue@@@Z
?SetPropQualifier@CWbemClass@@UEAAJPEBG0JPEAVCVar@@@Z
?SetPropQualifier@CWbemClass@@UEAAJPEBG0JPEAVCTypedValue@@@Z
?SetPropQualifier@CClassPart@@QEAAJPEBG0JPEAVCVar@@@Z
?SetPropQualifier@CClassPart@@QEAAJPEBG0JPEAVCTypedValue@@@Z
?SetPropQual@CWbemObject@@UEAAJPEBG0JKKJKPEAX@Z
?SetPropByHandle@CWbemObject@@UEAAJJJKPEAX@Z
?SetOrigin@CWbemThreadSecurityHandle@@QEAAXW4tag_WMI_THREAD_SECURITY_ORIGIN@@@Z
?SetObjectParts@CWbemInstance@@UEAAJPEAXKK@Z
?SetObjectParts@CWbemClass@@UEAAJPEAXKK@Z
?SetObjectMemory@CWbemObject@@UEAAJPEAXK@Z
?SetObjectFlags@CWbemObject@@UEAAJJ_K0@Z
?SetObjQual@CWbemObject@@UEAAJPEBGJKKJKPEAX@Z
?SetNullness@CDataTable@@QEAAXHH@Z
?SetMethodQualifier@CWbemInstance@@UEAAJPEBG0JPEAVCVar@@@Z
?SetMethodQualifier@CWbemInstance@@UEAAJPEBG0JPEAVCTypedValue@@@Z
?SetMethodQualifier@CWbemClass@@UEAAJPEBG0JPEAVCVar@@@Z
?SetMethodQualifier@CWbemClass@@UEAAJPEBG0JPEAVCTypedValue@@@Z
?SetMethodQual@CWbemObject@@UEAAJPEBG0JKKJKPEAX@Z
?SetMethodOrigin@CWbemInstance@@UEAAJPEBGJ@Z
?SetMethodOrigin@CWbemClass@@UEAAJPEBGJ@Z
?SetMethodOrigin@CMethodPart@@QEAAJPEBGJ@Z
?SetLocalized@CWbemInstance@@UEAAXH@Z
?SetLocalized@CWbemClass@@UEAAXH@Z
?SetLocalized@CInstancePart@@QEAAXH@Z
?SetLocalized@CClassPart@@QEAAXH@Z
?SetLimited@CDecorationPart@@QEAAXXZ
?SetLength@CFixedBSTRArray@@QEAAXH@Z
?SetInstanceQualifier@CInstancePart@@QEAAJPEBGPEAVCVar@@J@Z
?SetInstanceQualifier@CInstancePart@@QEAAJPEBGJPEAVCTypedValue@@@Z
?SetInheritanceChain@CWbemInstance@@UEAAJJPEAPEAG@Z
?SetInheritanceChain@CWbemClass@@UEAAJJPEAPEAG@Z
?SetInheritanceChain@CClassPart@@QEAAJJPEAPEAG@Z
?SetIncludeServer@CLimitationMapping@@QEAAXH@Z
?SetIncludeNamespace@CLimitationMapping@@QEAAXH@Z
?SetIncludeDerivation@CLimitationMapping@@QEAAXH@Z
?SetInLineLength@CFastHeap@@IEAAXK@Z
?SetFromUnicode@CCompressedString@@QEAAXPEBG@Z
?SetFromUnicode@CCompressedString@@QEAAXHPEBG@Z
?SetFromAscii@CCompressedString@@QEAAXPEBD_K@Z
?SetFlags@CLimitationMapping@@QEAAXJ@Z
?SetDefaultness@CDataTable@@QEAAXHH@Z
?SetDefaultValue@CClassPart@@QEAAJPEBGPEAVCVar@@@Z
?SetDefaultValue@CClassPart@@IEAAJPEAVCPropertyInformation@@PEAVCVar@@@Z
?SetDecoration@CWbemObject@@UEAAJPEBG0@Z
?SetDataWithNumProps@CClassPart@@QEAAXPEAEPEAVCClassPartContainer@@KPEAV1@@Z
?SetDataWithNumProps@CClassAndMethods@@QEAAXPEAEPEAVCWbemClass@@KPEAV1@@Z
?SetDataToNone@CBasicQualifierSet@@SAXPEAE@Z
?SetDataLength@CInstancePart@@QEAAXK@Z
?SetDataLength@CClassPart@@QEAAXK@Z
?SetDataLength@CBasicQualifierSet@@KAXPEAEK@Z
?SetData@CWbemSmartEnumNextPacket@@QEAAXPEAEK_N@Z
?SetData@CWbemObjectArrayPacket@@QEAAXPEAEK_N@Z
?SetData@CWbemMtgtDeliverEventPacket@@QEAAXPEAEK_N@Z
?SetData@CWbemInstance@@UEAAXPEAEH@Z
?SetData@CWbemInstance@@QEAAXPEAEHK@Z
?SetData@CWbemDataPacket@@QEAAXPEAEK_N@Z
?SetData@CWbemClass@@UEAAXPEAEH@Z
?SetData@CSharedLock@@QEAAXPEAUSHARED_LOCK_DATA@@@Z
?SetData@CQualifierSetList@@QEAAXPEAEHPEAVCQualifierSetListContainer@@@Z
?SetData@CQualifierSet@@QEAAXPEAEPEAVCQualifierSetContainer@@PEAVCBasicQualifierSet@@@Z
?SetData@CPropertyLookupTable@@QEAAXPEAEPEAVCPropertyTableContainer@@@Z
?SetData@CMethodQualifierSetContainer@@QEAAXPEAVCMethodPart@@0PEBG@Z
?SetData@CMethodQualifierSet@@QEAAXPEAVCMethodPart@@0PEBG@Z
?SetData@CMethodPart@@QEAAXPEAEPEAVCMethodPartContainer@@PEAV1@@Z
?SetData@CInstancePart@@QEAAXPEAEPEAVCInstancePartContainer@@AEAVCClassPart@@_K@Z
?SetData@CFastHeap@@QEAAHPEAEPEAVCHeapContainer@@@Z
?SetData@CDecorationPart@@QEAAXPEAE@Z
?SetData@CDataTable@@QEAAXPEAEHHPEAVCDataTableContainer@@@Z
?SetData@CCompressedStringList@@QEAAXPEAE@Z
?SetData@CClassPart@@QEAAXPEAEPEAVCClassPartContainer@@PEAV1@@Z
?SetData@CClassAndMethods@@QEAAXPEAEPEAVCWbemClass@@PEAV1@@Z
?SetData@CBasicQualifierSet@@QEAAXPEAEPEAVCFastHeap@@@Z
?SetContainer@CFastHeap@@QEAAXPEAVCHeapContainer@@@Z
?SetClientOnly@CWbemObject@@QEAAXXZ
?SetClientOnly@CDecorationPart@@QEAAXXZ
?SetClassQualifier@CClassPart@@QEAAJPEBGPEAVCVar@@J@Z
?SetClassQualifier@CClassPart@@QEAAJPEBGJPEAVCTypedValue@@@Z
?SetClassPart@CWbemInstance@@UEAAJPEAXK@Z
?SetClassPart@CWbemClass@@UEAAJPEAXK@Z
?SetClassObject@CLimitationMapping@@QEAAXPEAVCWbemClass@@@Z
?SetClassName@CClassPart@@QEAAJPEAVCVar@@@Z
?SetAt@?$CPointerArray@VCWmiTextSource@@V?$CReferenceManager@VCWmiTextSource@@@@VCFlexArray@@@@QEAAXHPEAVCWmiTextSource@@PEAPEAV2@@Z
?SetAt@?$CPointerArray@VCFastPropertyBagItem@@V?$CReferenceManager@VCFastPropertyBagItem@@@@VCFlexArray@@@@QEAAXHPEAVCFastPropertyBagItem@@PEAPEAV2@@Z
?SetArrayPropRangeByHandle@CWbemObject@@UEAAJJJKKKPEAX@Z
?SetArrayPropElementByHandle@CWbemObject@@UEAAJJJKKPEAX@Z
?SetAllocatedDataLength@CFastHeap@@QEAAXK@Z
?SetAllToDefault@CDataTable@@QEAAXXZ
?SetAddChildKeys@CLimitationMapping@@QEAAXH@Z
?SetActualValue@CInstancePart@@QEAAJPEAVCPropertyInformation@@PEAVCVar@@@Z
?SelfRebase@CQualifierSet@@QEAAHXZ
?RevertToSelf@CWbemCallSecurity@@UEAAJXZ
?ResolveString@CFastHeap@@QEAAPEAVCCompressedString@@K@Z
?ResolveHeapString@CClassPart@@QEAAPEAVCCompressedString@@K@Z
?ResolveHeapPointer@CFastHeap@@QEAAPEAEK@Z
?ResolveHeapPointer@CClassPart@@QEAAPEAEK@Z
?ResetRefreshInfo@CWbemRefreshingSvc@@IEAAJPEAU_WBEM_REFRESH_INFO@@@Z
?Reset@CLimitationMapping@@QEAAXXZ
?Reset@CCompressedStringList@@QEAAXXZ
?Reparent@CWbemInstance@@QEAAJPEAVCWbemClass@@PEAPEAV1@@Z
?RemoveSpecific@CLimitationMapping@@QEAAXXZ
?RemoveRange@CUntypedArray@@SAJPEAVCPtrSource@@KKPEAVCFastHeap@@KK@Z
?RemoveQualifierArrayRange@CWbemObject@@QEAAJPEBG0HJKK@Z
?RemoveProperty@CDataTable@@QEAAXGKK@Z
?RemoveObjectFromRefresher@XWbemRefrSvc@CWbemRefreshingSvc@@UEAAJPEAU_WBEM_REFRESHER_ID@@JJKPEAK@Z
?RemoveObjectFromRefresher@CWbemRefreshingSvc@@MEAAJPEAU_WBEM_REFRESHER_ID@@JJKPEAK@Z
?RemoveDecoration@CWbemObject@@UEAAJXZ
?RemoveAt@?$CPointerArray@VCWmiTextSource@@V?$CReferenceManager@VCWmiTextSource@@@@VCFlexArray@@@@QEAA_NHPEAPEAVCWmiTextSource@@@Z
?RemoveAt@?$CPointerArray@VCFastPropertyBagItem@@V?$CReferenceManager@VCFastPropertyBagItem@@@@VCFlexArray@@@@QEAA_NHPEAPEAVCFastPropertyBagItem@@@Z
?RemoveArrayPropRangeByHandle@CWbemObject@@UEAAJJJKK@Z
?RemoveArrayPropElementByHandle@CWbemObject@@UEAAJJJK@Z
?RemoveAll@CFastPropertyBag@@QEAAJXZ
?RemoveAll@?$CPointerArray@VCWmiTextSource@@V?$CReferenceManager@VCWmiTextSource@@@@VCFlexArray@@@@QEAAXXZ
?RemoveAll@?$CPointerArray@VCFastPropertyBagItem@@V?$CReferenceManager@VCFastPropertyBagItem@@@@VCFlexArray@@@@QEAAXXZ
?Remove@CFastPropertyBag@@QEAAJPEBG@Z
?RemoteRefresh@XWbemRemoteRefr@CWbemRemoteRefresher@@UEAAJJPEAJPEAPEAU_WBEM_REFRESHED_OBJECT@@@Z
?ReleaseMarshalData@CWbemObject@@UEAAJPEAUIStream@@@Z
?ReleaseElement@?$CPointerArray@VCWmiTextSource@@V?$CReferenceManager@VCWmiTextSource@@@@VCFlexArray@@@@IEAAXPEAVCWmiTextSource@@@Z
?ReleaseElement@?$CPointerArray@VCFastPropertyBagItem@@V?$CReferenceManager@VCFastPropertyBagItem@@@@VCFlexArray@@@@IEAAXPEAVCFastPropertyBagItem@@@Z
?Release@CWbemThreadSecurityHandle@@UEAAKXZ
?Release@CWbemObject@@UEAAKXZ
?Release@CWbemCallSecurity@@UEAAKXZ
?Release@CQualifierSet@@UEAAKXZ
?Release@CMethodQualifierSet@@UEAAKXZ
?Release@CInstanceQualifierSet@@UEAAKXZ
?Release@CClassQualifierSet@@UEAAKXZ
?Release@?$CImpl@U_IWmiObjectFactory@@VCWmiObjectFactory@@@@UEAAKXZ
?Release@?$CImpl@U_IWbemFetchRefresherMgr@@VCWbemFetchRefrMgr@@@@UEAAKXZ
?Release@?$CImpl@U_IWbemEnumMarshaling@@VCWbemEnumMarshaling@@@@UEAAKXZ
?Release@?$CImpl@U_IWbemConfigureRefreshingSvcs@@VCWbemRefreshingSvc@@@@UEAAKXZ
?Release@?$CImpl@UIWbemRemoteRefresher@@VCWbemRemoteRefresher@@@@UEAAKXZ
?Release@?$CImpl@UIWbemRefreshingServices@@VCWbemRefreshingSvc@@@@UEAAKXZ
?Release@?$CImpl@UIWbemObjectTextSrc@@VCWmiObjectTextSrc@@@@UEAAKXZ
?ReduceQualifierSetSpace@CQualifierSetList@@QEAAXPEAVCBasicQualifierSet@@K@Z
?ReduceQualifierSetSpace@CMethodQualifierSetContainer@@UEAAXPEAVCBasicQualifierSet@@K@Z
?ReduceQualifierSetSpace@CInstancePart@@UEAAXPEAVCBasicQualifierSet@@K@Z
?ReduceQualifierSetSpace@CInstancePQSContainer@@UEAAXPEAVCBasicQualifierSet@@K@Z
?ReduceQualifierSetSpace@CClassPart@@UEAAXPEAVCBasicQualifierSet@@K@Z
?ReduceQualifierSetListSpace@CInstancePart@@UEAAXPEAEKK@Z
?ReducePropertyTableSpace@CClassPart@@UEAAXPEAEKK@Z
?ReduceMethodPartSpace@CClassAndMethods@@UEAAXPEAVCMethodPart@@K@Z
?ReduceInstancePartSpace@CWbemInstance@@UEAAXPEAVCInstancePart@@K@Z
?ReduceHeapSize@CMethodPart@@UEAAXPEAEKK@Z
?ReduceHeapSize@CInstancePart@@UEAAXPEAEKK@Z
?ReduceHeapSize@CClassPart@@UEAAXPEAEKK@Z
?ReduceDataTableSpace@CInstancePart@@UEAAXPEAEKK@Z
?ReduceDataTableSpace@CClassPart@@UEAAXPEAEKK@Z
?ReduceClassPartSpace@CWbemInstance@@UEAAXPEAVCClassPart@@K@Z
?ReduceClassPartSpace@CClassAndMethods@@UEAAXPEAVCClassPart@@K@Z
?ReduceClassAndMethodsSpace@CWbemClass@@QEAAXK@Z
?Reduce@CFastHeap@@QEAAXKKK@Z
?ReconnectRemoteRefresher@XWbemRefrSvc@CWbemRefreshingSvc@@UEAAJPEAU_WBEM_REFRESHER_ID@@JJKPEAU_WBEM_RECONNECT_INFO@@PEAU_WBEM_RECONNECT_RESULTS@@PEAK@Z
?ReconnectRemoteRefresher@CWbemRefreshingSvc@@MEAAJPEAU_WBEM_REFRESHER_ID@@JJKPEAU_WBEM_RECONNECT_INFO@@PEAU_WBEM_RECONNECT_RESULTS@@PEAK@Z
?ReconcileWith@CWbemInstance@@UEAAJJPEAU_IWmiObject@@@Z
?ReconcileWith@CWbemClass@@UEAAJJPEAU_IWmiObject@@@Z
?ReconcileWith@CWbemClass@@QEAA?AW4EReconciliation@@PEAV1@@Z
?ReconcileWith@CMethodPart@@QEAA?AW4EReconciliation@@AEAV1@@Z
?ReconcileWith@CClassPart@@QEAA?AW4EReconciliation@@AEAV1@@Z
?ReconcileWith@CClassAndMethods@@QEAA?AW4EReconciliation@@AEAV1@@Z
?RebaseSecondarySet@CInstancePQSContainer@@QEAAXXZ
?Rebase@CWbemInstance@@QEAAXPEAE@Z
?Rebase@CWbemClass@@QEAAXPEAE@Z
?Rebase@CQualifierSetList@@QEAAXXZ
?Rebase@CQualifierSetList@@QEAAXPEAE@Z
?Rebase@CPropertyLookupTable@@QEAAXPEAE@Z
?Rebase@CMethodPart@@QEAAXPEAE@Z
?Rebase@CInstancePart@@QEAAXPEAE@Z
?Rebase@CFastHeap@@QEAAXPEAE@Z
?Rebase@CDecorationPart@@QEAAXPEAE@Z
?Rebase@CDataTable@@QEAAXPEAE@Z
?Rebase@CCompressedStringList@@QEAAXPEAE@Z
?Rebase@CClassPart@@QEAAXPEAE@Z
?Rebase@CClassAndMethods@@QEAAXPEAE@Z
?Rebase@CBasicQualifierSet@@QEAAXPEAE@Z
?Reallocate@CWbemObject@@IEAAPEAEK@Z
?Reallocate@CFastHeap@@QEAAHKKKAEFAK@Z
?ReallocArray@CUntypedArray@@KAJPEAVCPtrSource@@KPEAVCFastHeap@@KPEAK22@Z
?ReallocAndCompact@CInstancePart@@QEAAHK@Z
?ReallocAndCompact@CClassPart@@QEAAHK@Z
?ReadQWORD@CWbemObject@@UEAAJJPEA_K@Z
?ReadPropertyValue@CWbemObject@@UEAAJJJPEAJPEAE@Z
?ReadProp@CWbemObject@@UEAAJPEBGJKPEAJ1PEAHPEAKPEAX@Z
?ReadDWORD@CWbemObject@@UEAAJJPEAK@Z
?QueryPropertyFlags@CWbemObject@@UEAAJJPEBG_KPEA_K@Z
?QueryPartInfo@CWbemObject@@UEAAJPEAK@Z
?QueryObjectFlags@CWbemObject@@UEAAJJ_KPEA_K@Z
?QueryInterface@CWbemThreadSecurityHandle@@UEAAJAEBU_GUID@@PEAPEAX@Z
?QueryInterface@CWbemObject@@UEAAJAEBU_GUID@@PEAPEAX@Z
?QueryInterface@CWbemCallSecurity@@UEAAJAEBU_GUID@@PEAPEAX@Z
?QueryInterface@CQualifierSet@@UEAAJAEBU_GUID@@PEAPEAX@Z
?QueryInterface@?$CImpl@U_IWmiObjectFactory@@VCWmiObjectFactory@@@@UEAAJAEBU_GUID@@PEAPEAX@Z
?QueryInterface@?$CImpl@U_IWbemFetchRefresherMgr@@VCWbemFetchRefrMgr@@@@UEAAJAEBU_GUID@@PEAPEAX@Z
?QueryInterface@?$CImpl@U_IWbemEnumMarshaling@@VCWbemEnumMarshaling@@@@UEAAJAEBU_GUID@@PEAPEAX@Z
?QueryInterface@?$CImpl@U_IWbemConfigureRefreshingSvcs@@VCWbemRefreshingSvc@@@@UEAAJAEBU_GUID@@PEAPEAX@Z
?QueryInterface@?$CImpl@UIWbemRemoteRefresher@@VCWbemRemoteRefresher@@@@UEAAJAEBU_GUID@@PEAPEAX@Z
?QueryInterface@?$CImpl@UIWbemRefreshingServices@@VCWbemRefreshingSvc@@@@UEAAJAEBU_GUID@@PEAPEAX@Z
?QueryInterface@?$CImpl@UIWbemObjectTextSrc@@VCWmiObjectTextSrc@@@@UEAAJAEBU_GUID@@PEAPEAX@Z
?QueryBlanket@CWbemCallSecurity@@UEAAJPEAK0PEAPEAG00PEAPEAX0@Z
?PutMethod@CWbemInstance@@UEAAJPEBGJPEAUIWbemClassObject@@1@Z
?PutMethod@CWbemClass@@UEAAJPEBGJPEAUIWbemClassObject@@1@Z
?PutMethod@CMethodPart@@QEAAJPEBGJPEAVCWbemObject@@1@Z
?Put@CWbemInstance@@UEAAJPEBGJPEAUtagVARIANT@@J@Z
?Put@CWbemClass@@UEAAJPEBGJPEAUtagVARIANT@@J@Z
?Put@CQualifierSet@@UEAAJPEBGPEAUtagVARIANT@@J@Z
?PlugKeyHoles@CWbemInstance@@QEAAJXZ
?NextMethod@CWbemInstance@@UEAAJJPEAPEAGPEAPEAUIWbemClassObject@@1@Z
?NextMethod@CWbemClass@@UEAAJJPEAPEAGPEAPEAUIWbemClassObject@@1@Z
?NextMapping@CLimitationMapping@@QEAAHPEAVCPropertyInformation@@0@Z
?Next@CWbemObject@@UEAAJJPEAPEAGPEAUtagVARIANT@@PEAJ2@Z
?Next@CQualifierSet@@UEAAJJPEAPEAGPEAUtagVARIANT@@PEAJ@Z
?New@CWbemThreadSecurityHandle@@SAPEAV1@XZ
?New@CWbemCallSecurity@@SAPEAV1@XZ
?NValidateSize@CCompressedString@@QEBA_NH@Z
?MergeClassPart@CWbemInstance@@UEAAJPEAUIWbemClassObject@@@Z
?MergeClassPart@CWbemClass@@UEAAJPEAUIWbemClassObject@@@Z
?MergeAndDecorate@CWbemInstance@@UEAAJJKPEAXPEAG1PEAPEAU_IWmiObject@@@Z
?MergeAndDecorate@CWbemClass@@UEAAJJKPEAXPEAG1PEAPEAU_IWmiObject@@@Z
?MergeAmended@CWbemObject@@UEAAJJPEAU_IWmiObject@@@Z
?Merge@CWbemInstance@@UEAAJJKPEAXPEAPEAU_IWmiObject@@@Z
?Merge@CWbemClass@@UEAAJJKPEAXPEAPEAU_IWmiObject@@@Z
?Merge@CWbemClass@@QEAAPEAEPEAE0HH@Z
?Merge@CPropertyLookupTable@@SAPEAEPEAV1@PEAVCFastHeap@@01PEAE1H@Z
?Merge@CMethodPart@@SAPEAEAEAV1@0PEAEK@Z
?Merge@CDerivationList@@SAPEAEAEAVCCompressedStringList@@0PEAE@Z
?Merge@CDataTable@@SAPEAEPEAV1@PEAVCFastHeap@@01PEAVCPropertyLookupTable@@PEAE1@Z
?Merge@CClassPart@@SAPEAEAEAV1@0PEAEH@Z
?Merge@CClassAndMethods@@SAPEAEAEAV1@0PEAEH@Z
?Merge@CBasicQualifierSet@@SAPEAEPEAEPEAVCFastHeap@@0101H@Z
?MaxNumProperties@CSystemProperties@@SAHXZ
?MarshalPacket@CWbemSmartEnumNextPacket@@QEAAJPEAEKJPEAPEAUIWbemClassObject@@PEAU_GUID@@PEAH@Z
?MarshalPacket@CWbemSmartEnumNextPacket@@QEAAJJPEAPEAUIWbemClassObject@@PEAU_GUID@@PEAH@Z
?MarshalPacket@CWbemObjectArrayPacket@@QEAAJPEAEKJPEAPEAUIWbemClassObject@@PEAU_GUID@@PEAH@Z
?MarshalPacket@CWbemObjectArrayPacket@@QEAAJJPEAPEAUIWbemClassObject@@PEAU_GUID@@PEAH@Z
?MarshalPacket@CWbemMtgtDeliverEventPacket@@QEAAJPEAEKJPEAPEAUIWbemClassObject@@PEAU_GUID@@PEAH@Z
?MarshalPacket@CWbemMtgtDeliverEventPacket@@QEAAJJPEAPEAUIWbemClassObject@@PEAU_GUID@@PEAH@Z
?MarshalInterface@CWbemObject@@UEAAJPEAUIStream@@AEBU_GUID@@PEAXK2K@Z
?MarkKeyRemoval@CDecorationPart@@SAXPEAE@Z
?MapLimitation@CWbemClass@@QEAAHJPEAVCWStringArray@@PEAVCLimitationMapping@@@Z
?MapLimitation@CPropertyLookupTable@@QEAAHJPEAVCWStringArray@@PEAVCLimitationMapping@@@Z
?MapLimitation@CDecorationPart@@SAHPEAVCWStringArray@@PEAVCLimitationMapping@@@Z
?MapLimitation@CClassPart@@QEAAHJPEAVCWStringArray@@PEAVCLimitationMapping@@@Z
?Map@CLimitationMapping@@QEAAXPEAVCPropertyInformation@@0H@Z
?MakeSubsetInst@CWbemInstance@@UEAAJPEAU_IWmiObject@@PEAPEAU2@@Z
?MakeSubsetInst@CWbemClass@@UEAAJPEAU_IWmiObject@@PEAPEAU2@@Z
?MakeParents@CType@@SAKK@Z
?MakeNotArray@CType@@SAKK@Z
?MakeLowercase@CCompressedString@@QEAAXXZ
?MakeLocal@CType@@SAKK@Z
?MakeFakeFromIndex@CFastHeap@@SAKH@Z
?MakeArray@CType@@SAKK@Z
?LowerByte@CCompressedString@@KADG@Z
?Lock@CWbemObject@@UEAAJJ@Z
?Lock@CSharedLock@@QEAAHK@Z
?Lock@CHiPerfLock@@QEAAHK@Z
?LocalizeQualifiers@CWbemObject@@IEAAJH_NPEAUIWbemQualifierSet@@1AEA_N@Z
?LocalizeProperties@CWbemObject@@IEAAJH_NPEAUIWbemClassObject@@1AEA_N@Z
?LoadFromCVarVector@CUntypedArray@@SAJPEAVCPtrSource@@AEAVCVarVector@@KPEAVCFastHeap@@AEAKH@Z
?IsWinmgmt@CWbemRefreshingSvc@@IEAAHPEAU_WBEM_REFRESHER_ID@@@Z
?IsValidQualifierType@CBasicQualifierSet@@SAHG@Z
?IsValidQualifierSet@CBasicQualifierSet@@QEAAJXZ
?IsValidPtr@CFastHeap@@QEAA_NK@Z
?IsValidPropertyHandle@CWbemObject@@QEAAJJ@Z
?IsValidPropertyHandle@CClassPart@@QEAAJJ@Z
?IsValidObj@CWbemInstance@@UEAAJXZ
?IsValidObj@CWbemClass@@UEAAJXZ
?IsValidMethodPart@CMethodPart@@QEAAJXZ
?IsValidKey@CWbemInstance@@QEAAHPEBG@Z
?IsValidInstancePart@CInstancePart@@QEAAJPEAVCClassPart@@AEAV?$vector@UEmbeddedObj@@V?$wbem_allocator@UEmbeddedObj@@@@@std@@@Z
?IsValidClassPart@CClassPart@@QEAAJXZ
?IsValid@CWbemObjectArrayPacket@@QEAA_NPEAVCWbemClassCache@@@Z
?IsValid@CWbemDataPacket@@QEAAJXZ
?IsUnicode@CCompressedString@@QEBAHXZ
?IsTouched@CMethodPart@@QEAAHPEBGPEAH@Z
?IsTouched@CMethodPart@@QEAAHHPEAH@Z
?IsTouched@CMethodDescription@@SAHPEFAU1@PEAVCFastHeap@@@Z
?IsTopLevel@CClassPart@@QEAAHXZ
?IsStringType@CType@@SAHK@Z
?IsStringType@CType@@QEAAHXZ
?IsSingleton@CWbemClass@@QEAAHXZ
?IsSingleton@CClassPart@@QEAAHXZ
?IsSameClass@CWbemObject@@QEAAHPEAV1@@Z
?IsReservedWord@CReservedWordTable@@SAHPEBG@Z
?IsPropertyKeyed@CClassPart@@QEAAHPEBG@Z
?IsPropertyIndexed@CClassPart@@QEAAHPEBG@Z
?IsPropagated@CMethodPart@@IEAAHH@Z
?IsPossibleSystemPropertyName@CSystemProperties@@SAHPEBG@Z
?IsPointerType@CType@@SAHK@Z
?IsPointerType@CType@@QEAAHXZ
?IsParents@CType@@SAHK@Z
?IsParents@CType@@QEAAHXZ
?IsParentClass@CWbemInstance@@UEAAJJPEAU_IWmiObject@@@Z
?IsParentClass@CWbemClass@@UEAAJJPEAU_IWmiObject@@@Z
?IsOutOfLine@CFastHeap@@IEAAHXZ
?IsObjectInstance@CWbemObject@@UEAAJXZ
?IsNull@CDataTable@@QEAAHH@Z
?IsNonArrayPointerType@CType@@SAHK@Z
?IsNonArrayPointerType@CType@@QEAAHXZ
?IsMemCopyAble@CType@@SAHGJ@Z
?IsLocalized@CWbemInstance@@UEAAHXZ
?IsLocalized@CWbemClass@@UEAAHXZ
?IsLocalized@CInstancePart@@QEAAHXZ
?IsLocalized@CClassPart@@QEAAHXZ
?IsLimited@CWbemObject@@QEAAHXZ
?IsLimited@CDecorationPart@@QEAAHXZ
?IsKeyed@CWbemInstance@@UEAAHXZ
?IsKeyed@CWbemClass@@UEAAHXZ
?IsKeyed@CClassPart@@QEAAHXZ
?IsKeyLocal@CWbemClass@@QEAAHPEBG@Z
?IsInstancePartAvailable@CWbemInstance@@IEAAHXZ
?IsInstanceOf@CWbemInstance@@QEAAHPEAVCWbemClass@@@Z
?IsInstance@CWbemObject@@QEAAHXZ
?IsInstance@CDecorationPart@@QEAAHXZ
?IsIndexLocal@CWbemClass@@QEAAHPEBG@Z
?IsImpersonating@CWbemCallSecurity@@UEAAHXZ
?IsIllegalDerivedClass@CSystemProperties@@SAHPEBG@Z
?IsIdenticalWith@CClassPart@@QEAAHAEAV1@@Z
?IsHiPerf@CClassPart@@QEAAHXZ
?IsFakeAddress@CFastHeap@@SAHK@Z
?IsEmpty@CQualifierSetList@@QEAAHXZ
?IsEmpty@CInternalString@@QEAA_NXZ
?IsEmpty@CCompressedStringList@@QEAAHXZ
?IsEmpty@CBasicQualifierSet@@SAHPEAE@Z
?IsEmpty@CBasicQualifierSet@@QEAAHXZ
?IsDynamic@CWbemClass@@QEAAHXZ
?IsDynamic@CClassPart@@QEAAHXZ
?IsDefault@CDataTable@@QEAAHH@Z
?IsDecorationPartAvailable@CWbemInstance@@IEAAHXZ
?IsDecorated@CDecorationPart@@QEAAHXZ
?IsCompressed@CWbemClass@@QEAAHXZ
?IsCompressed@CClassPart@@QEAAHXZ
?IsComplete@CQualifierSet@@QEAAHXZ
?IsClientOnly@CWbemObject@@QEAAHXZ
?IsClientOnly@CDecorationPart@@QEAAHXZ
?IsClassPartShared@CWbemInstance@@IEAAHXZ
?IsClassPartInternal@CWbemInstance@@IEAAHXZ
?IsClassPartAvailable@CWbemInstance@@IEAAHXZ
?IsChildOf@CWbemClass@@QEAAHPEAV1@@Z
?IsAutocook@CClassPart@@QEAAHXZ
?IsAssociation@CClassPart@@QEAAHXZ
?IsAsciiable@CCompressedString@@KAHPEBG@Z
?IsArrayValid@CUntypedArray@@QEAAJVCType@@PEAVCFastHeap@@@Z
?IsArrayPropertyHandle@CWbemObject@@QEAAJJPEAJPEAK@Z
?IsArray@CType@@SAHK@Z
?IsArray@CType@@QEAAHXZ
?IsAmendment@CWbemClass@@QEAAHXZ
?IsAmendment@CClassPart@@QEAAHXZ
?IsAbstract@CWbemClass@@QEAAHXZ
?IsAbstract@CClassPart@@QEAAHXZ
?InsertQualifierSet@CQualifierSetList@@QEAAJH@Z
?InsertProperty@CPropertyLookupTable@@QEAAJPEBGKAEAH@Z
?InsertProperty@CPropertyLookupTable@@QEAAJAEBUCPropertyLookup@@AEAH@Z
?InsertAt@?$CPointerArray@VCWmiTextSource@@V?$CReferenceManager@VCWmiTextSource@@@@VCFlexArray@@@@QEAA_NHPEAVCWmiTextSource@@@Z
?InsertAt@?$CPointerArray@VCFastPropertyBagItem@@V?$CReferenceManager@VCFastPropertyBagItem@@@@VCFlexArray@@@@QEAA_NHPEAVCFastPropertyBagItem@@@Z
?InitializePropQualifierSet@CWbemInstance@@IEAAJPEBGAEAVCInstancePropertyQualifierSet@@@Z
?InitializePropQualifierSet@CWbemInstance@@IEAAJPEAVCPropertyInformation@@AEAVCInstancePropertyQualifierSet@@@Z
?Initialize@CWbemRefreshingSvc@@UEAAHXZ
?Initialize@CKnownStringTable@@SAXXZ
?InitPropertyQualifierSet@CClassPart@@QEAAJPEBGPEAVCClassPropertyQualifierSet@@@Z
?InitNew@CWbemInstance@@QEAAJPEAVCWbemClass@@HPEAVCDecorationPart@@@Z
?InitEmptyInstance@CWbemInstance@@QEAAJAEAVCClassPart@@PEAEHPEAVCDecorationPart@@@Z
?InitEmpty@CWbemClass@@QEAAJHH@Z
?Init@XFetchRefrMgr@CWbemFetchRefrMgr@@UEAAJPEAU_IWmiProvSS@@PEAUIWbemServices@@@Z
?Init@CWbemFetchRefrMgr@@QEAAJPEAU_IWmiProvSS@@PEAUIWbemServices@@@Z
?InheritsFrom@CWbemObject@@UEAAJPEBG@Z
?InheritsFrom@CClassPart@@QEAAHPEBG@Z
?IncrementLength@CBasicQualifierSet@@QEAAXK@Z
?ImpersonateClient@CWbemCallSecurity@@UEAAJXZ
?HasRefs@CWbemObject@@QEAAHXZ
?HasLocalQualifiers@CBasicQualifierSet@@SAHPEAE@Z
?GetWbemObjectUnknown@CWbemInstance@@UEAAPEAUIUnknown@@XZ
?GetWbemObjectUnknown@CWbemClass@@QEAAPEAUIUnknown@@XZ
?GetWbemObjectUnknown@CQualifierSetList@@QEAAPEAUIUnknown@@XZ
?GetWbemObjectUnknown@CMethodQualifierSetContainer@@UEAAPEAUIUnknown@@XZ
?GetWbemObjectUnknown@CMethodPart@@QEAAPEAUIUnknown@@XZ
?GetWbemObjectUnknown@CInstancePart@@UEAAPEAUIUnknown@@XZ
?GetWbemObjectUnknown@CInstancePQSContainer@@UEAAPEAUIUnknown@@XZ
?GetWbemObjectUnknown@CClassPart@@UEAAPEAUIUnknown@@XZ
?GetWbemObjectUnknown@CClassAndMethods@@UEAAPEAUIUnknown@@XZ
?GetVtableLength@CLimitationMapping@@QEAAKXZ
?GetValueText@CWbemObject@@SAPEAGJAEAVCVar@@K@Z
?GetVARTYPE@CType@@SAGK@Z
?GetVARTYPE@CType@@QEAAGXZ
?GetUserSid@CWbemThreadSecurityHandle@@UEAAJPEAKPEAX@Z
?GetUserSid@CWbemCallSecurity@@UEAAJPEAKPEAX@Z
?GetUser@CWbemThreadSecurityHandle@@UEAAJPEAKPEAG@Z
?GetUser@CWbemCallSecurity@@UEAAJPEAKPEAG@Z
?GetUsedLength@CFastHeap@@QEAAKXZ
?GetUnmarshalClass@CWbemObject@@UEAAJAEBU_GUID@@PEAXK1KPEAU2@@Z
?GetTransferBlobSize@CWbemInstance@@QEAAJXZ
?GetTransferBlob@CWbemInstance@@QEAAJPEAJ0PEAPEAE@Z
?GetTransferArrayHeaderSize@CWbemInstance@@SAJXZ
?GetTransferArrayBlobSize@CWbemInstance@@QEAAJXZ
?GetTransferArrayBlob@CWbemInstance@@QEAAJJPEAPEAEPEAJ@Z
?GetTotalRealLength@CInstancePart@@QEAAKXZ
?GetTotalRealLength@CClassPart@@QEAAKXZ
?GetTokenOrigin@CWbemThreadSecurityHandle@@UEAAJPEAW4tag_WMI_THREAD_SECURITY_ORIGIN@@@Z
?GetToken@CWbemThreadSecurityHandle@@UEAAJPEAPEAX@Z
?GetThreadToken@CWbemThreadSecurityHandle@@QEAAPEAXXZ
?GetThreadSecurityHandle@CWbemCallSecurity@@QEAAPEAVCWbemThreadSecurityHandle@@XZ
?GetThreadSecurity@CWbemCallSecurity@@UEAAJW4tag_WMI_THREAD_SECURITY_ORIGIN@@PEAPEAU_IWmiThreadSecHandle@@@Z
?GetText@XObjectTextSrc@CWmiObjectTextSrc@@UEAAJJPEAUIWbemClassObject@@KPEAUIWbemContext@@PEAPEAG@Z
?GetText@CInternalString@@QEBAPEBDXZ
?GetText@CBasicQualifierSet@@SAJPEAEPEAVCFastHeap@@JAEAVWString@@@Z
?GetText@CBasicQualifierSet@@QEAAJJAEAVWString@@@Z
?GetSystemPropertyByName@CWbemObject@@QEAAJPEBGPEAVCVar@@@Z
?GetSystemProperty@CWbemObject@@QEAAJHPEAVCVar@@@Z
?GetSyntax@CType@@SAPEAGK@Z
?GetSyntax@CType@@QEAAPEAGXZ
?GetSuperclassName@CWbemInstance@@UEAAJPEAVCVar@@@Z
?GetSuperclassName@CWbemClass@@UEAAJPEAVCVar@@@Z
?GetSuperclassName@CClassPart@@QEAAPEAVCCompressedString@@XZ
?GetSuperclassName@CClassPart@@QEAAJPEAVCVar@@@Z
?GetSuperclassName@CClassAndMethods@@SAJAEAVWString@@PEAE@Z
?GetStringLength@CCompressedString@@QEBAHXZ
?GetStart@CWbemObject@@QEAAPEAEXZ
?GetStart@CWbemInstance@@QEAAPEAEXZ
?GetStart@CQualifierSetList@@QEAAPEAEXZ
?GetStart@CPropertyLookupTable@@QEAAPEAEXZ
?GetStart@CMethodPart@@QEAAPEAEXZ
?GetStart@CInstancePart@@QEAAPEAEXZ
?GetStart@CFastHeap@@QEAAPEAEXZ
?GetStart@CEmbeddedObject@@QEAAPEAEXZ
?GetStart@CDecorationPart@@QEAAPEAEXZ
?GetStart@CDataTable@@QEAAPEAEXZ
?GetStart@CCompressedStringList@@QEAAPEAEXZ
?GetStart@CCompressedString@@QEAAPEAEXZ
?GetStart@CClassPart@@QEAAPEAEXZ
?GetStart@CClassAndMethods@@QEAAPEAEXZ
?GetStart@CBasicQualifierSet@@QEAAPEAEXZ
?GetSource@CWbemObject@@UEAAJPEAPEAG@Z
?GetSize@?$CPointerArray@VCWmiTextSource@@V?$CReferenceManager@VCWmiTextSource@@@@VCFlexArray@@@@QEBAHXZ
?GetSize@?$CPointerArray@VCFastPropertyBagItem@@V?$CReferenceManager@VCFastPropertyBagItem@@@@VCFlexArray@@@@QEBAHXZ
?GetSignature@CMethodPart@@IEAAXHHPEAPEAVCWbemObject@@@Z
?GetSig@CMethodDescription@@QEAAKH@Z
?GetServerPrincipalName@CWbemThreadSecurityHandle@@QEAAPEAGXZ
?GetServerAndNamespace@CWbemObject@@QEAAJPEAVCVar@@@Z
?GetServer@CWbemObject@@QEAAJPEAVCVar@@@Z
?GetSeparatorLength@CCompressedStringList@@KAKXZ
?GetSecondarySet@CMethodQualifierSetContainer@@QEAAPEAVCBasicQualifierSet@@XZ
?GetRemoteRefresher@XWbemRefrSvc@CWbemRefreshingSvc@@UEAAJPEAU_WBEM_REFRESHER_ID@@JKPEAPEAUIWbemRemoteRefresher@@PEAU_GUID@@PEAK@Z
?GetRemoteRefresher@CWbemRefreshingSvc@@MEAAJPEAU_WBEM_REFRESHER_ID@@JKPEAPEAUIWbemRemoteRefresher@@PEAU_GUID@@PEAK@Z
?GetRelPath@CWbemObject@@QEAAJPEAVCVar@@@Z
?GetRelPath@CWbemInstance@@UEAAPEAGH@Z
?GetRelPath@CWbemClass@@UEAAPEAGH@Z
?GetRegularQualifierLocally@CBasicQualifierSet@@SAPEAUCQualifier@@PEAEPEAVCFastHeap@@PEBG@Z
?GetRegularQualifierLocally@CBasicQualifierSet@@QEAAPEAUCQualifier@@PEBG@Z
?GetRefrMgr@CWbemRefreshingSvc@@IEAAJPEAPEAU_IWbemRefresherMgr@@@Z
?GetRealLength@CFastHeap@@QEAAKXZ
?GetRawData@CCompressedString@@QEBAPEAEXZ
?GetRange@CUntypedArray@@SAJPEAVCPtrSource@@KKPEAVCFastHeap@@KKKPEAKPEAX@Z
?GetQualifierSetStart@CMethodQualifierSetContainer@@UEAAPEAEXZ
?GetQualifierSetStart@CInstancePart@@UEAAPEAEXZ
?GetQualifierSetStart@CInstancePQSContainer@@UEAAPEAEXZ
?GetQualifierSetStart@CClassPart@@UEAAPEAEXZ
?GetQualifierSetListStart@CInstancePart@@UEAAPEAEXZ
?GetQualifierSetData@CQualifierSetList@@SAPEAEPEAEH@Z
?GetQualifierSetData@CQualifierSetList@@QEAAPEAEH@Z
?GetQualifierSet@CWbemInstance@@UEAAJPEAPEAUIWbemQualifierSet@@@Z
?GetQualifierSet@CWbemClass@@UEAAJPEAPEAUIWbemQualifierSet@@@Z
?GetQualifierLocally@CBasicQualifierSet@@SAPEAUCQualifier@@PEAEPEAVCFastHeap@@PEBGAEAH@Z
?GetQualifierLocally@CBasicQualifierSet@@SAPEAUCQualifier@@PEAEPEAVCFastHeap@@PEBG@Z
?GetQualifierLocally@CBasicQualifierSet@@SAPEAUCQualifier@@PEAEPEAVCFastHeap@@PEAVCCompressedString@@@Z
?GetQualifierLocally@CBasicQualifierSet@@QEAAPEAUCQualifier@@PEBGAEAH@Z
?GetQualifierLocally@CBasicQualifierSet@@QEAAPEAUCQualifier@@PEBG@Z
?GetQualifierLocally@CBasicQualifierSet@@QEAAPEAUCQualifier@@PEAVCCompressedString@@@Z
?GetQualifierArrayRange@CWbemObject@@QEAAJPEBG0HJKKKPEAK1PEAX@Z
?GetQualifierArrayInfo@CWbemObject@@QEAAJPEBG0HJPEAJPEAK@Z
?GetQualifier@CWbemInstance@@UEAAJPEBGPEAVCVar@@PEAJ2@Z
?GetQualifier@CWbemInstance@@UEAAJPEBGPEAJPEAVCTypedValue@@PEAPEAVCFastHeap@@H@Z
?GetQualifier@CWbemClass@@UEAAJPEBGPEAVCVar@@PEAJ2@Z
?GetQualifier@CWbemClass@@UEAAJPEBGPEAJPEAVCTypedValue@@PEAPEAVCFastHeap@@H@Z
?GetQualifier@CQualifierSet@@QEAAPEAUCQualifier@@PEBGAEAH@Z
?GetQualifier@CQualifierSet@@QEAAPEAUCQualifier@@PEBG@Z
?GetQualifier@CQualifierSet@@QEAAJPEBGPEAVCVar@@PEAJ2@Z
?GetQualifier@CQualifierSet@@QEAAJPEBGPEAJPEAVCTypedValue@@PEAPEAVCFastHeap@@H@Z
?GetQualifier@CInstancePart@@QEAAJPEBGPEAVCVar@@PEAJ2@Z
?GetQualifier@CInstancePart@@QEAAJPEBGPEAJPEAVCTypedValue@@PEAPEAVCFastHeap@@H@Z
?GetQualifier@CClassPart@@QEAAJPEBGPEAVCVar@@PEAJ2@Z
?GetPropertyValue@CWbemObject@@UEAAJPEAU_tag_WbemPropertyName@@JPEAPEAGPEAUtagVARIANT@@@Z
?GetPropertyType@CWbemInstance@@UEAAJPEBGPEAJ1@Z
?GetPropertyType@CWbemInstance@@UEAAJPEAVCPropertyInformation@@PEAJ1@Z
?GetPropertyType@CWbemClass@@UEAAJPEBGPEAJ1@Z
?GetPropertyType@CWbemClass@@UEAAJPEAVCPropertyInformation@@PEAJ1@Z
?GetPropertyType@CSystemProperties@@SAJPEBGPEAJ1@Z
?GetPropertyType@CClassPart@@QEAAJPEBGPEAJ1@Z
?GetPropertyType@CClassPart@@QEAAJPEAVCPropertyInformation@@PEAJ1@Z
?GetPropertyString@CWbemObject@@QEAAPEAVCCompressedString@@J@Z
?GetPropertyQualifierSetData@CClassPart@@QEAAPEAEPEBG@Z
?GetPropertyQualifierSet@CWbemInstance@@UEAAJPEBGPEAPEAUIWbemQualifierSet@@@Z
?GetPropertyQualifierSet@CWbemClass@@UEAAJPEBGPEAPEAUIWbemQualifierSet@@@Z
?GetPropertyOrigin@CWbemObject@@UEAAJPEBGPEAPEAG@Z
?GetPropertyOrigin@CClassPart@@QEAAJPEBGPEAPEAG@Z
?GetPropertyNameFromIndex@CWbemObject@@QEAAJHPEAPEAG@Z
?GetPropertyLookup@CClassPart@@QEAAPEAUCPropertyLookup@@H@Z
?GetPropertyInfoByHandle@CWbemObject@@UEAAJJPEAPEAGPEAJ@Z
?GetPropertyInfoByHandle@CClassPart@@QEAAJJPEAPEAGPEAJ@Z
?GetPropertyIndex@CWbemObject@@QEAAJPEBGPEAH@Z
?GetPropertyHandleEx@CWbemObject@@UEAAJPEBGJPEAJ1@Z
?GetPropertyHandleEx@CClassPart@@QEAAJPEBGPEAJ1@Z
?GetPropertyHandle@CWbemObject@@UEAAJPEBGPEAJ1@Z
?GetPropertyHandle@CClassPart@@QEAAJPEBGPEAJ1@Z
?GetPropertyCount@CWbemInstance@@UEAAJPEAVCVar@@@Z
?GetPropertyCount@CWbemClass@@UEAAJPEAVCVar@@@Z
?GetPropertyCount@CClassPart@@QEAAJPEAVCVar@@@Z
?GetProperty@CWbemInstance@@UEAAJPEBGPEAVCVar@@@Z
?GetProperty@CWbemInstance@@MEAAJPEAVCPropertyInformation@@PEAVCVar@@@Z
?GetProperty@CWbemClass@@UEAAJPEBGPEAVCVar@@@Z
?GetProperty@CWbemClass@@MEAAJPEAVCPropertyInformation@@PEAVCVar@@@Z
?GetPropQualifier@CWbemInstance@@UEAAJPEBG0PEAVCVar@@PEAJ2@Z
?GetPropQualifier@CWbemInstance@@UEAAJPEBG0PEAJPEAVCTypedValue@@PEAPEAVCFastHeap@@H@Z
?GetPropQualifier@CWbemInstance@@UEAAJPEAVCPropertyInformation@@PEBGPEAVCVar@@PEAJ3@Z
?GetPropQualifier@CWbemInstance@@UEAAJPEAVCPropertyInformation@@PEBGPEAJPEAVCTypedValue@@PEAPEAVCFastHeap@@H@Z
?GetPropQualifier@CWbemClass@@UEAAJPEBG0PEAVCVar@@PEAJ2@Z
?GetPropQualifier@CWbemClass@@UEAAJPEBG0PEAJPEAVCTypedValue@@PEAPEAVCFastHeap@@H@Z
?GetPropQualifier@CWbemClass@@UEAAJPEAVCPropertyInformation@@PEBGPEAVCVar@@PEAJ3@Z
?GetPropQualifier@CWbemClass@@UEAAJPEAVCPropertyInformation@@PEBGPEAJPEAVCTypedValue@@PEAPEAVCFastHeap@@H@Z
?GetPropQualifier@CClassPart@@QEAAJPEBG0PEAJPEAVCTypedValue@@PEAPEAVCFastHeap@@H@Z
?GetPropQualifier@CClassPart@@QEAAJPEAVCPropertyInformation@@PEBGPEAVCVar@@PEAJ3@Z
?GetPropQual@CWbemObject@@UEAAJPEBG0JKPEAJPEAK2PEAX@Z
?GetPropName@CWbemInstance@@UEAAJHPEAVCVar@@@Z
?GetPropName@CWbemClass@@UEAAJHPEAVCVar@@@Z
?GetPropAddrByHandle@CWbemObject@@UEAAJJJPEAKPEAPEAX@Z
?GetPrevious@CCompressedStringList@@QEAAPEAVCCompressedString@@PEAV2@@Z
?GetPointer@CUntypedArray@@SAPEAV1@PEAVCPtrSource@@@Z
?GetPath@CWbemObject@@QEAAJPEAVCVar@@@Z
?GetParentClassFromBlob@CWbemObject@@UEAAJJKPEAXPEAPEAG@Z
?GetParentClassFromBlob@CWbemClass@@UEAAJJKPEAXPEAPEAG@Z
?GetParentAtIndex@CWbemObject@@QEAAPEAVCCompressedString@@H@Z
?GetOffset@CDataTable@@QEAAPEAVCUntypedValue@@K@Z
?GetObjectW@CWbemClassCache@@QEAAJAEAU_GUID@@PEAPEAUIWbemClassObject@@@Z
?GetObjectText@CWbemInstance@@UEAAJJPEAPEAG@Z
?GetObjectText@CWbemClass@@UEAAJJPEAPEAG@Z
?GetObjectQualifier@CInstancePart@@QEAAJPEBGPEAVCVar@@PEAJ@Z
?GetObjectParts@CWbemInstance@@UEAAJPEAXKKPEAK@Z
?GetObjectParts@CWbemClass@@UEAAJPEAXKKPEAK@Z
?GetObjectMemory@CWbemObject@@UEAAJPEAXKPEAK@Z
?GetObjQual@CWbemObject@@UEAAJPEBGJKPEAJPEAK2PEAX@Z
?GetNumUpperBound@CBasicQualifierSet@@QEAAHXZ
?GetNumSystemProperties@CSystemProperties@@SAHXZ
?GetNumStrings@CCompressedStringList@@QEAAHXZ
?GetNumSets@CQualifierSetList@@QEAAHXZ
?GetNumProperties@CWbemInstance@@UEAAHXZ
?GetNumProperties@CWbemClass@@UEAAHXZ
?GetNumProperties@CPropertyLookupTable@@QEAAHXZ
?GetNumParents@CWbemObject@@QEAAHXZ
?GetNumMethods@CMethodPart@@IEAAHXZ
?GetNumMappings@CLimitationMapping@@QEAAHXZ
?GetNumElements@CUntypedArray@@QEAAHXZ
?GetNumDecorationIndependentProperties@CSystemProperties@@SAHXZ
?GetNullnessLength@CDataTable@@QEAAKXZ
?GetNormalizedPath@CWbemObject@@UEAAJJPEAPEAG@Z
?GetNonsystemPropertyValue@CWbemInstance@@QEAAJPEBGPEAVCVar@@@Z
?GetNext@CCompressedStringList@@QEAAPEAVCCompressedString@@PEAV2@@Z
?GetNamespace@CWbemObject@@QEAAJPEAVCVar@@@Z
?GetNames@CWbemObject@@UEAAJPEBGJPEAUtagVARIANT@@PEAPEAUtagSAFEARRAY@@@Z
?GetNames@CQualifierSet@@UEAAJJPEAPEAUtagSAFEARRAY@@@Z
?GetNameAsBSTR@CSystemProperties@@SAPEAGH@Z
?GetName@CMethodPart@@IEAAPEAVCCompressedString@@H@Z
?GetMinLength@CWbemClass@@SAKXZ
?GetMinLength@CPropertyLookupTable@@SAKXZ
?GetMinLength@CMethodPart@@SAKXZ
?GetMinLength@CFastHeap@@SAKXZ
?GetMinLength@CDecorationPart@@SAKXZ
?GetMinLength@CDataTable@@SAKXZ
?GetMinLength@CClassPart@@SAHXZ
?GetMinLength@CClassAndMethods@@SAKXZ
?GetMinLength@CBasicQualifierSet@@SAKXZ
?GetMinHeaderSize@CWbemDataPacket@@QEAAKXZ
?GetMethodQualifierSet@CWbemInstance@@UEAAJPEBGPEAPEAUIWbemQualifierSet@@@Z
?GetMethodQualifierSet@CWbemClass@@UEAAJPEBGPEAPEAUIWbemQualifierSet@@@Z
?GetMethodQualifierSet@CMethodPart@@QEAAJPEBGPEAPEAUIWbemQualifierSet@@@Z
?GetMethodQualifier@CWbemInstance@@UEAAJPEBG0PEAVCVar@@PEAJ2@Z
?GetMethodQualifier@CWbemInstance@@UEAAJPEBG0PEAJPEAVCTypedValue@@PEAPEAVCFastHeap@@H@Z
?GetMethodQualifier@CWbemClass@@UEAAJPEBG0PEAVCVar@@PEAJ2@Z
?GetMethodQualifier@CWbemClass@@UEAAJPEBG0PEAJPEAVCTypedValue@@PEAPEAVCFastHeap@@H@Z
?GetMethodQual@CWbemObject@@UEAAJPEBG0JKPEAJPEAK2PEAX@Z
?GetMethodOrigin@CWbemInstance@@UEAAJPEBGPEAPEAG@Z
?GetMethodOrigin@CWbemClass@@UEAAJPEBGPEAPEAG@Z
?GetMethodOrigin@CMethodPart@@QEAAJPEBGPEAK@Z
?GetMethodAt@CMethodPart@@QEAAJHPEAPEAGPEAPEAVCWbemObject@@1@Z
?GetMethod@CWbemInstance@@UEAAJPEBGJPEAPEAUIWbemClassObject@@1@Z
?GetMethod@CWbemClass@@UEAAJPEBGJPEAPEAUIWbemClassObject@@1@Z
?GetMethod@CMethodPart@@QEAAJPEBGJPEAPEAVCWbemObject@@1@Z
?GetMemoryLimit@CMethodPart@@UEAAPEAEXZ
?GetMemoryLimit@CInstancePart@@UEAAPEAEXZ
?GetMemoryLimit@CClassPart@@UEAAPEAEXZ
?GetMaxMarshalStreamSize@CWbemObject@@UEAAJPEAK@Z
?GetMaxMarshalStreamSize@CWbemInstance@@UEAAJPEAK@Z
?GetMarshalSizeMax@CWbemObject@@UEAAJAEBU_GUID@@PEAXK1KPEAK@Z
?GetMarshalPacket@XEnumMarshaling@CWbemEnumMarshaling@@UEAAJAEBU_GUID@@KPEAPEAUIWbemClassObject@@PEAKPEAPEAE@Z
?GetMarshalPacket@CWbemEnumMarshaling@@QEAAJAEBU_GUID@@KPEAPEAUIWbemClassObject@@PEAKPEAPEAE@Z
?GetMapped@CLimitationMapping@@QEAAPEAVCPropertyInformation@@PEAV2@@Z
?GetMapped@CLimitationMapping@@QEAAGG@Z
?GetMap@CWbemGuidToClassMap@@QEAAJAEAVCGUID@@PEAPEAVCWbemClassToIdMap@@@Z
?GetLimitedVersion@CWbemInstance@@QEAAJPEAVCLimitationMapping@@PEAPEAV1@@Z
?GetLimitedVersion@CWbemClass@@QEAAJPEAVCLimitationMapping@@PEAPEAV1@@Z
?GetLengthFromData@CBasicQualifierSet@@SAKPEAE@Z
?GetLengthByType@CUntypedArray@@QEAAKVCType@@@Z
?GetLengthByActualLength@CUntypedArray@@QEAAKH@Z
?GetLength@CWbemInstance@@QEAAKXZ
?GetLength@CWbemClass@@QEAAKXZ
?GetLength@CType@@SAKK@Z
?GetLength@CType@@QEAAKXZ
?GetLength@CQualifierSetList@@SAHPEAEH@Z
?GetLength@CQualifierSetList@@QEAAHXZ
?GetLength@CPropertyLookupTable@@QEAAHXZ
?GetLength@CMethodPart@@QEAAKXZ
?GetLength@CInternalString@@QEBAHXZ
?GetLength@CInstancePart@@SAHPEAE@Z
?GetLength@CInstancePart@@QEAAHXZ
?GetLength@CFixedBSTRArray@@QEAAHXZ
?GetLength@CFastHeap@@QEAAKXZ
?GetLength@CEmbeddedObject@@QEAAKXZ
?GetLength@CDecorationPart@@QEAAKXZ
?GetLength@CDataTable@@QEAAKXZ
?GetLength@CCompressedStringList@@QEAAKXZ
?GetLength@CCompressedString@@QEBAHXZ
?GetLength@CClassPart@@QEAAKXZ
?GetLength@CClassAndMethods@@QEAAKXZ
?GetLength@CBasicQualifierSet@@QEAAKXZ
?GetLast@CCompressedStringList@@QEAAPEAVCCompressedString@@XZ
?GetKnownStringIndex@CKnownStringTable@@SAHPEBG@Z
?GetKnownString@CKnownStringTable@@SAAEAVCCompressedString@@H@Z
?GetKnownQualifierLocally@CBasicQualifierSet@@SAPEAUCQualifier@@PEAEH@Z
?GetKnownQualifierLocally@CBasicQualifierSet@@QEAAPEAUCQualifier@@H@Z
?GetKeyString@CWbemObject@@UEAAJJPEAPEAG@Z
?GetKeyStr@CWbemInstance@@QEAAPEAGXZ
?GetKeyProps@CWbemInstance@@UEAAHAEAVCWStringArray@@@Z
?GetKeyProps@CWbemClass@@UEAAHAEAVCWStringArray@@@Z
?GetKeyProps@CClassPart@@QEAAHAEAVCWStringArray@@@Z
?GetKeyOrigin@CWbemObject@@UEAAJJKPEAKPEAG@Z
?GetKeyOrigin@CWbemInstance@@UEAAJAEAVWString@@@Z
?GetKeyOrigin@CWbemClass@@UEAAJAEAVWString@@@Z
?GetKeyOrigin@CClassPart@@QEAAJAEAVWString@@@Z
?GetKey@CWbemInstance@@QEAAPEAVCVar@@XZ
?GetInterface@CWmiObjectFactory@@MEAAPEAXAEBU_GUID@@@Z
?GetInterface@CWbemRefreshingSvc@@MEAAPEAXAEBU_GUID@@@Z
?GetInterface@CWbemFetchRefrMgr@@MEAAPEAXAEBU_GUID@@@Z
?GetInterface@CWbemEnumMarshaling@@MEAAPEAXAEBU_GUID@@@Z
?GetInstanceObjectUnknown@CWbemInstance@@UEAAPEAUIUnknown@@XZ
?GetInstanceObject@CWbemObjectArrayPacket@@AEAAJAEAVCWbemObjectPacket@@PEAPEAUIWbemClassObject@@AEAVCWbemClassCache@@@Z
?GetIndexedProps@CWbemInstance@@UEAAHAEAVCWStringArray@@@Z
?GetIndexedProps@CWbemClass@@UEAAHAEAVCWStringArray@@@Z
?GetIndexedProps@CClassPart@@QEAAHAEAVCWStringArray@@@Z
?GetIndexedProps@CClassAndMethods@@SAHAEAVCWStringArray@@PEAE@Z
?GetIndexOfKey@CKnownStringTable@@SAHXZ
?GetIndexFromFake@CFastHeap@@SAHK@Z
?GetInLineLength@CFastHeap@@IEAAPEFAKXZ
?GetImpersonationLevel@CWbemThreadSecurityHandle@@QEAAKXZ
?GetImpersonation@CWbemThreadSecurityHandle@@UEAAJPEAK@Z
?GetImpersonation@CWbemCallSecurity@@UEAAJPEAK@Z
?GetIds@CWbemClass@@QEAAJAEAVCFlexArray@@PEAV1@@Z
?GetIdentity@CWbemThreadSecurityHandle@@QEAAPEAGXZ
?GetHelpFile@CWbemObject@@UEAAJPEAPEAG@Z
?GetHelpContext@CWbemObject@@UEAAJPEAK@Z
?GetHeapPtrByHandle@CWbemObject@@QEAAKJ@Z
?GetHeapPtrByHandle@CClassPart@@QEAAKJ@Z
?GetHeapData@CFastHeap@@QEAAPEAEXZ
?GetHeap@CQualifierSetList@@QEAAPEAVCFastHeap@@XZ
?GetHeap@CPropertyLookupTable@@QEAAPEAVCFastHeap@@XZ
?GetHeap@CMethodQualifierSetContainer@@UEAAPEAVCFastHeap@@XZ
?GetHeap@CMethodPart@@QEAAPEAVCFastHeap@@XZ
?GetHeap@CInstancePart@@UEAAPEAVCFastHeap@@XZ
?GetHeap@CInstancePQSContainer@@UEAAPEAVCFastHeap@@XZ
?GetHeap@CClassPart@@UEAAPEAVCFastHeap@@XZ
?GetHeap@CBasicQualifierSet@@QEAAPEAVCFastHeap@@XZ
?GetHeaderLength@CUntypedArray@@SAKXZ
?GetHeaderLength@CQualifierSetList@@SAHXZ
?GetHeaderLength@CFastHeap@@IEAAKXZ
?GetHeaderLength@CCompressedStringList@@SAKXZ
?GetHandleType@CWbemThreadSecurityHandle@@UEAAJPEAK@Z
?GetGuid@XWbemRemoteRefr@CWbemRemoteRefresher@@UEAAJJPEAU_GUID@@@Z
?GetGenus@CWbemInstance@@UEAAJPEAVCVar@@@Z
?GetGenus@CWbemClass@@UEAAJPEAVCVar@@@Z
?GetGUID@CWbemObject@@UEAAJPEAU_GUID@@@Z
?GetFullPath@CWbemObject@@QEAAPEAGXZ
?GetFlags@CLimitationMapping@@QEAAJXZ
?GetFirstQualifierFromData@CBasicQualifierSet@@SAPEAUCQualifier@@PEAE@Z
?GetFirstQualifier@CBasicQualifierSet@@QEAAPEAUCQualifier@@XZ
?GetFirst@CCompressedStringList@@QEAAPEAVCCompressedString@@XZ
?GetEmbeddedObj@CWbemObject@@QEAAPEAV1@J@Z
?GetEmbedded@CEmbeddedObject@@QEAAPEAVCWbemObject@@XZ
?GetElement@CUntypedArray@@QEAAPEAEHH@Z
?GetDynasty@CWbemInstance@@UEAAJPEAVCVar@@@Z
?GetDynasty@CWbemClass@@UEAAJPEAVCVar@@@Z
?GetDynasty@CClassPart@@QEAAPEAVCCompressedString@@XZ
?GetDynasty@CClassPart@@QEAAJPEAVCVar@@@Z
?GetDescription@CWbemObject@@UEAAJPEAPEAG@Z
?GetDerivation@CWbemObject@@UEAAJJKPEAK0PEAG@Z
?GetDerivation@CWbemObject@@QEAAJPEAVCVar@@@Z
?GetDerivation@CClassPart@@QEAAJPEAVCVar@@@Z
?GetDefaultValue@CClassPart@@QEAAJPEBGPEAVCVar@@@Z
?GetDefaultValue@CClassPart@@QEAAJPEAVCPropertyInformation@@PEAVCVar@@@Z
?GetDefaultPtrByHandle@CClassPart@@QEAAJJPEAPEAX@Z
?GetDefaultByHandle@CClassPart@@QEAAJJJPEAJPEAE@Z
?GetDataTableData@CInstancePart@@SAPEAEPEAE@Z
?GetDataTable@CInstancePart@@QEAAPEAVCDataTable@@XZ
?GetDataTable@CClassPart@@UEAAPEAVCDataTable@@XZ
?GetDataLength@CDataTable@@QEAAKXZ
?GetCurrentOrigin@CWbemClass@@QEAAKXZ
?GetCurrentOrigin@CClassPart@@UEAAKXZ
?GetCurrentOrigin@CClassAndMethods@@UEAAKXZ
?GetClasslessInstanceObject@CWbemObjectArrayPacket@@AEAAJAEAVCWbemObjectPacket@@PEAPEAUIWbemClassObject@@AEAVCWbemClassCache@@@Z
?GetClassSubset@CWbemInstance@@UEAAJKPEAPEBGPEAPEAU_IWmiObject@@@Z
?GetClassSubset@CWbemClass@@UEAAJKPEAPEBGPEAPEAU_IWmiObject@@@Z
?GetClassQualifier@CClassPart@@QEAAJPEBGPEAVCVar@@PEAJ2@Z
?GetClassQualifier@CClassPart@@QEAAJPEBGPEAJPEAVCTypedValue@@PEAPEAVCFastHeap@@H@Z
?GetClassPart@CWbemInstance@@UEAAJPEAXKPEAK@Z
?GetClassPart@CWbemInstance@@MEAAPEAVCClassPart@@XZ
?GetClassPart@CWbemClass@@UEAAJPEAXKPEAK@Z
?GetClassPart@CWbemClass@@MEAAPEAVCClassPart@@XZ
?GetClassObject@CWbemObjectArrayPacket@@AEAAJAEAVCWbemObjectPacket@@PEAPEAUIWbemClassObject@@@Z
?GetClassNameW@CWbemInstance@@UEAAJPEAVCVar@@@Z
?GetClassNameW@CWbemClass@@UEAAJPEAVCVar@@@Z
?GetClassNameW@CClassPart@@QEAAPEAVCCompressedString@@XZ
?GetClassNameW@CClassPart@@QEAAJPEAVCVar@@@Z
?GetClassNameW@CClassAndMethods@@SAJAEAVWString@@PEAE@Z
?GetClassInternal@CWbemObject@@QEAAPEAVCCompressedString@@XZ
?GetClassIndex@CWbemObject@@QEAAKPEBG@Z
?GetClassIndex@CClassPart@@QEAAKPEBG@Z
?GetBlockLength@CWbemInstance@@MEAAKXZ
?GetBlockLength@CWbemClass@@MEAAKXZ
?GetBasic@CType@@SAKK@Z
?GetBasic@CType@@QEAAKXZ
?GetAuthorizationService@CWbemThreadSecurityHandle@@QEAAKXZ
?GetAuthenticationService@CWbemThreadSecurityHandle@@QEAAKXZ
?GetAuthenticationLuid@CWbemThreadSecurityHandle@@UEAAJPEAX@Z
?GetAuthenticationLuid@CWbemCallSecurity@@UEAAJPEAX@Z
?GetAuthenticationLevel@CWbemThreadSecurityHandle@@QEAAKXZ
?GetAuthentication@CWbemThreadSecurityHandle@@UEAAJPEAK@Z
?GetAuthentication@CWbemCallSecurity@@QEAAJPEAK@Z
?GetAtFromLast@CCompressedStringList@@QEAAPEAVCCompressedString@@H@Z
?GetAt@CPropertyLookupTable@@QEAAPEAUCPropertyLookup@@H@Z
?GetAt@CFixedBSTRArray@@QEAAAEAPEAGH@Z
?GetAt@?$CPointerArray@VCWmiTextSource@@V?$CReferenceManager@VCWmiTextSource@@@@VCFlexArray@@@@QEBAPEBVCWmiTextSource@@H@Z
?GetAt@?$CPointerArray@VCWmiTextSource@@V?$CReferenceManager@VCWmiTextSource@@@@VCFlexArray@@@@QEAAPEAVCWmiTextSource@@H@Z
?GetAt@?$CPointerArray@VCFastPropertyBagItem@@V?$CReferenceManager@VCFastPropertyBagItem@@@@VCFlexArray@@@@QEBAPEBVCFastPropertyBagItem@@H@Z
?GetAt@?$CPointerArray@VCFastPropertyBagItem@@V?$CReferenceManager@VCFastPropertyBagItem@@@@VCFlexArray@@@@QEAAPEAVCFastPropertyBagItem@@H@Z
?GetArrayPtr@?$CPointerArray@VCWmiTextSource@@V?$CReferenceManager@VCWmiTextSource@@@@VCFlexArray@@@@QEAAPEAPEAVCWmiTextSource@@XZ
?GetArrayPtr@?$CPointerArray@VCFastPropertyBagItem@@V?$CReferenceManager@VCFastPropertyBagItem@@@@VCFlexArray@@@@QEAAPEAPEAVCFastPropertyBagItem@@XZ
?GetArrayPropertyHandle@CWbemObject@@QEAAJPEBGPEAJ1@Z
?GetArrayPropRangeByHandle@CWbemObject@@UEAAJJJKKKPEAK0PEAX@Z
?GetArrayPropInfoByHandle@CWbemObject@@UEAAJJJPEAPEAGPEAJPEAK@Z
?GetArrayPropElementByHandle@CWbemObject@@UEAAJJJKPEAK0PEAPEAX@Z
?GetArrayPropAddrByHandle@CWbemObject@@UEAAJJJPEAKPEAPEAX@Z
?GetArrayByHandle@CWbemObject@@QEAAPEAVCUntypedArray@@J@Z
?GetArray@?$CPointerArray@VCWmiTextSource@@V?$CReferenceManager@VCWmiTextSource@@@@VCFlexArray@@@@QEAAAEAVCFlexArray@@XZ
?GetArray@?$CPointerArray@VCFastPropertyBagItem@@V?$CReferenceManager@VCFastPropertyBagItem@@@@VCFlexArray@@@@QEAAAEAVCFlexArray@@XZ
?GetAllocatedDataLength@CFastHeap@@QEAAKXZ
?GetActualValue@CInstancePart@@QEAAJPEAVCPropertyInformation@@PEAVCVar@@@Z
?GetActualType@CType@@SAKK@Z
?GetActualType@CType@@QEAAKXZ
?GetActualTransferBlobSize@CWbemInstance@@QEAAJXZ
?GetActualTransferBlob@CWbemInstance@@QEAAXPEAE@Z
?GetAbstractFlavor@CWbemClass@@QEAAEXZ
?GetAbstractFlavor@CClassPart@@QEAAEXZ
?Get@XFetchRefrMgr@CWbemFetchRefrMgr@@UEAAJPEAPEAU_IWbemRefresherMgr@@@Z
?Get@CWbemObject@@UEAAJPEBGJPEAUtagVARIANT@@PEAJ2@Z
?Get@CWbemFetchRefrMgr@@QEAAJPEAPEAU_IWbemRefresherMgr@@@Z
?Get@CQualifierSet@@UEAAJPEBGJPEAUtagVARIANT@@PEAJ@Z
?Get@CFastPropertyBag@@QEAAJPEBGPEAJPEAK2PEAPEAX@Z
?Get@CFastPropertyBag@@QEAAJHPEAPEBGPEAJPEAK2PEAPEAX@Z
?FreeString@CFastHeap@@QEAAXK@Z
?Free@CFixedBSTRArray@@QEAAXXZ
?Free@CFastHeap@@QEAAXKK@Z
?ForcePut@CWbemClass@@QEAAJPEBGJPEAUtagVARIANT@@J@Z
?ForcePropValue@CWbemClass@@QEAAJPEBGPEAVCVar@@J@Z
?FindPropertyInfo@CClassPart@@QEAAPEAVCPropertyInformation@@PEBG@Z
?FindPropertyIndex@CFastPropertyBag@@IEAAHPEBG@Z
?FindPropertyByPtr@CPropertyLookupTable@@QEAAPEAUCPropertyLookup@@K@Z
?FindPropertyByOffset@CPropertyLookupTable@@QEAAPEAUCPropertyLookup@@K@Z
?FindPropertyByName@CPropertyLookupTable@@QEAAPEAUCPropertyLookup@@PEAVCCompressedString@@@Z
?FindProperty@CPropertyLookupTable@@QEAAPEAUCPropertyLookup@@PEBG@Z
?FindProperty@CFastPropertyBag@@IEAAPEAVCFastPropertyBagItem@@PEBG@Z
?FindName@CSystemProperties@@SAHPEBG@Z
?FindMethod@CWbemObject@@UEAAJPEBG@Z
?FindMethod@CWbemClass@@UEAAJPEBG@Z
?FindMethod@CMethodPart@@IEAAHPEBG@Z
?FindLimitationError@CWbemClass@@QEAA?AVWString@@JPEAVCWStringArray@@@Z
?Find@CCompressedStringList@@QEAAHPEBG@Z
?Filter@CFixedBSTRArray@@QEAAXPEBGH@Z
?FastClone@CWbemInstance@@QEAAJPEAV1@@Z
?ExtendTo@CDataTable@@QEAAHGK@Z
?ExtendQualifierSetSpace@CQualifierSetList@@QEAAHPEAVCBasicQualifierSet@@K@Z
?ExtendQualifierSetSpace@CMethodQualifierSetContainer@@UEAAHPEAVCBasicQualifierSet@@K@Z
?ExtendQualifierSetSpace@CInstancePart@@UEAAHPEAVCBasicQualifierSet@@K@Z
?ExtendQualifierSetSpace@CInstancePQSContainer@@UEAAHPEAVCBasicQualifierSet@@K@Z
?ExtendQualifierSetSpace@CClassPart@@UEAAHPEAVCBasicQualifierSet@@K@Z
?ExtendQualifierSetListSpace@CInstancePart@@UEAAHPEAEKK@Z
?ExtendPropertyTableSpace@CClassPart@@UEAAHPEAEKK@Z
?ExtendMethodPartSpace@CClassAndMethods@@UEAAHPEAVCMethodPart@@K@Z
?ExtendInstancePartSpace@CWbemInstance@@UEAAHPEAVCInstancePart@@K@Z
?ExtendHeapSize@CMethodPart@@UEAAHPEAEKK@Z
?ExtendHeapSize@CInstancePart@@UEAAHPEAEKK@Z
?ExtendHeapSize@CClassPart@@UEAAHPEAEKK@Z
?ExtendDataTableSpace@CInstancePart@@UEAAHPEAEKK@Z
?ExtendDataTableSpace@CClassPart@@UEAAHPEAEKK@Z
?ExtendClassPartSpace@CWbemInstance@@UEAAHPEAVCClassPart@@K@Z
?ExtendClassPartSpace@CClassAndMethods@@UEAAHPEAVCClassPart@@K@Z
?ExtendClassAndMethodsSpace@CWbemClass@@QEAAHK@Z
?Extend@CFastHeap@@QEAAHKKK@Z
?EstimateUnmergeSpace@CWbemInstance@@UEAAKXZ
?EstimateUnmergeSpace@CWbemClass@@UEAAKXZ
?EstimateUnmergeSpace@CMethodPart@@QEAAKXZ
?EstimateUnmergeSpace@CClassPart@@QEAAKXZ
?EstimateUnmergeSpace@CClassAndMethods@@QEAAKXZ
?EstimateNecessarySpace@CEmbeddedObject@@SAKPEAVCWbemObject@@@Z
?EstimateNecessarySpace@CEmbeddedObject@@SAKAEAVCVar@@@Z
?EstimateMergeSpace@CWbemClass@@QEAAKPEAEJ@Z
?EstimateMergeSpace@CMethodPart@@SAKAEAV1@0@Z
?EstimateMergeSpace@CClassPart@@SAKAEAV1@0@Z
?EstimateMergeSpace@CClassAndMethods@@SAKAEAV1@0@Z
?EstimateLimitedRepresentationSpace@CWbemObject@@QEAAKJPEAVCWStringArray@@@Z
?EstimateInstanceSpace@CWbemInstance@@SAKAEAVCClassPart@@PEAVCDecorationPart@@@Z
?EstimateExtraSpace@CCompressedStringList@@SAKPEBG@Z
?EstimateExtraSpace@CCompressedStringList@@SAKPEAVCCompressedString@@@Z
?EstimateDerivedPartSpace@CMethodPart@@QEAAKXZ
?EstimateDerivedPartSpace@CClassPart@@QEAAKXZ
?EstimateDerivedPartSpace@CClassAndMethods@@QEAAKXZ
?EstimateDerivedClassSpace@CWbemClass@@QEAAKPEAVCDecorationPart@@@Z
?EnumQualifiers@CQualifierSet@@QEAAJEEAEAVCFixedBSTRArray@@@Z
?EnumPrimaryQualifiers@CBasicQualifierSet@@QEAAJEEAEAVCFixedBSTRArray@@0@Z
?EnsureReal@CQualifierSetList@@QEAAHXZ
?EnsureQualifier@CWbemClass@@QEAAJPEBG@Z
?EnsureQualifier@CMethodPart@@QEAAJPEAVCWbemObject@@PEBGPEAPEAV2@@Z
?EnsureProperty@CClassPart@@QEAAJPEBGGJH@Z
?EndMethodEnumeration@CWbemInstance@@UEAAJXZ
?EndMethodEnumeration@CWbemClass@@UEAAJXZ
?EndEnumeration@CWbemObject@@UEAAJXZ
?EndEnumeration@CQualifierSet@@UEAAJXZ
?EnabledValidateObject@CWbemObject@@KAJPEAV1@@Z
?Empty@CInternalString@@QEAAXXZ
?Empty@CFastHeap@@QEAAXXZ
?ElementMaxSize@CFastHeap@@QEAAHK@Z
?DoesSignatureMatchOther@CMethodPart@@IEAAHAEAV1@HW4METHOD_SIGNATURE_TYPE@@@Z
?DoesCIMTYPEMatchVARTYPE@CType@@SAHJG@Z
?DoSignaturesMatch@CMethodPart@@IEAAHHW4METHOD_SIGNATURE_TYPE@@PEAVCWbemObject@@@Z
?DisconnectObject@CWbemObject@@UEAAJK@Z
?Discard@?$CPointerArray@VCWmiTextSource@@V?$CReferenceManager@VCWmiTextSource@@@@VCFlexArray@@@@QEAAXH@Z
?Discard@?$CPointerArray@VCFastPropertyBagItem@@V?$CReferenceManager@VCFastPropertyBagItem@@@@VCFlexArray@@@@QEAAXH@Z
?DisabledValidateObject@CWbemObject@@KAJPEAV1@@Z
?DeleteSignature@CMethodPart@@IEAAXHH@Z
?DeleteQualifierSet@CQualifierSetList@@QEAAXH@Z
?DeleteQualifier@CQualifierSet@@QEAAJPEBGH@Z
?DeleteProperty@CWbemInstance@@QEAAJH@Z
?DeleteProperty@CPropertyLookupTable@@QEAAXPEAUCPropertyLookup@@H@Z
?DeleteProperty@CInstancePart@@QEAAXPEAVCPropertyInformation@@@Z
?DeleteProperty@CClassPart@@QEAAXH@Z
?DeleteProperty@CClassPart@@QEAAJPEBG@Z
?DeleteMethod@CWbemInstance@@UEAAJPEBG@Z
?DeleteMethod@CWbemClass@@UEAAJPEBG@Z
?DeleteMethod@CMethodPart@@QEAAJPEBG@Z
?Delete@CWbemInstance@@UEAAJPEBG@Z
?Delete@CWbemClass@@UEAAJPEBG@Z
?Delete@CUntypedArray@@QEAAXVCType@@PEAVCFastHeap@@@Z
?Delete@CQualifierSet@@UEAAJPEBG@Z
?Delete@CBasicQualifierSet@@SAXPEAEPEAVCFastHeap@@@Z
?Decorate@CWbemInstance@@UEAAJPEBG0@Z
?Decorate@CWbemClass@@UEAAJPEBG0@Z
?CreateWithExtra@CCompressedStringList@@QEAAPEAEPEAEPEAVCCompressedString@@@Z
?CreateWStringCopy@CCompressedString@@QEBA?AVWString@@XZ
?CreateUnmergedVersion@CMethodDescription@@SAHPEFAU1@0PEAVCFastHeap@@1@Z
?CreateRefreshableObjectTemplate@CWbemRefreshingSvc@@IEAAJPEBGJPEAPEAUIWbemClassObject@@@Z
?CreateOutOfLine@CFastHeap@@QEAAPEAEPEAEK@Z
?CreateNoCaseStringHeapPtr@CFastHeap@@QEAAHPEBGAEFAK@Z
?CreateMethod@CMethodPart@@IEAAJPEBGPEAVCWbemObject@@1@Z
?CreateListOfEmpties@CQualifierSetList@@SAPEAEPEAEH@Z
?CreateLimitedRepresentation@CQualifierSetList@@QEAAPEAEPEAVCLimitationMapping@@PEAVCFastHeap@@1PEAE@Z
?CreateLimitedRepresentation@CPropertyLookupTable@@QEAAPEAEPEAVCLimitationMapping@@PEAVCFastHeap@@PEAEAEAH@Z
?CreateLimitedRepresentation@CInstancePart@@QEAAPEAEPEAVCLimitationMapping@@HPEAE@Z
?CreateLimitedRepresentation@CDerivationList@@QEAAPEAEPEAVCLimitationMapping@@PEAE@Z
?CreateLimitedRepresentation@CDecorationPart@@QEAAPEAEPEAVCLimitationMapping@@PEAE@Z
?CreateLimitedRepresentation@CDataTable@@QEAAPEAEPEAVCLimitationMapping@@HPEAVCFastHeap@@1PEAE@Z
?CreateLimitedRepresentation@CClassPart@@QEAAPEAEPEAVCLimitationMapping@@HPEAEAEAH@Z
?CreateLimitedRepresentation@CClassAndMethods@@QEAAPEAEPEAVCLimitationMapping@@HPEAEAEAH@Z
?CreateLPWSTRCopy@CInternalString@@QEBAPEAGXZ
?CreateFromText@XObjectTextSrc@CWmiObjectTextSrc@@UEAAJJPEAGKPEAUIWbemContext@@PEAPEAUIWbemClassObject@@@Z
?CreateFromStream@CWbemObject@@SAPEAV1@PEAUIStream@@@Z
?CreateFromMemory@CWbemObject@@SAPEAV1@PEAEHHAEAVCBlobControl@@@Z
?CreateFromBlob@CWbemInstance@@SAPEAV1@PEAVCWbemClass@@PEAE_K@Z
?CreateFromBlob@CWbemClass@@SAPEAV1@PEAV1@PEAE_K@Z
?CreateFromBlob2@CWbemInstance@@SAPEAV1@PEAVCWbemClass@@PEAEPEAG2@Z
?CreateFromBlob2@CWbemClass@@SAPEAV1@PEAV1@PEAEPEAG2@Z
?CreateEmpty@CWbemClass@@SAPEAEPEAE@Z
?CreateEmpty@CPropertyLookupTable@@SAPEAEPEAE@Z
?CreateEmpty@CMethodPart@@SAPEAEPEAE@Z
?CreateEmpty@CFastHeap@@SAPEAEPEAE@Z
?CreateEmpty@CDecorationPart@@QEAAPEAEEPEAE@Z
?CreateEmpty@CDataTable@@SAPEAEPEAE@Z
?CreateEmpty@CCompressedStringList@@SAPEAEPEAE@Z
?CreateEmpty@CCompressedString@@SAPEAEPEAE@Z
?CreateEmpty@CClassPart@@SAPEAEPEAE@Z
?CreateEmpty@CClassAndMethods@@SAPEAEPEAE@Z
?CreateEmpty@CBasicQualifierSet@@SAPEAEPEAE@Z
?CreateDerivedVersion@CMethodDescription@@SAHPEFAU1@0PEAVCFastHeap@@1@Z
?CreateDerivedPart@CMethodPart@@QEAAPEAEPEAEK@Z
?CreateDerivedPart@CClassPart@@QEAAPEAEPEAEH@Z
?CreateDerivedPart@CClassAndMethods@@QEAAPEAEPEAEK@Z
?CreateDerivedClass@CWbemClass@@QEAAJPEAV1@HPEAVCDecorationPart@@@Z
?CreateDerivedClass@CWbemClass@@QEAAJPEAPEAV1@@Z
?CreateCVarVector@CUntypedArray@@QEAAPEAVCVarVector@@VCType@@PEAVCFastHeap@@@Z
?CreateBSTRCopy@CCompressedString@@QEBAPEAGXZ
?Create@XObjectFactory@CWmiObjectFactory@@UEAAJPEAUIUnknown@@KAEBU_GUID@@1PEAPEAX@Z
?Create@CWmiObjectFactory@@QEAAJPEAUIUnknown@@KAEBU_GUID@@1PEAPEAX@Z
?Create@CInstancePart@@QEAAPEAEPEAEPEAVCClassPart@@PEAVCInstancePartContainer@@@Z
?Create@CInstancePQSContainer@@QEAAXPEAVCQualifierSetList@@HPEAVCClassPart@@K@Z
?Create@CFixedBSTRArray@@QEAAXH@Z
?Create@CDecorationPart@@QEAAXEPEBG0PEAE@Z
?CopyTransferBlob@CWbemInstance@@QEAAJJJPEAE@Z
?CopyTransferArrayBlob@CWbemInstance@@SAJPEAV1@JJPEAEAEAVCFlexArray@@PEAJ@Z
?CopyToNewHeap@CUntypedArray@@SAHKVCType@@PEAVCFastHeap@@1AEFAK@Z
?CopyToNewHeap@CEmbeddedObject@@SAHKPEAVCFastHeap@@0AEFAK@Z
?CopyToNewHeap@CCompressedString@@SAHKPEAVCFastHeap@@0AEFAK@Z
?CopyParentProperty@CClassPart@@QEAAJAEAV1@PEBG@Z
?CopyNullness@CDataTable@@QEAAXPEAV1@@Z
?CopyLocalQualifiers@CQualifierSet@@QEAAJAEAV1@@Z
?CopyInstanceData@CWbemInstance@@UEAAJJPEAU_IWmiObject@@@Z
?CopyInstanceData@CWbemClass@@UEAAJJPEAU_IWmiObject@@@Z
?CopyInfo@CLimitationMapping@@IEAAXAEAVCPropertyInformation@@AEBV2@@Z
?CopyData@CCompressedStringList@@QEAAPEAEPEAE@Z
?CopyBlobOf@CWbemInstance@@UEAAJPEAVCWbemObject@@@Z
?CopyBlobOf@CWbemClass@@UEAAJPEAVCWbemObject@@@Z
?CopyBlob@CWbemInstance@@QEAAJPEAEH@Z
?CopyActualTransferBlob@CWbemInstance@@QEAAJJPEAE@Z
?Copy@CFastPropertyBag@@QEAAJAEBV1@@Z
?Copy@CFastHeap@@QEAAXKKK@Z
?ConvertToUnicode@CCompressedString@@QEBAXPEAG@Z
?ConvertToMergedInstance@CWbemInstance@@QEAAJXZ
?ConvertToClass@CWbemInstance@@QEAAJPEAVCWbemClass@@PEAPEAV1@@Z
?ConvertToClass@CInstancePart@@QEAAPEAEAEAVCClassPart@@KPEAE@Z
?ComputeUnmergedSpace@CBasicQualifierSet@@SAKPEAE@Z
?ComputeRealSpace@CQualifierSetList@@SAKH@Z
?ComputeNecessarySpaceForPropagation@CBasicQualifierSet@@SAKPEAEE@Z
?ComputeNecessarySpace@CQualifierSetList@@SAKH@Z
?ComputeNecessarySpace@CInstancePart@@SAKPEAVCClassPart@@@Z
?ComputeNecessarySpace@CDecorationPart@@SAKPEBG0@Z
?ComputeNecessarySpace@CDataTable@@SAKHH@Z
?ComputeNecessarySpace@CCompressedStringList@@QEAAKPEAVCCompressedString@@@Z
?ComputeNecessarySpace@CCompressedString@@SAHPEBGAEAH@Z
?ComputeNecessarySpace@CCompressedString@@SAHPEBG@Z
?ComputeNecessarySpace@CCompressedString@@SAHPEBD@Z
?ComputeMergeSpace@CBasicQualifierSet@@SAKPEAEPEAVCFastHeap@@01H@Z
?CompareUnicodeToAsciiNoCase@CCompressedString@@KAHPEFBGPEBDH@Z
?CompareUnicodeToAscii@CCompressedString@@KAHPEFBGPEBD@Z
?CompareTo@CWbemObject@@UEAAJJPEAUIWbemClassObject@@@Z
?CompareTo@CWbemClass@@UEAAJJPEAUIWbemClassObject@@@Z
?CompareTo@CQualifierSet@@UEAAJJPEAUIWbemQualifierSet@@@Z
?CompareTo@CMethodPart@@QEAAJJAEAV1@@Z
?CompareTo@CDecorationPart@@QEAAHAEAV1@@Z
?CompareTo@CClassAndMethods@@QEAA?AW4EReconciliation@@AEAV1@@Z
?CompareNoCase@CCompressedString@@QEBAHPEBG@Z
?CompareNoCase@CCompressedString@@QEBAHPEBD@Z
?CompareNoCase@CCompressedString@@QEBAHAEBV1@@Z
?CompareMostDerivedClass@CWbemClass@@QEAAJPEAV1@@Z
?CompareLocalizedSet@CBasicQualifierSet@@QEAAHAEAV1@@Z
?CompareExactMatch@CMethodPart@@QEAA?AW4EReconciliation@@AEAV1@@Z
?CompareExactMatch@CClassPart@@QEAA?AW4EReconciliation@@AEAV1@H@Z
?CompareDerivedMostClass@CWbemInstance@@UEAAJJPEAU_IWmiObject@@@Z
?CompareDerivedMostClass@CWbemClass@@UEAAJJPEAU_IWmiObject@@@Z
?CompareDefs@CClassPart@@QEAAHAEAV1@@Z
?CompareClassParts@CWbemObject@@UEAAJPEAUIWbemClassObject@@J@Z
?Compare@CQualifierSet@@QEAAHAEAV1@PEAVCFixedBSTRArray@@H@Z
?Compare@CInternalString@@QEBAHPEBG@Z
?Compare@CInternalString@@QEBAHAEBV1@@Z
?Compare@CCompressedString@@QEBAHPEBG@Z
?Compare@CCompressedString@@QEBAHPEBD@Z
?Compare@CCompressedString@@QEBAHAEBV1@@Z
?Compare@CBasicQualifierSet@@QEAAHAEAV1@EPEAPEBGK@Z
?CompactClass@CWbemInstance@@QEAAXXZ
?CompactAll@CWbemInstance@@UEAAXXZ
?CompactAll@CWbemClass@@UEAAXXZ
?Compact@CMethodPart@@QEAAXXZ
?Compact@CInstancePart@@QEAAX_N@Z
?Compact@CClassPart@@QEAAXXZ
?Compact@CClassAndMethods@@QEAAXXZ
?CloneThreadContext@CWbemThreadSecurityHandle@@QEAAJK@Z
?CloneRpcContext@CWbemThreadSecurityHandle@@QEAAJPEAUIServerSecurity@@@Z
?CloneProcessContext@CWbemThreadSecurityHandle@@QEAAJXZ
?CloneEx@CWbemInstance@@UEAAJJPEAU_IWmiObject@@@Z
?CloneEx@CWbemClass@@UEAAJJPEAU_IWmiObject@@@Z
?CloneAndDecorate@CWbemInstance@@UEAAJJPEAG0PEAPEAUIWbemClassObject@@@Z
?CloneAndDecorate@CWbemClass@@UEAAJJPEAG0PEAPEAUIWbemClassObject@@@Z
?Clone@CWbemInstance@@UEAAJPEAPEAUIWbemClassObject@@@Z
?Clone@CWbemClass@@UEAAJPEAPEAUIWbemClassObject@@@Z
?ClearWriteOnlyProperties@CWbemInstance@@UEAAJXZ
?ClearWriteOnlyProperties@CWbemClass@@UEAAJXZ
?ClearCachedKeyValue@CWbemInstance@@UEAAXXZ
?ClearCachedKey@CWbemInstance@@QEAAXXZ
?Clear@CWbemGuidToClassMap@@AEAAXXZ
?Clear@CWbemClassCache@@AEAAXXZ
?CheckRangeSizeForGet@CUntypedArray@@KAJKKKKPEAK@Z
?CheckRangeSize@CUntypedArray@@SAJKKKKPEAX@Z
?CheckLocalBoolQualifier@CClassPart@@QEAAHPEBG@Z
?CheckIntervalDateTime@CUntypedArray@@SAHAEAVCVarVector@@@Z
?CheckIds@CMethodPart@@IEAAJPEAVCWbemClass@@0@Z
?CheckDuplicateParameters@CMethodPart@@IEAAJPEAVCWbemObject@@0@Z
?CheckCVarVector@CUntypedArray@@SAHAEAVCVarVector@@K@Z
?CheckBooleanPropQual@CWbemObject@@QEAAHPEBG0@Z
?CheckBoolQualifier@CClassPart@@QEAAHPEBG@Z
?CheapCompare@CCompressedString@@QEBAHAEBV1@@Z
?CanHaveCimtype@CMethodQualifierSetContainer@@UEAAHPEBG@Z
?CanHaveCimtype@CInstancePart@@UEAAHPEBG@Z
?CanHaveCimtype@CInstancePQSContainer@@UEAAHPEBG@Z
?CanHaveCimtype@CClassPart@@UEAAHPEBG@Z
?CanContainSingleton@CMethodQualifierSetContainer@@UEAAJXZ
?CanContainSingleton@CInstancePart@@UEAAJXZ
?CanContainSingleton@CInstancePQSContainer@@UEAAJXZ
?CanContainSingleton@CClassPart@@UEAAJXZ
?CanContainKeyedProps@CClassPart@@QEAAHXZ
?CanContainKey@CMethodQualifierSetContainer@@UEAAJXZ
?CanContainKey@CInstancePart@@UEAAJXZ
?CanContainKey@CInstancePQSContainer@@UEAAJXZ
?CanContainKey@CClassPart@@UEAAJXZ
?CanContainDynamic@CMethodQualifierSetContainer@@UEAAJXZ
?CanContainDynamic@CInstancePart@@UEAAJXZ
?CanContainDynamic@CInstancePQSContainer@@UEAAJXZ
?CanContainDynamic@CClassPart@@UEAAJXZ
?CanContainAbstract@CMethodQualifierSetContainer@@UEAAJH@Z
?CanContainAbstract@CInstancePart@@UEAAJH@Z
?CanContainAbstract@CInstancePQSContainer@@UEAAJH@Z
?CanContainAbstract@CClassPart@@UEAAJH@Z
?CanBeReconciledWith@CWbemClass@@QEAA?AW4EReconciliation@@PEAV1@@Z
?CanBeReconciledWith@CMethodPart@@QEAA?AW4EReconciliation@@AEAV1@@Z
?CanBeReconciledWith@CClassPart@@QEAA?AW4EReconciliation@@AEAV1@@Z
?CanBeReconciledWith@CClassAndMethods@@QEAA?AW4EReconciliation@@AEAV1@@Z
?CanBeReconciledWith@CBasicQualifierSet@@QEAAHAEAV1@@Z
?CanBeKey@CType@@SAHK@Z
?CalculateNecessarySpaceByType@CUntypedArray@@SAKVCType@@H@Z
?CalculateNecessarySpaceByLength@CUntypedArray@@SAKHH@Z
?CalculateLength@CWbemSmartEnumNextPacket@@QEAAJJPEAPEAUIWbemClassObject@@PEAKAEAVCWbemClassToIdMap@@PEAU_GUID@@PEAH@Z
?CalculateLength@CWbemObjectArrayPacket@@QEAAJJPEAPEAUIWbemClassObject@@PEAKAEAVCWbemClassToIdMap@@PEAU_GUID@@PEAH@Z
?CalculateLength@CWbemMtgtDeliverEventPacket@@QEAAJJPEAPEAUIWbemClassObject@@PEAKAEAVCWbemClassToIdMap@@PEAU_GUID@@PEAH@Z
?CalculateCachedKey@CWbemInstance@@QEAAPEAVCVar@@XZ
?CVarToType@CType@@SA?AV1@AEAVCVar@@@Z
?CIMTYPEToVARTYPE@CWbemObject@@UEAAJJPEAG@Z
?Build@CLimitationMapping@@QEAAXH@Z
?BeginMethodEnumeration@CWbemInstance@@UEAAJJ@Z
?BeginMethodEnumeration@CWbemClass@@UEAAJJ@Z
?BeginEnumerationEx@CWbemObject@@UEAAJJJ@Z
?BeginEnumeration@CWbemObject@@UEAAJJ@Z
?BeginEnumeration@CQualifierSet@@UEAAJJ@Z
?AugmentRequest@CFastHeap@@IEAAKKK@Z
?AsymmetricMerge@CWbemInstance@@SAJPEAV1@0@Z
?ArePropertiesLimited@CLimitationMapping@@QEAAHXZ
?AreKeysRemoved@CDecorationPart@@QEAAHXZ
?AreEqual@CWbemObject@@SAHPEAV1@0J@Z
?AppendRange@CUntypedArray@@SAJPEAVCPtrSource@@KKPEAVCFastHeap@@KKPEAX@Z
?AppendQualifierArrayRange@CWbemObject@@QEAAJPEBG0HJJKKPEAX@Z
?AppendArrayPropRangeByHandle@CWbemObject@@UEAAJJJKKPEAX@Z
?AllocateString@CFastHeap@@QEAAHPEBGAEFAK@Z
?AllocateString@CFastHeap@@QEAAHPEBDAEFAK@Z
?Allocate@CFastHeap@@QEAAHKAEFAK@Z
?AddText@CMethodPart@@QEAAJAEAVWString@@J@Z
?AddText@CMethodDescription@@SAJPEFAU1@AEAVWString@@PEAVCFastHeap@@J@Z
?AddString@CCompressedStringList@@QEAAXPEBG@Z
?AddRefElement@?$CPointerArray@VCWmiTextSource@@V?$CReferenceManager@VCWmiTextSource@@@@VCFlexArray@@@@IEAAXPEAVCWmiTextSource@@@Z
?AddRefElement@?$CPointerArray@VCFastPropertyBagItem@@V?$CReferenceManager@VCFastPropertyBagItem@@@@VCFlexArray@@@@IEAAXPEAVCFastPropertyBagItem@@@Z
?AddRef@CWbemThreadSecurityHandle@@UEAAKXZ
?AddRef@CWbemObject@@UEAAKXZ
?AddRef@CWbemCallSecurity@@UEAAKXZ
?AddRef@CQualifierSet@@UEAAKXZ
?AddRef@?$CImpl@U_IWmiObjectFactory@@VCWmiObjectFactory@@@@UEAAKXZ
?AddRef@?$CImpl@U_IWbemFetchRefresherMgr@@VCWbemFetchRefrMgr@@@@UEAAKXZ
?AddRef@?$CImpl@U_IWbemEnumMarshaling@@VCWbemEnumMarshaling@@@@UEAAKXZ
?AddRef@?$CImpl@U_IWbemConfigureRefreshingSvcs@@VCWbemRefreshingSvc@@@@UEAAKXZ
?AddRef@?$CImpl@UIWbemRemoteRefresher@@VCWbemRemoteRefresher@@@@UEAAKXZ
?AddRef@?$CImpl@UIWbemRefreshingServices@@VCWbemRefreshingSvc@@@@UEAAKXZ
?AddRef@?$CImpl@UIWbemObjectTextSrc@@VCWmiObjectTextSrc@@@@UEAAKXZ
?AddQualifierConflicts@CQualifierSet@@IEAAJAEAVCVarVector@@@Z
?AddPropertyType@CType@@SAXAEAVWString@@PEBG@Z
?AddPropertyText@CWbemClass@@QEAAJAEAVWString@@PEAUCPropertyLookup@@PEAVCPropertyInformation@@J@Z
?AddObjectToRefresher_@CWbemRefreshingSvc@@IEAAJHPEAU_WBEM_REFRESHER_ID@@PEAVCWbemObject@@JPEAUIWbemContext@@PEAU_WBEM_REFRESH_INFO@@@Z
?AddObjectToRefresherByTemplate@XWbemRefrSvc@CWbemRefreshingSvc@@UEAAJPEAU_WBEM_REFRESHER_ID@@PEAUIWbemClassObject@@JPEAUIWbemContext@@KPEAU_WBEM_REFRESH_INFO@@PEAK@Z
?AddObjectToRefresherByTemplate@CWbemRefreshingSvc@@MEAAJPEAU_WBEM_REFRESHER_ID@@PEAUIWbemClassObject@@JPEAUIWbemContext@@KPEAU_WBEM_REFRESH_INFO@@PEAK@Z
?AddObjectToRefresher@XWbemRefrSvc@CWbemRefreshingSvc@@UEAAJPEAU_WBEM_REFRESHER_ID@@PEBGJPEAUIWbemContext@@KPEAU_WBEM_REFRESH_INFO@@PEAK@Z
?AddObjectToRefresher@CWbemRefreshingSvc@@MEAAJPEAU_WBEM_REFRESHER_ID@@PEBGJPEAUIWbemContext@@KPEAU_WBEM_REFRESH_INFO@@PEAK@Z
?AddObject@CWbemClassCache@@QEAAJAEAU_GUID@@PEAUIWbemClassObject@@@Z
?AddMap@CWbemGuidToClassMap@@QEAAJAEAVCGUID@@PEAPEAVCWbemClassToIdMap@@@Z
?AddEnumToRefresher_@CWbemRefreshingSvc@@IEAAJHPEAU_WBEM_REFRESHER_ID@@PEAVCWbemObject@@PEBGJPEAUIWbemContext@@PEAU_WBEM_REFRESH_INFO@@@Z
?AddEnumToRefresher@XWbemRefrSvc@CWbemRefreshingSvc@@UEAAJPEAU_WBEM_REFRESHER_ID@@PEBGJPEAUIWbemContext@@KPEAU_WBEM_REFRESH_INFO@@PEAK@Z
?AddEnumToRefresher@CWbemRefreshingSvc@@MEAAJPEAU_WBEM_REFRESHER_ID@@PEBGJPEAUIWbemContext@@KPEAU_WBEM_REFRESH_INFO@@PEAK@Z
?Add@CFastPropertyBag@@QEAAJPEBGJKKPEAX@Z
?Add@?$CPointerArray@VCWmiTextSource@@V?$CReferenceManager@VCWmiTextSource@@@@VCFlexArray@@@@QEAAHPEAVCWmiTextSource@@@Z
?Add@?$CPointerArray@VCFastPropertyBagItem@@V?$CReferenceManager@VCFastPropertyBagItem@@@@VCFlexArray@@@@QEAAHPEAVCFastPropertyBagItem@@@Z
?AcquireCompressedString@CInternalString@@QEAAXPEAVCCompressedString@@@Z
?AbsoluteToHeap@CFastHeap@@IEAAKPEAE@Z
??_FCWbemClassCache@@QEAAXXZ
??_FCInstanceQualifierSet@@QEAAXXZ
??_FCClassQualifierSet@@QEAAXXZ
??_F?$CPointerArray@VCWmiTextSource@@V?$CReferenceManager@VCWmiTextSource@@@@VCFlexArray@@@@QEAAXXZ
??_F?$CPointerArray@VCFastPropertyBagItem@@V?$CReferenceManager@VCFastPropertyBagItem@@@@VCFlexArray@@@@QEAAXXZ
??_7XWbemRemoteRefr@CWbemRemoteRefresher@@6B@
??_7XWbemRefrSvc@CWbemRefreshingSvc@@6B@
??_7XObjectTextSrc@CWmiObjectTextSrc@@6B@
??_7XObjectFactory@CWmiObjectFactory@@6B@
??_7XFetchRefrMgr@CWbemFetchRefrMgr@@6B@
??_7XEnumMarshaling@CWbemEnumMarshaling@@6B@
??_7XCfgRefrSrvc@CWbemRefreshingSvc@@6B@
??_7CWmiObjectFactory@@6B@
??_7CWbemThreadSecurityHandle@@6B@
??_7CWbemRefreshingSvc@@6B@
??_7CWbemObject@@6B_IWmiObject@@@
??_7CWbemObject@@6BIWbemPropertySource@@@
??_7CWbemObject@@6BIWbemConstructClassObject@@@
??_7CWbemObject@@6BIMarshal@@@
??_7CWbemObject@@6BIErrorInfo@@@
??_7CWbemInstance@@6B_IWmiObject@@@
??_7CWbemInstance@@6BIWbemPropertySource@@@
??_7CWbemInstance@@6BIWbemConstructClassObject@@@
??_7CWbemInstance@@6BIMarshal@@@
??_7CWbemInstance@@6BIErrorInfo@@@
??_7CWbemInstance@@6BCInstancePartContainer@@@
??_7CWbemInstance@@6BCClassPartContainer@@@
??_7CWbemFetchRefrMgr@@6B@
??_7CWbemEnumMarshaling@@6B@
??_7CWbemClass@@6B_IWmiObject@@@
??_7CWbemClass@@6BIWbemPropertySource@@@
??_7CWbemClass@@6BIWbemConstructClassObject@@@
??_7CWbemClass@@6BIMarshal@@@
??_7CWbemClass@@6BIErrorInfo@@@
??_7CWbemCallSecurity@@6B_IWmiCallSec@@@
??_7CWbemCallSecurity@@6BIServerSecurity@@@
??_7CQualifierSetListContainer@@6B@
??_7CQualifierSet@@6B@
??_7CMethodQualifierSetContainer@@6B@
??_7CMethodQualifierSet@@6B@
??_7CMethodPartContainer@@6B@
??_7CMethodPart@@6B@
??_7CInstanceQualifierSet@@6B@
??_7CInstancePartContainer@@6B@
??_7CInstancePart@@6BCQualifierSetListContainer@@@
??_7CInstancePart@@6BCQualifierSetContainer@@@
??_7CInstancePart@@6BCHeapContainer@@@
??_7CInstancePart@@6BCDataTableContainer@@@
??_7CInstancePQSContainer@@6B@
??_7CFastPropertyBag@@6B@
??_7CClassQualifierSet@@6B@
??_7CClassPartContainer@@6B@
??_7CClassPart@@6BCQualifierSetContainer@@@
??_7CClassPart@@6BCPropertyTableContainer@@@
??_7CClassPart@@6BCHeapContainer@@@
??_7CClassPart@@6BCDataTableContainer@@@
??_7CClassAndMethods@@6BCMethodPartContainer@@@
??_7CClassAndMethods@@6BCClassPartContainer@@@
??_7?$CImpl@U_IWmiObjectFactory@@VCWmiObjectFactory@@@@6B@
??_7?$CImpl@U_IWbemFetchRefresherMgr@@VCWbemFetchRefrMgr@@@@6B@
??_7?$CImpl@U_IWbemEnumMarshaling@@VCWbemEnumMarshaling@@@@6B@
??_7?$CImpl@U_IWbemConfigureRefreshingSvcs@@VCWbemRefreshingSvc@@@@6B@
??_7?$CImpl@UIWbemRemoteRefresher@@VCWbemRemoteRefresher@@@@6B@
??_7?$CImpl@UIWbemRefreshingServices@@VCWbemRefreshingSvc@@@@6B@
??_7?$CImpl@UIWbemObjectTextSrc@@VCWmiObjectTextSrc@@@@6B@
??OCInternalString@@QEBA_NAEBV0@@Z
??MCInternalString@@QEBA_NAEBV0@@Z
??BCType@@QEAAKXZ
??BCInternalString@@QEBA?AVWString@@XZ
??BCInternalString@@AEBAPEAVCCompressedString@@XZ
??BCInternalString@@AEAAPEAVCCompressedString@@XZ
??ACFixedBSTRArray@@QEAAAEAPEAGH@Z
??A?$CPointerArray@VCWmiTextSource@@V?$CReferenceManager@VCWmiTextSource@@@@VCFlexArray@@@@QEBAPEBVCWmiTextSource@@H@Z
??A?$CPointerArray@VCWmiTextSource@@V?$CReferenceManager@VCWmiTextSource@@@@VCFlexArray@@@@QEAAPEAVCWmiTextSource@@H@Z
??A?$CPointerArray@VCFastPropertyBagItem@@V?$CReferenceManager@VCFastPropertyBagItem@@@@VCFlexArray@@@@QEBAPEBVCFastPropertyBagItem@@H@Z
??A?$CPointerArray@VCFastPropertyBagItem@@V?$CReferenceManager@VCFastPropertyBagItem@@@@VCFlexArray@@@@QEAAPEAVCFastPropertyBagItem@@H@Z
??9CInternalString@@QEBA_NAEBV0@@Z
??8CQualifierSet@@QEAAHAEAV0@@Z
??8CInternalString@@QEBA_NPEBG@Z
??8CInternalString@@QEBA_NAEBV0@@Z
??4XWbemRemoteRefr@CWbemRemoteRefresher@@QEAAAEAV01@AEBV01@@Z
??4XWbemRefrSvc@CWbemRefreshingSvc@@QEAAAEAV01@AEBV01@@Z
??4XObjectTextSrc@CWmiObjectTextSrc@@QEAAAEAV01@AEBV01@@Z
??4XObjectFactory@CWmiObjectFactory@@QEAAAEAV01@AEBV01@@Z
??4XFetchRefrMgr@CWbemFetchRefrMgr@@QEAAAEAV01@AEBV01@@Z
??4XEnumMarshaling@CWbemEnumMarshaling@@QEAAAEAV01@AEBV01@@Z
??4XCfgRefrSrvc@CWbemRefreshingSvc@@QEAAAEAV01@AEBV01@@Z
??4SHMEM_HANDLE@@QEAAAEAU0@AEBU0@@Z
??4SHARED_LOCK_DATA@@QEAAAEAU0@AEBU0@@Z
??4CWmiTextSourceArray@@QEAAAEAV0@AEAV0@@Z
??4CWmiObjectFactory@@QEAAAEAV0@AEBV0@@Z
??4CWbemThreadSecurityHandle@@QEAAAEAV0@AEBV0@@Z
??4CWbemSmartEnumNextPacket@@QEAAAEAV0@AEBV0@@Z
??4CWbemRefreshingSvc@@QEAAAEAV0@AEBV0@@Z
??4CWbemObjectArrayPacket@@QEAAAEAV0@AEBV0@@Z
??4CWbemMtgtDeliverEventPacket@@QEAAAEAV0@AEBV0@@Z
??4CWbemGuidToClassMap@@QEAAAEAV0@AEBV0@@Z
??4CWbemFetchRefrMgr@@QEAAAEAV0@AEBV0@@Z
??4CWbemEnumMarshaling@@QEAAAEAV0@AEBV0@@Z
??4CWbemDataPacket@@QEAAAEAV0@AEBV0@@Z
??4CWbemClassCache@@QEAAAEAV0@AEBV0@@Z
??4CWbemCallSecurity@@QEAAAEAV0@AEBV0@@Z
??4CUntypedArray@@QEAAAEAV0@AEBV0@@Z
??4CType@@QEAAAEAV0@AEBV0@@Z
??4CSystemProperties@@QEAAAEAV0@AEBV0@@Z
??4CSharedLock@@QEAAAEAV0@AEBV0@@Z
??4CReservedWordTable@@QEAAAEAV0@AEBV0@@Z
??4CQualifierSetListContainer@@QEAAAEAV0@AEBV0@@Z
??4CQualifierSetList@@QEAAAEAV0@AEBV0@@Z
??4CQualifierSet@@QEAAAEAV0@AEBV0@@Z
??4CPropertyLookupTable@@QEAAAEAV0@AEBV0@@Z
??4CPropertyBagItemArray@@QEAAAEAV0@AEAV0@@Z
??4CMethodQualifierSetContainer@@QEAAAEAV0@AEBV0@@Z
??4CMethodQualifierSet@@QEAAAEAV0@AEBV0@@Z
??4CMethodPartContainer@@QEAAAEAV0@AEBV0@@Z
??4CMethodPart@@QEAAAEAV0@AEBV0@@Z
??4CMethodDescription@@QEAAAEAU0@AEBU0@@Z
??4CLimitationMapping@@QEAAAEAV0@AEAV0@@Z
??4CKnownStringTable@@QEAAAEAV0@AEBV0@@Z
??4CInternalString@@QEAAHPEBG@Z
??4CInternalString@@QEAAHPEAVCCompressedString@@@Z
??4CInternalString@@QEAAAEAV0@AEBV0@@Z
??4CInstanceQualifierSet@@QEAAAEAV0@AEBV0@@Z
??4CInstancePartContainer@@QEAAAEAV0@AEBV0@@Z
??4CInstancePart@@QEAAAEAV0@AEBV0@@Z
??4CInstancePQSContainer@@QEAAAEAV0@AEBV0@@Z
??4CHiPerfLock@@QEAAAEAV0@AEBV0@@Z
??4CFixedBSTRArray@@QEAAAEAV0@AEBV0@@Z
??4CFastPropertyBag@@QEAAAEAV0@AEAV0@@Z
??4CFastHeap@@QEAAAEAV0@AEBV0@@Z
??4CEmbeddedObject@@QEAAAEAV0@AEBV0@@Z
??4CDerivationList@@QEAAAEAV0@AEBV0@@Z
??4CDecorationPart@@QEAAAEAV0@AEBV0@@Z
??4CDataTable@@QEAAAEAV0@AEBV0@@Z
??4CCompressedStringList@@QEAAAEAV0@AEBV0@@Z
??4CCompressedString@@QEAAAEAV0@AEBV0@@Z
??4CClassQualifierSet@@QEAAAEAV0@AEBV0@@Z
??4CClassPartContainer@@QEAAAEAV0@AEBV0@@Z
??4CClassPart@@QEAAAEAV0@AEBV0@@Z
??4CClassAndMethods@@QEAAAEAV0@AEBV0@@Z
??4CBasicQualifierSet@@QEAAAEAV0@AEBV0@@Z
??4?$CRefedPointerArray@VCWmiTextSource@@@@QEAAAEAV0@AEAV0@@Z
??4?$CRefedPointerArray@VCFastPropertyBagItem@@@@QEAAAEAV0@AEAV0@@Z
??4?$CPointerArray@VCWmiTextSource@@V?$CReferenceManager@VCWmiTextSource@@@@VCFlexArray@@@@QEAAAEAV0@AEAV0@@Z
??4?$CPointerArray@VCFastPropertyBagItem@@V?$CReferenceManager@VCFastPropertyBagItem@@@@VCFlexArray@@@@QEAAAEAV0@AEAV0@@Z
??4?$CImpl@U_IWmiObjectFactory@@VCWmiObjectFactory@@@@QEAAAEAV0@AEBV0@@Z
??4?$CImpl@U_IWbemFetchRefresherMgr@@VCWbemFetchRefrMgr@@@@QEAAAEAV0@AEBV0@@Z
??4?$CImpl@U_IWbemEnumMarshaling@@VCWbemEnumMarshaling@@@@QEAAAEAV0@AEBV0@@Z
??4?$CImpl@U_IWbemConfigureRefreshingSvcs@@VCWbemRefreshingSvc@@@@QEAAAEAV0@AEBV0@@Z
??4?$CImpl@UIWbemRemoteRefresher@@VCWbemRemoteRefresher@@@@QEAAAEAV0@AEBV0@@Z
??4?$CImpl@UIWbemRefreshingServices@@VCWbemRefreshingSvc@@@@QEAAAEAV0@AEBV0@@Z
??4?$CImpl@UIWbemObjectTextSrc@@VCWmiObjectTextSrc@@@@QEAAAEAV0@AEBV0@@Z
??1XWbemRemoteRefr@CWbemRemoteRefresher@@QEAA@XZ
??1XWbemRefrSvc@CWbemRefreshingSvc@@QEAA@XZ
??1XObjectTextSrc@CWmiObjectTextSrc@@QEAA@XZ
??1XObjectFactory@CWmiObjectFactory@@QEAA@XZ
??1XFetchRefrMgr@CWbemFetchRefrMgr@@QEAA@XZ
??1XEnumMarshaling@CWbemEnumMarshaling@@QEAA@XZ
??1XCfgRefrSrvc@CWbemRefreshingSvc@@QEAA@XZ
??1CWmiTextSourceArray@@QEAA@XZ
??1CWmiObjectFactory@@UEAA@XZ
??1CWbemThreadSecurityHandle@@QEAA@XZ
??1CWbemSmartEnumNextPacket@@QEAA@XZ
??1CWbemRefreshingSvc@@UEAA@XZ
??1CWbemObjectArrayPacket@@QEAA@XZ
??1CWbemObject@@UEAA@XZ
??1CWbemMtgtDeliverEventPacket@@QEAA@XZ
??1CWbemInstance@@UEAA@XZ
??1CWbemGuidToClassMap@@QEAA@XZ
??1CWbemFetchRefrMgr@@UEAA@XZ
??1CWbemEnumMarshaling@@UEAA@XZ
??1CWbemDataPacket@@QEAA@XZ
??1CWbemClassCache@@QEAA@XZ
??1CWbemClass@@UEAA@XZ
??1CWbemCallSecurity@@QEAA@XZ
??1CQualifierSet@@UEAA@XZ
??1CPropertyBagItemArray@@QEAA@XZ
??1CMethodQualifierSetContainer@@QEAA@XZ
??1CMethodQualifierSet@@UEAA@XZ
??1CLimitationMapping@@QEAA@XZ
??1CInternalString@@QEAA@XZ
??1CInstanceQualifierSet@@UEAA@XZ
??1CInstancePart@@QEAA@XZ
??1CInstancePQSContainer@@QEAA@XZ
??1CFixedBSTRArray@@QEAA@XZ
??1CFastPropertyBag@@UEAA@XZ
??1CClassQualifierSet@@UEAA@XZ
??1CClassPart@@QEAA@XZ
??1CClassAndMethods@@QEAA@XZ
??1CBasicQualifierSet@@QEAA@XZ
??1?$CRefedPointerArray@VCWmiTextSource@@@@QEAA@XZ
??1?$CRefedPointerArray@VCFastPropertyBagItem@@@@QEAA@XZ
??1?$CPointerArray@VCWmiTextSource@@V?$CReferenceManager@VCWmiTextSource@@@@VCFlexArray@@@@QEAA@XZ
??1?$CPointerArray@VCFastPropertyBagItem@@V?$CReferenceManager@VCFastPropertyBagItem@@@@VCFlexArray@@@@QEAA@XZ
??1?$CImpl@U_IWmiObjectFactory@@VCWmiObjectFactory@@@@QEAA@XZ
??1?$CImpl@U_IWbemFetchRefresherMgr@@VCWbemFetchRefrMgr@@@@QEAA@XZ
??1?$CImpl@U_IWbemEnumMarshaling@@VCWbemEnumMarshaling@@@@QEAA@XZ
??1?$CImpl@U_IWbemConfigureRefreshingSvcs@@VCWbemRefreshingSvc@@@@QEAA@XZ
??1?$CImpl@UIWbemRemoteRefresher@@VCWbemRemoteRefresher@@@@QEAA@XZ
??1?$CImpl@UIWbemRefreshingServices@@VCWbemRefreshingSvc@@@@QEAA@XZ
??1?$CImpl@UIWbemObjectTextSrc@@VCWmiObjectTextSrc@@@@QEAA@XZ
??0XWbemRemoteRefr@CWbemRemoteRefresher@@QEAA@PEAV1@@Z
??0XWbemRemoteRefr@CWbemRemoteRefresher@@QEAA@AEBV01@@Z
??0XWbemRefrSvc@CWbemRefreshingSvc@@QEAA@PEAV1@@Z
??0XWbemRefrSvc@CWbemRefreshingSvc@@QEAA@AEBV01@@Z
??0XObjectTextSrc@CWmiObjectTextSrc@@QEAA@PEAV1@@Z
??0XObjectTextSrc@CWmiObjectTextSrc@@QEAA@AEBV01@@Z
??0XObjectFactory@CWmiObjectFactory@@QEAA@PEAV1@@Z
??0XObjectFactory@CWmiObjectFactory@@QEAA@AEBV01@@Z
??0XFetchRefrMgr@CWbemFetchRefrMgr@@QEAA@PEAV1@@Z
??0XFetchRefrMgr@CWbemFetchRefrMgr@@QEAA@AEBV01@@Z
??0XEnumMarshaling@CWbemEnumMarshaling@@QEAA@PEAV1@@Z
??0XEnumMarshaling@CWbemEnumMarshaling@@QEAA@AEBV01@@Z
??0XCfgRefrSrvc@CWbemRefreshingSvc@@QEAA@PEAV1@@Z
??0XCfgRefrSrvc@CWbemRefreshingSvc@@QEAA@AEBV01@@Z
??0SHARED_LOCK_DATA@@QEAA@XZ
??0CWmiTextSourceArray@@QEAA@XZ
??0CWmiTextSourceArray@@QEAA@AEAV0@@Z
??0CWmiObjectFactory@@QEAA@PEAVCLifeControl@@PEAUIUnknown@@@Z
??0CWmiObjectFactory@@QEAA@AEBV0@@Z
??0CWbemThreadSecurityHandle@@QEAA@PEAVCLifeControl@@@Z
??0CWbemThreadSecurityHandle@@QEAA@AEBV0@@Z
??0CWbemSmartEnumNextPacket@@QEAA@PEAEK_N@Z
??0CWbemSmartEnumNextPacket@@AEAA@XZ
??0CWbemRefreshingSvc@@QEAA@PEAVCLifeControl@@PEAUIUnknown@@@Z
??0CWbemRefreshingSvc@@QEAA@AEBV0@@Z
??0CWbemObjectArrayPacket@@QEAA@PEAEK_N@Z
??0CWbemObject@@QEAA@AEBV0@@Z
??0CWbemObject@@IEAA@AEAVCDataTable@@AEAVCFastHeap@@AEAVCDerivationList@@@Z
??0CWbemMtgtDeliverEventPacket@@QEAA@PEAEK_N@Z
??0CWbemMtgtDeliverEventPacket@@AEAA@XZ
??0CWbemInstance@@QEAA@XZ
??0CWbemInstance@@QEAA@AEBV0@@Z
??0CWbemGuidToClassMap@@QEAA@XZ
??0CWbemGuidToClassMap@@QEAA@AEBV0@@Z
??0CWbemFetchRefrMgr@@QEAA@PEAVCLifeControl@@PEAUIUnknown@@@Z
??0CWbemFetchRefrMgr@@QEAA@AEBV0@@Z
??0CWbemEnumMarshaling@@QEAA@PEAVCLifeControl@@PEAUIUnknown@@@Z
??0CWbemEnumMarshaling@@QEAA@AEBV0@@Z
??0CWbemDataPacket@@QEAA@PEAEK_N@Z
??0CWbemDataPacket@@IEAA@XZ
??0CWbemClassCache@@QEAA@K@Z
??0CWbemClassCache@@QEAA@AEBV0@@Z
??0CWbemClass@@QEAA@XZ
??0CWbemClass@@QEAA@AEBV0@@Z
??0CWbemCallSecurity@@QEAA@PEAVCLifeControl@@@Z
??0CWbemCallSecurity@@QEAA@AEBV0@@Z
??0CType@@QEAA@XZ
??0CType@@QEAA@K@Z
??0CQualifierSetListContainer@@QEAA@XZ
??0CQualifierSetListContainer@@QEAA@AEBV0@@Z
??0CQualifierSet@@QEAA@HH@Z
??0CQualifierSet@@QEAA@AEBV0@@Z
??0CPropertyBagItemArray@@QEAA@XZ
??0CPropertyBagItemArray@@QEAA@AEAV0@@Z
??0CMethodQualifierSetContainer@@QEAA@XZ
??0CMethodQualifierSetContainer@@QEAA@AEBV0@@Z
??0CMethodQualifierSet@@QEAA@XZ
??0CMethodQualifierSet@@QEAA@AEBV0@@Z
??0CMethodPartContainer@@QEAA@XZ
??0CMethodPartContainer@@QEAA@AEBV0@@Z
??0CMethodPart@@QEAA@XZ
??0CMethodPart@@QEAA@AEBV0@@Z
??0CLimitationMapping@@QEAA@XZ
??0CLimitationMapping@@QEAA@AEAV0@@Z
??0CInternalString@@QEAA@XZ
??0CInternalString@@QEAA@PEBG@Z
??0CInternalString@@QEAA@AEBV0@@Z
??0CInstanceQualifierSet@@QEAA@H@Z
??0CInstanceQualifierSet@@QEAA@AEBV0@@Z
??0CInstancePartContainer@@QEAA@XZ
??0CInstancePartContainer@@QEAA@AEBV0@@Z
??0CInstancePart@@QEAA@XZ
??0CInstancePart@@QEAA@AEBV0@@Z
??0CInstancePQSContainer@@QEAA@XZ
??0CInstancePQSContainer@@QEAA@AEBV0@@Z
??0CHiPerfLock@@QEAA@XZ
??0CFixedBSTRArray@@QEAA@XZ
??0CFastPropertyBag@@QEAA@XZ
??0CFastPropertyBag@@QEAA@AEAV0@@Z
??0CDecorationPart@@QEAA@XZ
??0CClassQualifierSet@@QEAA@H@Z
??0CClassQualifierSet@@QEAA@AEBV0@@Z
??0CClassPartContainer@@QEAA@XZ
??0CClassPartContainer@@QEAA@AEBV0@@Z
??0CClassPart@@QEAA@XZ
??0CClassPart@@QEAA@AEBV0@@Z
??0CClassAndMethods@@QEAA@XZ
??0CClassAndMethods@@QEAA@AEBV0@@Z
??0CBasicQualifierSet@@QEAA@XZ
??0?$CRefedPointerArray@VCWmiTextSource@@@@QEAA@XZ
??0?$CRefedPointerArray@VCWmiTextSource@@@@QEAA@AEAV0@@Z
??0?$CRefedPointerArray@VCFastPropertyBagItem@@@@QEAA@XZ
??0?$CRefedPointerArray@VCFastPropertyBagItem@@@@QEAA@AEAV0@@Z
??0?$CPointerArray@VCWmiTextSource@@V?$CReferenceManager@VCWmiTextSource@@@@VCFlexArray@@@@QEAA@AEBV?$CReferenceManager@VCWmiTextSource@@@@@Z
??0?$CPointerArray@VCWmiTextSource@@V?$CReferenceManager@VCWmiTextSource@@@@VCFlexArray@@@@QEAA@AEAV0@@Z
??0?$CPointerArray@VCFastPropertyBagItem@@V?$CReferenceManager@VCFastPropertyBagItem@@@@VCFlexArray@@@@QEAA@AEBV?$CReferenceManager@VCFastPropertyBagItem@@@@@Z
??0?$CPointerArray@VCFastPropertyBagItem@@V?$CReferenceManager@VCFastPropertyBagItem@@@@VCFlexArray@@@@QEAA@AEAV0@@Z
??0?$CImpl@U_IWmiObjectFactory@@VCWmiObjectFactory@@@@QEAA@PEAVCWmiObjectFactory@@@Z
??0?$CImpl@U_IWmiObjectFactory@@VCWmiObjectFactory@@@@QEAA@AEBV0@@Z
??0?$CImpl@U_IWbemFetchRefresherMgr@@VCWbemFetchRefrMgr@@@@QEAA@PEAVCWbemFetchRefrMgr@@@Z
??0?$CImpl@U_IWbemFetchRefresherMgr@@VCWbemFetchRefrMgr@@@@QEAA@AEBV0@@Z
??0?$CImpl@U_IWbemEnumMarshaling@@VCWbemEnumMarshaling@@@@QEAA@PEAVCWbemEnumMarshaling@@@Z
??0?$CImpl@U_IWbemEnumMarshaling@@VCWbemEnumMarshaling@@@@QEAA@AEBV0@@Z
??0?$CImpl@U_IWbemConfigureRefreshingSvcs@@VCWbemRefreshingSvc@@@@QEAA@PEAVCWbemRefreshingSvc@@@Z
??0?$CImpl@U_IWbemConfigureRefreshingSvcs@@VCWbemRefreshingSvc@@@@QEAA@AEBV0@@Z
??0?$CImpl@UIWbemRemoteRefresher@@VCWbemRemoteRefresher@@@@QEAA@PEAVCWbemRemoteRefresher@@@Z
??0?$CImpl@UIWbemRemoteRefresher@@VCWbemRemoteRefresher@@@@QEAA@AEBV0@@Z
??0?$CImpl@UIWbemRefreshingServices@@VCWbemRefreshingSvc@@@@QEAA@PEAVCWbemRefreshingSvc@@@Z
??0?$CImpl@UIWbemRefreshingServices@@VCWbemRefreshingSvc@@@@QEAA@AEBV0@@Z
??0?$CImpl@UIWbemObjectTextSrc@@VCWmiObjectTextSrc@@@@QEAA@PEAVCWmiObjectTextSrc@@@Z
??0?$CImpl@UIWbemObjectTextSrc@@VCWmiObjectTextSrc@@@@QEAA@AEBV0@@Z
