LIBRARY FRAMEDYN.DLL
EXPORTS
DoCmd
?propname@CObjectPathParser@@AEAAHXZ
?optional_objref@CObjectPathParser@@AEAAHXZ
?objref_rest@CObjectPathParser@@AEAAHXZ
?objref@CObjectPathParser@@AEAAHXZ
?ns_or_server@CObjectPathParser@@AEAAHXZ
?ns_or_class@CObjectPathParser@@AEAAHXZ
?ns_list_rest@CObjectPathParser@@AEAAHXZ
?ns_list@CObjectPathParser@@AEAAHXZ
?myRegSetValueEx@CRegistry@@AEAAJPEAUHKEY__@@PEBGKKPEBEK@Z
?myRegQueryValueEx@CRegistry@@AEAAJPEAUHKEY__@@PEBGPEAK2PEAE2@Z
?myRegQueryInfoKey@CRegistry@@AEAAJPEAUHKEY__@@PEAGPEAK22222222PEAU_FILETIME@@@Z
?myRegOpenKeyEx@CRegistry@@AEAAJPEAUHKEY__@@PEBGKKPEAPEAU2@@Z
?myRegEnumValue@CRegistry@@AEAAJPEAUHKEY__@@KPEAGPEAK22PEAE2@Z
?myRegEnumKey@CRegistry@@AEAAJPEAUHKEY__@@KPEAGK@Z
?myRegDeleteValue@CRegistry@@AEAAJPEAUHKEY__@@PEBG@Z
?myRegDeleteKey@CRegistry@@AEAAJPEAUHKEY__@@PEBG@Z
?myRegCreateKeyEx@CRegistry@@AEAAJPEAUHKEY__@@PEBGKPEAGKKPEAU_SECURITY_ATTRIBUTES@@PEAPEAU2@PEAK@Z
?keyref_term@CObjectPathParser@@AEAAHXZ
?keyref_list@CObjectPathParser@@AEAAHXZ
?keyref@CObjectPathParser@@AEAAHXZ
?key_const@CObjectPathParser@@AEAAHXZ
?ident_becomes_ns@CObjectPathParser@@AEAAHXZ
?ident_becomes_class@CObjectPathParser@@AEAAHXZ
?dwThreadProc@CWinMsgEvent@@CAKPEAX@Z
?begin_parse@CObjectPathParser@@AEAAHXZ
?Zero@CObjectPathParser@@AEAAXXZ
?WindowsDispatch@CWinMsgEvent@@CAXXZ
?Wait@CAutoEvent@@QEAAKK@Z
?ValidateQueryFlags@Provider@@MEAAJJ@Z
?ValidatePutInstanceFlags@Provider@@MEAAJJ@Z
?ValidateMethodFlags@Provider@@MEAAJJ@Z
?ValidateIMOSPointer@Provider@@AEAAHXZ
?ValidateGetObjFlags@Provider@@MEAAJJ@Z
?ValidateFlags@Provider@@IEAAJJW4FlagDefs@1@@Z
?ValidateEnumerationFlags@Provider@@MEAAJJ@Z
?ValidateDeletionFlags@Provider@@MEAAJJ@Z
?Unparse@CObjectPathParser@@SAHPEAUParsedObjectPath@@PEAPEAG@Z
?UnlockProviderMap@CWbemProviderGlue@@CAXXZ
?UnlockFactoryMap@CWbemProviderGlue@@CAXXZ
?UnlockBuffer@CHString@@QEAAXXZ
?Unlock@CThreadBase@@AEAAXXZ
?UnRegisterMessage@CWinMsgEvent@@IEAA_NI@Z
?UnRegisterAllMessages@CWinMsgEvent@@IEAAXXZ
?UnInit@CWbemProviderGlue@@CAXXZ
?TrimRight@CHString@@QEAAXXZ
?TrimLeft@CHString@@QEAAXXZ
?SpanIncluding@CHString@@QEBA?AV1@PEBG@Z
?SpanExcluding@CHString@@QEBA?AV1@PEBG@Z
?Signal@CAutoEvent@@QEAAHXZ
?Setbool@CInstance@@QEAA_NPEBG_N@Z
?SetWORD@CInstance@@QEAA_NPEBGG@Z
?SetWCHARSplat@CInstance@@QEAA_NPEBG0@Z
?SetWBEMINT64@CInstance@@QEAA_NPEBG_K@Z
?SetWBEMINT64@CInstance@@QEAA_NPEBG_J@Z
?SetWBEMINT64@CInstance@@QEAA_NPEBGAEBVCHString@@@Z
?SetWBEMINT16@CInstance@@QEAA_NPEBGAEBF@Z
?SetVariant@CInstance@@QEAA_NPEBGAEBUtagVARIANT@@@Z
?SetTimeSpan@CInstance@@QEAA_NPEBGAEBVWBEMTimeSpan@@@Z
?SetStringArray@CInstance@@QEAA_NPEBGAEBUtagSAFEARRAY@@@Z
?SetStatusObject@MethodContext@@QEAA_NPEAUIWbemClassObject@@@Z
?SetStatusObject@CWbemProviderGlue@@SA_NPEAVMethodContext@@PEBG1JPEBUtagSAFEARRAY@@2@Z
?SetSize@CHStringArray@@QEAAXHH@Z
?SetSize@CHPtrArray@@QEAAXHH@Z
?SetPlatformID@CRegistry@@CAHXZ
?SetNull@CInstance@@QEAA_NPEBG@Z
?SetKeyFromParsedObjectPath@Provider@@AEAAHPEAVCInstance@@PEAUParsedObjectPath@@@Z
?SetEmbeddedObject@CInstance@@QEAA_NPEBGAEAV1@@Z
?SetDefaultValues@CRegistry@@AEAAXXZ
?SetDateTime@CInstance@@QEAA_NPEBGAEBVWBEMTime@@@Z
?SetDWORD@CInstance@@QEAA_NPEBGK@Z
?SetDOUBLE@CInstance@@QEAA_NPEBGN@Z
?SetDMTF@WBEMTime@@QEAAHQEAG@Z
?SetCurrentKeyValueExpand@CRegistry@@QEAAKPEAUHKEY__@@PEBGAEAVCHString@@@Z
?SetCurrentKeyValue@CRegistry@@QEAAKPEBGAEAVCHStringArray@@@Z
?SetCurrentKeyValue@CRegistry@@QEAAKPEBGAEAVCHString@@@Z
?SetCurrentKeyValue@CRegistry@@QEAAKPEBGAEAK@Z
?SetCurrentKeyValue@CRegistry@@QEAAKPEAUHKEY__@@PEBGAEAVCHStringArray@@@Z
?SetCurrentKeyValue@CRegistry@@QEAAKPEAUHKEY__@@PEBGAEAVCHString@@@Z
?SetCurrentKeyValue@CRegistry@@QEAAKPEAUHKEY__@@PEBGAEAK@Z
?SetCreationClassName@Provider@@IEAA_NPEAVCInstance@@@Z
?SetClassName@ParsedObjectPath@@QEAAHPEBG@Z
?SetCharSplat@CInstance@@QEAA_NPEBGPEBD@Z
?SetCharSplat@CInstance@@QEAA_NPEBGK@Z
?SetCharSplat@CInstance@@QEAA_NPEBG0@Z
?SetCHStringResourceHandle@@YAXPEAUHINSTANCE__@@@Z
?SetCHString@CInstance@@QEAA_NPEBGPEBD@Z
?SetCHString@CInstance@@QEAA_NPEBGAEBVCHString@@@Z
?SetCHString@CInstance@@QEAA_NPEBG0@Z
?SetByte@CInstance@@QEAA_NPEBGE@Z
?SetAtGrow@CHStringArray@@QEAAXHPEBG@Z
?SetAtGrow@CHPtrArray@@QEAAXHPEAX@Z
?SetAt@CHStringArray@@QEAAXHPEBG@Z
?SetAt@CHString@@QEAAXHG@Z
?SetAt@CHPtrArray@@QEAAXHPEAX@Z
?SearchMapForProvider@CWbemProviderGlue@@CAPEAVProvider@@PEBG0@Z
?SearchAndBuildList@CRegistrySearch@@QEAAHVCHString@@AEAVCHPtrArray@@00HPEAUHKEY__@@@Z
?SafeStrlen@CHString@@KAHPEBG@Z
?Right@CHString@@QEBA?AV1@H@Z
?RewindSubKeys@CRegistry@@QEAAXXZ
?ReverseFind@CHString@@QEBAHG@Z
?Reset@CFrameworkQuery@@AEAAXXZ
?RemoveFromFactoryMap@CWbemProviderGlue@@KAXPEBVCWbemGlueFactory@@@Z
?RemoveAt@CHStringArray@@QEAAXHH@Z
?RemoveAt@CHPtrArray@@QEAAXHH@Z
?RemoveAll@CHStringArray@@QEAAXXZ
?RemoveAll@CHPtrArray@@QEAAXXZ
?ReleaseBuffer@CHString@@QEAAXH@Z
?Release@MethodContext@@QEAAJXZ
?Release@CWbemProviderGlue@@UEAAKXZ
?Release@CWbemGlueFactory@@UEAAKXZ
?Release@CThreadBase@@QEAAJXZ
?Release@CInstance@@QEAAJXZ
?Release@CHString@@KAXPEAUCHStringData@@@Z
?Release@CHString@@IEAAXXZ
?RegisterForMessage@CWinMsgEvent@@IEAAXI@Z
?QueryPostProcess@MethodContext@@UEAAXXZ
?QueryObjectSink@CWbemProviderGlue@@UEAAJJPEAPEAUIWbemObjectSink@@@Z
?QueryInterface@CWbemProviderGlue@@UEAAJAEBU_GUID@@PEAPEAX@Z
?QueryInterface@CWbemGlueFactory@@UEAAJAEBU_GUID@@PEAPEAX@Z
?PutInstanceAsync@CWbemProviderGlue@@UEAAJPEAUIWbemClassObject@@JPEAUIWbemContext@@PEAUIWbemObjectSink@@@Z
?PutInstance@Provider@@MEAAJAEBVCInstance@@J@Z
?PutInstance@Provider@@AEAAJPEAUIWbemClassObject@@JPEAVMethodContext@@@Z
?PutInstance@CWbemProviderGlue@@UEAAJPEAUIWbemClassObject@@JPEAUIWbemContext@@PEAPEAUIWbemCallResult@@@Z
?PutClassAsync@CWbemProviderGlue@@UEAAJPEAUIWbemClassObject@@JPEAUIWbemContext@@PEAUIWbemObjectSink@@@Z
?PutClass@CWbemProviderGlue@@UEAAJPEAUIWbemClassObject@@JPEAUIWbemContext@@PEAPEAUIWbemCallResult@@@Z
?PrepareToReOpen@CRegistry@@AEAAXXZ
?PreProcessPutInstanceParms@CWbemProviderGlue@@AEAAJPEAUIWbemClassObject@@PEAPEAU2@PEAUIWbemContext@@@Z
?Parse@CObjectPathParser@@QEAAHPEBGPEAPEAUParsedObjectPath@@@Z
?OpenSubKey@CRegistry@@AEAAKXZ
?OpenNamespace@CWbemProviderGlue@@UEAAJQEAGJPEAUIWbemContext@@PEAPEAUIWbemServices@@PEAPEAUIWbemCallResult@@@Z
?OpenLocalMachineKeyAndReadValue@CRegistry@@QEAAJPEBG0AEAVCHString@@@Z
?OpenCurrentUser@CRegistry@@QEAAKPEBGK@Z
?OpenAndEnumerateSubKeys@CRegistry@@QEAAJPEAUHKEY__@@PEBGK@Z
?Open@CRegistry@@QEAAJPEAUHKEY__@@PEBGK@Z
?OnFinalRelease@CThreadBase@@MEAAXXZ
?NullOutUnsetProperties@CWbemProviderGlue@@AEAAJPEAUIWbemClassObject@@PEAPEAU2@AEBUtagVARIANT@@@Z
?NormalizePath@@YAKPEBG00KAEAVCHString@@@Z
?NextToken@CObjectPathParser@@AEAAHXZ
?NextSubKey@CRegistry@@QEAAKXZ
?MsgWndProc@CWinMsgEvent@@CA_JPEAUHWND__@@I_K_J@Z
?Mid@CHString@@QEBA?AV1@HH@Z
?Mid@CHString@@QEBA?AV1@H@Z
?MakeUpper@CHString@@QEAAXXZ
?MakeReverse@CHString@@QEAAXXZ
?MakeLower@CHString@@QEAAXXZ
?MakeLocalPath@Provider@@IEAA?AVCHString@@AEBV2@@Z
?LogError@CInstance@@IEBAXPEBG00J@Z
?LockServer@CWbemGlueFactory@@UEAAJH@Z
?LockProviderMap@CWbemProviderGlue@@CAXXZ
?LockFactoryMap@CWbemProviderGlue@@CAXXZ
?LockBuffer@CHString@@QEAAPEAGXZ
?Lock@CThreadBase@@AEAAXXZ
?LocateKeyByNameOrValueName@CRegistrySearch@@QEAAHPEAUHKEY__@@PEBG1PEAPEBGKAEAVCHString@@3@Z
?LocalLogMessage@ProviderLog@@QEAAXPEBGHW4LogLevel@1@0ZZ
?LocalLogMessage@ProviderLog@@QEAAXPEBG0HW4LogLevel@1@@Z
?LoadStringW@CHString@@QEAAHI@Z
?LoadStringW@CHString@@IEAAHIPEAGI@Z
?Left@CHString@@QEBA?AV1@H@Z
?KeysOnly@CFrameworkQuery@@QEAA_NXZ
?IsRelative@ParsedObjectPath@@QEAAHPEBG0@Z
?IsReference@CFrameworkQuery@@IEAAHPEBG@Z
?IsPropertyRequired@CFrameworkQuery@@QEAA_NPEBG@Z
?IsOk@WBEMTimeSpan@@QEBA_NXZ
?IsOk@WBEMTime@@QEBA_NXZ
?IsObject@ParsedObjectPath@@QEAAHXZ
?IsNull@CInstance@@QEBA_NPEBG@Z
?IsNTokenAnd@CFrameworkQueryEx@@QEAAHAEAVCHStringArray@@AEAVCHPtrArray@@@Z
?IsLoggingOn@ProviderLog@@QEAA?AW4LogLevel@1@PEAVCHString@@@Z
?IsLocal@ParsedObjectPath@@QEAAHPEBG@Z
?IsInstance@ParsedObjectPath@@QEAAHXZ
?IsInList@CFrameworkQuery@@IEAAKAEBVCHStringArray@@PEBG@Z
?IsExtended@CFrameworkQueryEx@@UEAA_NXZ
?IsEmpty@CHString@@QEBAHXZ
?IsDerivedFrom@CWbemProviderGlue@@SA_NPEBG0PEAVMethodContext@@0@Z
?IsClass@ParsedObjectPath@@QEAAHXZ
?Is3TokenOR@CFrameworkQueryEx@@QEAAHPEBG0AEAUtagVARIANT@@1@Z
?InternalGetNamespaceConnection@CWbemProviderGlue@@AEAAPEAUIWbemServices@@PEBG@Z
?InsertAt@CHStringArray@@QEAAXHPEBGH@Z
?InsertAt@CHStringArray@@QEAAXHPEAV1@@Z
?InsertAt@CHPtrArray@@QEAAXHPEAXH@Z
?InsertAt@CHPtrArray@@QEAAXHPEAV1@@Z
?Initialize@CWbemProviderGlue@@UEAAJPEAGJ00PEAUIWbemServices@@PEAUIWbemContext@@PEAUIWbemProviderInitSink@@@Z
?InitEx@CFrameworkQueryEx@@UEAAJQEAG0JAEAVCHString@@@Z
?InitComputerName@Provider@@CAXXZ
?Init@CWbemProviderGlue@@CAXXZ
?Init@CHString@@IEAAXXZ
?Init@CFrameworkQuery@@QEAAJQEAG0JAEAVCHString@@@Z
?Init@CFrameworkQuery@@QEAAJPEAUParsedObjectPath@@PEAUIWbemContext@@PEBGAEAVCHString@@@Z
?Init2@CFrameworkQuery@@QEAAXPEAUIWbemClassObject@@@Z
?IncrementObjectCount@CWbemProviderGlue@@SAXXZ
?IncrementMapCount@CWbemProviderGlue@@KAJPEBVCWbemGlueFactory@@@Z
?IncrementMapCount@CWbemProviderGlue@@KAJPEAJ@Z
?Gettime_t@WBEMTimeSpan@@QEBAHPEA_J@Z
?Gettime_t@WBEMTime@@QEBAHPEA_J@Z
?GethKey@CRegistry@@QEAAPEAUHKEY__@@XZ
?Getbool@CInstance@@QEBA_NPEBGAEA_N@Z
?GetWORD@CInstance@@QEBA_NPEBGAEAG@Z
?GetWCHAR@CInstance@@QEBA_NPEBGPEAPEAG@Z
?GetWBEMINT64@CInstance@@QEBA_NPEBGAEA_K@Z
?GetWBEMINT64@CInstance@@QEBA_NPEBGAEA_J@Z
?GetWBEMINT64@CInstance@@QEBA_NPEBGAEAVCHString@@@Z
?GetWBEMINT16@CInstance@@QEBA_NPEBGAEAF@Z
?GetVariant@CInstance@@QEBA_NPEBGAEAUtagVARIANT@@@Z
?GetValuesForProp@CFrameworkQueryEx@@QEAAJPEBGAEAV?$vector@V_variant_t@@V?$allocator@V_variant_t@@@std@@@std@@@Z
?GetValuesForProp@CFrameworkQueryEx@@QEAAJPEBGAEAV?$vector@HV?$allocator@H@std@@@std@@@Z
?GetValuesForProp@CFrameworkQuery@@QEAAJPEBGAEAVCHStringArray@@@Z
?GetValuesForProp@CFrameworkQuery@@QEAAJPEBGAEAV?$vector@V_bstr_t@@V?$allocator@V_bstr_t@@@std@@@std@@@Z
?GetValueCount@CRegistry@@QEAAKXZ
?GetUpperBound@CHStringArray@@QEBAHXZ
?GetUpperBound@CHPtrArray@@QEBAHXZ
?GetTimeSpan@CInstance@@QEBA_NPEBGAEAVWBEMTimeSpan@@@Z
?GetTime@WBEMTimeSpan@@QEBA_KXZ
?GetTime@WBEMTime@@QEBA_KXZ
?GetStructtm@WBEMTime@@QEBAHPEAUtm@@@Z
?GetStringArray@CInstance@@QEBA_NPEBGAEAPEAUtagSAFEARRAY@@@Z
?GetStatusObject@MethodContext@@QEAAPEAUIWbemClassObject@@XZ
?GetStatusObject@CWbemProviderGlue@@CAPEAUIWbemClassObject@@PEAVMethodContext@@PEBG@Z
?GetStatus@CInstance@@QEBA_NPEBGAEA_NAEAG@Z
?GetSize@CHStringArray@@QEBAHXZ
?GetSize@CHPtrArray@@QEBAHXZ
?GetSYSTEMTIME@WBEMTime@@QEBAHPEAU_SYSTEMTIME@@@Z
?GetRequiredProperties@CFrameworkQuery@@QEAAXAEAVCHStringArray@@@Z
?GetRelativePath@CObjectPathParser@@SAPEAGPEAG@Z
?GetQueryClassName@CFrameworkQuery@@QEAAPEAGXZ
?GetQuery@CFrameworkQuery@@QEAAAEBVCHString@@XZ
?GetProviderName@Provider@@IEAAAEBVCHString@@XZ
?GetProviderGlue@MethodContext@@AEAAPEAVCWbemProviderGlue@@XZ
?GetPropertyBitMask@CFrameworkQueryEx@@QEAAXAEBVCHPtrArray@@PEAX@Z
?GetPlatform@CWbemProviderGlue@@SAKXZ
?GetParentNamespacePart@ParsedObjectPath@@QEAAPEAGXZ
?GetObjectAsync@CWbemProviderGlue@@UEAAJQEAGJPEAUIWbemContext@@PEAUIWbemObjectSink@@@Z
?GetObject@Provider@@MEAAJPEAVCInstance@@JAEAVCFrameworkQuery@@@Z
?GetObject@Provider@@MEAAJPEAVCInstance@@J@Z
?GetObject@Provider@@AEAAJPEAUParsedObjectPath@@PEAVMethodContext@@J@Z
?GetObject@CWbemProviderGlue@@UEAAJQEAGJPEAUIWbemContext@@PEAPEAUIWbemClassObject@@PEAPEAUIWbemCallResult@@@Z
?GetOSMajorVersion@CWbemProviderGlue@@SAKXZ
?GetNamespacePart@ParsedObjectPath@@QEAAPEAGXZ
?GetNamespaceConnection@CWbemProviderGlue@@SAPEAUIWbemServices@@PEBGPEAVMethodContext@@@Z
?GetNamespaceConnection@CWbemProviderGlue@@SAPEAUIWbemServices@@PEBG@Z
?GetNamespace@Provider@@IEAAAEBVCHString@@XZ
?GetNamespace@CFrameworkQuery@@IEAAAEBVCHString@@XZ
?GetMethodContext@CInstance@@QEBAPEAVMethodContext@@XZ
?GetMapCountPtr@CWbemProviderGlue@@KAPEAJPEBVCWbemGlueFactory@@@Z
?GetLongestValueName@CRegistry@@QEAAKXZ
?GetLongestValueData@CRegistry@@QEAAKXZ
?GetLongestSubKeySize@CRegistry@@QEAAKXZ
?GetLongestClassStringSize@CRegistry@@QEAAKXZ
?GetLocalOffsetForDate@WBEMTime@@SAJPEBUtm@@@Z
?GetLocalOffsetForDate@WBEMTime@@SAJPEBU_SYSTEMTIME@@@Z
?GetLocalOffsetForDate@WBEMTime@@SAJPEBU_FILETIME@@@Z
?GetLocalOffsetForDate@WBEMTime@@SAJAEB_J@Z
?GetLocalInstancePath@Provider@@IEAA_NPEBVCInstance@@AEAVCHString@@@Z
?GetLocalComputerName@Provider@@IEAAAEBVCHString@@XZ
?GetLength@CHString@@QEBAHXZ
?GetKeyString@ParsedObjectPath@@QEAAPEAGXZ
?GetInstancesByQueryAsynch@CWbemProviderGlue@@SAJPEBGPEAVProvider@@P6AJ1PEAVCInstance@@PEAVMethodContext@@PEAX@Z034@Z
?GetInstancesByQuery@CWbemProviderGlue@@SAJPEBGPEAV?$TRefPointerCollection@VCInstance@@@@PEAVMethodContext@@0@Z
?GetInstancePropertiesByPath@CWbemProviderGlue@@SAJPEBGPEAPEAVCInstance@@PEAVMethodContext@@AEAVCHStringArray@@@Z
?GetInstanceKeysByPath@CWbemProviderGlue@@SAJPEBGPEAPEAVCInstance@@PEAVMethodContext@@@Z
?GetInstanceFromCIMOM@CWbemProviderGlue@@CAJPEBG0PEAVMethodContext@@PEAPEAVCInstance@@@Z
?GetInstanceByPath@CWbemProviderGlue@@SAJPEBGPEAPEAVCInstance@@PEAVMethodContext@@@Z
?GetIWBEMContext@MethodContext@@UEAAPEAUIWbemContext@@XZ
?GetFILETIME@WBEMTimeSpan@@QEBAHPEAU_FILETIME@@@Z
?GetFILETIME@WBEMTime@@QEBAHPEAU_FILETIME@@@Z
?GetEmptyInstance@CWbemProviderGlue@@SAJPEBGPEAPEAVCInstance@@0@Z
?GetEmptyInstance@CWbemProviderGlue@@SAJPEAVMethodContext@@PEBGPEAPEAVCInstance@@1@Z
?GetEmbeddedObject@CInstance@@QEBA_NPEBGPEAPEAV1@PEAVMethodContext@@@Z
?GetDateTime@CInstance@@QEBA_NPEBGAEAVWBEMTime@@@Z
?GetData@CHStringArray@@QEBAPEBVCHString@@XZ
?GetData@CHStringArray@@QEAAPEAVCHString@@XZ
?GetData@CHString@@IEBAPEAUCHStringData@@XZ
?GetData@CHPtrArray@@QEBAPEAPEBXXZ
?GetData@CHPtrArray@@QEAAPEAPEAXXZ
?GetDWORD@CInstance@@QEBA_NPEBGAEAK@Z
?GetDOUBLE@CInstance@@QEBA_NPEBGAEAN@Z
?GetDMTFNonNtfs@WBEMTime@@QEBAPEAGXZ
?GetDMTF@WBEMTime@@QEBAPEAGH@Z
?GetCurrentSubKeyValue@CRegistry@@QEAAKPEBGPEAXPEAK@Z
?GetCurrentSubKeyValue@CRegistry@@QEAAKPEBGAEAVCHString@@@Z
?GetCurrentSubKeyValue@CRegistry@@QEAAKPEBGAEAK@Z
?GetCurrentSubKeyPath@CRegistry@@QEAAKAEAVCHString@@@Z
?GetCurrentSubKeyName@CRegistry@@QEAAKAEAVCHString@@@Z
?GetCurrentSubKeyCount@CRegistry@@QEAAKXZ
?GetCurrentRawSubKeyValue@CRegistry@@AEAAKPEBGPEAXPEAK2@Z
?GetCurrentRawKeyValue@CRegistry@@AEAAKPEAUHKEY__@@PEBGPEAXPEAK3@Z
?GetCurrentKeyValue@CRegistry@@QEAAKPEBGAEAVCHStringArray@@@Z
?GetCurrentKeyValue@CRegistry@@QEAAKPEBGAEAVCHString@@@Z
?GetCurrentKeyValue@CRegistry@@QEAAKPEBGAEAK@Z
?GetCurrentKeyValue@CRegistry@@QEAAKPEAUHKEY__@@PEBGAEAVCHStringArray@@@Z
?GetCurrentKeyValue@CRegistry@@QEAAKPEAUHKEY__@@PEBGAEAVCHString@@@Z
?GetCurrentKeyValue@CRegistry@@QEAAKPEAUHKEY__@@PEBGAEAK@Z
?GetCurrentBinaryKeyValue@CRegistry@@QEAAKPEBGPEAEPEAK@Z
?GetCurrentBinaryKeyValue@CRegistry@@QEAAKPEBGAEAVCHString@@@Z
?GetCurrentBinaryKeyValue@CRegistry@@QEAAKPEAUHKEY__@@PEBGPEAEPEAK@Z
?GetComputerNameW@CWbemProviderGlue@@CAXAEAVCHString@@@Z
?GetClassObjectInterface@Provider@@AEAAPEAUIWbemClassObject@@PEAVMethodContext@@@Z
?GetClassObjectInterface@CInstance@@QEAAPEAUIWbemClassObject@@XZ
?GetClassNameW@CRegistry@@QEAAPEAGXZ
?GetCSDVersion@CWbemProviderGlue@@SAPEBGXZ
?GetCHString@CInstance@@QEBA_NPEBGAEAVCHString@@@Z
?GetByte@CInstance@@QEBA_NPEBGAEAE@Z
?GetBufferSetLength@CHString@@QEAAPEAGH@Z
?GetBuffer@CHString@@QEAAPEAGH@Z
?GetBSTR@WBEMTimeSpan@@QEBAPEAGXZ
?GetBSTR@WBEMTime@@QEBAPEAGXZ
?GetAt@CHStringArray@@QEBA?AVCHString@@H@Z
?GetAt@CHString@@QEBAGH@Z
?GetAt@CHPtrArray@@QEBAPEAXH@Z
?GetAllocLength@CHString@@QEBAHXZ
?GetAllInstancesAsynch@CWbemProviderGlue@@SAJPEBGPEAVProvider@@P6AJ1PEAVCInstance@@PEAVMethodContext@@PEAX@Z034@Z
?GetAllInstances@CWbemProviderGlue@@SAJPEBGPEAV?$TRefPointerCollection@VCInstance@@@@0PEAVMethodContext@@@Z
?GetAllDerivedInstancesAsynch@CWbemProviderGlue@@SAJPEBGPEAVProvider@@P6AJ1PEAVCInstance@@PEAVMethodContext@@PEAX@Z034@Z
?GetAllDerivedInstances@CWbemProviderGlue@@SAJPEBGPEAV?$TRefPointerCollection@VCInstance@@@@PEAVMethodContext@@0@Z
?FreeSearchList@CRegistrySearch@@QEAAHHAEAVCHPtrArray@@@Z
?FreeExtra@CHStringArray@@QEAAXXZ
?FreeExtra@CHString@@QEAAXXZ
?FreeExtra@CHPtrArray@@QEAAXXZ
?Free@CObjectPathParser@@QEAAXPEAUParsedObjectPath@@@Z
?FrameworkLogoffDLL@CWbemProviderGlue@@SAHPEBGPEAJ@Z
?FrameworkLogoffDLL@CWbemProviderGlue@@SAHPEBG@Z
?FrameworkLogoff@CWbemProviderGlue@@SAXPEBG0@Z
?FrameworkLoginDLL@CWbemProviderGlue@@SAHPEBGPEAJ@Z
?FrameworkLoginDLL@CWbemProviderGlue@@SAHPEBG@Z
?FrameworkLogin@CWbemProviderGlue@@SAXPEBGPEAVProvider@@0@Z
?FormatV@CHString@@QEAAXPEBGPEAD@Z
?FormatMessageW@CHString@@QEAAXPEBGZZ
?FormatMessageW@CHString@@QEAAXIZZ
?Format@CHString@@QEAAXPEBGZZ
?Format@CHString@@QEAAXIZZ
?FlushAll@CWbemProviderGlue@@AEAAXXZ
?Flush@Provider@@MEAAXXZ
?FindOneOf@CHString@@QEBAHPEBG@Z
?Find@CHString@@QEBAHPEBG@Z
?Find@CHString@@QEBAHG@Z
?FillInstance@CWbemProviderGlue@@SAJPEAVMethodContext@@PEAVCInstance@@@Z
?FillInstance@CWbemProviderGlue@@SAJPEAVCInstance@@PEBG@Z
?ExecuteQuery@Provider@@AEAAJPEAVMethodContext@@AEAVCFrameworkQuery@@J@Z
?ExecQueryAsync@CWbemProviderGlue@@UEAAJQEAG0JPEAUIWbemContext@@PEAUIWbemObjectSink@@@Z
?ExecQuery@Provider@@MEAAJPEAVMethodContext@@AEAVCFrameworkQuery@@J@Z
?ExecQuery@CWbemProviderGlue@@UEAAJQEAG0JPEAUIWbemContext@@PEAPEAUIEnumWbemClassObject@@@Z
?ExecNotificationQueryAsync@CWbemProviderGlue@@UEAAJQEAG0JPEAUIWbemContext@@PEAUIWbemObjectSink@@@Z
?ExecNotificationQuery@CWbemProviderGlue@@UEAAJQEAG0JPEAUIWbemContext@@PEAPEAUIEnumWbemClassObject@@@Z
?ExecMethodAsync@CWbemProviderGlue@@UEAAJQEAG0JPEAUIWbemContext@@PEAUIWbemClassObject@@PEAUIWbemObjectSink@@@Z
?ExecMethod@Provider@@MEAAJAEBVCInstance@@QEAGPEAV2@2J@Z
?ExecMethod@Provider@@AEAAJPEAUParsedObjectPath@@PEAGJPEAVCInstance@@2PEAVMethodContext@@@Z
?ExecMethod@CWbemProviderGlue@@UEAAJQEAG0JPEAUIWbemContext@@PEAUIWbemClassObject@@PEAPEAU3@PEAPEAUIWbemCallResult@@@Z
?EnumerateInstances@Provider@@MEAAJPEAVMethodContext@@J@Z
?EnumerateAndGetValues@CRegistry@@QEAAJAEAKAEAPEAGAEAPEAE@Z
?EndWrite@CThreadBase@@QEAAXXZ
?EndRead@CThreadBase@@QEAAXXZ
?Empty@CObjectPathParser@@AEAAXXZ
?Empty@CHString@@QEAAXXZ
?ElementAt@CHStringArray@@QEAAAEAVCHString@@H@Z
?ElementAt@CHPtrArray@@QEAAAEAPEAXH@Z
?DestroyMsgWindow@CWinMsgEvent@@CAXXZ
?DeleteValue@CRegistry@@QEAAJPEBG@Z
?DeleteKey@CRegistry@@QEAAJPEAVCHString@@@Z
?DeleteInstanceAsync@CWbemProviderGlue@@UEAAJQEAGJPEAUIWbemContext@@PEAUIWbemObjectSink@@@Z
?DeleteInstance@Provider@@MEAAJAEBVCInstance@@J@Z
?DeleteInstance@Provider@@AEAAJPEAUParsedObjectPath@@JPEAVMethodContext@@@Z
?DeleteInstance@CWbemProviderGlue@@UEAAJQEAGJPEAUIWbemContext@@PEAPEAUIWbemCallResult@@@Z
?DeleteCurrentKeyValue@CRegistry@@QEAAKPEBG@Z
?DeleteCurrentKeyValue@CRegistry@@QEAAKPEAUHKEY__@@PEBG@Z
?DeleteClassAsync@CWbemProviderGlue@@UEAAJQEAGJPEAUIWbemContext@@PEAUIWbemObjectSink@@@Z
?DeleteClass@CWbemProviderGlue@@UEAAJQEAGJPEAUIWbemContext@@PEAPEAUIWbemCallResult@@@Z
?DecrementObjectCount@CWbemProviderGlue@@SAJXZ
?DecrementMapCount@CWbemProviderGlue@@KAJPEBVCWbemGlueFactory@@@Z
?DecrementMapCount@CWbemProviderGlue@@KAJPEAJ@Z
?CtrlHandlerRoutine@CWinMsgEvent@@CAHK@Z
?CreateOpen@CRegistry@@QEAAJPEAUHKEY__@@PEBGPEAGKKPEAU_SECURITY_ATTRIBUTES@@PEAK@Z
?CreateNewInstance@Provider@@IEAAPEAVCInstance@@PEAVMethodContext@@@Z
?CreateMsgWindow@CWinMsgEvent@@CAPEAUHWND__@@XZ
?CreateMsgProvider@CWinMsgEvent@@CAXXZ
?CreateInstanceEnumAsync@CWbemProviderGlue@@UEAAJQEAGJPEAUIWbemContext@@PEAUIWbemObjectSink@@@Z
?CreateInstanceEnum@Provider@@AEAAJPEAVMethodContext@@J@Z
?CreateInstanceEnum@CWbemProviderGlue@@UEAAJQEAGJPEAUIWbemContext@@PEAPEAUIEnumWbemClassObject@@@Z
?CreateInstance@CWbemGlueFactory@@UEAAJPEAUIUnknown@@AEBU_GUID@@PEAPEAX@Z
?CreateClassEnumAsync@CWbemProviderGlue@@UEAAJQEAGJPEAUIWbemContext@@PEAUIWbemObjectSink@@@Z
?CreateClassEnum@CWbemProviderGlue@@UEAAJQEAGJPEAUIWbemContext@@PEAPEAUIEnumWbemClassObject@@@Z
?CopyBeforeWrite@CHString@@IEAAXXZ
?Copy@CHStringArray@@QEAAXAEBV1@@Z
?Copy@CHPtrArray@@QEAAXAEBV1@@Z
?ConcatInPlace@CHString@@IEAAXHPEBG@Z
?ConcatCopy@CHString@@IEAAXHPEBGH0@Z
?CompareNoCase@CHString@@QEBAHPEBG@Z
?Compare@CHString@@QEBAHPEBG@Z
?Commit@Provider@@IEAAJPEAVCInstance@@_N@Z
?Commit@CInstance@@QEAAJXZ
?Collate@CHString@@QEBAHPEBG@Z
?CloseSubKey@CRegistry@@AEAAXXZ
?Close@CRegistry@@QEAAXXZ
?ClearKeys@ParsedObjectPath@@QEAAXXZ
?Clear@WBEMTimeSpan@@QEAAXXZ
?Clear@WBEMTime@@QEAAXXZ
?CheckImpersonationLevel@CWbemProviderGlue@@CAJXZ
?CheckFileSize@ProviderLog@@AEAAXAEAT_LARGE_INTEGER@@AEBVCHString@@@Z
?CheckAndAddToList@CRegistrySearch@@AEAAXPEAVCRegistry@@VCHString@@1AEAVCHPtrArray@@11H@Z
?CancelAsyncRequest@CWbemProviderGlue@@UEAAJJ@Z
?CancelAsyncCall@CWbemProviderGlue@@UEAAJPEAUIWbemObjectSink@@@Z
?BeginWrite@CThreadBase@@QEAAHK@Z
?BeginRead@CThreadBase@@QEAAHK@Z
?AssignCopy@CHString@@IEAAXHPEBG@Z
?Append@CHStringArray@@QEAAHAEBV1@@Z
?Append@CHPtrArray@@QEAAHAEBV1@@Z
?AllocSysString@CHString@@QEBAPEAGXZ
?AllocCopy@CHString@@IEBAXAEAV1@HHH@Z
?AllocBuffer@CHString@@IEAAXH@Z
?AllocBeforeWrite@CHString@@IEAAXH@Z
?AllPropertiesAreRequired@CFrameworkQuery@@QEAA_NXZ
?AddToFactoryMap@CWbemProviderGlue@@KAXPEBVCWbemGlueFactory@@PEAJ@Z
?AddRef@MethodContext@@QEAAJXZ
?AddRef@CWbemProviderGlue@@UEAAKXZ
?AddRef@CWbemGlueFactory@@UEAAKXZ
?AddRef@CThreadBase@@QEAAJXZ
?AddRef@CInstance@@QEAAJXZ
?AddProviderToMap@CWbemProviderGlue@@CAPEAVProvider@@PEBG0PEAV2@@Z
?AddNamespace@ParsedObjectPath@@QEAAHPEBG@Z
?AddKeyRefEx@ParsedObjectPath@@QEAAHPEBGPEBUtagVARIANT@@@Z
?AddKeyRef@ParsedObjectPath@@QEAAHPEBGPEBUtagVARIANT@@@Z
?AddKeyRef@ParsedObjectPath@@QEAAHPEAUKeyRef@@@Z
?AddFlushPtr@CWbemProviderGlue@@AEAAXPEAX@Z
?Add@CHStringArray@@QEAAHPEBG@Z
?Add@CHPtrArray@@QEAAHPEAX@Z
??_FCThreadBase@@QEAAXXZ
??_FCObjectPathParser@@QEAAXXZ
??_7ProviderLog@@6B@
??_7Provider@@6B@
??_7MethodContext@@6B@
??_7CWinMsgEvent@@6B@
??_7CWbemProviderGlue@@6BIWbemServices@@@
??_7CWbemProviderGlue@@6BIWbemProviderInit@@@
??_7CWbemGlueFactory@@6B@
??_7CThreadBase@@6B@
??_7CInstance@@6B@
??_7CFrameworkQueryEx@@6B@
??ZWBEMTimeSpan@@QEAAAEBV0@AEBV0@@Z
??ZWBEMTime@@QEAAAEBV0@AEBVWBEMTimeSpan@@@Z
??YWBEMTimeSpan@@QEAAAEBV0@AEBV0@@Z
??YWBEMTime@@QEAAAEBV0@AEBVWBEMTimeSpan@@@Z
??YCHString@@QEAAAEBV0@PEBG@Z
??YCHString@@QEAAAEBV0@G@Z
??YCHString@@QEAAAEBV0@D@Z
??YCHString@@QEAAAEBV0@AEBV0@@Z
??PWBEMTimeSpan@@QEBAHAEBV0@@Z
??PWBEMTime@@QEBAHAEBV0@@Z
??OWBEMTimeSpan@@QEBAHAEBV0@@Z
??OWBEMTime@@QEBAHAEBV0@@Z
??NWBEMTimeSpan@@QEBAHAEBV0@@Z
??NWBEMTime@@QEBAHAEBV0@@Z
??MWBEMTimeSpan@@QEBAHAEBV0@@Z
??MWBEMTime@@QEBAHAEBV0@@Z
??HWBEMTimeSpan@@QEBA?AV0@AEBV0@@Z
??HWBEMTime@@QEBA?AV0@AEBVWBEMTimeSpan@@@Z
??H@YA?AVCHString@@PEBGAEBV0@@Z
??H@YA?AVCHString@@GAEBV0@@Z
??H@YA?AVCHString@@AEBV0@PEBG@Z
??H@YA?AVCHString@@AEBV0@G@Z
??H@YA?AVCHString@@AEBV0@0@Z
??GWBEMTimeSpan@@QEBA?AV0@AEBV0@@Z
??GWBEMTime@@QEBA?AV0@AEBVWBEMTimeSpan@@@Z
??GWBEMTime@@QEAA?AVWBEMTimeSpan@@AEBV0@@Z
??BCHString@@QEBAPEBGXZ
??ACHStringArray@@QEBA?AVCHString@@H@Z
??ACHStringArray@@QEAAAEAVCHString@@H@Z
??ACHString@@QEBAGH@Z
??ACHPtrArray@@QEBAPEAXH@Z
??ACHPtrArray@@QEAAAEAPEAXH@Z
??9WBEMTimeSpan@@QEBAHAEBV0@@Z
??9WBEMTime@@QEBAHAEBV0@@Z
??8WBEMTimeSpan@@QEBAHAEBV0@@Z
??8WBEMTime@@QEBAHAEBV0@@Z
??4WBEMTimeSpan@@QEAAAEBV0@QEAG@Z
??4WBEMTimeSpan@@QEAAAEBV0@AEB_J@Z
??4WBEMTimeSpan@@QEAAAEBV0@AEBU_FILETIME@@@Z
??4WBEMTimeSpan@@QEAAAEAV0@AEBV0@@Z
??4WBEMTime@@QEAAAEBV0@QEAG@Z
??4WBEMTime@@QEAAAEBV0@AEB_J@Z
??4WBEMTime@@QEAAAEBV0@AEBUtm@@@Z
??4WBEMTime@@QEAAAEBV0@AEBU_SYSTEMTIME@@@Z
??4WBEMTime@@QEAAAEBV0@AEBU_FILETIME@@@Z
??4WBEMTime@@QEAAAEAV0@AEBV0@@Z
??4ProviderLog@@QEAAAEAV0@AEBV0@@Z
??4Provider@@QEAAAEAV0@AEBV0@@Z
??4ParsedObjectPath@@QEAAAEAU0@AEBU0@@Z
??4MethodContext@@QEAAAEAV0@AEBV0@@Z
??4KeyRef@@QEAAAEAU0@AEBU0@@Z
??4CreateMutexAsProcess@@QEAAAEAV0@AEBV0@@Z
??4CWinMsgEvent@@QEAAAEAV0@AEBV0@@Z
??4CWbemProviderGlue@@QEAAAEAV0@AEBV0@@Z
??4CWbemGlueFactory@@QEAAAEAV0@AEBV0@@Z
??4CThreadBase@@QEAAAEAV0@AEBV0@@Z
??4CRegistrySearch@@QEAAAEAV0@AEBV0@@Z
??4CRegistry@@QEAAAEAV0@AEBV0@@Z
??4CObjectPathParser@@QEAAAEAV0@AEBV0@@Z
??4CInstance@@QEAAAEAV0@AEBV0@@Z
??4CHStringArray@@QEAAAEAV0@AEBV0@@Z
??4CHString@@QEAAAEBV0@PEBG@Z
??4CHString@@QEAAAEBV0@PEBE@Z
??4CHString@@QEAAAEBV0@PEBD@Z
??4CHString@@QEAAAEBV0@PEAV0@@Z
??4CHString@@QEAAAEBV0@G@Z
??4CHString@@QEAAAEBV0@D@Z
??4CHString@@QEAAAEBV0@AEBV0@@Z
??4CHPtrArray@@QEAAAEAV0@AEBV0@@Z
??4CFrameworkQueryEx@@QEAAAEAV0@AEBV0@@Z
??4CFrameworkQuery@@QEAAAEAV0@AEBV0@@Z
??4CAutoEvent@@QEAAAEAV0@AEBV0@@Z
??1_Lockit@std@@QEAA@XZ
??1ProviderLog@@UEAA@XZ
??1Provider@@UEAA@XZ
??1ParsedObjectPath@@QEAA@XZ
??1MethodContext@@UEAA@XZ
??1KeyRef@@QEAA@XZ
??1CreateMutexAsProcess@@QEAA@XZ
??1CWinMsgEvent@@QEAA@XZ
??1CWbemProviderGlue@@QEAA@XZ
??1CWbemGlueFactory@@QEAA@XZ
??1CThreadBase@@UEAA@XZ
??1CRegistrySearch@@QEAA@XZ
??1CRegistry@@QEAA@XZ
??1CObjectPathParser@@QEAA@XZ
??1CInstance@@UEAA@XZ
??1CHStringArray@@QEAA@XZ
??1CHString@@QEAA@XZ
??1CHPtrArray@@QEAA@XZ
??1CFrameworkQueryEx@@QEAA@XZ
??1CFrameworkQuery@@QEAA@XZ
??1CAutoEvent@@QEAA@XZ
??0_Lockit@std@@QEAA@XZ
??0WBEMTimeSpan@@QEAA@XZ
??0WBEMTimeSpan@@QEAA@QEAG@Z
??0WBEMTimeSpan@@QEAA@HHHHHHH@Z
??0WBEMTimeSpan@@QEAA@AEB_J@Z
??0WBEMTimeSpan@@QEAA@AEBU_FILETIME@@@Z
??0WBEMTime@@QEAA@XZ
??0WBEMTime@@QEAA@QEAG@Z
??0WBEMTime@@QEAA@AEB_J@Z
??0WBEMTime@@QEAA@AEBUtm@@@Z
??0WBEMTime@@QEAA@AEBU_SYSTEMTIME@@@Z
??0WBEMTime@@QEAA@AEBU_FILETIME@@@Z
??0ProviderLog@@QEAA@XZ
??0ProviderLog@@QEAA@AEBV0@@Z
??0Provider@@QEAA@PEBG0@Z
??0Provider@@QEAA@AEBV0@@Z
??0ParsedObjectPath@@QEAA@XZ
??0MethodContext@@QEAA@PEAUIWbemContext@@PEAVCWbemProviderGlue@@@Z
??0MethodContext@@QEAA@AEBV0@@Z
??0KeyRef@@QEAA@XZ
??0KeyRef@@QEAA@PEBGPEBUtagVARIANT@@@Z
??0CreateMutexAsProcess@@QEAA@PEBG@Z
??0CWinMsgEvent@@QEAA@XZ
??0CWinMsgEvent@@QEAA@AEBV0@@Z
??0CWbemProviderGlue@@QEAA@XZ
??0CWbemProviderGlue@@QEAA@PEAJ@Z
??0CWbemProviderGlue@@QEAA@AEBV0@@Z
??0CWbemGlueFactory@@QEAA@XZ
??0CWbemGlueFactory@@QEAA@PEAJ@Z
??0CWbemGlueFactory@@QEAA@AEBV0@@Z
??0CThreadBase@@QEAA@W4THREAD_SAFETY_MECHANISM@0@@Z
??0CThreadBase@@QEAA@AEBV0@@Z
??0CRegistrySearch@@QEAA@XZ
??0CRegistrySearch@@QEAA@AEBV0@@Z
??0CRegistry@@QEAA@XZ
??0CRegistry@@QEAA@AEBV0@@Z
??0CObjectPathParser@@QEAA@W4ObjectParserFlags@@@Z
??0CInstance@@QEAA@PEAUIWbemClassObject@@PEAVMethodContext@@@Z
??0CInstance@@QEAA@AEBV0@@Z
??0CHStringArray@@QEAA@XZ
??0CHString@@QEAA@XZ
??0CHString@@QEAA@PEBGH@Z
??0CHString@@QEAA@PEBG@Z
??0CHString@@QEAA@PEBE@Z
??0CHString@@QEAA@PEBD@Z
??0CHString@@QEAA@GH@Z
??0CHString@@QEAA@AEBV0@@Z
??0CHPtrArray@@QEAA@XZ
??0CFrameworkQueryEx@@QEAA@XZ
??0CFrameworkQueryEx@@QEAA@AEBV0@@Z
??0CFrameworkQuery@@QEAA@XZ
??0CFrameworkQuery@@QEAA@AEBV0@@Z
??0CAutoEvent@@QEAA@XZ
