LIBRARY IISRTL.DLL
EXPORTS
stristr
ZapRegistryKey
WriteTraceLog
WriteRefTraceLogEx
WriteRefTraceLog
TerminateSecondsTimer
TerminateIISRTL
SystemTimeToGMTEx
SystemTimeToGMT
StringTimeToFileTime
SchedulerTerminate
SchedulerInitialize
ScheduleWorkItem
ScheduleAdjustTime
RpcuFindProtocolToUse
RpcBindHandleOverTcpIp
RpcBindHandleOverNamedPipe
RpcBindHandleOverLpc
RpcBindHandleFree
RpcBindHandleForServer
ResetTraceLog
RemoveWorkItem
PuLoadDebugFlagsFromRegStr
PuLoadDebugFlagsFromReg
PuDeleteDebugPrintsObject
PuDbgPrintW
PuDbgPrint
PuDbgDump
PuDbgCreateSemaphore
PuDbgCreateMutex
PuDbgCreateEvent
PuDbgCaptureContext
PuDbgAssertFailed
PuCreateDebugPrintsObject
PuCloseDbgPrintFile
NtSystemTimeToLargeInteger
NtLargeIntegerTimeToSystemTime
NtLargeIntegerTimeToLocalSystemTime
MonBuildInstanceDefinition
MIDL_user_free
MIDL_user_allocate
LKRHashTableUninit
LKRHashTableInit
IsNumberInUnicodeList
IsLargeIntegerToDecimalChar
IsIPAddressLocal
InitializeSecondsTimer
InitializeIISRTL
InetReleaseResource
InetInitializeResource
InetDeleteResource
InetConvertSharedToExclusive
InetConvertExclusiveToShared
InetAcquireResourceShared
InetAcquireResourceExclusive
IisReAlloc
IisMalloc
IisHeap
IisFree
IisCalloc
IISstrupr
IISstrrchr
IISstrnicmp
IISstrncpy
IISstrlwr
IISstrlen
IISstricmp
IISSetCriticalSectionSpinCount
IISInitializeCriticalSection
IISGetPlatformType
IISGetCurrentTime
IISCreateDirectory
IISCaptureStackBackTrace
GetQueryType
GetCurrentTimeInSeconds
GetCurrentTimeInMilliseconds
GetAllocCounters
DllMain
DestroyTraceLog
DestroyRefTraceLog
CreateTraceLog
CreateRefTraceLog
CreateKey
CanonURL
?s_aBucketSizes@?1??BucketSizes@CLKRHashTableStats@@SAPEBJXZ@4QBJB
?_WriteLockSpin@CReaderWriterLock@@AEAAXXZ
?_WriteLockSpin@CReaderWriterLock3@@AEAAXXZ
?_WriteLockSpin@CReaderWriterLock2@@AEAAXXZ
?_Unlock@CSpinLock@@AEAAXXZ
?_TryWriteLock@CReaderWriterLock@@AEAA_NXZ
?_TryWriteLock@CReaderWriterLock3@@AEAA_NJ@Z
?_TryWriteLock@CReaderWriterLock2@@AEAA_NJ@Z
?_TryWriteLock2@CReaderWriterLock3@@AEAA_NXZ
?_TryReadLockRecursive@CReaderWriterLock3@@AEAA_NXZ
?_TryReadLock@CReaderWriterLock@@AEAA_NXZ
?_TryReadLock@CReaderWriterLock3@@AEAA_NXZ
?_TryReadLock@CReaderWriterLock2@@AEAA_NXZ
?_TryLock@CSpinLock@@AEAA_NXZ
?_TryLock@CSmallSpinLock@@AEAA_NXZ
?_SubTableIndex@CLKRHashTable@@AEBAHPEAVCLKRLinearHashTable@@@Z
?_SubTable@CLKRHashTable@@AEBAPEAVCLKRLinearHashTable@@K@Z
?_SplitRecordSet@CLKRLinearHashTable@@AEAA?AW4LK_RETCODE@@PEAVCNodeClump@@0KKK0@Z
?_SetSequence@?$CDataCache@VCDateTime@@@@IEAAJJ@Z
?_SetSequence@?$CDataCache@UDATETIME_FORMAT_ENTRY@@@@IEAAJJ@Z
?_SetSegVars@CLKRLinearHashTable@@AEAA?AW4LK_RETCODE@@W4LK_TABLESIZE@@K@Z
?_Segment@CLKRLinearHashTable@@AEBAAEAPEAVCSegment@@K@Z
?_SegIndex@CLKRLinearHashTable@@AEBAKK@Z
?_RemoveThisFromGlobalList@CLKRLinearHashTable@@AEAAXXZ
?_RemoveThisFromGlobalList@CLKRHashTable@@AEAAXXZ
?_ReadSequence@?$CDataCache@VCDateTime@@@@IEBAJXZ
?_ReadSequence@?$CDataCache@UDATETIME_FORMAT_ENTRY@@@@IEBAJXZ
?_ReadOrWriteUnlock@CLKRLinearHashTable@@AEBAX_N@Z
?_ReadOrWriteLock@CLKRLinearHashTable@@AEBA_NXZ
?_ReadMemoryBarrier@?$CDataCache@VCDateTime@@@@KAXXZ
?_ReadMemoryBarrier@?$CDataCache@UDATETIME_FORMAT_ENTRY@@@@KAXXZ
?_ReadLockSpin@CReaderWriterLock@@AEAAXXZ
?_ReadLockSpin@CReaderWriterLock3@@AEAAXW4SPIN_TYPE@1@@Z
?_ReadLockSpin@CReaderWriterLock2@@AEAAXXZ
?_PredTrue@CLKRLinearHashTable@@CA?AW4LK_PREDICATE@@PEBXPEAX@Z
?_MergeRecordSets@CLKRLinearHashTable@@AEAA?AW4LK_RETCODE@@PEAVCBucket@@PEAVCNodeClump@@1@Z
?_LockSpin@CSpinLock@@AEAAXXZ
?_LockSpin@CSmallSpinLock@@AEAAXXZ
?_LockSpin@CReaderWriterLock@@AEAAX_N@Z
?_LockSpin@CReaderWriterLock3@@AEAAXW4SPIN_TYPE@1@@Z
?_LockSpin@CReaderWriterLock2@@AEAAX_N@Z
?_Lock@CSpinLock@@AEAAXXZ
?_IsValidIterator@CLKRLinearHashTable@@AEBA_NAEBVCLKRLinearHashTable_Iterator@@@Z
?_IsValidIterator@CLKRHashTable@@AEBA_NAEBVCLKRHashTable_Iterator@@@Z
?_IsNodeCompact@CLKRLinearHashTable@@AEBAHQEAVCBucket@@@Z
?_IsLocked@CSpinLock@@AEBA_NXZ
?_InsertThisIntoGlobalList@CLKRLinearHashTable@@AEAAXXZ
?_InsertThisIntoGlobalList@CLKRHashTable@@AEAAXXZ
?_InsertRecord@CLKRLinearHashTable@@AEAA?AW4LK_RETCODE@@PEBXK_NPEAVCLKRLinearHashTable_Iterator@@@Z
?_InitializeIterator@CLKRLinearHashTable@@AEAA?AW4LK_RETCODE@@PEAVCIterator@1@@Z
?_Initialize@CLKRLinearHashTable@@AEAA?AW4LK_RETCODE@@P6A?B_KPEBX@ZP6AK_K@ZP6A_N22@ZP6AX0H@ZPEBDNK@Z
?_Increment@CLKRLinearHashTable_Iterator@@IEAA_N_N@Z
?_Increment@CLKRHashTable_Iterator@@IEAA_N_N@Z
?_H1@CLKRLinearHashTable@@CAKKK@Z
?_H1@CLKRLinearHashTable@@AEBAKK@Z
?_H0@CLKRLinearHashTable@@CAKKK@Z
?_H0@CLKRLinearHashTable@@AEBAKK@Z
?_FreeSubTableArray@CLKRHashTable@@CA_NPEAPEAVCLKRLinearHashTable@@@Z
?_FreeSubTable@CLKRHashTable@@CA_NPEAVCLKRLinearHashTable@@@Z
?_FreeSegmentDirectory@CLKRLinearHashTable@@AEAA_NXZ
?_FreeSegment@CLKRLinearHashTable@@AEBA_NPEAVCSegment@@@Z
?_FreeNodeClump@CLKRLinearHashTable@@CA_NPEAVCNodeClump@@@Z
?_FindRecord@CLKRLinearHashTable@@AEBA?AW4LK_RETCODE@@PEBXK@Z
?_FindKey@CLKRLinearHashTable@@AEBA?AW4LK_RETCODE@@_KKPEAPEBXPEAVCLKRLinearHashTable_Iterator@@@Z
?_FindBucket@CLKRLinearHashTable@@AEBAPEAVCBucket@@K_N@Z
?_ExtractKey@CLKRLinearHashTable@@AEBA?B_KPEBX@Z
?_ExtractKey@CLKRHashTable@@AEBA?B_KPEBX@Z
?_Expand@CLKRLinearHashTable@@AEAA?AW4LK_RETCODE@@XZ
?_Erase@CLKRLinearHashTable@@AEAA_NAEAVCLKRLinearHashTable_Iterator@@K@Z
?_EqualKeys@CLKRLinearHashTable@@AEBA_N_K0@Z
?_DeleteRecord@CLKRLinearHashTable@@AEAA?AW4LK_RETCODE@@PEBXK@Z
?_DeleteNode@CLKRLinearHashTable@@AEAA_NPEAVCBucket@@AEAPEAVCNodeClump@@1AEAH@Z
?_DeleteKey@CLKRLinearHashTable@@AEAA?AW4LK_RETCODE@@_KK@Z
?_DeleteIf@CLKRLinearHashTable@@AEAAKP6A?AW4LK_PREDICATE@@PEBXPEAX@Z1AEAW42@@Z
?_CurrentThreadId@CSpinLock@@CAJXZ
?_CurrentThreadId@CSmallSpinLock@@CAJXZ
?_CurrentThreadId@CReaderWriterLock3@@CAJXZ
?_Contract@CLKRLinearHashTable@@AEAA?AW4LK_RETCODE@@XZ
?_CmpExch@CReaderWriterLock@@AEAA_NJJ@Z
?_CmpExch@CReaderWriterLock3@@AEAA_NJJ@Z
?_CmpExch@CReaderWriterLock2@@AEAA_NJJ@Z
?_CloseIterator@CLKRLinearHashTable@@AEAA?AW4LK_RETCODE@@PEAVCIterator@1@@Z
?_Clear@CLKRLinearHashTable@@AEAAX_N@Z
?_CalcKeyHash@CLKRLinearHashTable@@AEBAK_K@Z
?_CalcKeyHash@CLKRHashTable@@AEBAK_K@Z
?_BucketAddress@CLKRLinearHashTable@@AEBAKK@Z
?_Bucket@CLKRLinearHashTable@@AEBAPEAVCBucket@@K@Z
?_ApplyIf@CLKRLinearHashTable@@AEAAKP6A?AW4LK_PREDICATE@@PEBXPEAX@ZP6A?AW4LK_ACTION@@01@Z1W4LK_LOCKTYPE@@AEAW42@@Z
?_Apply@CLKRLinearHashTable@@AEAAKP6A?AW4LK_ACTION@@PEBXPEAX@Z1W4LK_LOCKTYPE@@AEAW4LK_PREDICATE@@@Z
?_AllocateSubTableArray@CLKRHashTable@@CAQEAPEAVCLKRLinearHashTable@@_K@Z
?_AllocateSubTable@CLKRHashTable@@CAQEAVCLKRLinearHashTable@@PEBDP6A?B_KPEBX@ZP6AK_K@ZP6A_N33@ZP6AX1H@ZNKPEAV1@_N@Z
?_AllocateSegmentDirectory@CLKRLinearHashTable@@CAQEAVCDirEntry@@_K@Z
?_AllocateSegment@CLKRLinearHashTable@@AEBAQEAVCSegment@@XZ
?_AllocateNodeClump@CLKRLinearHashTable@@CAQEAVCNodeClump@@XZ
?_AddRefRecord@CLKRLinearHashTable@@AEBAXPEBXH@Z
?_AddRef@CLKRLinearHashTable_Iterator@@IEBAXH@Z
?WriteUnlock@CSpinLock@@QEAAXXZ
?WriteUnlock@CSmallSpinLock@@QEAAXXZ
?WriteUnlock@CShareLock@@QEAAXXZ
?WriteUnlock@CRtlResource@@QEAAXXZ
?WriteUnlock@CReaderWriterLock@@QEAAXXZ
?WriteUnlock@CReaderWriterLock3@@QEAAXXZ
?WriteUnlock@CReaderWriterLock2@@QEAAXXZ
?WriteUnlock@CLKRLinearHashTable@@QEBAXXZ
?WriteUnlock@CLKRHashTable@@QEBAXXZ
?WriteUnlock@CFakeLock@@QEAAXXZ
?WriteUnlock@CCritSec@@QEAAXXZ
?WriteLock@CSpinLock@@QEAAXXZ
?WriteLock@CSmallSpinLock@@QEAAXXZ
?WriteLock@CShareLock@@QEAAXXZ
?WriteLock@CRtlResource@@QEAAXXZ
?WriteLock@CReaderWriterLock@@QEAAXXZ
?WriteLock@CReaderWriterLock3@@QEAAXXZ
?WriteLock@CReaderWriterLock2@@QEAAXXZ
?WriteLock@CLKRLinearHashTable@@QEAAXXZ
?WriteLock@CLKRHashTable@@QEAAXXZ
?WriteLock@CFakeLock@@QEAAXXZ
?WriteLock@CCritSec@@QEAAXXZ
?Write@?$CDataCache@VCDateTime@@@@QEAA_NAEBVCDateTime@@@Z
?Write@?$CDataCache@UDATETIME_FORMAT_ENTRY@@@@QEAA_NAEBUDATETIME_FORMAT_ENTRY@@@Z
?WakeAllSleepers@CSharelock@@AEAAXXZ
?WaitType@?$CLockBase@$08$01$00$00$02$01@@SA?AW4LOCK_WAIT_TYPE@@XZ
?WaitType@?$CLockBase@$07$01$01$00$02$01@@SA?AW4LOCK_WAIT_TYPE@@XZ
?WaitType@?$CLockBase@$06$01$01$00$02$01@@SA?AW4LOCK_WAIT_TYPE@@XZ
?WaitType@?$CLockBase@$05$01$00$01$02$02@@SA?AW4LOCK_WAIT_TYPE@@XZ
?WaitType@?$CLockBase@$04$01$00$01$02$02@@SA?AW4LOCK_WAIT_TYPE@@XZ
?WaitType@?$CLockBase@$03$00$00$01$02$02@@SA?AW4LOCK_WAIT_TYPE@@XZ
?WaitType@?$CLockBase@$02$00$00$00$00$00@@SA?AW4LOCK_WAIT_TYPE@@XZ
?WaitType@?$CLockBase@$01$00$00$00$02$01@@SA?AW4LOCK_WAIT_TYPE@@XZ
?WaitType@?$CLockBase@$00$00$02$00$02$01@@SA?AW4LOCK_WAIT_TYPE@@XZ
?WaitForShareLock@CSharelock@@AEAAEH@Z
?WaitForExclusiveLock@CSharelock@@AEAAEH@Z
?VerifyState@BUFFER@@AEBAXXZ
?ValidSignature@CLKRLinearHashTable@@QEBA_NXZ
?ValidSignature@CLKRHashTable@@QEBA_NXZ
?UpdateMaxUsers@CSharelock@@QEAAEH@Z
?UpdateMaxSpins@CSharelock@@QEAAEH@Z
?Unlock@TS_RESOURCE@@QEAAXXZ
?Unlock@HASH_TABLE_BUCKET@@AEAAXXZ
?Unlock@CLockedSingleList@@QEAAXXZ
?Unlock@CLockedDoubleList@@QEAAXXZ
?Unlock@ALLOC_CACHE_HANDLER@@AEAAXXZ
?Unhash@STR@@QEAAXXZ
?Unescape@STRU@@QEAAJXZ
?Unescape@STRA@@QEAAJXZ
?Unescape@STR@@QEAAHXZ
?UnRegister@CEtwTracer@@QEAAKXZ
?UlCleanAndCopyUrl@@YAJPEAEKPEAKPEAGPEAPEAG@Z
?TryWriteLock@CSpinLock@@QEAA_NXZ
?TryWriteLock@CSmallSpinLock@@QEAA_NXZ
?TryWriteLock@CShareLock@@QEAA_NXZ
?TryWriteLock@CRtlResource@@QEAA_NXZ
?TryWriteLock@CReaderWriterLock@@QEAA_NXZ
?TryWriteLock@CReaderWriterLock3@@QEAA_NXZ
?TryWriteLock@CReaderWriterLock2@@QEAA_NXZ
?TryWriteLock@CFakeLock@@QEAA_NXZ
?TryWriteLock@CCritSec@@QEAA_NXZ
?TryReadLock@CSpinLock@@QEAA_NXZ
?TryReadLock@CSmallSpinLock@@QEAA_NXZ
?TryReadLock@CShareLock@@QEAA_NXZ
?TryReadLock@CRtlResource@@QEAA_NXZ
?TryReadLock@CReaderWriterLock@@QEAA_NXZ
?TryReadLock@CReaderWriterLock3@@QEAA_NXZ
?TryReadLock@CReaderWriterLock2@@QEAA_NXZ
?TryReadLock@CFakeLock@@QEAA_NXZ
?TryReadLock@CCritSec@@QEAA_NXZ
?TryConvertSharedToExclusive@CReaderWriterLock3@@QEAA_NXZ
?TracePerUrlEnabled@CEtwTracer@@QEAAHXZ
?SyncWithBuffer@STRU@@QEAAXXZ
?SyncWithBuffer@STRA@@QEAAXXZ
?Success@EVENT_LOG@@QEBAHXZ
?SleepWaitingForLock@CSharelock@@AEAAEH@Z
?Size@CLKRLinearHashTable@@QEBAKXZ
?Size@CLKRHashTable@@QEBAKXZ
?SetValid@BUFFER@@QEAAXH@Z
?SetUsed@BUFFER_CHAIN_ITEM@@QEAAXK@Z
?SetTime@CDateTime@@QEAAHAEBU_SYSTEMTIME@@@Z
?SetTime@CDateTime@@QEAAHAEBU_FILETIME@@@Z
?SetTableLockSpinCount@CLKRLinearHashTable@@QEAAXG@Z
?SetTableLockSpinCount@CLKRHashTable@@QEAAXG@Z
?SetSystemTime@EXTLOG_DATETIME_CACHE@@QEAAXPEAU_SYSTEMTIME@@@Z
?SetSpinCount@CSpinLock@@QEAA_NG@Z
?SetSpinCount@CSmallSpinLock@@QEAA_NG@Z
?SetSpinCount@CShareLock@@QEAA_NG@Z
?SetSpinCount@CRtlResource@@QEAA_NG@Z
?SetSpinCount@CReaderWriterLock@@QEAA_NG@Z
?SetSpinCount@CReaderWriterLock3@@QEAA_NG@Z
?SetSpinCount@CReaderWriterLock2@@QEAA_NG@Z
?SetSpinCount@CFakeLock@@QEAA_NG@Z
?SetSpinCount@CCritSec@@SAKPEAU_RTL_CRITICAL_SECTION@@K@Z
?SetSpinCount@CCritSec@@QEAA_NG@Z
?SetLookasideCleanupInterval@ALLOC_CACHE_HANDLER@@SAHXZ
?SetLocalTime@ASCLOG_DATETIME_CACHE@@QEAAXPEAU_SYSTEMTIME@@@Z
?SetLen@STRU@@QEAAHK@Z
?SetLen@STRAU@@QEAAHK@Z
?SetLen@STRA@@QEAAHK@Z
?SetLen@STR@@QEAAHK@Z
?SetDefaultSpinCount@CSpinLock@@SAXG@Z
?SetDefaultSpinCount@CSmallSpinLock@@SAXG@Z
?SetDefaultSpinCount@CShareLock@@SAXG@Z
?SetDefaultSpinCount@CRtlResource@@SAXG@Z
?SetDefaultSpinCount@CReaderWriterLock@@SAXG@Z
?SetDefaultSpinCount@CReaderWriterLock3@@SAXG@Z
?SetDefaultSpinCount@CReaderWriterLock2@@SAXG@Z
?SetDefaultSpinCount@CFakeLock@@SAXG@Z
?SetDefaultSpinCount@CCritSec@@SAXG@Z
?SetDefaultSpinAdjustmentFactor@CSpinLock@@SAXN@Z
?SetDefaultSpinAdjustmentFactor@CSmallSpinLock@@SAXN@Z
?SetDefaultSpinAdjustmentFactor@CShareLock@@SAXN@Z
?SetDefaultSpinAdjustmentFactor@CRtlResource@@SAXN@Z
?SetDefaultSpinAdjustmentFactor@CReaderWriterLock@@SAXN@Z
?SetDefaultSpinAdjustmentFactor@CReaderWriterLock3@@SAXN@Z
?SetDefaultSpinAdjustmentFactor@CReaderWriterLock2@@SAXN@Z
?SetDefaultSpinAdjustmentFactor@CFakeLock@@SAXN@Z
?SetDefaultSpinAdjustmentFactor@CCritSec@@SAXN@Z
?SetBucketLockSpinCount@CLKRLinearHashTable@@QEAAXG@Z
?SetBucketLockSpinCount@CLKRHashTable@@QEAAXG@Z
?Seconds@CDFTCache@@QEBAGXZ
?SafeCopy@STRAU@@QEAAHPEBG@Z
?SafeCopy@STRAU@@QEAAHPEBD@Z
?SafeCopy@STR@@QEAAHPEBD@Z
?ResizeW@STRAU@@QEAAHK@Z
?Resize@STRU@@QEAAJK@Z
?Resize@STRA@@QEAAJK@Z
?Resize@BUFFER@@QEAAHII@Z
?Resize@BUFFER@@QEAAHI@Z
?ResetLookasideCleanupInterval@ALLOC_CACHE_HANDLER@@SAHXZ
?Reset@STRU@@QEAAXXZ
?Reset@STRAU@@QEAAXXZ
?Reset@STRA@@QEAAXXZ
?Reset@STR@@QEAAXXZ
?Reset@MULTISZ@@QEAAXXZ
?Reset@MLSZAU@@QEAAXXZ
?RemoveTail@CLockedDoubleList@@QEAAQEAVCListEntry@@XZ
?RemoveTail@CDoubleList@@QEAAQEAVCListEntry@@XZ
?RemoveItem@ALLOC_CACHE_HANDLER@@SAXPEAV1@@Z
?RemoveHead@CLockedDoubleList@@QEAAQEAVCListEntry@@XZ
?RemoveHead@CDoubleList@@QEAAQEAVCListEntry@@XZ
?RemoveEntry@CLockedDoubleList@@QEAAXQEAVCListEntry@@@Z
?RemoveEntry@CDoubleList@@SAXQEAVCListEntry@@@Z
?ReleaseShareLock@CSharelock@@QEAAXXZ
?ReleaseExclusiveLock@CSharelock@@QEAAXXZ
?Register@CEtwTracer@@QEAAKPEBU_GUID@@PEAG1@Z
?Recursion@?$CLockBase@$08$01$00$00$02$01@@SA?AW4LOCK_RECURSION@@XZ
?Recursion@?$CLockBase@$07$01$01$00$02$01@@SA?AW4LOCK_RECURSION@@XZ
?Recursion@?$CLockBase@$06$01$01$00$02$01@@SA?AW4LOCK_RECURSION@@XZ
?Recursion@?$CLockBase@$05$01$00$01$02$02@@SA?AW4LOCK_RECURSION@@XZ
?Recursion@?$CLockBase@$04$01$00$01$02$02@@SA?AW4LOCK_RECURSION@@XZ
?Recursion@?$CLockBase@$03$00$00$01$02$02@@SA?AW4LOCK_RECURSION@@XZ
?Recursion@?$CLockBase@$02$00$00$00$00$00@@SA?AW4LOCK_RECURSION@@XZ
?Recursion@?$CLockBase@$01$00$00$00$02$01@@SA?AW4LOCK_RECURSION@@XZ
?Recursion@?$CLockBase@$00$00$02$00$02$01@@SA?AW4LOCK_RECURSION@@XZ
?Record@CLKRLinearHashTable_Iterator@@QEBAPEBXXZ
?Record@CLKRHashTable_Iterator@@QEBAPEBXXZ
?RecalcLen@MULTISZ@@QEAAXXZ
?ReallocStorage@BUFFER@@AEAAHI@Z
?ReadUnlock@CSpinLock@@QEAAXXZ
?ReadUnlock@CSmallSpinLock@@QEAAXXZ
?ReadUnlock@CShareLock@@QEAAXXZ
?ReadUnlock@CRtlResource@@QEAAXXZ
?ReadUnlock@CReaderWriterLock@@QEAAXXZ
?ReadUnlock@CReaderWriterLock3@@QEAAXXZ
?ReadUnlock@CReaderWriterLock2@@QEAAXXZ
?ReadUnlock@CLKRLinearHashTable@@QEBAXXZ
?ReadUnlock@CLKRHashTable@@QEBAXXZ
?ReadUnlock@CFakeLock@@QEAAXXZ
?ReadUnlock@CCritSec@@QEAAXXZ
?ReadOrWriteUnlock@CSpinLock@@QEAAX_N@Z
?ReadOrWriteUnlock@CReaderWriterLock3@@QEAAX_N@Z
?ReadOrWriteUnlock@CFakeLock@@QEAAX_N@Z
?ReadOrWriteUnlock@CCritSec@@QEAAX_N@Z
?ReadOrWriteLock@CSpinLock@@QEAA_NXZ
?ReadOrWriteLock@CReaderWriterLock3@@QEAA_NXZ
?ReadOrWriteLock@CFakeLock@@QEAA_NXZ
?ReadOrWriteLock@CCritSec@@QEAA_NXZ
?ReadLock@CSpinLock@@QEAAXXZ
?ReadLock@CSmallSpinLock@@QEAAXXZ
?ReadLock@CShareLock@@QEAAXXZ
?ReadLock@CRtlResource@@QEAAXXZ
?ReadLock@CReaderWriterLock@@QEAAXXZ
?ReadLock@CReaderWriterLock3@@QEAAXXZ
?ReadLock@CReaderWriterLock2@@QEAAXXZ
?ReadLock@CLKRLinearHashTable@@QEBAXXZ
?ReadLock@CLKRHashTable@@QEBAXXZ
?ReadLock@CFakeLock@@QEAAXXZ
?ReadLock@CCritSec@@QEAAXXZ
?Read@?$CDataCache@VCDateTime@@@@QEBA_NAEAVCDateTime@@@Z
?QueueType@?$CLockBase@$08$01$00$00$02$01@@SA?AW4LOCK_QUEUE_TYPE@@XZ
?QueueType@?$CLockBase@$07$01$01$00$02$01@@SA?AW4LOCK_QUEUE_TYPE@@XZ
?QueueType@?$CLockBase@$06$01$01$00$02$01@@SA?AW4LOCK_QUEUE_TYPE@@XZ
?QueueType@?$CLockBase@$05$01$00$01$02$02@@SA?AW4LOCK_QUEUE_TYPE@@XZ
?QueueType@?$CLockBase@$04$01$00$01$02$02@@SA?AW4LOCK_QUEUE_TYPE@@XZ
?QueueType@?$CLockBase@$03$00$00$01$02$02@@SA?AW4LOCK_QUEUE_TYPE@@XZ
?QueueType@?$CLockBase@$02$00$00$00$00$00@@SA?AW4LOCK_QUEUE_TYPE@@XZ
?QueueType@?$CLockBase@$01$00$00$00$02$01@@SA?AW4LOCK_QUEUE_TYPE@@XZ
?QueueType@?$CLockBase@$00$00$02$00$02$01@@SA?AW4LOCK_QUEUE_TYPE@@XZ
?QueryUsed@BUFFER_CHAIN_ITEM@@QEBAKXZ
?QueryTraceHandle@CEtwTracer@@QEAA_KXZ
?QueryStringCount@MULTISZ@@QEBAKXZ
?QueryStrW@STRAU@@QEAAPEAGXZ
?QueryStrW@MLSZAU@@QEAAPEAGXZ
?QueryStrA@STRAU@@QEAAPEADXZ
?QueryStrA@STR@@QEBAPEADXZ
?QueryStrA@MULTISZ@@QEBAPEADXZ
?QueryStrA@MLSZAU@@QEAAPEADXZ
?QueryStr@STRU@@QEBAPEBGXZ
?QueryStr@STRU@@QEAAPEAGXZ
?QueryStr@STRAU@@QEAAPEAGH@Z
?QueryStr@STRAU@@QEAAPEADH@Z
?QueryStr@STRA@@QEBAPEBDXZ
?QueryStr@STRA@@QEAAPEADXZ
?QueryStr@STR@@QEBAPEADXZ
?QueryStr@MULTISZ@@QEBAPEADXZ
?QueryStr@MLSZAU@@QEAAPEADH@Z
?QueryStats@ALLOC_CACHE_HANDLER@@QEAAXPEAU_ALLOC_CACHE_STATISTICS@@@Z
?QuerySize@STRA@@QEBAIXZ
?QuerySize@BUFFER@@QEBAIXZ
?QueryPtr@BUFFER@@QEBAPEAXXZ
?QueryLastChar@STR@@QEBADXZ
?QueryFirstChar@STR@@QEBADXZ
?QueryEnableLevel@CEtwTracer@@QEAAKXZ
?QueryCCH@STRU@@QEBAIXZ
?QueryCCH@STRAU@@QEAAIXZ
?QueryCCH@STRA@@QEBAIXZ
?QueryCCH@STR@@QEBAIXZ
?QueryCCH@MULTISZ@@QEBAIXZ
?QueryCCH@MLSZAU@@QEAAIXZ
?QueryCBW@STRAU@@QEAAIXZ
?QueryCBW@MLSZAU@@QEAAIXZ
?QueryCBA@STRAU@@QEAAIXZ
?QueryCBA@MLSZAU@@QEAAIXZ
?QueryCB@STRU@@QEBAIXZ
?QueryCB@STRAU@@QEAAIH@Z
?QueryCB@STRA@@QEBAIXZ
?QueryCB@STR@@QEBAIXZ
?QueryCB@MULTISZ@@QEBAIXZ
?QueryCB@MLSZAU@@QEAAIH@Z
?QueryBuffer@STRU@@QEAAPEAVBUFFER@@XZ
?Push@CSingleList@@QEAAXQEAVCSingleListEntry@@@Z
?Push@CLockedSingleList@@QEAAXQEAVCSingleListEntry@@@Z
?PrivateQueryStr@STRAU@@AEAAPEAGH@Z
?Print@HTB_ELEMENT@@QEBAXK@Z
?Print@HASH_TABLE_BUCKET@@QEAAXK@Z
?Print@HASH_TABLE@@QEAAXK@Z
?Print@ALLOC_CACHE_HANDLER@@QEAAXXZ
?Pop@CSingleList@@QEAAQEAVCSingleListEntry@@XZ
?Pop@CLockedSingleList@@QEAAQEAVCSingleListEntry@@XZ
?PerLockSpin@?$CLockBase@$08$01$00$00$02$01@@SA?AW4LOCK_PERLOCK_SPIN@@XZ
?PerLockSpin@?$CLockBase@$07$01$01$00$02$01@@SA?AW4LOCK_PERLOCK_SPIN@@XZ
?PerLockSpin@?$CLockBase@$06$01$01$00$02$01@@SA?AW4LOCK_PERLOCK_SPIN@@XZ
?PerLockSpin@?$CLockBase@$05$01$00$01$02$02@@SA?AW4LOCK_PERLOCK_SPIN@@XZ
?PerLockSpin@?$CLockBase@$04$01$00$01$02$02@@SA?AW4LOCK_PERLOCK_SPIN@@XZ
?PerLockSpin@?$CLockBase@$03$00$00$01$02$02@@SA?AW4LOCK_PERLOCK_SPIN@@XZ
?PerLockSpin@?$CLockBase@$02$00$00$00$00$00@@SA?AW4LOCK_PERLOCK_SPIN@@XZ
?PerLockSpin@?$CLockBase@$01$00$00$00$02$01@@SA?AW4LOCK_PERLOCK_SPIN@@XZ
?PerLockSpin@?$CLockBase@$00$00$02$00$02$01@@SA?AW4LOCK_PERLOCK_SPIN@@XZ
?OffsetSeconds@CDFTCache@@QEBAHXZ
?NumSubTables@CLKRLinearHashTable@@SA?AW4LK_TABLESIZE@@AEAK0@Z
?NumSubTables@CLKRLinearHashTable@@QEBAHXZ
?NumSubTables@CLKRHashTable@@SA?AW4LK_TABLESIZE@@AEAK0@Z
?NumSubTables@CLKRHashTable@@QEBAHXZ
?NumEntries@HASH_TABLE_BUCKET@@QEAAKXZ
?NumElements@HTB_ELEMENT@@QEBAKXZ
?NormalizeUrlW@@YAJPEAG@Z
?NormalizeUrl@@YAJPEAD@Z
?NextElement@HTB_ELEMENT@@QEAAXAEAPEAUHTBE_ENTRY@@@Z
?NextBuffer@BUFFER_CHAIN@@QEAAPEAVBUFFER_CHAIN_ITEM@@PEAV2@@Z
?Next@MULTISZ@@QEBAPEBDPEBD@Z
?MutexType@?$CLockBase@$08$01$00$00$02$01@@SA?AW4LOCK_RW_MUTEX@@XZ
?MutexType@?$CLockBase@$07$01$01$00$02$01@@SA?AW4LOCK_RW_MUTEX@@XZ
?MutexType@?$CLockBase@$06$01$01$00$02$01@@SA?AW4LOCK_RW_MUTEX@@XZ
?MutexType@?$CLockBase@$05$01$00$01$02$02@@SA?AW4LOCK_RW_MUTEX@@XZ
?MutexType@?$CLockBase@$04$01$00$01$02$02@@SA?AW4LOCK_RW_MUTEX@@XZ
?MutexType@?$CLockBase@$03$00$00$01$02$02@@SA?AW4LOCK_RW_MUTEX@@XZ
?MutexType@?$CLockBase@$02$00$00$00$00$00@@SA?AW4LOCK_RW_MUTEX@@XZ
?MutexType@?$CLockBase@$01$00$00$00$02$01@@SA?AW4LOCK_RW_MUTEX@@XZ
?MutexType@?$CLockBase@$00$00$02$00$02$01@@SA?AW4LOCK_RW_MUTEX@@XZ
?MultiKeys@CLKRLinearHashTable@@QEBA_NXZ
?MultiKeys@CLKRHashTable@@QEBA_NXZ
?Month3CharNames@@YAPEBDK@Z
?MaxSize@CLKRLinearHashTable@@QEBAKXZ
?MaxSize@CLKRHashTable@@QEBAKXZ
?Lookup@HTB_ELEMENT@@QEAAPEAVHT_ELEMENT@@KPEBDK@Z
?Lookup@HASH_TABLE_BUCKET@@QEAAPEAVHT_ELEMENT@@KPEBDK@Z
?Lookup@HASH_TABLE@@QEAAPEAVHT_ELEMENT@@PEBDK@Z
?Lookup@HASH_TABLE@@QEAAPEAVHT_ELEMENT@@PEBD@Z
?LogEventPrivate@EVENT_LOG@@AEAAXKGGQEAPEBDK@Z
?LogEvent@EVENT_LOG@@QEAAXKGQEAPEBDK@Z
?LockType@?$CLockBase@$08$01$00$00$02$01@@SA?AW4LOCK_LOCKTYPE@@XZ
?LockType@?$CLockBase@$07$01$01$00$02$01@@SA?AW4LOCK_LOCKTYPE@@XZ
?LockType@?$CLockBase@$06$01$01$00$02$01@@SA?AW4LOCK_LOCKTYPE@@XZ
?LockType@?$CLockBase@$05$01$00$01$02$02@@SA?AW4LOCK_LOCKTYPE@@XZ
?LockType@?$CLockBase@$04$01$00$01$02$02@@SA?AW4LOCK_LOCKTYPE@@XZ
?LockType@?$CLockBase@$03$00$00$01$02$02@@SA?AW4LOCK_LOCKTYPE@@XZ
?LockType@?$CLockBase@$02$00$00$00$00$00@@SA?AW4LOCK_LOCKTYPE@@XZ
?LockType@?$CLockBase@$01$00$00$00$02$01@@SA?AW4LOCK_LOCKTYPE@@XZ
?LockType@?$CLockBase@$00$00$02$00$02$01@@SA?AW4LOCK_LOCKTYPE@@XZ
?Lock@TS_RESOURCE@@QEAAXW4TSRES_LOCK_TYPE@@@Z
?Lock@HASH_TABLE_BUCKET@@AEAAXXZ
?Lock@CLockedSingleList@@QEAAXXZ
?Lock@CLockedDoubleList@@QEAAXXZ
?Lock@ALLOC_CACHE_HANDLER@@AEAAXXZ
?LoadStringW@STRA@@QEAAJKPEBDK@Z
?LoadStringW@STRA@@QEAAJKPEAUHINSTANCE__@@@Z
?LoadStringA@STR@@QEAAHKPEBDK@Z
?LoadStringA@STR@@QEAAHKPEAUHINSTANCE__@@@Z
?LastElement@HTB_ELEMENT@@QEAAPEAUHTBE_ENTRY@@XZ
?Last@CLockedDoubleList@@QEAAQEAVCListEntry@@XZ
?Last@CDoubleList@@QEBAQEAVCListEntry@@XZ
?Key@CLKRLinearHashTable_Iterator@@QEBA?B_KXZ
?Key@CLKRHashTable_Iterator@@QEBA?B_KXZ
?IsWriteUnlocked@CSpinLock@@QEBA_NXZ
?IsWriteUnlocked@CSmallSpinLock@@QEBA_NXZ
?IsWriteUnlocked@CShareLock@@QEBA_NXZ
?IsWriteUnlocked@CRtlResource@@QEBA_NXZ
?IsWriteUnlocked@CReaderWriterLock@@QEBA_NXZ
?IsWriteUnlocked@CReaderWriterLock3@@QEBA_NXZ
?IsWriteUnlocked@CReaderWriterLock2@@QEBA_NXZ
?IsWriteUnlocked@CLKRLinearHashTable@@QEBA_NXZ
?IsWriteUnlocked@CLKRHashTable@@QEBA_NXZ
?IsWriteUnlocked@CFakeLock@@QEBA_NXZ
?IsWriteUnlocked@CCritSec@@QEBA_NXZ
?IsWriteLocked@CSpinLock@@QEBA_NXZ
?IsWriteLocked@CSmallSpinLock@@QEBA_NXZ
?IsWriteLocked@CShareLock@@QEBA_NXZ
?IsWriteLocked@CRtlResource@@QEBA_NXZ
?IsWriteLocked@CReaderWriterLock@@QEBA_NXZ
?IsWriteLocked@CReaderWriterLock3@@QEBA_NXZ
?IsWriteLocked@CReaderWriterLock2@@QEBA_NXZ
?IsWriteLocked@CLKRLinearHashTable@@QEBA_NXZ
?IsWriteLocked@CLKRHashTable@@QEBA_NXZ
?IsWriteLocked@CFakeLock@@QEBA_NXZ
?IsWriteLocked@CCritSec@@QEBA_NXZ
?IsValid@STRAU@@QEAAHXZ
?IsValid@STRA@@QEBAHXZ
?IsValid@STR@@QEBAHXZ
?IsValid@MULTISZ@@QEBAHXZ
?IsValid@MLSZAU@@QEAAHXZ
?IsValid@HASH_TABLE@@QEBAHXZ
?IsValid@CLKRLinearHashTable_Iterator@@QEBA_NXZ
?IsValid@CLKRLinearHashTable@@QEBA_NXZ
?IsValid@CLKRHashTable_Iterator@@QEBA_NXZ
?IsValid@CLKRHashTable@@QEBA_NXZ
?IsValid@BUFFER@@QEBAHXZ
?IsValid@ALLOC_CACHE_HANDLER@@QEBAHXZ
?IsUsable@CLKRLinearHashTable@@QEBA_NXZ
?IsUsable@CLKRHashTable@@QEBA_NXZ
?IsUnlocked@CLockedSingleList@@QEBA_NXZ
?IsUnlocked@CLockedDoubleList@@QEBA_NXZ
?IsSpaceAvailable@HTB_ELEMENT@@QEBAHXZ
?IsReadUnlocked@CSpinLock@@QEBA_NXZ
?IsReadUnlocked@CSmallSpinLock@@QEBA_NXZ
?IsReadUnlocked@CShareLock@@QEBA_NXZ
?IsReadUnlocked@CRtlResource@@QEBA_NXZ
?IsReadUnlocked@CReaderWriterLock@@QEBA_NXZ
?IsReadUnlocked@CReaderWriterLock3@@QEBA_NXZ
?IsReadUnlocked@CReaderWriterLock2@@QEBA_NXZ
?IsReadUnlocked@CLKRLinearHashTable@@QEBA_NXZ
?IsReadUnlocked@CLKRHashTable@@QEBA_NXZ
?IsReadUnlocked@CFakeLock@@QEBA_NXZ
?IsReadUnlocked@CCritSec@@QEBA_NXZ
?IsReadLocked@CSpinLock@@QEBA_NXZ
?IsReadLocked@CSmallSpinLock@@QEBA_NXZ
?IsReadLocked@CShareLock@@QEBA_NXZ
?IsReadLocked@CRtlResource@@QEBA_NXZ
?IsReadLocked@CReaderWriterLock@@QEBA_NXZ
?IsReadLocked@CReaderWriterLock3@@QEBA_NXZ
?IsReadLocked@CReaderWriterLock2@@QEBA_NXZ
?IsReadLocked@CLKRLinearHashTable@@QEBA_NXZ
?IsReadLocked@CLKRHashTable@@QEBA_NXZ
?IsReadLocked@CFakeLock@@QEBA_NXZ
?IsReadLocked@CCritSec@@QEBA_NXZ
?IsLocked@CLockedSingleList@@QEBA_NXZ
?IsLocked@CLockedDoubleList@@QEBA_NXZ
?IsHit@DATETIME_FORMAT_ENTRY@@QEBAHPEBU_SYSTEMTIME@@@Z
?IsHit@CDFTCache@@QEBAHPEBU_SYSTEMTIME@@@Z
?IsEmpty@STRU@@QEBAHXZ
?IsEmpty@STRAU@@QEAAHXZ
?IsEmpty@STRA@@QEBAHXZ
?IsEmpty@STR@@QEBAHXZ
?IsEmpty@MULTISZ@@QEBAHXZ
?IsEmpty@CSingleList@@QEBA_NXZ
?IsEmpty@CLockedSingleList@@QEBA_NXZ
?IsEmpty@CLockedDoubleList@@QEBA_NXZ
?IsEmpty@CDoubleList@@QEBA_NXZ
?IsDynAlloced@BUFFER@@AEBAHXZ
?IsCurrentUnicode@STRAU@@QEAAHXZ
?IsCurrentUnicode@MLSZAU@@QEAAHXZ
?IpPrint@ALLOC_CACHE_HANDLER@@QEAAHPEADPEAK@Z
?InsertTail@CLockedDoubleList@@QEAAXQEAVCListEntry@@@Z
?InsertTail@CDoubleList@@QEAAXQEAVCListEntry@@@Z
?InsertRecord@CLKRLinearHashTable@@QEAA?AW4LK_RETCODE@@PEBX_N@Z
?InsertRecord@CLKRHashTable@@QEAA?AW4LK_RETCODE@@PEBX_N@Z
?InsertNewItem@ALLOC_CACHE_HANDLER@@SAXPEAV1@@Z
?InsertHead@CLockedDoubleList@@QEAAXQEAVCListEntry@@@Z
?InsertHead@CDoubleList@@QEAAXQEAVCListEntry@@@Z
?Insert@HTB_ELEMENT@@QEAAHKPEAVHT_ELEMENT@@@Z
?Insert@HASH_TABLE_BUCKET@@QEAAHKPEAVHT_ELEMENT@@H@Z
?Insert@HASH_TABLE@@QEAAHPEAVHT_ELEMENT@@H@Z
?Insert@CLKRLinearHashTable@@QEAA_NPEBXAEAVCLKRLinearHashTable_Iterator@@_N@Z
?Insert@CLKRHashTable@@QEAA_NPEBXAEAVCLKRHashTable_Iterator@@_N@Z
?InitializeIterator@HASH_TABLE_BUCKET@@QEAAKPEAUHT_ITERATOR@@@Z
?InitializeIterator@HASH_TABLE@@QEAAKPEAUHT_ITERATOR@@@Z
?InitializeIterator@CLKRLinearHashTable@@QEBA?AW4LK_RETCODE@@PEAVCConstIterator@1@@Z
?InitializeIterator@CLKRLinearHashTable@@QEAA?AW4LK_RETCODE@@PEAVCIterator@1@@Z
?InitializeIterator@CLKRHashTable@@QEBA?AW4LK_RETCODE@@PEAVCConstIterator@1@@Z
?InitializeIterator@CLKRHashTable@@QEAA?AW4LK_RETCODE@@PEAVCIterator@1@@Z
?Initialize@ALLOC_CACHE_HANDLER@@SAHXZ
?IncrementIterator@CLKRLinearHashTable@@QEBA?AW4LK_RETCODE@@PEAVCConstIterator@1@@Z
?IncrementIterator@CLKRLinearHashTable@@QEAA?AW4LK_RETCODE@@PEAVCIterator@1@@Z
?IncrementIterator@CLKRHashTable@@QEBA?AW4LK_RETCODE@@PEAVCConstIterator@1@@Z
?IncrementIterator@CLKRHashTable@@QEAA?AW4LK_RETCODE@@PEAVCIterator@1@@Z
?IncrementElements@HTB_ELEMENT@@QEAAXXZ
?Increment@CLKRLinearHashTable_Iterator@@QEAA_NXZ
?Increment@CLKRHashTable_Iterator@@QEAA_NXZ
?HeadNode@CLockedDoubleList@@QEBAQEBVCListEntry@@XZ
?HeadNode@CDoubleList@@QEBAQEBVCListEntry@@XZ
?Hash@STR@@QEAAXXZ
?HTMLEncode@STRA@@QEAAJXZ
?GetTickCount@CDateTime@@QEAAHXZ
?GetTableLockSpinCount@CLKRLinearHashTable@@QEBAGXZ
?GetTableLockSpinCount@CLKRHashTable@@QEBAGXZ
?GetStatistics@CLKRLinearHashTable@@QEBA?AVCLKRHashTableStats@@XZ
?GetStatistics@CLKRHashTable@@QEBA?AVCLKRHashTableStats@@XZ
?GetSpinCount@CSpinLock@@QEBAGXZ
?GetSpinCount@CSmallSpinLock@@QEBAGXZ
?GetSpinCount@CShareLock@@QEBAGXZ
?GetSpinCount@CRtlResource@@QEBAGXZ
?GetSpinCount@CReaderWriterLock@@QEBAGXZ
?GetSpinCount@CReaderWriterLock3@@QEBAGXZ
?GetSpinCount@CReaderWriterLock2@@QEBAGXZ
?GetSpinCount@CFakeLock@@QEBAGXZ
?GetSpinCount@CCritSec@@QEBAGXZ
?GetNewStorage@BUFFER@@AEAAHI@Z
?GetFormattedDateTime@CACHED_DATETIME_FORMATS@@QEAAKPEBU_SYSTEMTIME@@PEAD@Z
?GetFormattedCurrentDateTime@CACHED_DATETIME_FORMATS@@QEAAKPEAD@Z
?GetErrorCode@EVENT_LOG@@QEBAKXZ
?GetDefaultSpinCount@CSpinLock@@SAGXZ
?GetDefaultSpinCount@CSmallSpinLock@@SAGXZ
?GetDefaultSpinCount@CShareLock@@SAGXZ
?GetDefaultSpinCount@CRtlResource@@SAGXZ
?GetDefaultSpinCount@CReaderWriterLock@@SAGXZ
?GetDefaultSpinCount@CReaderWriterLock3@@SAGXZ
?GetDefaultSpinCount@CReaderWriterLock2@@SAGXZ
?GetDefaultSpinCount@CFakeLock@@SAGXZ
?GetDefaultSpinCount@CCritSec@@SAGXZ
?GetDefaultSpinAdjustmentFactor@CSpinLock@@SANXZ
?GetDefaultSpinAdjustmentFactor@CSmallSpinLock@@SANXZ
?GetDefaultSpinAdjustmentFactor@CShareLock@@SANXZ
?GetDefaultSpinAdjustmentFactor@CRtlResource@@SANXZ
?GetDefaultSpinAdjustmentFactor@CReaderWriterLock@@SANXZ
?GetDefaultSpinAdjustmentFactor@CReaderWriterLock3@@SANXZ
?GetDefaultSpinAdjustmentFactor@CReaderWriterLock2@@SANXZ
?GetDefaultSpinAdjustmentFactor@CFakeLock@@SANXZ
?GetDefaultSpinAdjustmentFactor@CCritSec@@SANXZ
?GetBucketLockSpinCount@CLKRLinearHashTable@@QEBAGXZ
?GetBucketLockSpinCount@CLKRHashTable@@QEBAGXZ
?GenerateDateTimeString@W3_DATETIME_CACHE@@UEAAXPEAUDATETIME_FORMAT_ENTRY@@PEBU_SYSTEMTIME@@@Z
?GenerateDateTimeString@EXTLOG_DATETIME_CACHE@@UEAAXPEAUDATETIME_FORMAT_ENTRY@@PEBU_SYSTEMTIME@@@Z
?GenerateDateTimeString@ASCLOG_DATETIME_CACHE@@UEAAXPEAUDATETIME_FORMAT_ENTRY@@PEBU_SYSTEMTIME@@@Z
?FreeMemory@BUFFER@@QEAAXXZ
?Free@ALLOC_CACHE_HANDLER@@QEAAHPEAX@Z
?FormattedBuffer@CDFTCache@@QEBAPEBDXZ
?FormatString@STRA@@QEAAJKQEAPEBDPEBDK@Z
?FormatString@STR@@QEAAHKQEAPEBDPEBDK@Z
?FlushElements@HASH_TABLE@@QEAAKXZ
?FirstElement@HTB_ELEMENT@@QEAAPEAUHTBE_ENTRY@@XZ
?First@MULTISZ@@QEBAPEBDXZ
?First@CLockedDoubleList@@QEAAQEAVCListEntry@@XZ
?First@CDoubleList@@QEBAQEAVCListEntry@@XZ
?FindString@MULTISZ@@QEAAHPEBD@Z
?FindString@MULTISZ@@QEAAHAEBVSTR@@@Z
?FindRecord@CLKRLinearHashTable@@QEBA?AW4LK_RETCODE@@PEBX@Z
?FindRecord@CLKRHashTable@@QEBA?AW4LK_RETCODE@@PEBX@Z
?FindNextElement@HTB_ELEMENT@@QEAAKPEAKPEAPEAVHT_ELEMENT@@@Z
?FindNextElement@HASH_TABLE_BUCKET@@QEAAKPEAUHT_ITERATOR@@PEAPEAVHT_ELEMENT@@@Z
?FindNextElement@HASH_TABLE@@QEAAKPEAUHT_ITERATOR@@PEAPEAVHT_ELEMENT@@@Z
?FindKey@CLKRLinearHashTable@@QEBA?AW4LK_RETCODE@@_KPEAPEBX@Z
?FindKey@CLKRHashTable@@QEBA?AW4LK_RETCODE@@_KPEAPEBX@Z
?Find@CLKRLinearHashTable@@QEAA_N_KAEAVCLKRLinearHashTable_Iterator@@@Z
?Find@CLKRHashTable@@QEAA_N_KAEAVCLKRHashTable_Iterator@@@Z
?FileTimeToGMTEx@@YAHAEBU_FILETIME@@PEADKK@Z
?FileTimeToGMT@@YAHAEBU_FILETIME@@PEADK@Z
?EtwTraceEvent@CEtwTracer@@QEAAKPEBU_GUID@@KZZ
?EscapeSpaces@STR@@QEAAHXZ
?Escape@STRU@@QEAAJXZ
?Escape@STRA@@QEAAJHH@Z
?Escape@STR@@QEAAHXZ
?Erase@CLKRLinearHashTable@@QEAA_NAEAVCLKRLinearHashTable_Iterator@@@Z
?Erase@CLKRLinearHashTable@@QEAA_NAEAVCLKRLinearHashTable_Iterator@@0@Z
?Erase@CLKRHashTable@@QEAA_NAEAVCLKRHashTable_Iterator@@@Z
?Erase@CLKRHashTable@@QEAA_NAEAVCLKRHashTable_Iterator@@0@Z
?EqualsNoCase@STRU@@QEBAHPEBG@Z
?EqualsNoCase@STRU@@QEBAHAEBV1@@Z
?EqualsNoCase@STRA@@QEBAHQEAD@Z
?EqualsNoCase@STRA@@QEBAHAEBV1@@Z
?Equals@STRU@@QEBAHPEBG@Z
?Equals@STRU@@QEBAHAEBV1@@Z
?Equals@STRA@@QEBAHQEAD@Z
?Equals@STRA@@QEBAHAEBV1@@Z
?EqualRange@CLKRLinearHashTable@@QEAA_N_KAEAVCLKRLinearHashTable_Iterator@@1@Z
?EqualRange@CLKRHashTable@@QEAA_N_KAEAVCLKRHashTable_Iterator@@1@Z
?Equ@STR@@QEBAHPEAD@Z
?Equ@STR@@QEBAHAEBV1@@Z
?End@CLKRLinearHashTable@@QEAA?AVCLKRLinearHashTable_Iterator@@XZ
?End@CLKRHashTable@@QEAA?AVCLKRHashTable_Iterator@@XZ
?EnableEventsCallbackCustomHandler@CEtwTracer@@UEAAKXZ
?DumpStatsToHtml@ALLOC_CACHE_HANDLER@@SAHPEADPEAK@Z
?DisableEventsCallbackCustomHandler@CEtwTracer@@UEAAKXZ
?DeleteRecord@CLKRLinearHashTable@@QEAA?AW4LK_RETCODE@@PEBX@Z
?DeleteRecord@CLKRHashTable@@QEAA?AW4LK_RETCODE@@PEBX@Z
?DeleteKey@CLKRLinearHashTable@@QEAA?AW4LK_RETCODE@@_K@Z
?DeleteKey@CLKRHashTable@@QEAA?AW4LK_RETCODE@@_K@Z
?DeleteIf@CLKRLinearHashTable@@QEAAKP6A?AW4LK_PREDICATE@@PEBXPEAX@Z1@Z
?DeleteIf@CLKRHashTable@@QEAAKP6A?AW4LK_PREDICATE@@PEBXPEAX@Z1@Z
?DeleteChain@BUFFER_CHAIN@@QEAAKXZ
?Delete@HTB_ELEMENT@@QEAAHPEAVHT_ELEMENT@@@Z
?Delete@HASH_TABLE_BUCKET@@QEAAHPEAVHT_ELEMENT@@@Z
?Delete@HASH_TABLE@@QEAAHPEAVHT_ELEMENT@@@Z
?DecrementElements@HTB_ELEMENT@@QEAAXXZ
?DayOfWeek3CharNames@@YAPEBDK@Z
?DateTimeChars@CDFTCache@@QEBAKXZ
?CopyWTruncate@STRA@@QEAAJPEBGK@Z
?CopyWTruncate@STRA@@QEAAJPEBG@Z
?CopyWToUTF8Unescaped@STRA@@QEAAJPEBGK@Z
?CopyWToUTF8Unescaped@STRA@@QEAAJPEBG@Z
?CopyWToUTF8Unescaped@STRA@@QEAAJAEBVSTRU@@@Z
?CopyWToUTF8@STRA@@QEAAJPEBGK@Z
?CopyWToUTF8@STRA@@QEAAJPEBG@Z
?CopyWToUTF8@STRA@@QEAAJAEBVSTRU@@@Z
?CopyW@STRA@@QEAAJPEBGK@Z
?CopyW@STRA@@QEAAJPEBG@Z
?CopyToBuffer@STRU@@QEBAJPEAGPEAK@Z
?CopyToBuffer@STRA@@QEBAJPEADPEAK@Z
?CopyToBuffer@STR@@QEBAHPEAGPEAK@Z
?CopyToBuffer@STR@@QEBAHPEADPEAK@Z
?CopyToBuffer@MULTISZ@@QEBAHPEADPEAK@Z
?CopyFormattedData@DATETIME_FORMAT_ENTRY@@QEBAXPEBU_SYSTEMTIME@@PEAD@Z
?CopyFormattedData@CDFTCache@@QEBAHPEBU_SYSTEMTIME@@PEAD@Z
?CopyBinary@STRA@@QEAAJPEAXK@Z
?CopyA@STRU@@QEAAJPEBDK@Z
?CopyA@STRU@@QEAAJPEBD@Z
?Copy@STRU@@QEAAJPEBGK@Z
?Copy@STRU@@QEAAJPEBG@Z
?Copy@STRU@@QEAAJAEBV1@@Z
?Copy@STRAU@@QEAAHPEBGK@Z
?Copy@STRAU@@QEAAHPEBG@Z
?Copy@STRAU@@QEAAHPEBDK@Z
?Copy@STRAU@@QEAAHPEBD@Z
?Copy@STRAU@@QEAAHAEAV1@@Z
?Copy@STRA@@QEAAJPEBDK@Z
?Copy@STRA@@QEAAJPEBD@Z
?Copy@STRA@@QEAAJAEBV1@@Z
?Copy@STR@@QEAAHPEBDK@Z
?Copy@STR@@QEAAHPEBD@Z
?Copy@STR@@QEAAHAEBV1@@Z
?Copy@MULTISZ@@QEAAHPEBDK@Z
?Copy@MULTISZ@@QEAAHAEBV1@@Z
?ConvertSharedToExclusive@CSpinLock@@QEAAXXZ
?ConvertSharedToExclusive@CSmallSpinLock@@QEAAXXZ
?ConvertSharedToExclusive@CShareLock@@QEAAXXZ
?ConvertSharedToExclusive@CRtlResource@@QEAAXXZ
?ConvertSharedToExclusive@CReaderWriterLock@@QEAAXXZ
?ConvertSharedToExclusive@CReaderWriterLock3@@QEAAXXZ
?ConvertSharedToExclusive@CReaderWriterLock2@@QEAAXXZ
?ConvertSharedToExclusive@CLKRLinearHashTable@@QEBAXXZ
?ConvertSharedToExclusive@CLKRHashTable@@QEBAXXZ
?ConvertSharedToExclusive@CFakeLock@@QEAAXXZ
?ConvertSharedToExclusive@CCritSec@@QEAAXXZ
?ConvertExclusiveToShared@CSpinLock@@QEAAXXZ
?ConvertExclusiveToShared@CSmallSpinLock@@QEAAXXZ
?ConvertExclusiveToShared@CShareLock@@QEAAXXZ
?ConvertExclusiveToShared@CRtlResource@@QEAAXXZ
?ConvertExclusiveToShared@CReaderWriterLock@@QEAAXXZ
?ConvertExclusiveToShared@CReaderWriterLock3@@QEAAXXZ
?ConvertExclusiveToShared@CReaderWriterLock2@@QEAAXXZ
?ConvertExclusiveToShared@CLKRLinearHashTable@@QEBAXXZ
?ConvertExclusiveToShared@CLKRHashTable@@QEBAXXZ
?ConvertExclusiveToShared@CFakeLock@@QEAAXXZ
?ConvertExclusiveToShared@CCritSec@@QEAAXXZ
?Convert@TS_RESOURCE@@QEAAXW4TSRES_CONV_TYPE@@@Z
?CloseIterator@HASH_TABLE_BUCKET@@QEAAKPEAUHT_ITERATOR@@@Z
?CloseIterator@HASH_TABLE@@QEAAKPEAUHT_ITERATOR@@@Z
?CloseIterator@CLKRLinearHashTable@@QEBA?AW4LK_RETCODE@@PEAVCConstIterator@1@@Z
?CloseIterator@CLKRLinearHashTable@@QEAA?AW4LK_RETCODE@@PEAVCIterator@1@@Z
?CloseIterator@CLKRHashTable@@QEBA?AW4LK_RETCODE@@PEAVCConstIterator@1@@Z
?CloseIterator@CLKRHashTable@@QEAA?AW4LK_RETCODE@@PEAVCIterator@1@@Z
?Clone@STRA@@QEBAJPEAV1@@Z
?Clone@STR@@QEBAHPEAV1@@Z
?Clone@MULTISZ@@QEBAHPEAV1@@Z
?Clear@STR@@QEAAXXZ
?Clear@CLKRLinearHashTable@@QEAAXXZ
?Clear@CLKRHashTable@@QEAAXXZ
?CleanupLookaside@ALLOC_CACHE_HANDLER@@QEAAXH@Z
?CleanupAllLookasides@ALLOC_CACHE_HANDLER@@SAXPEAXE@Z
?Cleanup@HTB_ELEMENT@@QEAAXXZ
?Cleanup@HASH_TABLE@@QEAAXXZ
?Cleanup@ALLOC_CACHE_HANDLER@@SAHXZ
?ClassName@CSpinLock@@SAPEBGXZ
?ClassName@CSpinLock@@SAPEBDXZ
?ClassName@CSmallSpinLock@@SAPEBGXZ
?ClassName@CSmallSpinLock@@SAPEBDXZ
?ClassName@CShareLock@@SAPEBDXZ
?ClassName@CRtlResource@@SAPEBDXZ
?ClassName@CReaderWriterLock@@SAPEBGXZ
?ClassName@CReaderWriterLock@@SAPEBDXZ
?ClassName@CReaderWriterLock3@@SAPEBGXZ
?ClassName@CReaderWriterLock3@@SAPEBDXZ
?ClassName@CReaderWriterLock2@@SAPEBGXZ
?ClassName@CReaderWriterLock2@@SAPEBDXZ
?ClassName@CLKRLinearHashTable@@SAPEBGXZ
?ClassName@CLKRHashTable@@SAPEBGXZ
?ClassName@CFakeLock@@SAPEBGXZ
?ClassName@CFakeLock@@SAPEBDXZ
?ClassName@CCritSec@@SAPEBGXZ
?ClassName@CCritSec@@SAPEBDXZ
?ClaimShareLock@CSharelock@@QEAAEH@Z
?ClaimExclusiveLock@CSharelock@@QEAAEH@Z
?CheckTable@CLKRLinearHashTable@@QEBAHXZ
?CheckTable@CLKRHashTable@@QEBAHXZ
?ChangeSharedLockToExclusiveLock@CSharelock@@QEAAEH@Z
?ChangeExclusiveLockToSharedLock@CSharelock@@QEAAXXZ
?CalculateHash@HASH_TABLE@@UEBAKPEBDK@Z
?CalculateHash@HASH_TABLE@@UEBAKPEBD@Z
?CalcTotalSize@BUFFER_CHAIN@@QEBAKH@Z
?CalcLength@MULTISZ@@SAKPEBDPEAK@Z
?BucketSizes@CLKRHashTableStats@@SAPEBJXZ
?BucketSize@CLKRHashTableStats@@SAJJ@Z
?BucketIndex@CLKRHashTableStats@@SAJJ@Z
?Begin@CLKRLinearHashTable@@QEAA?AVCLKRLinearHashTable_Iterator@@XZ
?Begin@CLKRHashTable@@QEAA?AVCLKRHashTable_Iterator@@XZ
?AuxInit@STRAU@@AEAAXPEBG@Z
?AuxInit@STRAU@@AEAAXPEBD@Z
?AuxInit@STR@@AEAAXPEBE@Z
?AuxInit@MULTISZ@@AEAAXPEBE@Z
?AuxInit@MLSZAU@@AEAAXQEAGK@Z
?AuxInit@MLSZAU@@AEAAXQEADK@Z
?AuxAppendWTruncate@STRA@@AEAAJPEBGKKH@Z
?AuxAppendW@STRA@@AEAAJPEBGKKH@Z
?AuxAppendA@STRU@@AEAAJPEBEKKH@Z
?AuxAppend@STRU@@AEAAJPEBEKKH@Z
?AuxAppend@STRAU@@AEAAHPEBGIH@Z
?AuxAppend@STRAU@@AEAAHPEBDIH@Z
?AuxAppend@STRA@@AEAAJPEBEKKH@Z
?AuxAppend@STR@@AEAAHPEBEIH@Z
?AuxAppend@MULTISZ@@AEAAHPEBEIH@Z
?ApplyIf@CLKRLinearHashTable@@QEAAKP6A?AW4LK_PREDICATE@@PEBXPEAX@ZP6A?AW4LK_ACTION@@01@Z1W4LK_LOCKTYPE@@@Z
?ApplyIf@CLKRHashTable@@QEAAKP6A?AW4LK_PREDICATE@@PEBXPEAX@ZP6A?AW4LK_ACTION@@01@Z1W4LK_LOCKTYPE@@@Z
?Apply@CLKRLinearHashTable@@QEAAKP6A?AW4LK_ACTION@@PEBXPEAX@Z1W4LK_LOCKTYPE@@@Z
?Apply@CLKRHashTable@@QEAAKP6A?AW4LK_ACTION@@PEBXPEAX@Z1W4LK_LOCKTYPE@@@Z
?AppendWTruncate@STRA@@QEAAJPEBGK@Z
?AppendWTruncate@STRA@@QEAAJPEBG@Z
?AppendW@STRA@@QEAAJPEBGK@Z
?AppendW@STRA@@QEAAJPEBG@Z
?AppendCRLF@STR@@QEAAXXZ
?AppendBuffer@BUFFER_CHAIN@@QEAAHPEAVBUFFER_CHAIN_ITEM@@@Z
?AppendA@STRU@@QEAAJPEBD@Z
?Append@STRU@@QEAAJPEBGK@Z
?Append@STRU@@QEAAJPEBG@Z
?Append@STRU@@QEAAJAEBV1@@Z
?Append@STRAU@@QEAAHPEBGK@Z
?Append@STRAU@@QEAAHPEBG@Z
?Append@STRAU@@QEAAHPEBDK@Z
?Append@STRAU@@QEAAHPEBD@Z
?Append@STRAU@@QEAAHAEAV1@@Z
?Append@STRA@@QEAAJPEBDK@Z
?Append@STRA@@QEAAJPEBD@Z
?Append@STRA@@QEAAJAEBV1@@Z
?Append@STR@@QEAAXDD@Z
?Append@STR@@QEAAXD@Z
?Append@STR@@QEAAHPEBDK@Z
?Append@STR@@QEAAHPEBD@Z
?Append@STR@@QEAAHAEBV1@@Z
?Append@MULTISZ@@QEAAHPEBDK@Z
?Append@MULTISZ@@QEAAHPEBD@Z
?Append@MULTISZ@@QEAAHAEBVSTR@@@Z
?Alloc@ALLOC_CACHE_HANDLER@@QEAAPEAXXZ
?ActiveUsers@CSharelock@@QEAAHXZ
??_FCSharelock@@QEAAXXZ
??_FBUFFER_CHAIN_ITEM@@QEAAXXZ
??_FBUFFER@@QEAAXXZ
??_7W3_DATETIME_CACHE@@6B@
??_7HT_ELEMENT@@6B@
??_7HASH_TABLE@@6B@
??_7EXTLOG_DATETIME_CACHE@@6B@
??_7CACHED_DATETIME_FORMATS@@6B@
??_7ASCLOG_DATETIME_CACHE@@6B@
??9CLKRLinearHashTable_Iterator@@QEBA_NAEBV0@@Z
??9CLKRHashTable_Iterator@@QEBA_NAEBV0@@Z
??8CLKRLinearHashTable_Iterator@@QEBA_NAEBV0@@Z
??8CLKRHashTable_Iterator@@QEBA_NAEBV0@@Z
??4TS_RESOURCE@@QEAAAEAV0@AEBV0@@Z
??4STRU@@AEAAAEAV0@AEBV0@@Z
??4STRAU@@QEAAAEAV0@AEBV0@@Z
??4STRA@@AEAAAEAV0@AEBV0@@Z
??4STR@@QEAAAEAV0@AEBV0@@Z
??4MULTISZ@@QEAAAEAV0@AEBV0@@Z
??4MLSZAU@@QEAAAEAV0@AEBV0@@Z
??4HT_ELEMENT@@QEAAAEAV0@AEBV0@@Z
??4HTB_ELEMENT@@QEAAAEAU0@AEBU0@@Z
??4HASH_TABLE_BUCKET@@QEAAAEAV0@AEBV0@@Z
??4HASH_TABLE@@QEAAAEAV0@AEBV0@@Z
??4EVENT_LOG@@QEAAAEAV0@AEBV0@@Z
??4DATETIME_FORMAT_ENTRY@@QEAAAEAU0@AEBU0@@Z
??4CSpinLock@@QEAAAEAV0@AEBV0@@Z
??4CSmallSpinLock@@QEAAAEAV0@AEBV0@@Z
??4CSingleList@@QEAAAEAV0@AEBV0@@Z
??4CRtlResource@@QEAAAEAV0@AEBV0@@Z
??4CReaderWriterLock@@QEAAAEAV0@AEBV0@@Z
??4CReaderWriterLock3@@QEAAAEAV0@AEBV0@@Z
??4CReaderWriterLock2@@QEAAAEAV0@AEBV0@@Z
??4CLockedSingleList@@QEAAAEAV0@AEBV0@@Z
??4CLockedDoubleList@@QEAAAEAV0@AEBV0@@Z
??4CLKRLinearHashTable_Iterator@@QEAAAEAV0@AEBV0@@Z
??4CLKRHashTable_Iterator@@QEAAAEAV0@AEBV0@@Z
??4CLKRHashTableStats@@QEAAAEAV0@AEBV0@@Z
??4CFakeLock@@QEAAAEAV0@AEBV0@@Z
??4CDoubleList@@QEAAAEAV0@AEBV0@@Z
??4CDateTime@@QEAAAEAV0@AEBV0@@Z
??4CDFTCache@@QEAAAEAV0@AEBV0@@Z
??4CCritSec@@QEAAAEAV0@AEBV0@@Z
??4BUFFER_CHAIN_ITEM@@QEAAAEAV0@AEBV0@@Z
??4BUFFER_CHAIN@@QEAAAEAV0@AEBV0@@Z
??4BUFFER@@QEAAAEAV0@AEBV0@@Z
??4ALLOC_CACHE_HANDLER@@QEAAAEAV0@AEBV0@@Z
??4?$CLockBase@$08$01$00$00$02$01@@QEAAAEAV0@AEBV0@@Z
??4?$CLockBase@$07$01$01$00$02$01@@QEAAAEAV0@AEBV0@@Z
??4?$CLockBase@$06$01$01$00$02$01@@QEAAAEAV0@AEBV0@@Z
??4?$CLockBase@$05$01$00$01$02$02@@QEAAAEAV0@AEBV0@@Z
??4?$CLockBase@$04$01$00$01$02$02@@QEAAAEAV0@AEBV0@@Z
??4?$CLockBase@$03$00$00$01$02$02@@QEAAAEAV0@AEBV0@@Z
??4?$CLockBase@$02$00$00$00$00$00@@QEAAAEAV0@AEBV0@@Z
??4?$CLockBase@$01$00$00$00$02$01@@QEAAAEAV0@AEBV0@@Z
??4?$CLockBase@$00$00$02$00$02$01@@QEAAAEAV0@AEBV0@@Z
??4?$CDataCache@VCDateTime@@@@QEAAAEAV0@AEBV0@@Z
??4?$CDataCache@UDATETIME_FORMAT_ENTRY@@@@QEAAAEAV0@AEBV0@@Z
??3CLKRLinearHashTable@@SAXPEAX@Z
??2CLKRLinearHashTable@@SAPEAX_K@Z
??1W3_DATETIME_CACHE@@UEAA@XZ
??1TS_RESOURCE@@QEAA@XZ
??1STRU@@QEAA@XZ
??1STRAU@@QEAA@XZ
??1STRA@@QEAA@XZ
??1STR@@QEAA@XZ
??1MULTISZ@@QEAA@XZ
??1MLSZAU@@QEAA@XZ
??1HT_ELEMENT@@UEAA@XZ
??1HTB_ELEMENT@@QEAA@XZ
??1HASH_TABLE_BUCKET@@QEAA@XZ
??1HASH_TABLE@@UEAA@XZ
??1EXTLOG_DATETIME_CACHE@@UEAA@XZ
??1EVENT_LOG@@QEAA@XZ
??1CSingleList@@QEAA@XZ
??1CSharelock@@QEAA@XZ
??1CShareLock@@QEAA@XZ
??1CRtlResource@@QEAA@XZ
??1CLockedSingleList@@QEAA@XZ
??1CLockedDoubleList@@QEAA@XZ
??1CLKRLinearHashTable_Iterator@@QEAA@XZ
??1CLKRLinearHashTable@@QEAA@XZ
??1CLKRHashTable_Iterator@@QEAA@XZ
??1CLKRHashTable@@QEAA@XZ
??1CFakeLock@@QEAA@XZ
??1CEtwTracer@@QEAA@XZ
??1CDoubleList@@QEAA@XZ
??1CCritSec@@QEAA@XZ
??1CACHED_DATETIME_FORMATS@@UEAA@XZ
??1BUFFER_CHAIN_ITEM@@QEAA@XZ
??1BUFFER_CHAIN@@QEAA@XZ
??1BUFFER@@QEAA@XZ
??1ASCLOG_DATETIME_CACHE@@UEAA@XZ
??1ALLOC_CACHE_HANDLER@@QEAA@XZ
??0W3_DATETIME_CACHE@@QEAA@XZ
??0TS_RESOURCE@@QEAA@XZ
??0STRU@@QEAA@XZ
??0STRU@@QEAA@PEAGK@Z
??0STRU@@AEAA@PEBG@Z
??0STRU@@AEAA@PEAG@Z
??0STRU@@AEAA@AEBV0@@Z
??0STRAU@@QEAA@XZ
??0STRAU@@QEAA@PEBG@Z
??0STRAU@@QEAA@PEBDH@Z
??0STRAU@@QEAA@PEBD@Z
??0STRAU@@QEAA@AEAV0@@Z
??0STRA@@QEAA@XZ
??0STRA@@QEAA@PEADK@Z
??0STRA@@AEAA@PEBD@Z
??0STRA@@AEAA@PEAD@Z
??0STRA@@AEAA@AEBV0@@Z
??0STR@@QEAA@XZ
??0STR@@QEAA@PEBD@Z
??0STR@@QEAA@PEADKH@Z
??0STR@@QEAA@K@Z
??0STR@@QEAA@AEBV0@@Z
??0MULTISZ@@QEAA@XZ
??0MULTISZ@@QEAA@PEBD@Z
??0MULTISZ@@QEAA@PEADK@Z
??0MULTISZ@@QEAA@AEBV0@@Z
??0MLSZAU@@QEAA@XZ
??0MLSZAU@@QEAA@QEAGK@Z
??0MLSZAU@@QEAA@QEADK@Z
??0MLSZAU@@QEAA@QEADHK@Z
??0MLSZAU@@QEAA@AEAV0@@Z
??0HT_ELEMENT@@QEAA@XZ
??0HT_ELEMENT@@QEAA@AEBV0@@Z
??0HTB_ELEMENT@@QEAA@XZ
??0HASH_TABLE_BUCKET@@QEAA@XZ
??0HASH_TABLE@@QEAA@KPEBDK@Z
??0HASH_TABLE@@QEAA@AEBV0@@Z
??0EXTLOG_DATETIME_CACHE@@QEAA@XZ
??0EVENT_LOG@@QEAA@PEBD@Z
??0CSpinLock@@QEAA@XZ
??0CSmallSpinLock@@QEAA@XZ
??0CSingleList@@QEAA@XZ
??0CSharelock@@QEAA@HH@Z
??0CShareLock@@QEAA@XZ
??0CRtlResource@@QEAA@XZ
??0CReaderWriterLock@@QEAA@XZ
??0CReaderWriterLock3@@QEAA@XZ
??0CReaderWriterLock2@@QEAA@XZ
??0CLockedSingleList@@QEAA@XZ
??0CLockedDoubleList@@QEAA@XZ
??0CLKRLinearHashTable_Iterator@@QEAA@XZ
??0CLKRLinearHashTable_Iterator@@QEAA@AEBV0@@Z
??0CLKRLinearHashTable_Iterator@@IEAA@PEAVCLKRLinearHashTable@@PEAVCNodeClump@@KF@Z
??0CLKRLinearHashTable@@QEAA@PEBDP6A?B_KPEBX@ZP6AK_K@ZP6A_N33@ZP6AX1H@ZNKK_N@Z
??0CLKRLinearHashTable@@AEAA@PEBDP6A?B_KPEBX@ZP6AK_K@ZP6A_N33@ZP6AX1H@ZNKPEAVCLKRHashTable@@_N@Z
??0CLKRHashTable_Iterator@@QEAA@XZ
??0CLKRHashTable_Iterator@@QEAA@AEBV0@@Z
??0CLKRHashTable_Iterator@@IEAA@PEAVCLKRHashTable@@F@Z
??0CLKRHashTableStats@@QEAA@XZ
??0CLKRHashTable@@QEAA@PEBDP6A?B_KPEBX@ZP6AK_K@ZP6A_N33@ZP6AX1H@ZNKK_N@Z
??0CFakeLock@@QEAA@XZ
??0CEtwTracer@@QEAA@XZ
??0CDoubleList@@QEAA@XZ
??0CDateTime@@QEAA@XZ
??0CDateTime@@QEAA@AEBU_SYSTEMTIME@@@Z
??0CDateTime@@QEAA@AEBU_FILETIME@@AEBU_SYSTEMTIME@@@Z
??0CDateTime@@QEAA@AEBU_FILETIME@@@Z
??0CDFTCache@@QEAA@XZ
??0CCritSec@@QEAA@XZ
??0CACHED_DATETIME_FORMATS@@QEAA@XZ
??0BUFFER_CHAIN_ITEM@@QEAA@I@Z
??0BUFFER_CHAIN@@QEAA@XZ
??0BUFFER@@QEAA@PEAEI@Z
??0BUFFER@@QEAA@I@Z
??0ASCLOG_DATETIME_CACHE@@QEAA@XZ
??0ALLOC_CACHE_HANDLER@@QEAA@PEBDPEBU_ALLOC_CACHE_CONFIGURATION@@H@Z
??0?$CDataCache@VCDateTime@@@@QEAA@XZ
??0?$CDataCache@UDATETIME_FORMAT_ENTRY@@@@QEAA@XZ
