LIBRARY IISUI.DLL
EXPORTS
InitCommonDll
DllUnregisterServer
DllRegisterServer
?s_szMasterAppRoot@CMetaBack@@1QEBGEB
?s_rgMetaTable@CMetaKey@@1QBUtagMDFIELDDEF@1@B
?s_cnHeaderOffset@CIISWizardPage@@1HB
?s_cnBoldDeltaWidth@CIISWizardSheet@@1HB
?s_cnBoldDeltaHeight@CIISWizardSheet@@1HB
?s_cnBoldDeltaFont@CIISWizardSheet@@1HB
?s_chEscape@CError@@1GB
?s_chEscText@CError@@1GB
?s_chEscNumber@CError@@1GB
?s_MetaTableSize@CMetaKey@@1HB
?messageMap@CRMCListBoxHeader@@1UAFX_MSGMAP@@B
?messageMap@CRMCListBox@@1UAFX_MSGMAP@@B
?messageMap@CRMCComboBox@@1UAFX_MSGMAP@@B
?messageMap@CInheritanceDlg@@1UAFX_MSGMAP@@B
?messageMap@CIISWizardSheet@@1UAFX_MSGMAP@@B
?messageMap@CIISWizardPage@@1UAFX_MSGMAP@@B
?messageMap@CIISWizardBookEnd@@1UAFX_MSGMAP@@B
?messageMap@CHeaderListBox@@1UAFX_MSGMAP@@B
?messageMap@CEmphasizedDialog@@1UAFX_MSGMAP@@B
?messageMap@CConfirmDlg@@1UAFX_MSGMAP@@B
?dcBitMap@CRMCListBoxResources@@QEBAAEBVCDC@@XZ
?classCRMCListBoxHeader@CRMCListBoxHeader@@2UCRuntimeClass@@B
?classCRMCListBox@CRMCListBox@@2UCRuntimeClass@@B
?classCRMCComboBox@CRMCComboBox@@2UCRuntimeClass@@B
?classCIISWizardSheet@CIISWizardSheet@@2UCRuntimeClass@@B
?classCIISWizardPage@CIISWizardPage@@2UCRuntimeClass@@B
?classCIISWizardBookEnd@CIISWizardBookEnd@@2UCRuntimeClass@@B
?classCHeaderListBox@CHeaderListBox@@2UCRuntimeClass@@B
?classCEmphasizedDialog@CEmphasizedDialog@@2UCRuntimeClass@@B
?_messageEntries@CRMCListBoxHeader@@0QBUAFX_MSGMAP_ENTRY@@B
?_messageEntries@CRMCListBox@@0QBUAFX_MSGMAP_ENTRY@@B
?_messageEntries@CRMCComboBox@@0QBUAFX_MSGMAP_ENTRY@@B
?_messageEntries@CInheritanceDlg@@0QBUAFX_MSGMAP_ENTRY@@B
?_messageEntries@CIISWizardSheet@@0QBUAFX_MSGMAP_ENTRY@@B
?_messageEntries@CIISWizardPage@@0QBUAFX_MSGMAP_ENTRY@@B
?_messageEntries@CIISWizardBookEnd@@0QBUAFX_MSGMAP_ENTRY@@B
?_messageEntries@CHeaderListBox@@0QBUAFX_MSGMAP_ENTRY@@B
?_messageEntries@CEmphasizedDialog@@0QBUAFX_MSGMAP_ENTRY@@B
?_messageEntries@CConfirmDlg@@0QBUAFX_MSGMAP_ENTRY@@B
?_cszSep@CMetabasePath@@1QEBGEB
?_cszRoot@CMetabasePath@@1QEBGEB
?_cszMachine@CMetabasePath@@1QEBGEB
?_chSep@CMetabasePath@@1GB
?__SetItemHeight@CRMCListBox@@UEAAHHI@Z
?__SetItemHeight@CRMCComboBox@@UEAAHHI@Z
?__MeasureItem@CODLBox@@IEAAXPEAUtagMEASUREITEMSTRUCT@@@Z
?__GetCount@CRMCListBox@@UEBAHXZ
?__GetCount@CRMCComboBox@@UEBAHXZ
?__DrawItem@CODLBox@@IEAAXPEAUtagDRAWITEMSTRUCT@@@Z
?_GetBaseMessageMap@CRMCListBoxHeader@@KAPEBUAFX_MSGMAP@@XZ
?_GetBaseMessageMap@CRMCListBox@@KAPEBUAFX_MSGMAP@@XZ
?_GetBaseMessageMap@CRMCComboBox@@KAPEBUAFX_MSGMAP@@XZ
?_GetBaseMessageMap@CInheritanceDlg@@KAPEBUAFX_MSGMAP@@XZ
?_GetBaseMessageMap@CIISWizardSheet@@KAPEBUAFX_MSGMAP@@XZ
?_GetBaseMessageMap@CIISWizardPage@@KAPEBUAFX_MSGMAP@@XZ
?_GetBaseMessageMap@CIISWizardBookEnd@@KAPEBUAFX_MSGMAP@@XZ
?_GetBaseMessageMap@CHeaderListBox@@KAPEBUAFX_MSGMAP@@XZ
?_GetBaseMessageMap@CEmphasizedDialog@@KAPEBUAFX_MSGMAP@@XZ
?_GetBaseMessageMap@CConfirmDlg@@KAPEBUAFX_MSGMAP@@XZ
?_GetBaseClass@CRMCListBoxHeader@@KAPEAUCRuntimeClass@@XZ
?_GetBaseClass@CRMCListBox@@KAPEAUCRuntimeClass@@XZ
?_GetBaseClass@CRMCComboBox@@KAPEAUCRuntimeClass@@XZ
?_GetBaseClass@CIISWizardSheet@@KAPEAUCRuntimeClass@@XZ
?_GetBaseClass@CIISWizardPage@@KAPEAUCRuntimeClass@@XZ
?_GetBaseClass@CIISWizardBookEnd@@KAPEAUCRuntimeClass@@XZ
?_GetBaseClass@CHeaderListBox@@KAPEAUCRuntimeClass@@XZ
?_GetBaseClass@CEmphasizedDialog@@KAPEAUCRuntimeClass@@XZ
?WritePoolId@CIISApplication@@QEAAJPEBG@Z
?WriteFriendlyName@CIISApplication@@QEAAJPEBG@Z
?WinHelpW@CIISWizardSheet@@MEAAXKI@Z
?Win32Error@CError@@SAKJ@Z
?Win32Error@CError@@QEBAKXZ
?VerifyUserPassword@CComAuthInfo@@SAKPEBG0@Z
?VerifyState@@YAHXZ
?ValidateString@CIISWizardPage@@QEAAHAEAVCEdit@@AEAVCString@@HH@Z
?UsesImpersonation@CComAuthInfo@@QEBAHXZ
?UseUserDefault@CINumber@@SAHXZ
?UseSystemDefault@CINumber@@SAHXZ
?UseStretch@CRMCListBoxHeader@@IEBAHXZ
?UseButtons@CRMCListBoxHeader@@IEBAHXZ
?UnregisterFacility@CError@@SAXK@Z
?UnprepareBitmaps@CRMCListBoxResources@@IEAAXXZ
?Unload@CIISApplication@@QEAAJH@Z
?UnixToPCText@@YAHAEAVCString@@PEBG@Z
?TruncatePath@CMetabasePath@@SAPEBGHPEBGAEAVCString@@PEAV2@@Z
?TextHeight@CODLBox@@QEBAHXZ
?TextFromHRESULTExpand@CError@@QEBAPEBGPEAGKPEAJ@Z
?TextFromHRESULTExpand@CError@@QEBAPEBGAEAVCString@@@Z
?TextFromHRESULT@CError@@QEBAJPEAGK@Z
?TextFromHRESULT@CError@@QEBAJAEAVCString@@@Z
?SysColorChanged@CRMCListBoxResources@@QEAAXXZ
?SupportsSecurityACLs@@YAHPEBG@Z
?SupportsPooledProc@CWamInterface@@QEBAHXZ
?Succeeded@CMetaKey@@UEBAHXZ
?Succeeded@CMetaBack@@UEBAHXZ
?Succeeded@CIISInterface@@UEBAHXZ
?Succeeded@CIISApplication@@UEBAHXZ
?Succeeded@CIISAppPool@@UEBAHXZ
?Succeeded@CError@@SAHJ@Z
?Succeeded@CError@@QEBAHXZ
?StringToLong@CIPAddress@@SAKPEBGH@Z
?StringToLong@CIPAddress@@SAKAEBVCString@@@Z
?StringToLong@CIPAddress@@SAKAEBVCComBSTR@ATL@@@Z
?StorePassword@CComAuthInfo@@QEAAXPEBG@Z
?Stop@CIISSvcControl@@QEAAJKH@Z
?Status@CIISSvcControl@@QEAAJKPEAEPEAK1@Z
?Start@CIISSvcControl@@QEAAJK@Z
?SplitUserNameAndDomain@CComAuthInfo@@SAHAEAVCString@@0@Z
?SplitMetaPathAtInstance@CMetabasePath@@SAXPEBGAEAVCString@@1@Z
?SortHelper@CObListPlus@@KAHPEBX0@Z
?Sort@CObListPlus@@QEAAKP8CObjectPlus@@EBAHPEBV2@@Z@Z
?ShowWindow@CHeaderListBox@@QEAAHH@Z
?SetZeroValue@CIPAddress@@QEAAXXZ
?SetWizardButtons@CIISWizardPage@@IEAAXK@Z
?SetWidthsFromReg@CHeaderListBox@@IEAAHXZ
?SetValues@CIPAccessDescriptor@@QEAAXHPEBG@Z
?SetValues@CIPAccessDescriptor@@QEAAXHKKH@Z
?SetValue@CMetaKey@@QEAAJKKPEAHPEBG@Z
?SetValue@CMetaKey@@QEAAJKHPEAHPEBG@Z
?SetValue@CMetaKey@@QEAAJKAEAVCStringListEx@@PEAHPEBG@Z
?SetValue@CMetaKey@@QEAAJKAEAVCString@@PEAHPEBG@Z
?SetValue@CMetaKey@@QEAAJKAEAVCStrPassword@@PEAHPEBG@Z
?SetValue@CMetaKey@@QEAAJKAEAVCBlob@@PEAHPEBG@Z
?SetValue@CBlob@@QEAAXKPEAEH@Z
?SetTabsFromHeader@CRMCListBoxHeader@@IEAAXXZ
?SetTab@CODLBox@@QEAAXHI@Z
?SetReference@CConfirmDlg@@QEAAXAEAVCString@@@Z
?SetPropertyValue@CMetaKey@@IEAAJKKPEAXPEAHPEBG@Z
?SetPosition@CObListIter@@QEAAXPEAU__POSITION@@@Z
?SetOwnership@CObListPlus@@QEAAHH@Z
?SetLastWinError@CError@@QEBAXXZ
?SetLastChangeTime@CMetaInterface@@IEAAJKPEBGPEAU_FILETIME@@H@Z
?SetItem@CRMCListBoxHeader@@QEAAHHPEAU_HD_ITEMW@@@Z
?SetImpersonation@CComAuthInfo@@QEAAXPEBG0@Z
?SetHeaderItem@CHeaderListBox@@IEAAHHPEAU_HD_ITEMW@@@Z
?SetDirty@CObjHelper@@QEAAXH@Z
?SetData@CMetaInterface@@IEAAJKPEBGPEAU_METADATA_RECORD@@@Z
?SetCurSel@CRMCListBox@@QEAAHH@Z
?SetComputerNameW@CComAuthInfo@@IEAAXPEBG@Z
?SetColumnWidth@CRMCListBoxHeader@@QEAAXHH@Z
?SetColumnWidth@CHeaderListBox@@QEAAHHH@Z
?SetApiErr@CObjHelper@@QEAAJJ@Z
?SetAll@CObListPlus@@QEAAHH@Z
?SelectItem@CRMCListBox@@QEAAHPEAX@Z
?SaveData@CMetaInterface@@QEAAJXZ
?RestoreWithPassword@CMetaInterface@@IEAAJPEBGKK0@Z
?RestoreWithPassword@CMetaBack@@QEAAJPEBGK0@Z
?RestoreHistoryBackup@CMetaBack@@QEAAJPEBGKKK@Z
?RestoreHistory@CMetaInterface@@IEAAJPEBGKKK@Z
?Restore@CMetaInterface@@IEAAJPEBGKK@Z
?Restore@CMetaBack@@QEAAJPEBGK@Z
?RespondToColumnWidthChanges@CRMCListBoxHeader@@QEAAXH@Z
?ResolveSID@CAccessEntry@@QEAAHXZ
?ResetErrors@CObjHelper@@QEAAXXZ
?Reset@CObListIter@@QEAAXXZ
?Reset@CMetaEnumerator@@QEAAXXZ
?Reset@CMetaBack@@QEAAXXZ
?Reset@CError@@QEAAXXZ
?ReportError@CObjHelper@@QEAAXJ@Z
?ReplaceStringInString@@YAKAEAVCString@@00H@Z
?RenameKey@CMetaKey@@QEAAJPEBG0@Z
?RenameKey@CMetaInterface@@IEAAJKPEBG0@Z
?RemoveTab@CODLBox@@QEAAXHH@Z
?RemovePermissions@CAccessEntry@@QEAAXK@Z
?RemoveOverride@CError@@QEAAXJ@Z
?RemoveIndex@CObListPlus@@QEAAHH@Z
?RemoveImpersonation@CComAuthInfo@@QEAAXXZ
?RemoveAt@CObListPlus@@QEAAXAEAPEAU__POSITION@@@Z
?RemoveAllTabs@CODLBox@@QEAAXXZ
?RemoveAllOverrides@CError@@QEAAXXZ
?RemoveAll@CObListPlus@@QEAAXXZ
?Remove@CObListPlus@@QEAAHPEAVCObject@@@Z
?RegisterFacility@CError@@SAXKPEBD@Z
?Regenerate@CMetaInterface@@QEAAJXZ
?RefreshState@CIISAppPool@@QEAAJXZ
?RefreshAppState@CIISApplication@@QEAAJXZ
?RecycleApplicationPool@CWamInterface@@IEAAJPEBG@Z
?Recycle@CIISAppPool@@QEAAJPEBG@Z
?Recover@CIISApplication@@QEAAJH@Z
?Reboot@CIISSvcControl@@QEAAJKH@Z
?ReOpen@CMetaKey@@QEAAJXZ
?ReOpen@CMetaKey@@QEAAJK@Z
?QueryWindowTextColor@CIISWizardSheet@@QEBAKXZ
?QueryWindowTextColor@CIISWizardPage@@IEBAKXZ
?QueryWindowColor@CIISWizardSheet@@QEBAKXZ
?QueryWindowColor@CIISWizardPage@@IEBAKXZ
?QueryWamPath@CIISApplication@@QEBAPEBGXZ
?QueryWamPath@CIISAppPool@@QEBAPEBGXZ
?QueryValue@CMetaKey@@QEAAJKAEAVCStringListEx@@PEAHPEBGPEAK@Z
?QueryValue@CMetaKey@@QEAAJKAEAVCString@@PEAHPEBGPEAK@Z
?QueryValue@CMetaKey@@QEAAJKAEAVCStrPassword@@PEAHPEBGPEAK@Z
?QueryValue@CMetaKey@@QEAAJKAEAVCComBSTR@ATL@@PEAHPEBGPEAK@Z
?QueryValue@CMetaKey@@QEAAJKAEAVCBlob@@PEAHPEBGPEAK@Z
?QueryValue@CMetaKey@@QEAAJKAEAKPEAHPEBGPEAK@Z
?QueryValue@CMetaKey@@QEAAJKAEAHPEAHPEBGPEAK@Z
?QueryUserName@CComAuthInfo@@QEBAPEAGXZ
?QueryUserName@CAccessEntry@@QEBAPEBGXZ
?QueryThousandSeparator@CINumber@@SAPEBGXZ
?QuerySubnetMask@CIPAccessDescriptor@@QEBAKH@Z
?QuerySubnetMask@CIPAccessDescriptor@@QEBA?AVCIPAddress@@XZ
?QueryServerName@CIISInterface@@QEBAPEBGXZ
?QueryServerName@CComAuthInfo@@QEBAPEAGXZ
?QueryResult@CMetaKey@@UEBAJXZ
?QueryResult@CMetaBack@@UEBAJXZ
?QueryResult@CIISInterface@@UEBAJXZ
?QueryResult@CIISApplication@@UEBAJXZ
?QueryResult@CIISAppPool@@UEBAJXZ
?QueryPosition@CObListIter@@QEBAPEAU__POSITION@@XZ
?QueryPoolState@CIISAppPool@@QEBAKXZ
?QueryPictureID@CAccessEntry@@QEBAHXZ
?QueryPassword@CComAuthInfo@@QEBAPEAGXZ
?QueryNumColumns@CRMCListBoxHeader@@QEBAHXZ
?QueryNumColumns@CHeaderListBox@@QEBAHXZ
?QueryNetworkOrderIPAddress@CIPAddress@@QEBAKXZ
?QueryMetaPath@CMetabasePath@@QEBAPEBGXZ
?QueryMetaPath@CMetaKey@@QEBAPEBGXZ
?QueryIPAddress@CIPAddress@@QEBAPEBGAEAVCString@@@Z
?QueryIPAddress@CIPAddress@@QEBAPEBGAEAVCComBSTR@ATL@@@Z
?QueryIPAddress@CIPAddress@@QEBAKH@Z
?QueryIPAddress@CIPAccessDescriptor@@QEBAKH@Z
?QueryIPAddress@CIPAccessDescriptor@@QEBA?AVCIPAddress@@XZ
?QueryHostOrderIPAddress@CIPAddress@@QEBAKXZ
?QueryFlags@CMetaKey@@QEBAKXZ
?QueryError@CObjHelper@@QEBAJXZ
?QueryDomainName@CIPAccessDescriptor@@QEBAPEBGXZ
?QueryDecimalPoint@CINumber@@SAPEBGXZ
?QueryCurrency@CINumber@@SAPEBGXZ
?QueryCreationTime@CObjHelper@@QEBAKXZ
?QueryColumnWidth@CHeaderListBox@@QEBAHH@Z
?QueryBitmapWidth@CIISWizardSheet@@QEBAJH@Z
?QueryBitmapWidth@CIISWizardPage@@IEBAJXZ
?QueryBitmapHeight@CIISWizardSheet@@QEBAJH@Z
?QueryBitmapHeight@CIISWizardPage@@IEBAJXZ
?QueryAuthInfo@CIISInterface@@QEAAPEAVCComAuthInfo@@XZ
?QueryAppState@CIISApplication@@QEBAKXZ
?QueryApiErr@CObjHelper@@QEBAJXZ
?QueryAge@CObjHelper@@QEBAKXZ
?QueryAccessMask@CAccessEntry@@QEBAKXZ
?ProcessSelectedObjects@CGetUsers@@IEAAXPEAUIDataObject@@@Z
?ProcessSelectedObjects@CGetComputer@@IEAAXPEAUIDataObject@@@Z
?PrepareBitmaps@CRMCListBoxResources@@IEAAXXZ
?PopulateComboWithKnownIpAddresses@@YAKPEBGAEAVCComboBox@@AEAVCIPAddress@@AEAVCObListPlus@@AEAH@Z
?PathIsValid@@YAHPEBGH@Z
?PCToUnixText@@YAHAEAPEAGVCString@@@Z
?OrderByAddress@CIPAccessDescriptor@@QEBAHPEBVCObjectPlus@@@Z
?OpenKey@CMetaInterface@@IEAAJKPEBGKPEAK@Z
?Open@CMetaKey@@QEAAJKPEBGK@Z
?OnSetFocus@CRMCListBoxHeader@@IEAAXPEAVCWnd@@@Z
?OnSetActive@CIISWizardBookEnd@@UEAAHXZ
?OnOK@CInheritanceDlg@@MEAAXXZ
?OnInitDialog@CInheritanceDlg@@MEAAHXZ
?OnInitDialog@CIISWizardSheet@@MEAAHXZ
?OnInitDialog@CIISWizardPage@@MEAAHXZ
?OnInitDialog@CIISWizardBookEnd@@MEAAHXZ
?OnInitDialog@CEmphasizedDialog@@MEAAHXZ
?OnHelp@CInheritanceDlg@@IEAAXXZ
?OnHeaderItemClick@CRMCListBoxHeader@@IEAAXIPEAUtagNMHDR@@PEA_J@Z
?OnHeaderItemChanged@CRMCListBoxHeader@@IEAAXIPEAUtagNMHDR@@PEA_J@Z
?OnHeaderEndTrack@CRMCListBoxHeader@@IEAAXIPEAUtagNMHDR@@PEA_J@Z
?OnEraseBkgnd@CIISWizardPage@@IEAAHPEAVCDC@@@Z
?OnDestroy@CRMCListBoxHeader@@IEAAXXZ
?OnDestroy@CIISWizardSheet@@IEAAXXZ
?OnDestroy@CHeaderListBox@@IEAAXXZ
?OnDestroy@CEmphasizedDialog@@IEAAXXZ
?OnCtlColor@CIISWizardPage@@IEAAPEAUHBRUSH__@@PEAVCDC@@PEAVCWnd@@I@Z
?OnCreate@CRMCListBox@@IEAAHPEAUtagCREATESTRUCTW@@@Z
?OnCreate@CRMCComboBox@@IEAAHPEAUtagCREATESTRUCTW@@@Z
?OnCreate@CHeaderListBox@@IEAAHPEAUtagCREATESTRUCTW@@@Z
?OnButtonSelectAll@CInheritanceDlg@@IEAAXXZ
?NumTabs@CODLBox@@QEBAHXZ
?NextHistory@CMetaBack@@QEAAJPEAK0PEAGPEAU_FILETIME@@@Z
?Next@CObListIter@@QEAAPEAVCObject@@XZ
?Next@CMetaEnumerator@@QEAAJAEAVCString@@PEBG@Z
?Next@CMetaEnumerator@@QEAAJAEAKAEAVCString@@PEBG@Z
?Next@CMetaBack@@QEAAJPEAKPEAGPEAU_FILETIME@@@Z
?MyValidatePath@@YAJPEBGHHKK@Z
?MyGetHostName@@YAKKAEAVCString@@@Z
?MessageBoxW@CError@@QEBAHPEAUHWND__@@II@Z
?MessageBoxOnFailure@CError@@QEBAHPEAUHWND__@@II@Z
?MessageBoxFormat@CError@@QEBAHPEAUHWND__@@IIIZZ
?MeasureItem@CRMCListBox@@MEAAXPEAUtagMEASUREITEMSTRUCT@@@Z
?MeasureItem@CRMCComboBox@@MEAAXPEAUtagMEASUREITEMSTRUCT@@@Z
?MarkEntryAsNew@CAccessEntry@@QEAAXXZ
?MarkEntryAsClean@CAccessEntry@@QEAAXXZ
?MarkEntryAsChanged@CAccessEntry@@QEAAXXZ
?MapMDIDToTableIndex@CMetaKey@@SAHK@Z
?MakeUNCPath@@YAPEBGAEAVCString@@PEBG1@Z
?LookupAccountSidW@CAccessEntry@@SAHAEAVCString@@AEAHPEAXPEBG@Z
?LooksLikeIPAddress@@YAHPEBG@Z
?LongToString@CIPAddress@@SAPEBGKAEAVCString@@@Z
?LongToString@CIPAddress@@SAPEBGKAEAVCComBSTR@ATL@@@Z
?LongToString@CIPAddress@@SAPEAGKPEAGH@Z
?LoadMappedBitmaps@CMappedBitmapButton@@IEAAHIIII@Z
?LimitInputPath@@YAJPEAUHWND__@@H@Z
?LimitInputDomainName@@YAJPEAUHWND__@@@Z
?Kill@CIISSvcControl@@QEAAJXZ
?IsZeroValue@CIPAddress@@QEBAHXZ
?IsWizard97@CIISWizardSheet@@QEBAHXZ
?IsWizard97@CIISWizardPage@@IEBAHXZ
?IsWelcomePage@CIISWizardBookEnd@@IEBAHXZ
?IsVisible@CAccessEntry@@QEBAHXZ
?IsValidHostHeader@@YAJPEBG@Z
?IsValid@CObjHelper@@UEBAHXZ
?IsURLName@@YAHAEBVCString@@@Z
?IsUNCName@@YAHAEBVCString@@@Z
?IsSpecialPath@@YAHAEBVCString@@HH@Z
?IsSingle@CIPAccessDescriptor@@QEBAHXZ
?IsServerLocal@@YAHPEBG@Z
?IsSIDResolved@CAccessEntry@@QEBAHXZ
?IsRestrictedFilename@@YAHAEBVCString@@@Z
?IsPropertyInheritable@CMetaKey@@SAHK@Z
?IsPooledProc@CIISApplication@@QEBAHXZ
?IsOutOfProc@CIISApplication@@QEBAHXZ
?IsOpen@CMetaKey@@QEBAHXZ
?IsNetworkPath@@YAHAEBVCString@@PEAV1@1@Z
?IsMultiple@CIPAccessDescriptor@@QEBAHXZ
?IsMultiSelect@CRMCListBox@@IEBAHXZ
?IsMasterInstance@CMetabasePath@@SAHPEBG@Z
?IsLocalComputer@@YAHPEBG@Z
?IsLocal@CIISInterface@@QEBAHXZ
?IsLocal@CComAuthInfo@@QEBAHXZ
?IsInproc@CIISApplication@@QEBAHXZ
?IsInitialized@CINumber@@SAHXZ
?IsHomeDirectoryPath@CMetabasePath@@SAHPEBG@Z
?IsHomeDirectoryPath@CMetabasePath@@QEBAHXZ
?IsHomeDirectoryPath@CMetaKey@@QEBAHXZ
?IsHeaderPage@CIISWizardPage@@IEBAHXZ
?IsFullyQualifiedPath@@YAHAEBVCString@@@Z
?IsEnabledApplication@CIISApplication@@QEBAHXZ
?IsEmpty@CStrPassword@@QEBAHXZ
?IsEmpty@CInheritanceDlg@@QEBAHXZ
?IsEmpty@CBlob@@QEBAHXZ
?IsDomainName@CIPAccessDescriptor@@QEBAHXZ
?IsDirty@CObjHelper@@QEBAHXZ
?IsDirty@CAccessEntry@@QEBAHXZ
?IsDevicePath@@YAHAEBVCString@@@Z
?IsDeleted@CAccessEntry@@QEBAHXZ
?IsDeletable@CAccessEntry@@QEBAHXZ
?IsBiDiLocalizedSystem@@YAHXZ
?IsBadValue@CIPAddress@@QEBAHXZ
?IsAllocated@CINumber@@KAHXZ
?IsAllNumHostHeader@@YAJPEBG@Z
?InvalidateSelection@CRMCListBox@@QEAAXH@Z
?InsertTab@CODLBox@@QEAAXHI@Z
?InsertItem@CRMCListBoxHeader@@QEAAHHPEAU_HD_ITEMW@@@Z
?InsertHeaderItem@CHeaderListBox@@IEAAHHPEAU_HD_ITEMW@@@Z
?InsertColumn@CHeaderListBox@@IEAAHHHIPEAUHINSTANCE__@@@Z
?Initialize@CRMCListBox@@UEAAHXZ
?Initialize@CRMCComboBox@@UEAAHXZ
?Initialize@CODLBox@@MEAAHXZ
?Initialize@CInheritanceDlg@@IEAAXXZ
?Initialize@CINumber@@SAHH@Z
?Initialize@CHeaderListBox@@UEAAHXZ
?Index@CObListPlus@@QEAAPEAVCObject@@H@Z
?HasSomeAccess@CAccessEntry@@QEBAHXZ
?HasOverride@CError@@IEBAHPEAI@Z
?HasInterface@CWamInterface@@IEBAHXZ
?HasInterface@CMetaInterface@@IEBAHXZ
?HasInterface@CIISSvcControl@@IEBAHXZ
?HasAppropriateAccess@CAccessEntry@@QEBAHK@Z
?HasAccess@CIPAccessDescriptor@@QEBAHXZ
?HResult@CError@@SAJJ@Z
?HResult@CError@@QEBAJXZ
?GrantAccess@CIPAccessDescriptor@@QEAAXH@Z
?GetWindowBrush@CIISWizardSheet@@QEAAPEAVCBrush@@XZ
?GetWindowBrush@CIISWizardPage@@IEAAPEAVCBrush@@XZ
?GetVolumeInformationSystemFlags@@YAHPEBGPEAK@Z
?GetUsers@CGetUsers@@QEAAHPEAUHWND__@@H@Z
?GetTab@CODLBox@@QEBAIH@Z
?GetSystemChangeNumber@CMetaInterface@@QEAAJPEAK@Z
?GetSysColors@CRMCListBoxResources@@IEAAXXZ
?GetSpecialPathRealPath@@YAHHAEBVCString@@AEAV1@@Z
?GetSpecialFont@CIISWizardSheet@@QEAAPEAVCFont@@H@Z
?GetSpecialFont@CIISWizardPage@@IEAAPEAVCFont@@XZ
?GetSize@CBlob@@QEBAKXZ
?GetSid@CAccessEntry@@QEAAPEAXXZ
?GetSheet@CIISWizardPage@@IEBAPEAVCIISWizardSheet@@XZ
?GetServicePath@CMetabasePath@@SAPEBGPEBGAEAVCString@@PEAV2@@Z
?GetServiceInfoPath@CMetabasePath@@SAPEBGPEBGAEAVCString@@0@Z
?GetSelectedListItem@CRMCListBox@@QEAAPEAXPEAH@Z
?GetSelCount@CRMCListBox@@QEBAHXZ
?GetSel@CRMCListBox@@QEBAHH@Z
?GetRuntimeClass@CRMCListBoxHeader@@UEBAPEAUCRuntimeClass@@XZ
?GetRuntimeClass@CRMCListBox@@UEBAPEAUCRuntimeClass@@XZ
?GetRuntimeClass@CRMCComboBox@@UEBAPEAUCRuntimeClass@@XZ
?GetRuntimeClass@CIISWizardSheet@@UEBAPEAUCRuntimeClass@@XZ
?GetRuntimeClass@CIISWizardPage@@UEBAPEAUCRuntimeClass@@XZ
?GetRuntimeClass@CIISWizardBookEnd@@UEBAPEAUCRuntimeClass@@XZ
?GetRuntimeClass@CHeaderListBox@@UEBAPEAUCRuntimeClass@@XZ
?GetRuntimeClass@CEmphasizedDialog@@UEBAPEAUCRuntimeClass@@XZ
?GetRootPath@CMetabasePath@@SAPEBGPEBGAEAVCString@@PEAV2@@Z
?GetRequiredWidth@CODLBox@@KAHPEAVCDC@@AEBVCRect@@PEBGH@Z
?GetPropertyValue@CMetaKey@@IEAAJKAEAKAEAPEAXPEAKPEAHPEBG2@Z
?GetPropertyDescription@CMetaKey@@SAHKAEAVCString@@@Z
?GetProcessMode@CWamInterface@@IEAAJPEAK@Z
?GetProcessMode@CIISAppPool@@QEAAJPEAK@Z
?GetPassword@CConfirmDlg@@QEAAAEAVCString@@XZ
?GetNextSelectedItem@CRMCListBox@@QEAAPEAXPEAH@Z
?GetMetaProp@CMetaKey@@SAPEBUtagMDFIELDDEF@1@K@Z
?GetMessageMap@CRMCListBoxHeader@@MEBAPEBUAFX_MSGMAP@@XZ
?GetMessageMap@CRMCListBox@@MEBAPEBUAFX_MSGMAP@@XZ
?GetMessageMap@CRMCComboBox@@MEBAPEBUAFX_MSGMAP@@XZ
?GetMessageMap@CInheritanceDlg@@MEBAPEBUAFX_MSGMAP@@XZ
?GetMessageMap@CIISWizardSheet@@MEBAPEBUAFX_MSGMAP@@XZ
?GetMessageMap@CIISWizardPage@@MEBAPEBUAFX_MSGMAP@@XZ
?GetMessageMap@CIISWizardBookEnd@@MEBAPEBUAFX_MSGMAP@@XZ
?GetMessageMap@CHeaderListBox@@MEBAPEBUAFX_MSGMAP@@XZ
?GetMessageMap@CEmphasizedDialog@@MEBAPEBUAFX_MSGMAP@@XZ
?GetMessageMap@CConfirmDlg@@MEBAPEBUAFX_MSGMAP@@XZ
?GetMachinePath@CMetabasePath@@SAPEBGPEBGAEAVCString@@PEAV2@@Z
?GetMDFieldDef@CMetaKey@@SAHKAEAK000@Z
?GetLength@CStrPassword@@QEBAHXZ
?GetLastWinError@CError@@QEAAXXZ
?GetLastNodeName@CMetabasePath@@SAPEBGPEBGAEAVCString@@@Z
?GetLastChangeTime@CMetaInterface@@IEAAJKPEBGPEAU_FILETIME@@H@Z
?GetItemCount@CRMCListBoxHeader@@QEBAHXZ
?GetItem@CRMCListBoxHeader@@QEBAHHPEAU_HD_ITEMW@@@Z
?GetInterface@CMetaInterface@@QEAAPEAUIMSAdminBaseW@@XZ
?GetInstancePath@CMetabasePath@@SAPEBGPEBGAEAVCString@@PEAV2@@Z
?GetInstanceNumber@CMetabasePath@@SAKPEBG@Z
?GetIUsrAccount@@YAHPEBGPEAVCWnd@@PEAGH@Z
?GetIUsrAccount@@YAHPEBGPEAVCWnd@@AEAVCString@@@Z
?GetHeaderItemCount@CHeaderListBox@@IEBAHXZ
?GetHeaderItem@CHeaderListBox@@IEBAHHPEAU_HD_ITEMW@@@Z
?GetHeader@CHeaderListBox@@IEAAPEAVCRMCListBoxHeader@@XZ
?GetHandle@CMetaKey@@QEBAKXZ
?GetFullPathLocalOrRemote@@YAXPEBG0AEAVCString@@@Z
?GetFullPath@CDirBrowseDlg@@QEBAPEBGAEAVCString@@H@Z
?GetDlgCtlRect@@YAXPEAUHWND__@@0PEAUtagRECT@@@Z
?GetDataPaths@CMetaKey@@QEAAJAEAVCStringListEx@@KKPEBG@Z
?GetDataPaths@CMetaInterface@@IEAAJKPEBGKKKPEAGPEAK@Z
?GetDataPaths@CInheritanceDlg@@IEAAJXZ
?GetData@CMetaInterface@@IEAAJKPEBGPEAU_METADATA_RECORD@@PEAK@Z
?GetData@CBlob@@QEAAPEAEXZ
?GetCurSel@CRMCListBox@@QEBAHXZ
?GetComputer@CGetComputer@@QEAAHPEAUHWND__@@@Z
?GetColumnWidth@CRMCListBoxHeader@@QEBAHH@Z
?GetClearTextPassword@CStrPassword@@QEAAPEAGXZ
?GetChildPaths@CMetaKey@@QEAAJAEAVCStringListEx@@PEBG@Z
?GetChildPaths@CMetaInterface@@IEAAJKPEBGKPEAGPEAK@Z
?GetByteLength@CStrPassword@@QEBAHXZ
?GetBoldFont@CIISWizardSheet@@QEAAPEAVCFont@@XZ
?GetBoldFont@CIISWizardPage@@IEAAPEAVCFont@@XZ
?GetBitmapMemDC@CIISWizardSheet@@QEAAPEAVCDC@@H@Z
?GetBitmapMemDC@CIISWizardPage@@IEAAPEAVCDC@@XZ
?GetBigFont@CIISWizardSheet@@QEAAPEAVCFont@@XZ
?GetBigFont@CIISWizardPage@@IEAAPEAVCFont@@XZ
?GetBase@CMetaKey@@QEBAKXZ
?GetBackgroundBrush@CIISWizardSheet@@QEBAPEAUHBRUSH__@@XZ
?GetBackgroundBrush@CIISWizardPage@@IEBAPEAUHBRUSH__@@XZ
?GetAppAdminInterface@CWamInterface@@QEAAJPEAPEAUIIISApplicationAdmin@@@Z
?GetAllData@CMetaKey@@IEAAJKKKPEAK0PEAPEAEPEBG@Z
?GetAllData@CMetaInterface@@IEAAJKPEBGKKKPEAK1KPEAE1@Z
?GetAdminInterface3@CMetaInterface@@QEAAJPEAPEAUIMSAdminBase3W@@@Z
?GetAdminInterface2@CMetaInterface@@QEAAJPEAPEAUIMSAdminBase2W@@@Z
?GenerateRegistryKey@@YAPEBGAEAVCString@@PEBG@Z
?GUIDToCString@@YAPEBGAEBU_GUID@@AEAVCString@@@Z
?FriendlyInstance@CInheritanceDlg@@IEAAHAEAVCString@@0@Z
?FreeServerInfoStruct@CComAuthInfo@@QEBAXPEAU_COSERVERINFO@@@Z
?FlagForDeletion@CAccessEntry@@QEAAXH@Z
?FitPathToControl@@YAXAEAVCWnd@@PEBGH@Z
?FindFacility@CError@@KAPEBGK@Z
?FindElement@CObListPlus@@QEBAHPEAVCObject@@@Z
?FetchIpAddressFromCombo@@YAHAEAVCComboBox@@AEAVCObListPlus@@AEAVCIPAddress@@@Z
?Failed@CError@@SAHJ@Z
?Failed@CError@@QEBAHXZ
?ExpandEscapeCode@CError@@IEBAHPEAGKAEAPEAGAEAVCString@@AEAJ@Z
?EnumerateApplicationsInPool@CWamInterface@@IEAAJPEBGPEAPEAG@Z
?EnumerateApplications@CIISAppPool@@QEAAJAEAVCStringListEx@@@Z
?EnumKeys@CMetaInterface@@IEAAJKPEBGPEAGK@Z
?EnumHistory@CMetaInterface@@IEAAJPEAGPEAK1PEAU_FILETIME@@K@Z
?EnumData@CMetaInterface@@IEAAJKPEBGPEAU_METADATA_RECORD@@KPEAK@Z
?EnumBackups@CMetaInterface@@IEAAJPEAGPEAKPEAU_FILETIME@@K@Z
?EnableWindow@CHeaderListBox@@QEAAHH@Z
?EnableSheetButton@CIISWizardPage@@IEAAXHH@Z
?EnableButton@CIISWizardSheet@@QEAAXHH@Z
?Empty@CStrPassword@@QEAAXXZ
?EditShowBalloon@@YAXPEAUHWND__@@VCString@@@Z
?EditShowBalloon@@YAXPEAUHWND__@@I@Z
?EditHideBalloon@@YAXXZ
?DuplicateInList@CIPAccessDescriptor@@QEAAHAEAVCObListPlus@@@Z
?DrawItemEx@CRMCListBox@@MEAAXAEAVCRMCListBoxDrawStruct@@@Z
?DrawItemEx@CRMCComboBox@@MEAAXAEAVCRMCListBoxDrawStruct@@@Z
?DrawItem@CRMCListBox@@MEAAXPEAUtagDRAWITEMSTRUCT@@@Z
?DrawItem@CRMCComboBox@@MEAAXPEAUtagDRAWITEMSTRUCT@@@Z
?DrawBitmap@CODLBox@@IEAAHAEAVCRMCListBoxDrawStruct@@HH@Z
?DoesUNCShareExist@@YAHAEAVCString@@@Z
?DoesRespondToColumnWidthChanges@CRMCListBoxHeader@@QEBAHXZ
?DoesPathExist@CMetaKey@@QEAAJPEBG@Z
?DoModal@CInheritanceDlg@@UEAA_JXZ
?DoModal@CDirBrowseDlg@@UEAAHXZ
?DoDataExchange@CInheritanceDlg@@MEAAXPEAVCDataExchange@@@Z
?DoDataExchange@CConfirmDlg@@MEAAXPEAVCDataExchange@@@Z
?DistributeColumns@CHeaderListBox@@IEAAXXZ
?DestroyClearTextPassword@CStrPassword@@QEBAXPEAG@Z
?DeleteValue@CMetaKey@@QEAAJKPEBG@Z
?DeleteRecoverable@CIISApplication@@QEAAJH@Z
?DeleteKey@CMetaKey@@QEAAJPEBG@Z
?DeleteKey@CMetaInterface@@IEAAJKPEBG@Z
?DeleteItem@CRMCListBoxHeader@@QEAAHH@Z
?DeleteHeaderItem@CHeaderListBox@@IEAAHH@Z
?DeleteData@CMetaInterface@@IEAAJKPEBGKK@Z
?DeleteChildKeys@CMetaInterface@@IEAAJKPEBG@Z
?DeleteBackup@CMetaInterface@@IEAAJPEBGK@Z
?DeleteApplicationPool@CWamInterface@@IEAAJPEBG@Z
?DeleteApplication@CWamInterface@@IEAAJPEBGH@Z
?DeleteAllData@CMetaInterface@@IEAAJKPEBGKK@Z
?Delete@CMetaBack@@QEAAJPEBGK@Z
?Delete@CIISApplication@@QEAAJH@Z
?Delete@CIISAppPool@@QEAAJPEBG@Z
?DeflateEnvironmentVariablePath@@YAKPEBGAEAVCString@@@Z
?DeAllocateStatics@CError@@KAXXZ
?DeAllocate@CINumber@@KAXXZ
?DWORDtoLPBYTE@CIPAddress@@SAPEAEKPEAE@Z
?DDX_Text_SecuredString@@YAXPEAVCDataExchange@@HAEAVCStrPassword@@@Z
?DDX_TextBalloon@@YAXPEAVCDataExchange@@HAEA_K@Z
?DDX_TextBalloon@@YAXPEAVCDataExchange@@HAEA_J@Z
?DDX_TextBalloon@@YAXPEAVCDataExchange@@HAEAK@Z
?DDX_TextBalloon@@YAXPEAVCDataExchange@@HAEAJ@Z
?DDX_TextBalloon@@YAXPEAVCDataExchange@@HAEAI@Z
?DDX_TextBalloon@@YAXPEAVCDataExchange@@HAEAH@Z
?DDX_TextBalloon@@YAXPEAVCDataExchange@@HAEAF@Z
?DDX_TextBalloon@@YAXPEAVCDataExchange@@HAEAE@Z
?DDX_Text@@YAXPEAVCDataExchange@@HAEAVCILong@@@Z
?DDX_Spin@@YAXPEAVCDataExchange@@HAEAH@Z
?DDX_Password_SecuredString@@YAXPEAVCDataExchange@@HAEAVCStrPassword@@PEBG@Z
?DDX_Password@@YAXPEAVCDataExchange@@HAEAVCString@@PEBG@Z
?DDV_Url@@YAXPEAVCDataExchange@@AEAVCString@@@Z
?DDV_UNCFolderPath@@YAXPEAVCDataExchange@@AEAVCString@@H@Z
?DDV_ShowBalloonAndFail@@YAXPEAVCDataExchange@@VCString@@@Z
?DDV_ShowBalloonAndFail@@YAXPEAVCDataExchange@@I@Z
?DDV_MinMaxSpin@@YAXPEAVCDataExchange@@PEAUHWND__@@HH@Z
?DDV_MinMaxChars_SecuredString@@YAXPEAVCDataExchange@@AEBVCStrPassword@@HH@Z
?DDV_MinMaxChars@@YAXPEAVCDataExchange@@AEBVCString@@HH@Z
?DDV_MinMaxBalloon@@YAXPEAVCDataExchange@@HKK@Z
?DDV_MinChars_SecuredString@@YAXPEAVCDataExchange@@AEBVCStrPassword@@H@Z
?DDV_MinChars@@YAXPEAVCDataExchange@@AEBVCString@@H@Z
?DDV_MaxChars_SecuredString@@YAXPEAVCDataExchange@@AEBVCStrPassword@@H@Z
?DDV_MaxCharsBalloon_SecuredString@@YAXPEAVCDataExchange@@AEBVCStrPassword@@H@Z
?DDV_MaxCharsBalloon@@YAXPEAVCDataExchange@@AEBVCString@@H@Z
?DDV_FolderPath@@YAXPEAVCDataExchange@@AEAVCString@@H@Z
?DDV_FilePath@@YAXPEAVCDataExchange@@AEAVCString@@H@Z
?CvtToInternalFormat@CError@@KAJJ@Z
?CvtStringToLong@@YAHPEBGPEAK@Z
?CvtInternalToGMTString@@YAX_JAEAVCString@@@Z
?CvtGMTStringToInternal@@YAHPEBGPEA_J@Z
?CreateSpecialDialogFont@@YAHPEAVCWnd@@PEAVCFont@@JJJHH@Z
?CreateSite@CMetaInterface@@QEAAJPEBG000PEAK1@Z
?CreateServerInfoStruct@CComAuthInfo@@QEBAPEAU_COSERVERINFO@@XZ
?CreateServerInfoStruct@CComAuthInfo@@QEBAPEAU_COSERVERINFO@@K@Z
?CreatePooled@CIISApplication@@QEAAJPEBGK0H@Z
?CreatePathFromFailedOpen@CMetaKey@@QEAAJXZ
?CreateObject@CIISWizardSheet@@SAPEAVCObject@@XZ
?CreateObject@CIISWizardPage@@SAPEAVCObject@@XZ
?CreateObject@CIISWizardBookEnd@@SAPEAVCObject@@XZ
?CreateObject@CEmphasizedDialog@@SAPEAVCObject@@XZ
?CreateApplicationPool@CWamInterface@@IEAAJPEBG@Z
?CreateApplication@CWamInterface@@IEAAJPEBGK0H@Z
?Create@CWamInterface@@IEAAJXZ
?Create@CRMCListBoxHeader@@QEAAHKAEBUtagRECT@@PEAVCWnd@@PEAVCHeaderListBox@@I@Z
?Create@CMetaInterface@@IEAAJXZ
?Create@CIISSvcControl@@IEAAJXZ
?Create@CIISInterface@@IEAAJHQEBU_GUID@@0PEAHPEAPEAUIUnknown@@@Z
?Create@CIISApplication@@QEAAJPEBGK@Z
?Create@CIISAppPool@@QEAAJPEBG@Z
?CopyTo@CStrPassword@@QEAAXAEAVCString@@@Z
?CopyTo@CStrPassword@@QEAAXAEAV1@@Z
?CopyKey@CMetaInterface@@IEAAJKPEBGK0HH@Z
?CopyData@CMetaInterface@@IEAAJKPEBGK0KKKH@Z
?ConvertToParentPath@CMetabasePath@@SAPEBGAEAVCString@@@Z
?ConvertToParentPath@CMetaKey@@QEAAJH@Z
?ConvertStringToLong@CINumber@@SAHPEBGAEAJ@Z
?ConvertStringToFloat@CINumber@@SAHPEBGAEAN@Z
?ConvertStringListToSepLine@@YAPEBGAEAVCStringList@@AEAVCString@@PEBG@Z
?ConvertStringListToDoubleNullList@@YAKAEAVCStringList@@AEAKAEAPEAG@Z
?ConvertSepLineToStringList@@YAHPEBGAEAVCStringList@@0@Z
?ConvertLongToString@CINumber@@SAPEBGJAEAVCString@@@Z
?ConvertFloatToString@CINumber@@SAPEBGNHAEAVCString@@@Z
?ConvertDoubleNullListToStringList@@YAKPEBGAEAVCStringList@@H@Z
?Construct@CError@@IEAAAEBV1@J@Z
?Construct@CError@@IEAAAEBV1@AEBV1@@Z
?ComputeMargins@CODLBox@@IEAAXAEAVCRMCListBoxDrawStruct@@HAEAH1@Z
?CompareItem@CIPAddress@@QEBAHAEBV1@@Z
?Compare@CStrPassword@@QEBAHPEBG@Z
?Compare@CStrPassword@@QEBAHAEAVCString@@@Z
?Compare@CStrPassword@@QEBAHAEAV1@@Z
?Compare@CObjectPlus@@UEBAHPEBV1@@Z
?CommonConstruct@CIISApplication@@IEAAXXZ
?ColumnText@CODLBox@@KAHPEAVCDC@@HHHHPEBG@Z
?ColumnText@CODLBox@@IEAAHAEAVCRMCListBoxDrawStruct@@HHPEBG@Z
?ColorWindowText@CRMCListBoxResources@@QEBAKXZ
?ColorWindow@CRMCListBoxResources@@QEBAKXZ
?ColorHighlightText@CRMCListBoxResources@@QEBAKXZ
?ColorHighlight@CRMCListBoxResources@@QEBAKXZ
?CloseKey@CMetaInterface@@IEAAJK@Z
?Close@CMetaKey@@QEAAJXZ
?ClearPasswordBuffers@CStrPassword@@AEAAXXZ
?CleanUp@CBlob@@QEAAXXZ
?CleanMetaPath@CMetabasePath@@SAPEBGAEAVCString@@@Z
?CleanDescendantPath@CInheritanceDlg@@IEAAAEAVCString@@AEAV2@@Z
?CheckDescendants@CMetaKey@@QEAAJKPEAVCComAuthInfo@@PEBG@Z
?ChangeProxyBlanket@CIISInterface@@UEAAJPEBG0@Z
?ChangeFont@CODLBox@@QEAAHPEAVCFont@@@Z
?CalculateTextHeight@CODLBox@@IEAAXPEAVCFont@@@Z
?CStringFindNoCase@@YAHAEBVCString@@PEBG@Z
?BuildMetaPath@CMetabasePath@@IEAAXPEBGK00@Z
?BuildMetaPath@CMetabasePath@@IEAAXPEBG000@Z
?BuildIplOblistFromBlob@@YAKAEAVCBlob@@AEAVCObListPlus@@AEAH@Z
?BuildIplBlob@@YAXAEAVCObListPlus@@HAEAVCBlob@@@Z
?BuildFloat@CINumber@@SANJJ@Z
?BuildAclOblistFromBlob@@YAKAEAVCBlob@@AEAVCObListPlus@@@Z
?BuildAclBlob@@YAHAEAVCObListPlus@@AEAVCBlob@@@Z
?BitmapWidth@CRMCListBoxResources@@QEBAHXZ
?BitmapHeight@CRMCListBoxResources@@QEBAHXZ
?BackupWithPassword@CMetaInterface@@IEAAJPEBGKK0@Z
?BackupWithPassword@CMetaBack@@QEAAJPEBG0@Z
?Backup@CMetaInterface@@IEAAJPEBGKK@Z
?Backup@CMetaBack@@QEAAJPEBG@Z
?AttachWindow@CODLBox@@IEAAXPEAVCWnd@@@Z
?AttachResources@CODLBox@@QEAAXPEBVCRMCListBoxResources@@@Z
?AreStaticsAllocated@CError@@KAHXZ
?ApplyProxyBlanket@CWamInterface@@MEAAJXZ
?ApplyProxyBlanket@CMetaInterface@@MEAAJXZ
?ApplyProxyBlanket@CMetaBack@@MEAAJXZ
?ApplyProxyBlanket@CIISSvcControl@@MEAAJXZ
?ApplyProxyBlanket@CComAuthInfo@@QEAAJPEAUIUnknown@@K@Z
?ApplyProxyBlanket@CComAuthInfo@@QEAAJPEAUIUnknown@@@Z
?ApplyFontToControls@@YAXPEAVCWnd@@PEAVCFont@@II@Z
?AppendToDevicePath@@YA?AVCString@@V1@PEBG@Z
?AppendPath@CMetabasePath@@IEAAXPEBG@Z
?AppendPath@CMetabasePath@@IEAAXK@Z
?AppUnLoad@CWamInterface@@IEAAJPEBGH@Z
?AppRecover@CWamInterface@@IEAAJPEBGH@Z
?AppGetStatus@CWamInterface@@IEAAJPEBGPEAK@Z
?AppDeleteRecoverable@CWamInterface@@IEAAJPEBGH@Z
?AppDelete@CWamInterface@@IEAAJPEBGH@Z
?AppCreate@CWamInterface@@IEAAJPEBGK@Z
?AllocateStatics@CError@@KAHXZ
?Allocate@CINumber@@KAHXZ
?AllocString@@YAPEAGPEBGH@Z
?AllocAnsiString@@YAPEADPEBG@Z
?AddTabFromHeaders@CODLBox@@QEAAHII@Z
?AddTabFromHeaders@CODLBox@@QEAAHAEAVCWnd@@0@Z
?AddTab@CODLBox@@QEAAHI@Z
?AddPermissions@CAccessEntry@@QEAAXK@Z
?AddOverride@CError@@QEAAIJI@Z
?AddKey@CMetaKey@@QEAAJPEBG@Z
?AddKey@CMetaInterface@@IEAAJKPEBG@Z
?ActivateControl@@YAXAEAVCWnd@@H@Z
??_FCStringListEx@@QEAAXXZ
??_FCRMCListBoxHeader@@QEAAXXZ
??_FCObListPlus@@QEAAXXZ
??_FCMetabasePath@@QEAAXXZ
??_FCIPAccessDescriptor@@QEAAXXZ
??_FCIISWizardSheet@@QEAAXXZ
??_FCIISWizardPage@@QEAAXXZ
??_FCIISWizardBookEnd@@QEAAXXZ
??_FCHeaderListBox@@QEAAXXZ
??_FCDirBrowseDlg@@QEAAXXZ
??_FCConfirmDlg@@QEAAXXZ
??_FCComAuthInfo@@QEAAXXZ
??_7CWamInterface@@6B@
??_7CUpButton@@6B@
??_7CStringListEx@@6B@
??_7CRMCListBoxHeader@@6B@
??_7CRMCListBox@@6BCODLBox@@@
??_7CRMCListBox@@6BCListBox@@@
??_7CRMCComboBox@@6BCODLBox@@@
??_7CRMCComboBox@@6BCComboBox@@@
??_7CObjectPlus@@6BCObject@@@
??_7CObjectPlus@@6BCObjHelper@@@
??_7CObjHelper@@6B@
??_7CObListPlus@@6BCObjHelper@@@
??_7CObListPlus@@6BCObList@@@
??_7CObListIter@@6BCObject@@@
??_7CObListIter@@6BCObjHelper@@@
??_7CODLBox@@6B@
??_7CMetaKey@@6B@
??_7CMetaInterface@@6B@
??_7CMetaEnumerator@@6B@
??_7CMetaBack@@6BCWamInterface@@@
??_7CMetaBack@@6BCMetaInterface@@@
??_7CMappedBitmapButton@@6B@
??_7CInheritanceDlg@@6B@
??_7CIPAddress@@6BCObject@@@
??_7CIPAddress@@6BCObjHelper@@@
??_7CIPAccessDescriptor@@6BCObject@@@
??_7CIPAccessDescriptor@@6BCObjHelper@@@
??_7CIISWizardSheet@@6B@
??_7CIISWizardPage@@6B@
??_7CIISWizardBookEnd@@6B@
??_7CIISSvcControl@@6B@
??_7CIISInterface@@6B@
??_7CIISApplication@@6BCWamInterface@@@
??_7CIISApplication@@6BCMetaKey@@@
??_7CIISAppPool@@6BCWamInterface@@@
??_7CIISAppPool@@6BCMetaKey@@@
??_7CHeaderListBox@@6BCODLBox@@@
??_7CHeaderListBox@@6BCListBox@@@
??_7CGetUsers@@6B@
??_7CEmphasizedDialog@@6B@
??_7CDownButton@@6B@
??_7CDirBrowseDlg@@6B@
??_7CConfirmDlg@@6B@
??_7CAccessEntry@@6BCObject@@@
??_7CAccessEntry@@6BCObjHelper@@@
??_0CILong@@QEAAAEAV0@QEBG@Z
??_0CILong@@QEAAAEAV0@J@Z
??_0CILong@@QEAAAEAV0@AEBV0@@Z
??ZCILong@@QEAAAEAV0@QEBG@Z
??ZCILong@@QEAAAEAV0@J@Z
??ZCILong@@QEAAAEAV0@AEBV0@@Z
??YCILong@@QEAAAEAV0@QEBG@Z
??YCILong@@QEAAAEAV0@J@Z
??YCILong@@QEAAAEAV0@AEBV0@@Z
??XCILong@@QEAAAEAV0@QEBG@Z
??XCILong@@QEAAAEAV0@J@Z
??XCILong@@QEAAAEAV0@AEBV0@@Z
??BCStrPassword@@QEAA?AVCString@@XZ
??BCObjHelper@@QEAAHXZ
??BCMetabasePath@@QEBAPEBGXZ
??BCMetaKey@@QEBAPEBGXZ
??BCMetaKey@@QEBAKXZ
??BCMetaKey@@QEBAHXZ
??BCIPAddress@@QEBAPEBGXZ
??BCIPAddress@@QEBA?BKXZ
??BCIPAddress@@QEBA?AVCString@@XZ
??BCILong@@QEBAPEBGXZ
??BCILong@@QEBA?BJXZ
??BCIISInterface@@QEBAJXZ
??BCIISInterface@@QEBAHXZ
??BCError@@QEBA?BKXZ
??BCError@@QEBA?BJXZ
??BCError@@QEBA?BHXZ
??BCError@@QEAAPEBGXZ
??BCError@@QEAAPEAGXZ
??BCComAuthInfo@@QEAAPEAV0@XZ
??BCComAuthInfo@@QEAAPEAGXZ
??9CStringListEx@@QEAAHAEBVCStringList@@@Z
??9CStrPassword@@QEAA_NAEAV0@@Z
??9CIPAddress@@QEBAHK@Z
??9CIPAddress@@QEBAHAEBV0@@Z
??9CILong@@QEAAHAEAV0@@Z
??9CError@@QEAA?BHJ@Z
??9CError@@QEAA?BHAEAV0@@Z
??9CBlob@@QEBAHAEBV0@@Z
??8CStringListEx@@QEAAHAEBVCStringList@@@Z
??8CStrPassword@@QEAA_NAEAV0@@Z
??8CIPAddress@@QEBAHK@Z
??8CIPAddress@@QEBAHAEBV0@@Z
??8CIPAccessDescriptor@@QEBAHAEBV0@@Z
??8CILong@@QEAAHJ@Z
??8CError@@QEAA?BHJ@Z
??8CError@@QEAA?BHAEAV0@@Z
??8CBlob@@QEBAHAEBV0@@Z
??8CAccessEntry@@QEBAHQEAX@Z
??8CAccessEntry@@QEBAHAEBV0@@Z
??4CWamInterface@@QEAAAEAV0@AEAV0@@Z
??4CStringListEx@@QEAAAEAV0@AEBVCStringList@@@Z
??4CStringListEx@@QEAAAEAV0@AEBV0@@Z
??4CStrPassword@@QEAAAEBV0@PEBG@Z
??4CStrPassword@@QEAAAEBV0@AEAV0@@Z
??4CRMCListBoxDrawStruct@@QEAAAEAV0@AEBV0@@Z
??4CObjHelper@@QEAAAEAV0@AEBV0@@Z
??4CMetabasePath@@QEAAAEAV0@AEBV0@@Z
??4CMetaKey@@QEAAAEAV0@AEAV0@@Z
??4CMetaInterface@@QEAAAEAV0@AEAV0@@Z
??4CMetaEnumerator@@QEAAAEAV0@AEAV0@@Z
??4CMetaBack@@QEAAAEAV0@AEAV0@@Z
??4CIPAddress@@QEAAAEBV0@PEBG@Z
??4CIPAddress@@QEAAAEBV0@K@Z
??4CIPAddress@@QEAAAEBV0@AEBVCString@@@Z
??4CIPAddress@@QEAAAEBV0@AEBV0@@Z
??4CINumber@@QEAAAEAV0@AEBV0@@Z
??4CILong@@QEAAAEAV0@PEBG@Z
??4CILong@@QEAAAEAV0@J@Z
??4CILong@@QEAAAEAV0@AEBV0@@Z
??4CIISSvcControl@@QEAAAEAV0@AEAV0@@Z
??4CIISInterface@@QEAAAEAV0@AEAV0@@Z
??4CIISApplication@@QEAAAEAV0@AEAV0@@Z
??4CIISAppPool@@QEAAAEAV0@AEAV0@@Z
??4CGetComputer@@QEAAAEAV0@AEBV0@@Z
??4CError@@QEAAAEBV0@J@Z
??4CError@@QEAAAEBV0@AEBV0@@Z
??4CDirBrowseDlg@@QEAAAEAV0@AEBV0@@Z
??4CComAuthInfo@@QEAAAEAV0@PEBG@Z
??4CComAuthInfo@@QEAAAEAV0@PEAV0@@Z
??4CComAuthInfo@@QEAAAEAV0@AEAV0@@Z
??4CBlob@@QEAAAEAV0@AEBV0@@Z
??1CWamInterface@@UEAA@XZ
??1CUpButton@@UEAA@XZ
??1CStringListEx@@UEAA@XZ
??1CStrPassword@@QEAA@XZ
??1CRMCListBoxResources@@QEAA@XZ
??1CRMCListBoxHeader@@UEAA@XZ
??1CRMCListBox@@UEAA@XZ
??1CRMCComboBox@@UEAA@XZ
??1CObjectPlus@@UEAA@XZ
??1CObListPlus@@UEAA@XZ
??1CObListIter@@UEAA@XZ
??1CODLBox@@IEAA@XZ
??1CMetabasePath@@QEAA@XZ
??1CMetaKey@@UEAA@XZ
??1CMetaInterface@@UEAA@XZ
??1CMetaEnumerator@@UEAA@XZ
??1CMetaBack@@UEAA@XZ
??1CMappedBitmapButton@@UEAA@XZ
??1CInheritanceDlg@@UEAA@XZ
??1CIPAddress@@UEAA@XZ
??1CIPAccessDescriptor@@UEAA@XZ
??1CINumber@@IEAA@XZ
??1CILong@@QEAA@XZ
??1CIISWizardSheet@@UEAA@XZ
??1CIISWizardPage@@UEAA@XZ
??1CIISWizardBookEnd@@UEAA@XZ
??1CIISSvcControl@@UEAA@XZ
??1CIISInterface@@QEAA@XZ
??1CIISApplication@@UEAA@XZ
??1CIISAppPool@@UEAA@XZ
??1CHeaderListBox@@UEAA@XZ
??1CGetUsers@@UEAA@XZ
??1CGetComputer@@QEAA@XZ
??1CError@@QEAA@XZ
??1CEmphasizedDialog@@UEAA@XZ
??1CDownButton@@UEAA@XZ
??1CDirBrowseDlg@@QEAA@XZ
??1CConfirmDlg@@UEAA@XZ
??1CComAuthInfo@@QEAA@XZ
??1CBlob@@QEAA@XZ
??1CAccessEntry@@UEAA@XZ
??0CWamInterface@@QEAA@AEAV0@@Z
??0CWamInterface@@IEAA@PEAVCComAuthInfo@@@Z
??0CWamInterface@@IEAA@PEAV0@@Z
??0CUpButton@@QEAA@XZ
??0CStringListEx@@QEAA@H@Z
??0CStrPassword@@QEAA@XZ
??0CStrPassword@@QEAA@PEBG@Z
??0CStrPassword@@QEAA@PEAG@Z
??0CStrPassword@@QEAA@AEAV0@@Z
??0CRMCListBoxResources@@QEAA@HHK@Z
??0CRMCListBoxHeader@@QEAA@K@Z
??0CRMCListBoxDrawStruct@@QEAA@PEAVCDC@@PEAUtagRECT@@H_KHPEBVCRMCListBoxResources@@@Z
??0CRMCListBox@@QEAA@XZ
??0CRMCComboBox@@QEAA@XZ
??0CObjectPlus@@QEAA@XZ
??0CObjHelper@@QEAA@AEBV0@@Z
??0CObjHelper@@IEAA@XZ
??0CObListPlus@@QEAA@H@Z
??0CObListIter@@QEAA@AEBVCObListPlus@@@Z
??0CODLBox@@IEAA@XZ
??0CMetabasePath@@QEAA@PEBGK00@Z
??0CMetabasePath@@QEAA@HPEBG000@Z
??0CMetabasePath@@QEAA@AEBV0@@Z
??0CMetaKey@@QEAA@PEAVCMetaInterface@@PEBGKK@Z
??0CMetaKey@@QEAA@PEAVCMetaInterface@@@Z
??0CMetaKey@@QEAA@PEAVCComAuthInfo@@PEBGKK@Z
??0CMetaKey@@QEAA@PEAVCComAuthInfo@@@Z
??0CMetaKey@@QEAA@HPEAV0@@Z
??0CMetaKey@@QEAA@AEAV0@@Z
??0CMetaInterface@@QEAA@AEAV0@@Z
??0CMetaInterface@@IEAA@PEAVCComAuthInfo@@@Z
??0CMetaInterface@@IEAA@PEAV0@@Z
??0CMetaEnumerator@@QEAA@PEAVCMetaInterface@@PEBGK@Z
??0CMetaEnumerator@@QEAA@PEAVCComAuthInfo@@PEBGK@Z
??0CMetaEnumerator@@QEAA@HPEAVCMetaKey@@@Z
??0CMetaEnumerator@@QEAA@AEAV0@@Z
??0CMetaBack@@QEAA@PEAVCComAuthInfo@@@Z
??0CMetaBack@@QEAA@AEAV0@@Z
??0CMappedBitmapButton@@QEAA@XZ
??0CInheritanceDlg@@QEAA@KHPEAVCComAuthInfo@@PEBGAEAVCStringList@@1PEAVCWnd@@@Z
??0CInheritanceDlg@@QEAA@KHPEAVCComAuthInfo@@PEBG1PEAVCWnd@@@Z
??0CInheritanceDlg@@QEAA@HKKKKPEBGHPEAVCComAuthInfo@@0PEAVCWnd@@@Z
??0CIPAddress@@QEAA@XZ
??0CIPAddress@@QEAA@PEBGH@Z
??0CIPAddress@@QEAA@PEAEH@Z
??0CIPAddress@@QEAA@KH@Z
??0CIPAddress@@QEAA@EEEE@Z
??0CIPAddress@@QEAA@AEBVCString@@@Z
??0CIPAddress@@QEAA@AEBV0@@Z
??0CIPAccessDescriptor@@QEAA@HPEBG@Z
??0CIPAccessDescriptor@@QEAA@HKKH@Z
??0CIPAccessDescriptor@@QEAA@H@Z
??0CIPAccessDescriptor@@QEAA@AEBV0@@Z
??0CINumber@@IEAA@XZ
??0CILong@@QEAA@XZ
??0CILong@@QEAA@PEBG@Z
??0CILong@@QEAA@J@Z
??0CIISWizardSheet@@QEAA@IIKK@Z
??0CIISWizardPage@@QEAA@IIHII@Z
??0CIISWizardBookEnd@@QEAA@PEAJIIIIIII@Z
??0CIISWizardBookEnd@@QEAA@IIIII@Z
??0CIISSvcControl@@QEAA@PEAVCComAuthInfo@@@Z
??0CIISSvcControl@@QEAA@PEAV0@@Z
??0CIISSvcControl@@QEAA@AEAV0@@Z
??0CIISInterface@@QEAA@PEAVCComAuthInfo@@J@Z
??0CIISInterface@@QEAA@AEAV0@@Z
??0CIISApplication@@QEAA@PEAVCComAuthInfo@@PEBG@Z
??0CIISApplication@@QEAA@AEAV0@@Z
??0CIISAppPool@@QEAA@PEAVCComAuthInfo@@PEBG@Z
??0CIISAppPool@@QEAA@AEAV0@@Z
??0CHeaderListBox@@QEAA@KPEBG@Z
??0CGetUsers@@QEAA@PEBGH@Z
??0CGetComputer@@QEAA@XZ
??0CGetComputer@@QEAA@AEBV0@@Z
??0CError@@QEAA@XZ
??0CError@@QEAA@K@Z
??0CError@@QEAA@J@Z
??0CEmphasizedDialog@@QEAA@XZ
??0CEmphasizedDialog@@QEAA@PEBGPEAVCWnd@@@Z
??0CEmphasizedDialog@@QEAA@IPEAVCWnd@@@Z
??0CDownButton@@QEAA@XZ
??0CDirBrowseDlg@@QEAA@PEAVCWnd@@PEBG@Z
??0CDirBrowseDlg@@QEAA@AEBV0@@Z
??0CConfirmDlg@@QEAA@PEAVCWnd@@@Z
??0CComAuthInfo@@QEAA@PEBG00@Z
??0CComAuthInfo@@QEAA@PEAV0@@Z
??0CComAuthInfo@@QEAA@AEAV0@@Z
??0CBlob@@QEAA@XZ
??0CBlob@@QEAA@KPEAEH@Z
??0CBlob@@QEAA@AEBV0@@Z
??0CAccessEntry@@QEAA@PEAXPEBG1@Z
??0CAccessEntry@@QEAA@PEAXH@Z
??0CAccessEntry@@QEAA@KPEAXPEBGH@Z
??0CAccessEntry@@QEAA@AEAV0@@Z
