LIBRARY INFOCOMM.DLL
EXPORTS
WriteRegistryStringW
WriteRegistryStringA
WriteRegistryDwordA
WaitForSocketWorker
Tsunami_Initialize
TsReferenceMetaData
TsMakeWidePath
TsLastWriteTimeFromHandle
TsGetFileSecDesc
TsFreeMetaData
TsFree
TsFlushURL
TsFlushMetaCache
TsFlushFilesWithContext
TsFindMetaData
TsExpireCachedBlob
TsDumpCacheToHtml
TsDumpCacheCounters
TsDerefURIFile
TsDeleteOnClose
TsDeCacheCachedBlob
TsCreateFileFromURI
TsCreateFile
TsCreateETagFromHandle
TsCloseURIFile
TsCloseHandle
TsCheckOutCachedBlob
TsCheckInOrFree
TsCheckInCachedBlob
TsCacheFlushDemux
TsCacheFlush
TsCacheDirectoryBlob
TsAllocateEx
TsAllocate
TsAddMetaData
TerminateCommonDlls
TcpSockTest
TcpSockSend
TcpSockRecv
ReadRegistryString
ReadRegistryStr
ReadRegistryDwordA
ReadRegString
KludgeMultiSz
IsNameInRegExpressionA
InitCommonDlls
InetNtoa
FreeRpcString
DoSynchronousReadFile
ConvertUnicodeToAnsi
ConvertStringToRpc
?uuencode@@YAHPEAEKPEAVBUFFER@@H@Z
?uudecode@@YAHPEADPEAVBUFFER@@PEAKH@Z
?_TsValidateMetaCache@@YAXXZ
?ZapInstanceMBTree@IIS_SERVER_INSTANCE@@QEAAXXZ
?WeakETag@TS_OPEN_FILE_INFO@@QEBAHXZ
?VerifySignature@IIS_CTL@@QEAAHPEAPEAXKPEAH@Z
?UseProgrammaticPINEntry@IIS_SERVER_CERT@@AEAAHPEAVMB@@@Z
?UseDSMapper@IIS_SSL_INFO@@QEAAHXZ
?UpdateServiceStatus@IIS_SERVICE@@QEAAKKKKK@Z
?UpdateSecureBindings@IIS_SERVER_INSTANCE@@QEAAKXZ
?UpdateNormalBindings@IIS_SERVER_INSTANCE@@QEAAKXZ
?UpdateClientCertFlags@TCP_AUTHENT@@QEAAHKPEAHPEAEK@Z
?UpdateBindingsHelper@IIS_SERVER_INSTANCE@@AEAAKH@Z
?UnregisterStore@STORE_CHANGE_NOTIFIER@@QEAAXPEADP6AXPEAX@Z1@Z
?UnlockThis@IIS_SERVER_INSTANCE@@QEAAXXZ
?Unlock@LOGGING@@AEAAXXZ
?Unlock@IIS_VROOT_TABLE@@QEAAXXZ
?Unlock@IIS_SSL_INFO@@QEAAXXZ
?UnbindInstance@IIS_SERVER_INSTANCE@@QEAAKXZ
?UnbindHelper@IIS_SERVER_INSTANCE@@AEAAKPEAU_LIST_ENTRY@@@Z
?TsTokenToImpHandle@@YAPEAXPEAVCACHED_TOKEN@@@Z
?TsTokenToHandle@@YAPEAXPEAVCACHED_TOKEN@@@Z
?TsSetVirtualRoots@IIS_SERVER_INSTANCE@@QEAAHPEAU_INET_INFO_CONFIG_INFO@@@Z
?TsSetSecretW@@YAKPEAG0K@Z
?TsRecursiveEnumVirtualRoots@IIS_SERVER_INSTANCE@@QEAAHP6AHPEAXPEAVMB@@PEAU_VIRTUAL_ROOT@@@Z0PEADK0H@Z
?TsReadVirtualRoots@IIS_SERVER_INSTANCE@@QEAAHPEAU_MD_CHANGE_OBJECT_A@@@Z
?TsProcessGatewayRequest@@YAHPEAXPEAU_IGATEWAY_REQUEST@@P6AH0KPEAEK@Z@Z
?TsMirrorVirtualRoots@IIS_SERVER_INSTANCE@@QEAAXPEAU_INET_INFO_CONFIG_INFO@@@Z
?TsLogonUser@@YAPEAVCACHED_TOKEN@@PEAD0PEAH1PEAVIIS_SERVER_INSTANCE@@PEAVTCP_AUTHENT_INFO@@0PEAT_LARGE_INTEGER@@1@Z
?TsImpersonateUser@@YAHPEAVCACHED_TOKEN@@@Z
?TsGetSecretW@@YAHPEAGPEAVBUFFER@@@Z
?TsGetDirectoryListing@@YAHAEBVTSVC_CACHE@@PEBDPEAXPEAPEAVTS_DIRECTORY_HEADER@@@Z
?TsFreeDirectoryListing@@YAHAEBVTSVC_CACHE@@PEAVTS_DIRECTORY_HEADER@@@Z
?TsEnumVirtualRoots@IIS_SERVER_INSTANCE@@QEAAHP6AHPEAXPEAVMB@@PEAU_VIRTUAL_ROOT@@@Z01@Z
?TsDeleteUserToken@@YAHPEAVCACHED_TOKEN@@@Z
?TsApiAccessCheck@@YAKK@Z
?TsAddRefMetaData@@YAXPEAX@Z
?TerminateToken@INET_PARSER@@IEAAXD@Z
?TerminateLine@INET_PARSER@@IEAAXXZ
?TerminateDiscovery@IIS_SERVICE@@QEAAKXZ
?Terminate@LOGGING@@SAKXZ
?Success@ODBC_CONNECTION@@SAHF@Z
?StopService@IIS_SERVICE@@AEAAXXZ
?StopInstanceProcs@IIS_SERVICE@@UEAAXPEAVIIS_SERVER_INSTANCE@@@Z
?StopInstance@IIS_SERVER_INSTANCE@@UEAAKXZ
?StopEndpointsHelper@IIS_SERVER_INSTANCE@@AEAAHPEAU_LIST_ENTRY@@@Z
?StopEndpoints@IIS_SERVER_INSTANCE@@QEAAHXZ
?Status@IIS_SERVER_CERT@@QEAAKXZ
?StartUpIndicateClientActivity@IIS_SERVICE@@QEAAXXZ
?StartServiceOperation@IIS_SERVICE@@QEAAKP6AXK@ZP6AKPEAX@Z2@Z
?StartProcessAsUser@TCP_AUTHENT@@QEAAHPEBDPEADHKPEAX0PEAU_STARTUPINFOA@@PEAU_PROCESS_INFORMATION@@@Z
?StartInstance@IIS_SERVER_INSTANCE@@UEAAKXZ
?SortFileInfoPointers@TS_DIRECTORY_INFO@@QEAAHP6AHPEBX0@Z@Z
?SkipTo@INET_PARSER@@QEAAPEADD@Z
?ShutdownService@IIS_SERVICE@@QEAAHXZ
?ShutdownScheduleCallback@IIS_SERVICE@@QEAAKXZ
?ShutdownLogging@LOGGING@@QEAAHXZ
?SetZapRegKey@IIS_SERVER_INSTANCE@@QEAAXXZ
?SetWin32Error@IIS_SERVER_INSTANCE@@QEAAXK@Z
?SetValueBuffer@ODBC_PARAMETER@@QEAAHJJ@Z
?SetTargetName@TCP_AUTHENT@@QEAAHPEAD@Z
?SetServiceSpecificExitCode@IIS_SERVICE@@QEAAXK@Z
?SetServiceComment@IIS_SERVICE@@QEAAXPEAD@Z
?SetServiceAdminInfo@IIS_SERVICE@@SAHKKKHPEAU_INET_INFO_CONFIG_INFO@@@Z
?SetServerState@IIS_SERVER_INSTANCE@@QEAAXKK@Z
?SetSecurityContextToken@TCP_AUTHENT@@QEAAHPEAU_SecHandle@@PEAXP6AH01@Z1PEAVIIS_SSL_INFO@@@Z
?SetPtr@INET_PARSER@@QEAAXPEAD@Z
?SetParameters@TSVC_CACHE@@QEAAXKKPEAX@Z
?SetListMode@INET_PARSER@@QEAAXH@Z
?SetInstanceConfiguration@IIS_SERVICE@@AEAAHKKHPEAU_INET_INFO_CONFIG_INFO@@@Z
?SetHttpInfo@TS_OPEN_FILE_INFO@@QEAAHPEADH@Z
?SetData@MB@@QEAAHPEBDKKKPEAXKK@Z
?SetContext@TS_OPEN_FILE_INFO@@QEAAHPEAXP6AH0@Z@Z
?SetConnectOption@ODBC_CONNECTION@@QEAAHGK@Z
?SetConfig@LOGGING@@QEAAKPEAU_INETLOG_CONFIGURATIONA@@@Z
?SetCommonConfig@IIS_SERVER_INSTANCE@@QEAAHPEAU_INET_INFO_CONFIG_INFO@@H@Z
?SetBandwidthThrottleMaxBlocked@IIS_SERVER_INSTANCE@@QEAAHPEAVMB@@@Z
?SetBandwidthThrottle@IIS_SERVER_INSTANCE@@QEAAHPEAVMB@@@Z
?SetAccessToken@TCP_AUTHENT@@QEAAHPEAX0@Z
?SetAccessPerms@COMMON_METADATA@@QEAAXK@Z
?ServiceCtrlHandler@IIS_SERVICE@@QEAAXK@Z
?ServerAddressHasCAPIInfo@@YAHPEAVMB@@PEADPEAKK@Z
?SelectMimeMappingForFileExt@@YAHQEAVIIS_SERVICE@@PEBDPEAVSTR@@2@Z
?SaveServerState@IIS_SERVER_INSTANCE@@QEAAXXZ
?Save@MB@@QEAAHXZ
?RevertToSelf@TCP_AUTHENT@@QEAAHXZ
?RetrievePINInfo@IIS_SERVER_CERT@@AEAAHPEAVMB@@PEAPEAD11@Z
?RetrieveHttpInfo@TS_OPEN_FILE_INFO@@QEAAHPEADPEAH@Z
?RestoreToken@INET_PARSER@@IEAAXXZ
?RestoreLine@INET_PARSER@@IEAAXXZ
?RestoreBuffer@INET_PARSER@@QEAAXXZ
?Reset@TCP_AUTHENT@@QEAAHH@Z
?ReportServiceStatus@IIS_SERVICE@@AEAAKXZ
?RemoveVirtualRoots@IIS_VROOT_TABLE@@QEAAHXZ
?RemoveVirtualRoot@IIS_VROOT_TABLE@@QEAAHPEAD@Z
?RemoveServerInstance@IIS_SERVICE@@QEAAHPEAVIIS_SERVER_INSTANCE@@@Z
?RemoveSecureBindings@IIS_SERVER_INSTANCE@@QEAAKXZ
?RemoveNormalBindings@IIS_SERVER_INSTANCE@@QEAAKXZ
?ReleaseServiceLock@IIS_SERVICE@@QEAAXH@Z
?ReleaseRegisteredStores@STORE_CHANGE_NOTIFIER@@QEAAXXZ
?ReleaseReferenceData@MB@@QEAAHK@Z
?ReleaseGlobalLock@IIS_SERVICE@@CAXXZ
?ReleaseFortezzaHandlers@IIS_SSL_INFO@@QEAAXXZ
?ReleaseFastLock@IIS_SERVER_INSTANCE@@QEAAXXZ
?Release@RefBlob@@QEAAXXZ
?Release@IIS_SSL_INFO@@SAKPEAX@Z
?RegisterStoreForChange@STORE_CHANGE_NOTIFIER@@QEAAHPEADPEAXP6AX1@Z1@Z
?RegReadCommonParams@IIS_SERVER_INSTANCE@@QEAAHHH@Z
?ReferenceData@MB@@QEAAHPEBDKKKPEAPEAXPEAK2K@Z
?Reference@MIME_MAP_ENTRY@@UEAAJXZ
?Reference@IIS_SSL_INFO@@QEAAKXZ
?Reference@IIS_SERVER_INSTANCE@@QEAAXXZ
?Reference@IIS_ENDPOINT@@QEAAXXZ
?RecordInstanceStop@IIS_SERVICE@@QEAAXXZ
?RecordInstanceStart@IIS_SERVICE@@QEAAHXZ
?ReadMetaData@COMMON_METADATA@@QEAAHPEAVIIS_SERVER_INSTANCE@@PEAVMB@@PEADPEAU_METADATA_ERROR_INFO@@@Z
?QueryVrootTable@IIS_SERVER_INSTANCE@@QEAAPEAVIIS_VROOT_TABLE@@XZ
?QueryVrootCount@IIS_VROOT_TABLE@@QEAAKXZ
?QueryValuesAsStr@ODBC_STATEMENT@@QEAAHPEAPEAVSTR@@PEAPEAKPEAH@Z
?QueryValue@ODBC_PARAMETER@@QEBAPEAXXZ
?QueryUserName@TCP_AUTHENT@@QEAAHPEAVSTR@@H@Z
?QueryToken@INET_PARSER@@QEAAPEADXZ
?QueryStoreName@IIS_SERVER_CERT@@QEAAPEADXZ
?QueryStoreName@IIS_CTL@@QEAAPEADXZ
?QueryStoreHandle@IIS_SERVER_CERT@@QEAAPEAXXZ
?QueryStatus@IIS_CTL@@QEAAKXZ
?QuerySslCtxtHandle@TCP_AUTHENT@@QEAAPEAU_SecHandle@@XZ
?QuerySqlType@ODBC_PARAMETER@@QEBAFXZ
?QuerySize@TS_OPEN_FILE_INFO@@QEBAHPEAK0@Z
?QuerySize@TS_OPEN_FILE_INFO@@QEBAHAEAT_LARGE_INTEGER@@@Z
?QuerySize@RefBlob@@QEAAKXZ
?QuerySiteName@IIS_SERVER_INSTANCE@@QEBAPEBDXZ
?QuerySingleAccessToken@@YAHXZ
?QuerySignerCert@IIS_CTL@@QEAAHPEAPEBU_CERT_CONTEXT@@@Z
?QueryShutdownScheduleId@IIS_SERVICE@@QEBAKXZ
?QueryServiceSpecificExitCode@IIS_SERVICE@@QEBAKXZ
?QueryServiceName@IIS_SERVICE@@QEBAPEBDXZ
?QueryServiceId@IIS_SERVICE@@QEBAKXZ
?QueryServiceComment@IIS_SERVICE@@QEBAPEBDXZ
?QueryServerState@IIS_SERVER_INSTANCE@@QEBAKXZ
?QueryServerSize@IIS_SERVER_INSTANCE@@QEBAKXZ
?QueryServerCertificateSubject@TCP_AUTHENT@@QEAAHPEAPEADPEAH@Z
?QueryServerCertificateIssuer@TCP_AUTHENT@@QEAAHPEAPEADPEAH@Z
?QueryScale@ODBC_PARAMETER@@QEBAFXZ
?QuerySavedState@IIS_SERVER_INSTANCE@@QEBAKXZ
?QueryRowCount@ODBC_STATEMENT@@QEAAHPEA_J@Z
?QueryRoot@IIS_SERVER_INSTANCE@@QEBAPEADXZ
?QueryRegParamKey@IIS_SERVICE@@QEBAPEBDXZ
?QueryRegParamKey@IIS_SERVER_INSTANCE@@QEBAPEBDXZ
?QueryRefCount@RefBlob@@QEAAPEAJXZ
?QueryPtr@RefBlob@@QEAAPEAXXZ
?QueryProviderType@IIS_SERVER_CERT@@QEAAKXZ
?QueryProviderName@IIS_SERVER_CERT@@QEAAPEADXZ
?QueryPrimaryToken@TCP_AUTHENT@@QEAAPEAXXZ
?QueryPrecision@ODBC_PARAMETER@@QEBAKXZ
?QueryPos@INET_PARSER@@QEAAPEADXZ
?QueryParamType@ODBC_PARAMETER@@QEBAFXZ
?QueryParamNumber@ODBC_PARAMETER@@QEBAGXZ
?QueryOriginalStore@IIS_CTL@@QEAAPEAXXZ
?QueryOpenFlags@IIS_SERVER_CERT@@QEAAKXZ
?QueryModuleName@IIS_SERVICE@@QEBAPEBDXZ
?QueryMimeMap@IIS_SERVICE@@QEBAPEAVMIME_MAP@@XZ
?QueryMaxEndpointConnections@IIS_SERVER_INSTANCE@@QEBAKXZ
?QueryMaxConnections@IIS_SERVER_INSTANCE@@QEBAKXZ
?QueryMaxCbValue@ODBC_PARAMETER@@QEBA_JXZ
?QueryMDVRPathLen@IIS_SERVER_INSTANCE@@QEBAKXZ
?QueryMDVRPath@IIS_SERVER_INSTANCE@@QEBAPEBDXZ
?QueryMDPathLen@IIS_SERVER_INSTANCE@@QEBAKXZ
?QueryMDPath@IIS_SERVICE@@QEBAPEBDXZ
?QueryMDPath@IIS_SERVER_INSTANCE@@QEBAPEBDXZ
?QueryMDObject@IIS_SERVICE@@SAPEAUIUnknown@@XZ
?QueryMDNseObject@IIS_SERVICE@@QEAAPEAUIUnknown@@XZ
?QueryMBPath@IIS_SERVER_CERT@@QEAAPEADXZ
?QueryMBPath@IIS_CTL@@QEAAPEADXZ
?QueryLogNonAnonymous@IIS_SERVER_INSTANCE@@QEBAHXZ
?QueryLogAnonymous@IIS_SERVER_INSTANCE@@QEBAHXZ
?QueryListIdentifier@IIS_CTL@@QEAAPEAGXZ
?QueryLine@INET_PARSER@@QEAAPEADXZ
?QueryLastWriteTime@TS_OPEN_FILE_INFO@@QEBAHPEAU_FILETIME@@@Z
?QueryKeyLen@MIME_MAP_ENTRY@@UEBAKXZ
?QueryKey@MIME_MAP_ENTRY@@UEBAPEBDXZ
?QueryIpPort@IIS_SERVER_BINDING@@QEAAGXZ
?QueryIpAddress@IIS_SERVER_BINDING@@QEAAKXZ
?QueryInstanceId@IIS_SERVER_INSTANCE@@QEBAKXZ
?QueryInstanceCount@IIS_SERVICE@@QEBAKXZ
?QueryInetInfoRpc@IIS_SERVICE@@SAPEAVISRPC@@XZ
?QueryImpersonationToken@TCP_AUTHENT@@QEAAPEAXXZ
?QueryHostName@IIS_SERVER_BINDING@@QEAAPEBDXZ
?QueryFullyQualifiedUserName@TCP_AUTHENT@@QEAAHPEADPEAVSTR@@PEAVIIS_SERVER_INSTANCE@@PEAVTCP_AUTHENT_INFO@@@Z
?QueryFileHandle@TS_OPEN_FILE_INFO@@QEAAPEAXXZ
?QueryExtraLoggingFields@LOGGING@@QEAAPEADXZ
?QueryExpiry@TCP_AUTHENT@@QEAAHPEAT_LARGE_INTEGER@@@Z
?QueryEventLog@IIS_SERVICE@@QEAAPEAVEVENT_LOG@@XZ
?QueryErrorCode@ODBC_STATEMENT@@QEBAFXZ
?QueryErrorCode@ODBC_CONNECTION@@QEBAFXZ
?QueryEndpoint@IIS_SERVER_BINDING@@QEAAPEAVIIS_ENDPOINT@@XZ
?QueryEncryptionServerPrivateKeySize@TCP_AUTHENT@@QEAAHPEAKPEAH@Z
?QueryEncryptionKeySize@TCP_AUTHENT@@QEAAHPEAKPEAH@Z
?QueryETag@TS_OPEN_FILE_INFO@@QEBAPEADXZ
?QueryDownLevelInstance@IIS_SERVICE@@QEBAKXZ
?QueryDefaultPort@IIS_SERVER_INSTANCE@@QEBAGXZ
?QueryCurrentServiceState@IIS_SERVICE@@QEBAKXZ
?QueryCurrentServiceError@IIS_SERVICE@@QEBAKXZ
?QueryCurrentConnections@IIS_SERVER_INSTANCE@@QEBAKXZ
?QueryCtxtHandle@TCP_AUTHENT@@QEAAPEAU_SecHandle@@XZ
?QueryCredHandle@TCP_AUTHENT@@QEAAPEAU_SecHandle@@XZ
?QueryContext@TS_OPEN_FILE_INFO@@QEBAPEAXXZ
?QueryContainer@IIS_SERVER_CERT@@QEAAPEADXZ
?QueryConnectionTimeout@IIS_SERVER_INSTANCE@@QEBAKXZ
?QueryColNames@ODBC_STATEMENT@@QEAAHPEAPEAVSTR@@PEAKKPEAH@Z
?QueryCertificateSubject@TCP_AUTHENT@@QEAAHPEADKPEAH@Z
?QueryCertificateSerialNumber@TCP_AUTHENT@@QEAAHPEAPEAEPEAKPEAH@Z
?QueryCertificateIssuer@TCP_AUTHENT@@QEAAHPEADKPEAH@Z
?QueryCertificateFlags@TCP_AUTHENT@@QEAAHPEAKPEAH@Z
?QueryCertificate@IIS_SSL_INFO@@QEAAPEAVIIS_SERVER_CERT@@XZ
?QueryCertValidity@IIS_SSL_INFO@@QEAAHPEAK@Z
?QueryCertContextAddr@IIS_SERVER_CERT@@QEAAPEAPEBU_CERT_CONTEXT@@XZ
?QueryCertContext@IIS_SERVER_CERT@@QEAAPEBU_CERT_CONTEXT@@XZ
?QueryCbValueRef@ODBC_PARAMETER@@QEAAAEA_JXZ
?QueryCbValue@ODBC_PARAMETER@@QEBA_JXZ
?QueryCType@ODBC_PARAMETER@@QEBAFXZ
?QueryCTLContext@IIS_CTL@@QEAAPEBU_CTL_CONTEXT@@XZ
?QueryCTL@IIS_SSL_INFO@@QEAAPEAVIIS_CTL@@XZ
?QueryBandwidthInfo@IIS_SERVER_INSTANCE@@QEBAPEAXXZ
?QueryAttributes@TS_OPEN_FILE_INFO@@QEBAKXZ
?QueryAndReferenceSSLInfoObj@IIS_SERVER_INSTANCE@@UEAAPEAVIIS_SSL_INFO@@XZ
?QueryAcceptExTimeout@IIS_SERVER_INSTANCE@@QEBAKXZ
?QueryAcceptExOutstanding@IIS_SERVER_INSTANCE@@QEBAKXZ
?PrintIGatewayRequest@@YAXPEBU_IGATEWAY_REQUEST@@@Z
?Print@TS_OPEN_FILE_INFO@@QEBAXXZ
?Print@MIME_MAP_ENTRY@@UEBAXXZ
?Print@MIME_MAP@@QEAAXXZ
?PrepareStatement@ODBC_STATEMENT@@QEAAHPEBG@Z
?PrepareStatement@ODBC_STATEMENT@@QEAAHPEBD@Z
?PerformStateChange@IIS_SERVER_INSTANCE@@QEAAKXZ
?PerformClusterModeChange@IIS_SERVER_INSTANCE@@QEAAKXZ
?PdcHackVRReg2MD@IIS_SERVER_INSTANCE@@QEAAXXZ
?PauseService@IIS_SERVICE@@AEAAXXZ
?PauseInstance@IIS_SERVER_INSTANCE@@UEAAKXZ
?ParseDescriptor@IIS_SERVER_BINDING@@SAKPEBDPEAKPEAGPEAPEBD@Z
?PackageSupportsEncoding@TCP_AUTHENT@@QEAAHPEAD@Z
?Open@ODBC_CONNECTION@@QEAAHPEBG00@Z
?Open@ODBC_CONNECTION@@QEAAHPEBD00@Z
?Open@MB@@QEAAHKPEBDK@Z
?NullReferenceMapper@@YAJPEAU_HMAPPER@@@Z
?NullQueryMappedCredentialAttributes@@YAKPEAU_HMAPPER@@_KKPEAXPEAK@Z
?NullMapCredential@@YAKPEAU_HMAPPER@@KPEBX1PEA_K@Z
?NullGetIssuerList@@YAKPEAU_HMAPPER@@PEAXPEAEPEAK@Z
?NullGetChallenge@@YAKPEAU_HMAPPER@@PEAEK1PEAK@Z
?NullGetAccessToken@@YAKPEAU_HMAPPER@@_KPEAPEAX@Z
?NullDeReferenceMapper@@YAJPEAU_HMAPPER@@@Z
?NullCloseLocator@@YAKPEAU_HMAPPER@@_K@Z
?NotifyChange@LOGGING@@QEAAHK@Z
?NotifFncCaller@STORE_CHANGE_NOTIFIER@@SAXPEAXE@Z
?NextToken@INET_PARSER@@QEAAPEADXZ
?NextToken@INET_PARSER@@QEAAPEADD@Z
?NextParam@INET_PARSER@@QEAAPEADXZ
?NextLine@INET_PARSER@@QEAAPEADXZ
?NextItem@INET_PARSER@@QEAAPEADXZ
?NetUserCookieA@@YAHPEADK0K@Z
?MoveVrootFromRegToMD@IIS_SERVER_INSTANCE@@QEAAHXZ
?MoveMDVroots2Registry@IIS_SERVER_INSTANCE@@QEAAHXZ
?MoreResults@ODBC_STATEMENT@@QEAAHPEAH@Z
?MakeStrongETag@TS_OPEN_FILE_INFO@@QEAAXXZ
?MDMirrorVirtualRoots@IIS_SERVER_INSTANCE@@QEAAXXZ
?MDChangeNotify@IIS_SERVICE@@SAXKQEAU_MD_CHANGE_OBJECT_A@@@Z
?MDChangeNotify@IIS_SERVICE@@MEAAXPEAU_MD_CHANGE_OBJECT_A@@@Z
?MDChangeNotify@IIS_SERVER_INSTANCE@@UEAAXPEAU_MD_CHANGE_OBJECT_A@@@Z
?LookupVirtualRoot@IIS_VROOT_TABLE@@QEAAHPEBDPEADPEAK222PEAPEAX2@Z
?LookupMimeEntryForMimeType@MIME_MAP@@QEAAKAEBVSTR@@PEAPEBVMIME_MAP_ENTRY@@PEAK@Z
?LookupMimeEntryForFileExt@MIME_MAP@@QEAAPEBVMIME_MAP_ENTRY@@PEBD@Z
?Lookup@HASH_TABLE@@QEAAPEAVHT_ELEMENT@@PEBD@Z
?LogonNetUserW@@YAHPEAG0PEAD0KKKPEAPEAXPEAT_LARGE_INTEGER@@@Z
?LogonNetUserA@@YAHPEAD000KKKPEAPEAXPEAT_LARGE_INTEGER@@@Z
?LogonDigestUserA@@YAHPEAXKPEAPEAX@Z
?LogInformation@LOGGING@@QEAAKPEBU_INETLOG_INFORMATION@@@Z
?LogEvent@IIS_SERVICE@@QEAAXKGQEAPEBDK@Z
?LogCustomInformation@LOGGING@@QEAAKKPEAU_CUSTOM_LOG_DATA@@PEAD@Z
?LockThisForWrite@IIS_SERVER_INSTANCE@@QEAAXXZ
?LockThisForRead@IIS_SERVER_INSTANCE@@QEAAXXZ
?LockShared@LOGGING@@AEAAXXZ
?LockShared@IIS_VROOT_TABLE@@QEAAXXZ
?LockExclusive@LOGGING@@AEAAXXZ
?LockExclusive@IIS_VROOT_TABLE@@QEAAXXZ
?LockConvertExclusive@IIS_VROOT_TABLE@@QEAAXXZ
?Lock@IIS_SSL_INFO@@QEAAXXZ
?LoadStr@IIS_SERVICE@@QEBAHAEAVSTR@@KH@Z
?LoadStr@IIS_SERVER_INSTANCE@@QEBAHAEAVSTR@@KH@Z
?IsValid@TS_OPEN_FILE_INFO@@QEBAHXZ
?IsValid@ODBC_STATEMENT@@QEBAHXZ
?IsValid@ODBC_CONNECTION@@QEBAHXZ
?IsValid@IIS_SERVER_CERT@@QEAAHXZ
?IsValid@IIS_CTL@@QEAAHXZ
?IsValid@HASH_TABLE@@QEBAHXZ
?IsTrustedRoot@IIS_SSL_INFO@@AEAAHPEBU_CERT_CONTEXT@@PEAH@Z
?IsSystemDBCS@IIS_SERVICE@@QEBAHXZ
?IsStoreRegisteredForChange@STORE_CHANGE_NOTIFIER@@QEAAHPEADP6AXPEAX@Z1@Z
?IsSslCertPresent@TCP_AUTHENT@@QEAAHXZ
?IsService@IIS_SERVICE@@QEAAHXZ
?IsRequiredExtraLoggingFields@LOGGING@@QEAAHXZ
?IsMultiInstance@IIS_SERVICE@@QEBAHXZ
?IsMatch@MIME_MAP_ENTRY@@UEBAHPEBDK@Z
?IsLoggingEnabledA@IIS_SERVER_INSTANCE@@QEBAHXZ
?IsInCurrentBindingList@IIS_SERVER_INSTANCE@@AEAAHPEAU_LIST_ENTRY@@KGPEBD@Z
?IsGuest@TCP_AUTHENT@@QEAAHH@Z
?IsForwardable@TCP_AUTHENT@@QEBAHXZ
?IsFortezzaCert@IIS_SERVER_CERT@@QEAAHXZ
?IsDownLevelInstance@IIS_SERVER_INSTANCE@@QEBAHXZ
?IsDefaultCertificate@IIS_SSL_INFO@@QEAAHXZ
?IsDefaultCTL@IIS_SSL_INFO@@AEAAHXZ
?IsClusterEnabled@IIS_SERVER_INSTANCE@@QEBAHXZ
?IsBindingInMultiSz@IIS_SERVER_INSTANCE@@AEAAHPEAVIIS_SERVER_BINDING@@AEBVMULTISZ@@@Z
?IsAutoStart@IIS_SERVER_INSTANCE@@QEBAHXZ
?IsActive@IIS_SERVICE@@QEBAHXZ
?InterrogateService@IIS_SERVICE@@AEAAXXZ
?InitializeSockets@IIS_SERVICE@@QEAAKXZ
?InitializeServiceRpc@IIS_SERVICE@@SAHPEBDPEAX@Z
?InitializeServiceInfo@IIS_SERVICE@@SAHXZ
?InitializeMetabaseComObject@IIS_SERVICE@@SAHXZ
?InitializeDiscovery@IIS_SERVICE@@QEAAKXZ
?Initialize@LOGGING@@SAKXZ
?Initialize@IIS_SERVER_INSTANCE@@SAHXZ
?InitMimeMap@MIME_MAP@@QEAAKXZ
?InitFromRegistryChicagoStyle@MIME_MAP@@AEAAKXZ
?InitFromMetabase@MIME_MAP@@AEAAKXZ
?Init@RefBlob@@QEAAHPEAXKP6AX0@Z@Z
?IndicateShutdownComplete@IIS_SERVICE@@QEAAXXZ
?IncrementCurrentConnections@IIS_SERVER_INSTANCE@@QEAAXXZ
?Impersonate@TCP_AUTHENT@@QEAAHXZ
?IISDuplicateTokenEx@@YAHPEAXKPEAU_SECURITY_ATTRIBUTES@@W4_SECURITY_IMPERSONATION_LEVEL@@W4_TOKEN_TYPE@@PEAPEAX@Z
?HasSecureBindings@IIS_SERVER_INSTANCE@@QEBAHXZ
?HasNormalBindings@IIS_SERVER_INSTANCE@@QEBAHXZ
?HasCertificate@IIS_SSL_INFO@@AEAAHPEAH0@Z
?HasCTL@IIS_SSL_INFO@@AEAAHPEAH0@Z
?HandlePrivateProperty@COMMON_METADATA@@UEAAHPEADPEAVIIS_SERVER_INSTANCE@@PEAU_METADATA_GETALL_INTERNAL_RECORD@@PEAXPEAVBUFFER@@PEAKPEAU_METADATA_ERROR_INFO@@@Z
?GetUserHandle@TCP_AUTHENT@@QEAAPEAXXZ
?GetTsvcCache@IIS_SERVER_INSTANCE@@QEAAAEAVTSVC_CACHE@@XZ
?GetTrustedIssuerStore@IIS_SSL_INFO@@QEAAHPEAPEAX@Z
?GetTrustedIssuerCerts@IIS_SSL_INFO@@QEAAHPEAPEAPEBU_CERT_CONTEXT@@PEAK@Z
?GetToken@TCP_AUTHENT@@QEBAPEAVCACHED_TOKEN@@XZ
?GetSystemChangeNumber@MB@@QEAAHPEAK@Z
?GetStr@MB@@QEAAHPEBDKKPEAVSTR@@K0@Z
?GetServiceSiteInfo@IIS_SERVICE@@SAHKPEAPEAU_INET_INFO_SITE_LIST@@@Z
?GetServiceId@TSVC_CACHE@@QEBAKXZ
?GetServiceConfigInfoSize@IIS_SERVICE@@EEAAKK@Z
?GetServiceAdminInfo@IIS_SERVICE@@SAHKKKHPEAKPEAPEAU_INET_INFO_CONFIG_INFO@@@Z
?GetServerInstance@TSVC_CACHE@@QEBAPEAXXZ
?GetRootStoreCertificates@IIS_SSL_INFO@@AEAAHPEAPEAPEBU_CERT_CONTEXT@@PEAK@Z
?GetNewInstanceId@IIS_SERVICE@@QEAAKXZ
?GetMultisz@MB@@QEAAHPEBDKKPEAVMULTISZ@@K@Z
?GetMemoryStore@IIS_CTL@@QEAAPEAXXZ
?GetMDInstancePath@IIS_SERVICE@@QEAAXKPEAD@Z
?GetLastErrorTextAsHtml@ODBC_CONNECTION@@QEBAHPEAVSTR@@PEAXF@Z
?GetLastErrorText@ODBC_CONNECTION@@QEBAHPEAVSTR@@PEAXF@Z
?GetInstanceStatistics@IIS_SERVICE@@QEAAHKKPEAPEAD@Z
?GetInstanceId@TSVC_CACHE@@QEBAKXZ
?GetInstanceConfiguration@IIS_SERVICE@@AEAAHKKHPEAKPEAPEAU_INET_INFO_CONFIG_INFO@@@Z
?GetInfo@ODBC_CONNECTION@@QEAAHKPEAXKPEAK@Z
?GetGlobalStatistics@IIS_SERVICE@@UEAAHKPEAPEAD@Z
?GetDirectoryListingA@TS_DIRECTORY_INFO@@QEAAHPEBDPEAX@Z
?GetDataSetNumber@MB@@QEAAHPEBDPEAK@Z
?GetDataPaths@MB@@QEAAHPEBDKKPEAVBUFFER@@@Z
?GetData@MB@@QEAAHPEBDKKKPEAXPEAKK@Z
?GetContainedCertificates@IIS_CTL@@QEAAHPEAPEAPEBU_CERT_CONTEXT@@PEAK1@Z
?GetConfig@LOGGING@@QEAAKPEAU_INETLOG_CONFIGURATIONA@@@Z
?GetCommonConfig@IIS_SERVER_INSTANCE@@QEAAHPEADK@Z
?GetClientCertBlob@TCP_AUTHENT@@QEAAHKPEAKPEAE00@Z
?GetCertificate@IIS_SSL_INFO@@QEAAPEAVIIS_SERVER_CERT@@XZ
?GetCertChainEngine@IIS_SSL_INFO@@QEAAHPEAPEAX@Z
?GetCTL@IIS_SSL_INFO@@QEAAPEAVIIS_CTL@@XZ
?GetAll@MB@@QEAAHPEBDKKPEAVBUFFER@@PEAK2@Z
?FreeMdTag@COMMON_METADATA@@QEAAXK@Z
?FreeColumnMemory@ODBC_STATEMENT@@QEAAXXZ
?FlushElements@HASH_TABLE@@QEAAKXZ
?FinishPrivateProperties@COMMON_METADATA@@UEAAHPEAVBUFFER@@KH@Z
?FindTopOfChain@IIS_SSL_INFO@@AEAAHPEBU_CERT_CONTEXT@@PEAPEBU2@@Z
?FindIISInstance@IIS_SERVICE@@QEAAPEAVIIS_SERVER_INSTANCE@@K@Z
?FindFromServiceInfoList@IIS_SERVICE@@SAPEAV1@K@Z
?FindAndReferenceInstance@IIS_ENDPOINT@@QEAAPEAVIIS_SERVER_INSTANCE@@PEBDKPEAH@Z
?FindAndReferenceEndpoint@IIS_SERVICE@@QEAAPEAVIIS_ENDPOINT@@GKHHH@Z
?FilterFiles@TS_DIRECTORY_INFO@@QEAAHP6AHPEBU_WIN32_FIND_DATAA@@PEAX@Z1@Z
?ExtractKey@IIS_VROOT_TABLE@@CA?B_KPEBX@Z
?ExecuteStatement@ODBC_STATEMENT@@QEAAHXZ
?ExecDirect@ODBC_STATEMENT@@QEAAHPEBGK@Z
?ExecDirect@ODBC_STATEMENT@@QEAAHPEBDK@Z
?EqualKeys@IIS_VROOT_TABLE@@CA_N_K0@Z
?EnumerateInstanceUsers@IIS_SERVICE@@QEAAHKPEAKPEAPEAD@Z
?EnumServiceInstances@IIS_SERVICE@@QEAAHPEAX0P6AH00PEAVIIS_SERVER_INSTANCE@@@Z@Z
?EnumObjects@MB@@QEAAHPEBDPEADK@Z
?EnumAuthPackages@TCP_AUTHENT@@QEAAHPEAVBUFFER@@@Z
?EatWhite@INET_PARSER@@QEAAPEADXZ
?EatNonWhite@INET_PARSER@@QEAAPEADXZ
?DoStartInstance@IIS_SERVER_INSTANCE@@QEAAKXZ
?DoServerNameCheck@IIS_SERVER_INSTANCE@@QEBAHXZ
?DisplaySize@ODBC_CONNECTION@@SAKFK@Z
?DisconnectInstanceUser@IIS_SERVICE@@QEAAHKK@Z
?DisassociateInstance@IIS_SERVICE@@QEAAHPEAVIIS_SERVER_INSTANCE@@@Z
?DestroyAllServerInstances@IIS_SERVICE@@QEAAXXZ
?Dereference@MIME_MAP_ENTRY@@UEAAJXZ
?Dereference@IIS_SERVICE@@QEAAXXZ
?Dereference@IIS_SERVER_INSTANCE@@QEAAXXZ
?Dereference@IIS_ENDPOINT@@QEAAXXZ
?DeleteVRootEntry@IIS_VROOT_TABLE@@AEAAXPEAX@Z
?DeleteObject@MB@@QEAAHPEBD@Z
?DeleteInstanceInfo@IIS_SERVICE@@QEAAHK@Z
?DeleteData@MB@@QEAAHPEBDKKK@Z
?DeleteCachedTokenOnReset@TCP_AUTHENT@@QEAAHXZ
?DelayCurrentServiceCtrlOperation@IIS_SERVICE@@QEAAKK@Z
?DeferredMDChangeNotify@IIS_SERVICE@@SAXKQEAU_MD_CHANGE_OBJECT_A@@@Z
?DeferredGlobalConfig@IIS_SERVICE@@SAXKQEAU_MD_CHANGE_OBJECT_A@@@Z
?DecrementCurrentConnections@IIS_SERVER_INSTANCE@@QEAAXXZ
?CreateSSLInfo@IIS_SSL_INFO@@SAPEAV1@PEADPEAUIMDCOM@@@Z
?CreateNewBinding@IIS_SERVER_INSTANCE@@AEAAKKGPEBDHHPEAPEAVIIS_SERVER_BINDING@@@Z
?CreateEngineTrustStore@IIS_SSL_INFO@@AEAAHXZ
?CreateEngineRootStore@IIS_SSL_INFO@@AEAAHXZ
?CreateAndAddMimeMapEntry@MIME_MAP@@AEAAHPEBD0@Z
?CopyValue@ODBC_PARAMETER@@QEAAHPEBG@Z
?CopyValue@ODBC_PARAMETER@@QEAAHPEBD@Z
?CopyValue@ODBC_PARAMETER@@QEAAHPEAXJ@Z
?CopyValue@ODBC_PARAMETER@@QEAAHPEAU_SYSTEMTIME@@@Z
?CopyValue@ODBC_PARAMETER@@QEAAHK@Z
?CopyToken@INET_PARSER@@QEAAHPEAVSTR@@H@Z
?CopyToEOL@INET_PARSER@@QEAAHPEAVSTR@@H@Z
?ConverseEx@TCP_AUTHENT@@QEAAHPEAU_SecBufferDesc@@PEAVBUFFER@@1PEAKPEAHPEAVTCP_AUTHENT_INFO@@PEAD55PEAVIIS_SERVER_INSTANCE@@@Z
?Converse@TCP_AUTHENT@@QEAAHPEAXKPEAVBUFFER@@PEAKPEAHPEAVTCP_AUTHENT_INFO@@PEAD55PEAVIIS_SERVER_INSTANCE@@@Z
?ContinueService@IIS_SERVICE@@AEAAXXZ
?ContinueInstance@IIS_SERVER_INSTANCE@@UEAAKXZ
?Compare@IIS_SERVER_BINDING@@QEAAKPEBDPEAH@Z
?Compare@IIS_SERVER_BINDING@@QEAAHKGPEBD@Z
?CloseService@IIS_SERVICE@@QEAAXXZ
?CloseInstance@IIS_SERVER_INSTANCE@@UEAAHXZ
?CloseHandle@TS_OPEN_FILE_INFO@@QEAAXXZ
?Close@ODBC_CONNECTION@@QEAAHXZ
?Close@MB@@QEAAHXZ
?ClearTextLogon@TCP_AUTHENT@@QEAAHPEAD0PEAH1PEAVIIS_SERVER_INSTANCE@@PEAVTCP_AUTHENT_INFO@@0@Z
?ClearInstanceStatistics@IIS_SERVICE@@QEAAHK@Z
?CleanupThis@TS_DIRECTORY_INFO@@QEAAXXZ
?CleanupThis@MIME_MAP@@QEAAXXZ
?CleanupSockets@IIS_SERVICE@@QEAAKXZ
?CleanupServiceRpc@IIS_SERVICE@@SAHXZ
?CleanupServiceInfo@IIS_SERVICE@@SAXXZ
?CleanupMetabaseComObject@IIS_SERVICE@@SAHXZ
?CleanupAfterConstructorFailure@IIS_SERVER_INSTANCE@@QEAAXXZ
?Cleanup@IIS_SERVER_INSTANCE@@SAXXZ
?CheckSignature@IIS_SSL_INFO@@AEAAHXZ
?CheckIfShortFileName@@YAKPEBEPEAXPEAH@Z
?CheckCAPIInfo@IIS_SSL_INFO@@AEAAHPEAH0PEADPEAKK@Z
?CheckAndReference@IIS_SERVICE@@QEAAHXZ
?CalculateHash@HASH_TABLE@@UEBAKPEBD@Z
?CalcKeyHash@IIS_VROOT_TABLE@@CAK_K@Z
?CTLContainsCert@IIS_SSL_INFO@@QEAAHPEBU_CERT_CONTEXT@@PEAH@Z
?BuildPhysicalPathWithAltRoot@COMMON_METADATA@@QEAAHPEADPEAVSTR@@PEBD@Z
?BuildPhysicalPath@COMMON_METADATA@@QEAAHPEADPEAVSTR@@@Z
?BuildApplPhysicalPath@COMMON_METADATA@@QEBAHPEAVMB@@PEAVSTR@@@Z
?BuildAnonymousAcctDesc@@YAHPEAVTCP_AUTHENT_INFO@@@Z
?BindParameter@ODBC_STATEMENT@@QEAAHPEAVODBC_PARAMETER@@@Z
?BindInstance@IIS_SERVER_INSTANCE@@QEAAKXZ
?Bind@ODBC_PARAMETER@@QEAAFPEAX@Z
?AuxSkipTo@INET_PARSER@@IEAAPEADD@Z
?AuxEatWhite@INET_PARSER@@IEAAPEADXZ
?AuxEatNonWhite@INET_PARSER@@IEAAPEADD@Z
?AssociateInstance@IIS_SERVICE@@QEAAHPEAVIIS_SERVER_INSTANCE@@@Z
?AppendToEOL@INET_PARSER@@QEAAHPEAVSTR@@H@Z
?AllocStatement@ODBC_CONNECTION@@QEAAPEAVODBC_STATEMENT@@XZ
?AdvertiseServiceInformationInMB@IIS_SERVICE@@QEAAXXZ
?AddVirtualRoot@IIS_VROOT_TABLE@@QEAAHPEAD0K0PEAXKH@Z
?AddServerInstance@IIS_SERVICE@@QEAAHPEAVIIS_SERVER_INSTANCE@@@Z
?AddRefRecord@IIS_VROOT_TABLE@@CAXPEBXH@Z
?AddRef@RefBlob@@QEAAXXZ
?AddObject@MB@@QEAAHPEBD@Z
?AddMimeMapEntry@MIME_MAP@@AEAAHPEAVMIME_MAP_ENTRY@@@Z
?AddInstanceInfoHelper@IIS_SERVICE@@IEAAHPEAVIIS_SERVER_INSTANCE@@@Z
?ActivateLogging@LOGGING@@QEAAHPEBDK0PEAX@Z
?ActOnChange@LOGGING@@AEAAXXZ
?AcquireServiceLock@IIS_SERVICE@@QEAAXH@Z
?AcquireGlobalLock@IIS_SERVICE@@CAXXZ
?AcquireFastLock@IIS_SERVER_INSTANCE@@QEAAXXZ
?AccessCheck@TS_OPEN_FILE_INFO@@QEAAHPEAXH@Z
??_7IIS_SERVICE@@6B@
??_7IIS_SERVER_INSTANCE@@6B@
??_7HT_ELEMENT@@6B@
??_7HASH_TABLE@@6B@
??YINET_PARSER@@QEAAXH@Z
??4TSVC_CACHE@@QEAAAEAV0@AEBV0@@Z
??4LOGGING@@QEAAAEAV0@AEBV0@@Z
??4IIS_SSL_INFO@@QEAAAEAV0@AEBV0@@Z
??4IIS_SERVICE@@QEAAAEAV0@AEBV0@@Z
??4IIS_SERVER_CERT@@QEAAAEAV0@AEBV0@@Z
??4IIS_CTL@@QEAAAEAV0@AEBV0@@Z
??4HT_ELEMENT@@QEAAAEAV0@AEBV0@@Z
??4HASH_TABLE@@QEAAAEAV0@AEBV0@@Z
??1TCP_AUTHENT@@QEAA@XZ
??1STORE_CHANGE_NOTIFIER@@QEAA@XZ
??1RefBlob@@QEAA@XZ
??1ODBC_STATEMENT@@QEAA@XZ
??1ODBC_PARAMETER@@QEAA@XZ
??1ODBC_CONNECTION@@QEAA@XZ
??1MB@@QEAA@XZ
??1LOGGING@@QEAA@XZ
??1INET_PARSER@@QEAA@XZ
??1IIS_VROOT_TABLE@@QEAA@XZ
??1IIS_SSL_INFO@@QEAA@XZ
??1IIS_SERVICE@@MEAA@XZ
??1IIS_SERVER_INSTANCE@@UEAA@XZ
??1IIS_SERVER_CERT@@QEAA@XZ
??1IIS_SERVER_BINDING@@QEAA@XZ
??1IIS_ENDPOINT@@QEAA@XZ
??1IIS_CTL@@QEAA@XZ
??1HT_ELEMENT@@UEAA@XZ
??1HASH_TABLE@@UEAA@XZ
??1COMMON_METADATA@@UEAA@XZ
??0TCP_AUTHENT@@QEAA@K@Z
??0STORE_CHANGE_NOTIFIER@@QEAA@XZ
??0RefBlob@@QEAA@XZ
??0ODBC_PARAMETER@@QEAA@GFFFK@Z
??0ODBC_CONNECTION@@QEAA@XZ
??0MIME_MAP@@QEAA@XZ
??0MB@@QEAA@PEAUIMDCOM@@@Z
??0LOGGING@@QEAA@XZ
??0LOGGING@@QEAA@AEBV0@@Z
??0INET_PARSER@@QEAA@PEAD@Z
??0IIS_VROOT_TABLE@@QEAA@XZ
??0IIS_SSL_INFO@@QEAA@PEADPEAUIMDCOM@@@Z
??0IIS_SSL_INFO@@QEAA@AEBV0@@Z
??0IIS_SERVICE@@QEAA@PEBD00K_KHKP6AX1PEAUsockaddr_in@@PEAX3@ZP6AX3KKPEAU_OVERLAPPED@@@Z6@Z
??0IIS_SERVICE@@QEAA@AEBV0@@Z
??0IIS_SERVER_INSTANCE@@QEAA@PEAVIIS_SERVICE@@KGPEBDPEAG2H@Z
??0IIS_SERVER_CERT@@QEAA@PEAUIMDCOM@@PEAD@Z
??0IIS_SERVER_CERT@@QEAA@AEBV0@@Z
??0IIS_SERVER_BINDING@@QEAA@KGPEBDPEAVIIS_ENDPOINT@@@Z
??0IIS_CTL@@QEAA@PEAUIMDCOM@@PEAD@Z
??0IIS_CTL@@QEAA@AEBV0@@Z
??0HT_ELEMENT@@QEAA@XZ
??0HT_ELEMENT@@QEAA@AEBV0@@Z
??0HASH_TABLE@@QEAA@AEBV0@@Z
??0COMMON_METADATA@@QEAA@XZ
