LIBRARY ISATQ.DLL
EXPORTS
SetIISCapTraceFlag
IISInitializeCapTrace
GetIISCapTraceLoggerHandle
GetIISCapTraceFlag
AtqWriteSocket
AtqWriteFile
AtqTransmitFileEx
AtqTransmitFile
AtqTerminate
AtqSyncWsaSend
AtqStopEndpoint
AtqStopAndCloseEndpoint
AtqStartEndpoint
AtqSetSocketOption
AtqSetInfo
AtqReadSocket
AtqReadFile
AtqReadDirChanges
AtqPostCompletionStatus
AtqInitialize
AtqGetStatistics
AtqGetInfo
AtqGetCompletionPort
AtqGetCapTraceInfo
AtqGetAcceptExAddrs
AtqFreeContext
AtqFreeBandwidthInfo
AtqEndpointSetInfo
AtqEndpointGetInfo
AtqCreateEndpoint
AtqCreateBandwidthInfo
AtqContextSetInfo
AtqCloseSocket
AtqCloseFileHandle
AtqCloseEndpoint
AtqClearStatistics
AtqBandwidthSetInfo
AtqBandwidthGetInfo
AtqAddAsyncHandle
?end@?$CTypedHashTable@VCDirMonitor@@VCDirMonitorEntry@@PEBDVCLKRHashTable@@@@QEAA?AViterator@1@XZ
?begin@?$CTypedHashTable@VCDirMonitor@@VCDirMonitorEntry@@PEBDVCLKRHashTable@@@@QEAA?AViterator@1@XZ
?_Pred@?$CTypedHashTable@VCDirMonitor@@VCDirMonitorEntry@@PEBDVCLKRHashTable@@@@CA?AW4LK_PREDICATE@@PEBXPEAX@Z
?_ExtractKey@?$CTypedHashTable@VCDirMonitor@@VCDirMonitorEntry@@PEBDVCLKRHashTable@@@@CA?B_KPEBX@Z
?_EqualKeys@?$CTypedHashTable@VCDirMonitor@@VCDirMonitorEntry@@PEBDVCLKRHashTable@@@@CA_N_K0@Z
?_CalcKeyHash@?$CTypedHashTable@VCDirMonitor@@VCDirMonitorEntry@@PEBDVCLKRHashTable@@@@CAK_K@Z
?_AddRefRecord@?$CTypedHashTable@VCDirMonitor@@VCDirMonitorEntry@@PEBDVCLKRHashTable@@@@CAXPEBXH@Z
?_Action@?$CTypedHashTable@VCDirMonitor@@VCDirMonitorEntry@@PEBDVCLKRHashTable@@@@CA?AW4LK_ACTION@@PEBXPEAX@Z
?Unlock@CDirMonitor@@QEAAXXZ
?SetBufferSize@CDirMonitorEntry@@IEAAHK@Z
?SerialComplUnlock@CDirMonitor@@AEAAXXZ
?SerialComplLock@CDirMonitor@@AEAAXXZ
?ResetDirectoryHandle@CDirMonitorEntry@@IEAAHXZ
?RequestNotification@CDirMonitorEntry@@IEAAHXZ
?RemoveEntry@CDirMonitor@@QEAA?AW4LK_RETCODE@@PEAVCDirMonitorEntry@@@Z
?Release@CDirMonitorEntry@@UEAAHXZ
?Release@CDirMonitor@@QEAAJXZ
?Monitor@CDirMonitor@@QEAAHPEAVCDirMonitorEntry@@PEBDHK@Z
?Lock@CDirMonitor@@QEAAXXZ
?InsertRecord@?$CTypedHashTable@VCDirMonitor@@VCDirMonitorEntry@@PEBDVCLKRHashTable@@@@QEAA?AW4LK_RETCODE@@PEBVCDirMonitorEntry@@_N@Z
?InsertEntry@CDirMonitor@@QEAA?AW4LK_RETCODE@@PEAVCDirMonitorEntry@@@Z
?Insert@?$CTypedHashTable@VCDirMonitor@@VCDirMonitorEntry@@PEBDVCLKRHashTable@@@@QEAA_NPEBVCDirMonitorEntry@@AEAViterator@1@_N@Z
?Init@CDirMonitorEntry@@UEAAHK@Z
?IORelease@CDirMonitorEntry@@IEAAHXZ
?IOAddRef@CDirMonitorEntry@@IEAAXXZ
?GetBufferSize@CDirMonitorEntry@@IEAAKXZ
?FindRecord@?$CTypedHashTable@VCDirMonitor@@VCDirMonitorEntry@@PEBDVCLKRHashTable@@@@QEBA?AW4LK_RETCODE@@PEBVCDirMonitorEntry@@@Z
?FindKey@?$CTypedHashTable@VCDirMonitor@@VCDirMonitorEntry@@PEBDVCLKRHashTable@@@@QEBA?AW4LK_RETCODE@@QEBDPEAPEAVCDirMonitorEntry@@@Z
?FindEntry@CDirMonitor@@QEAAPEAVCDirMonitorEntry@@PEBD@Z
?Find@?$CTypedHashTable@VCDirMonitor@@VCDirMonitorEntry@@PEBDVCLKRHashTable@@@@QEAA_NQEBDAEAViterator@1@@Z
?ExtractKey@CDirMonitor@@SAPEBDPEBVCDirMonitorEntry@@@Z
?Erase@?$CTypedHashTable@VCDirMonitor@@VCDirMonitorEntry@@PEBDVCLKRHashTable@@@@QEAA_NAEAViterator@1@@Z
?Erase@?$CTypedHashTable@VCDirMonitor@@VCDirMonitorEntry@@PEBDVCLKRHashTable@@@@QEAA_NAEAViterator@1@0@Z
?EqualRange@?$CTypedHashTable@VCDirMonitor@@VCDirMonitorEntry@@PEBDVCLKRHashTable@@@@QEAA_NQEBDAEAViterator@1@1@Z
?EqualKeys@CDirMonitor@@SA_NPEBD0@Z
?DirMonitorCompletionFunction@CDirMonitor@@SAXPEAXKKPEAU_OVERLAPPED@@@Z
?DeleteRecord@?$CTypedHashTable@VCDirMonitor@@VCDirMonitorEntry@@PEBDVCLKRHashTable@@@@QEAA?AW4LK_RETCODE@@PEBVCDirMonitorEntry@@@Z
?DeleteKey@?$CTypedHashTable@VCDirMonitor@@VCDirMonitorEntry@@PEBDVCLKRHashTable@@@@QEAA?AW4LK_RETCODE@@QEBD@Z
?DeleteIf@?$CTypedHashTable@VCDirMonitor@@VCDirMonitorEntry@@PEBDVCLKRHashTable@@@@QEAAKP6A?AW4LK_PREDICATE@@PEAVCDirMonitorEntry@@PEAX@Z1@Z
?Cleanup@CDirMonitorEntry@@IEAAHXZ
?Cleanup@CDirMonitor@@QEAAHXZ
?CalcKeyHash@CDirMonitor@@SAKPEBD@Z
?ApplyIf@?$CTypedHashTable@VCDirMonitor@@VCDirMonitorEntry@@PEBDVCLKRHashTable@@@@QEAAKP6A?AW4LK_PREDICATE@@PEAVCDirMonitorEntry@@PEAX@ZP6A?AW4LK_ACTION@@01@Z1W4LK_LOCKTYPE@@@Z
?Apply@?$CTypedHashTable@VCDirMonitor@@VCDirMonitorEntry@@PEBDVCLKRHashTable@@@@QEAAKP6A?AW4LK_ACTION@@PEAVCDirMonitorEntry@@PEAX@Z1W4LK_LOCKTYPE@@@Z
?AddRefRecord@CDirMonitor@@SAXPEAVCDirMonitorEntry@@H@Z
?AddRef@CDirMonitorEntry@@UEAAXXZ
?AddRef@CDirMonitor@@QEAAJXZ
??_7CDirMonitorEntry@@6B@
??4CDirMonitorEntry@@QEAAAEAV0@AEBV0@@Z
??1CDirMonitorEntry@@UEAA@XZ
??1CDirMonitor@@QEAA@XZ
??1?$CTypedHashTable@VCDirMonitor@@VCDirMonitorEntry@@PEBDVCLKRHashTable@@@@QEAA@XZ
??0CDirMonitorEntry@@QEAA@XZ
??0CDirMonitorEntry@@QEAA@AEBV0@@Z
??0CDirMonitor@@QEAA@XZ
??0?$CTypedHashTable@VCDirMonitor@@VCDirMonitorEntry@@PEBDVCLKRHashTable@@@@QEAA@PEBDNKK_N@Z
