LIBRARY MMUTILSE.DLL
EXPORTS
swprintf
strlen
strcpy
setlocale
memset
memcmp
fmod
_wtoi
_wcsicmp
?pszW@CTStr@@QEAAPEAGXZ
?pszA@CTStr@@QEAAPEADXZ
?psz@CTStr@@QEAAPEADXZ
?WriteLongToPropBag@@YAJPEAUIPropertyBag@@PEADJ@Z
?WriteBstrToPropBag@@YAJPEAUIPropertyBag@@PEADPEAG@Z
?Write@CURLArchive@@UEAAKPEAEK@Z
?Wcstombs@CStringWrapper@@SA_KPEADPEBG_K@Z
?WStrncpy@CStringWrapper@@SAPEAGPEAGPEBG_K@Z
?WStrlen@CStringWrapper@@SAHPEBG@Z
?WStrcpy@CStringWrapper@@SAPEAGPEAGPEBG@Z
?WStrcat@CStringWrapper@@SAPEAGPEAGPEBG@Z
?WStrCmpin@CStringWrapper@@SAHPEBG0_K@Z
?UnRegisterMemUserGlb@CMemManager@@SAHPEAVCMemUser@@@Z
?UnRegisterMemUser@CMemManager@@QEAAHPEAVCMemUser@@@Z
?UnLockBuffer@CMemUser@@QEAAXPEAUMEMBLOCK_tag@@@Z
?SysAllocString@CTStr@@QEAAPEAGXZ
?Strtok@CStringWrapper@@SAPEADPEADPEBD@Z
?Strstr@CStringWrapper@@SAPEADPEBD0@Z
?Strrchr@CStringWrapper@@SAPEADPEBDD@Z
?Strnicmp@CStringWrapper@@SAHPEBD0_K@Z
?Strncpy@CStringWrapper@@SAPEADPEADPEBD_K@Z
?Strncmp@CStringWrapper@@SAHPEBD0_K@Z
?Strlen@CStringWrapper@@SAHPEBD@Z
?Strinc@CStringWrapper@@SAPEADPEBD@Z
?Stricmp@CStringWrapper@@SAHPEBD0@Z
?Strcpy@CStringWrapper@@SAPEADPEADPEBD@Z
?Strcmp@CStringWrapper@@SAHPEBD0@Z
?Strchr@CStringWrapper@@SAPEADPEBDD@Z
?Strcat@CStringWrapper@@SAPEADPEADPEBD@Z
?Sscanf3@CStringWrapper@@SAHPEBD0PEAX11@Z
?Sscanf2@CStringWrapper@@SAHPEBD0PEAX1@Z
?Sscanf1@CStringWrapper@@SAHPEBD0PEAX@Z
?Sqrt@CMathWrapper@@SAMM@Z
?Sprintf@CStringWrapper@@SAHPEADPEBDZZ
?SizeBufferGlb@CMemManager@@SAKPEAX@Z
?SizeBuffer@CMemManager@@QEAAKPEAX@Z
?SinWrap@OTrig@@QEAAMM@Z
?SinWrap@OTrig@@QEAAMJ@Z
?SinRad@CMathWrapper@@SANN@Z
?SinDegWrap@CMathWrapper@@SAMM@Z
?SinDegWrap@CMathWrapper@@SAMJ@Z
?SinDeg@CMathWrapper@@SAMM@Z
?SinDeg@CMathWrapper@@SAMJ@Z
?Sin@OTrig@@QEAAMM@Z
?Sin@OTrig@@QEAAMJ@Z
?SetStringPointer@CTStr@@QEAAHPEADH@Z
?SetString@CTStr@@QEAAHPEAG@Z
?SetString@CTStr@@QEAAHPEAD@Z
?SetNonDefaultSizes@CDrg@@UEAAXII@Z
?SetAt@CNonCollapsingDrg@@UEAAHPEAXJ@Z
?SetArray@CNonCollapsingDrg@@UEAAXPEAEJI@Z
?Seek@CURLArchive@@UEAAJJW4origin@1@@Z
?RetailEcho@@YAXPEADZZ
?ResetLength@CTStr@@QEAAXXZ
?Remove@CNonCollapsingDrg@@UEAAHPEAXJ@Z
?Remove@CDrg@@UEAAHPEAXJ@Z
?RegisterMemUserGlb@CMemManager@@SAHPEAVCMemUser@@@Z
?RegisterMemUser@CMemManager@@QEAAHPEAVCMemUser@@@Z
?ReadLongFromPropBag@@YAJPEAUIPropertyBag@@PEAUIErrorLog@@PEADPEAJ@Z
?ReadLine@CURLArchive@@UEAAKPEAGK@Z
?ReadLine@CURLArchive@@UEAAKPEADK@Z
?ReadBstrFromPropBag@@YAJPEAUIPropertyBag@@PEAUIErrorLog@@PEADPEAPEAG@Z
?Read@CURLArchive@@UEAAKPEAEK@Z
?ReAllocBufferGlb@CMemManager@@SAPEAXPEAXKG@Z
?ReAllocBuffer@CMemManager@@QEAAPEAXPEAXKG@Z
?Pow@CMathWrapper@@SAMNN@Z
?OverheadOfSavePtrDrg@@YAKXZ
?NotifyMemUser@CMemUser@@UEAAHPEAUMEMNOTIFY_tag@@@Z
?Memset@CStringWrapper@@SAPEAXPEAXH_K@Z
?Memcpy@CStringWrapper@@SAPEAXPEAXPEBX_K@Z
?Memcmp@CStringWrapper@@SAHPEBX0_K@Z
?Mbstowcs@CStringWrapper@@SA_KPEAGPEBD_K@Z
?Ltoa@CStringWrapper@@SAPEADJPEADH@Z
?LockBuffer@CMemUser@@QEAAPEAXPEAUMEMBLOCK_tag@@@Z
?LoadStringW@CStringWrapper@@SAHPEAUHINSTANCE__@@IPEAGH@Z
?Len@CTStr@@QEAAHXZ
?Itoa@CStringWrapper@@SAPEADHPEADH@Z
?Iswspace@CStringWrapper@@SAHG@Z
?IsMMXCpu@@YAHXZ
?Insert@CDrg@@UEAAHPEAXJ@Z
?GetStreamInterface@CURLArchive@@UEBAPEAUIStream@@XZ
?GetSigBitsFrom16BPP@@YAKPEAUHDC__@@@Z
?GetNext@CNonCollapsingDrg@@UEAAPEAXXZ
?GetFirst@CNonCollapsingDrg@@UEAAPEAXXZ
?GetFileSize@CURLArchive@@UEAAJAEAJ@Z
?GetAt@CNonCollapsingDrg@@UEAAPEAXJ@Z
?Gcvt@CStringWrapper@@SAPEADNHPEAD@Z
?FreeBufferMemBlock@CMemManager@@QEAAXPEAUMEMBLOCK_tag@@@Z
?FreeBufferGlb@CMemManager@@SAXPEAX@Z
?FreeBuffer@CTStr@@QEAAXXZ
?FreeBuffer@CMemUser@@QEAAXPEAUMEMBLOCK_tag@@@Z
?FreeBuffer@CMemManager@@QEAAXPEAX@Z
?ExternalDumpAllocations@@YAXPEAD@Z
?DumpMemUserInfo@CMemManager@@AEAAXPEAUMEMUSERINFO_tag@@PEAU_iobuf@@@Z
?DumpMemBlock@CMemManager@@AEAAXPEAUMEMBLOCK_tag@@PEAU_iobuf@@@Z
?DumpHeapHeader@CMemManager@@AEAAXPEAUHEAPHEADER_tag@@PEAU_iobuf@@@Z
?DumpAllocationsGlb@CMemManager@@SAXPEAD@Z
?DumpAllocations@CMemManager@@QEAAXPEAD@Z
?CreateIDispatchCollection@@YAHPEAPEAUIUnknown@@@Z
?Create@CURLArchive@@UEAAJPEBG@Z
?Create@CURLArchive@@UEAAJPEBD@Z
?CosWrap@OTrig@@QEAAMM@Z
?CosWrap@OTrig@@QEAAMJ@Z
?CosRad@CMathWrapper@@SANN@Z
?CosDegWrap@CMathWrapper@@SAMM@Z
?CosDegWrap@CMathWrapper@@SAMJ@Z
?CosDeg@CMathWrapper@@SAMM@Z
?CosDeg@CMathWrapper@@SAMJ@Z
?Cos@OTrig@@QEAAMM@Z
?Cos@OTrig@@QEAAMJ@Z
?CopyLocal@CURLArchive@@UEAAJPEAGH@Z
?CopyLocal@CURLArchive@@UEAAJPEADH@Z
?CopyFrom@CNonCollapsingDrg@@UEAAHPEAVCDrg@@@Z
?Close@CURLArchive@@UEAAJXZ
?BitCountFromDDPIXELFORMAT@@YAJAEBU_DDPIXELFORMAT@@@Z
?Atol@CStringWrapper@@SAJPEBD@Z
?Atoi@CStringWrapper@@SAHPEBD@Z
?AllocBufferGlb@CMemManager@@SAPEAXKG@Z
?AllocBuffer@CTStr@@QEAAHHH@Z
?AllocBuffer@CMemUser@@QEAAPEAUMEMBLOCK_tag@@KG@Z
?AllocBuffer@CMemManager@@QEAAPEAXKG@Z
??_FCURLArchive@@QEAAXXZ
??_FCTStr@@QEAAXXZ
??1CURLArchive@@UEAA@XZ
??1CTStr@@QEAA@XZ
??1CMemUser@@UEAA@XZ
??1CMemManager@@UEAA@XZ
??0OTrig@@QEAA@XZ
??0CURLArchive@@QEAA@PEAUIUnknown@@@Z
??0CTStr@@QEAA@PEAG@Z
??0CTStr@@QEAA@PEAD@Z
??0CTStr@@QEAA@H@Z
??0CTStr@@QEAA@AEAV0@@Z
??0CMemUser@@QEAA@XZ
??0CMemManager@@QEAA@XZ
??0CHalftonePalette@@QEAA@XZ
??0CHalftonePalette@@QEAA@PEAUHPALETTE__@@@Z
??0CHalftone@@QEAA@PEAUHPALETTE__@@@Z
??0CDirectDrawSurface@IHammer@@QEAA@PEAUHPALETTE__@@KPEBUtagSIZE@@PEAJ@Z
