LIBRARY MQSEC.DLL
EXPORTS
ShutDownDebugWindow
SetFalconServiceName
SetFalconKeyValue
ServerAcceptSecCtx
MSMQGetOperatingSystem
MQsspi_InitServerAuthntication
MQUInitGlobalScurityVars
MQSigOpenUserCertStore
MQSigHashMessageProperties
MQSigCreateCertificate
MQSigCloneCertFromSysStore
MQSigCloneCertFromReg
MQSec_UpdateLocalMachineSid
MQSec_UnpackPublicKey
MQSec_TraceThreadTokenInfo
MQSec_StorePubKeysInDS
MQSec_StorePubKeys
MQSec_SetSecurityDescriptorDacl
MQSec_SetPrivilegeInThread
MQSec_SetLocalRpcMutualAuth
MQSec_RpcAuthnLevel
MQSec_PackPublicKey
MQSec_MergeSecurityDescriptors
MQSec_MakeSelfRelative
MQSec_MakeAbsoluteSD
MQSec_IsUnAuthenticatedUser
MQSec_IsSystemSid
MQSec_IsNetworkServiceSid
MQSec_IsGuestSid
MQSec_IsDC
MQSec_IsAnonymusSid
MQSec_GetWorldSid
MQSec_GetUserType
MQSec_GetThreadUserSid
MQSec_GetPubKeysFromDS
MQSec_GetProcessUserSid
MQSec_GetProcessSid
MQSec_GetNetworkServiceSid
MQSec_GetLocalSystemSid
MQSec_GetLocalMachineSid
MQSec_GetImpersonationObject
MQSec_GetDefaultSecDescriptor
MQSec_GetCryptoProvProperty
MQSec_GetAnonymousSid
MQSec_GetAdminSid
MQSec_CopySecurityDescriptor
MQSec_ConvertSDToNT5Format
MQSec_ConvertSDToNT4Format
MQSec_CanGenerateAudit
MQSec_AcquireCryptoProvider
MQSec_AccessCheckForSelf
MQSec_AccessCheck
MQSealBuffer
GetSizes
GetFalconKeyValue
GetDomainFQDNName
FreeContextHandle
?mqrpcUnbindQMService@@YAJPEAPEAXPEAPEAG@Z
?mqrpcIsTcpipTransport@@YAHPEAX@Z
?mqrpcIsLocalCall@@YAHPEAX@Z
?mqrpcGetLocalCallPID@@YAKPEAX@Z
?mqrpcBindQMService@@YAJPEAG0PEAKPEAPEAXW4PORTTYPE@@P6AKPEAXK@ZK@Z
?getNumOfProps@CDSBaseUpdate@@QEAAEXZ
?XactGetWhereabouts@@YAJPEAKPEAE@Z
?XactGetDTC@@YAJPEAPEAUIUnknown@@@Z
?Value@CPropertyRestriction@@QEAAAEBVCMQVariant@@XZ
?UnalignedWcslen@@YA_KPEFBG@Z
?ShutDownCancelThread@CCancelRpc@@QEAAXXZ
?SetValue@CPropertyRestriction@@QEAAXPEAUtagCALPWSTR@@@Z
?SetValue@CPropertyRestriction@@QEAAXPEAUtagCACLSID@@@Z
?SetValue@CPropertyRestriction@@QEAAXPEAU_GUID@@@Z
?SetValue@CPropertyRestriction@@QEAAXPEAG@Z
?SetValue@CPropertyRestriction@@QEAAXK@Z
?SetValue@CPropertyRestriction@@QEAAXJ@Z
?SetValue@CPropertyRestriction@@QEAAXF@Z
?SetValue@CPropertyRestriction@@QEAAXE@Z
?SetValue@CPropertyRestriction@@QEAAXAEBVCMQVariant@@@Z
?SetValue@CPropertyRestriction@@QEAAXAEAUtagBLOB@@@Z
?SetRelation@CPropertyRestriction@@QEAAXK@Z
?SetProperty@CSortKey@@QEAAXAEBK@Z
?SetProperty@CPropertyRestriction@@QEAAXAEBK@Z
?SetPrevSeqNum@CDSBaseUpdate@@QEAAXAEAVCSeqNum@@@Z
?SetOrder@CSortKey@@QEAAXAEBK@Z
?SetChild@CRestriction@@QEAAXAEBVCPropertyRestriction@@I@Z
?SerializeProperty@CDSBaseUpdate@@AEAAJAEAUtagPROPVARIANT@@PEAEPEAK@Z
?Serialize@CDSBaseUpdate@@QEAAJPEAEPEAKH@Z
?RpcCancelTimeout@CCancelRpc@@QEAAKXZ
?Remove@CSort@@QEAAXI@Z
?Remove@CColumns@@QEAAXI@Z
?Remove@CCancelRpc@@QEAAXPEAX@Z
?Relation@CPropertyRestriction@@QEAAKXZ
?ProduceRPCErrorTracing@@YAXPEAGK@Z
?ProcessEvents@CCancelRpc@@AEAAXXZ
?MQSetCaConfig@@YAJKPEAVMQ_CA_CONFIG@@@Z
?KeepErrorHistory@COutputReport@@QEAAXPEBGGJ@Z
?IsLocalSystemCluster@@YA_NXZ
?InitProperty@CDSBaseUpdate@@AEAAJPEBEPEAKKAEAUtagPROPVARIANT@@@Z
?Init@CDSBaseUpdate@@QEAAJPEBU_GUID@@AEBVCSeqNum@@11HEKPEAGKPEAKPEAUtagPROPVARIANT@@@Z
?Init@CDSBaseUpdate@@QEAAJPEBU_GUID@@AEBVCSeqNum@@11HEK0KPEAKPEAUtagPROPVARIANT@@@Z
?Init@CDSBaseUpdate@@QEAAJPEBEPEAKH@Z
?Init@CCancelRpc@@QEAAXXZ
?HashProperties@@YAJ_KKPEAKPEAUtagPROPVARIANT@@@Z
?HashMessageProperties@@YAJ_KPEBEKK1KPEBGKPEBUQUEUE_FORMAT@@3@Z
?Grow@CRestriction@@AEAAXXZ
?GetVars@CDSBaseUpdate@@QEAAPEAUtagPROPVARIANT@@XZ
?GetThisServerIpPort@@YAJPEAGK@Z
?GetSerializeSize@CDSBaseUpdate@@QEAAJPEAK@Z
?GetSeqNum@CDSBaseUpdate@@QEBAAEBVCSeqNum@@XZ
?GetPurgeSeqNum@CDSBaseUpdate@@QEBAAEBVCSeqNum@@XZ
?GetProps@CDSBaseUpdate@@QEAAPEAKXZ
?GetProperty@CSortKey@@QEBAAEBKXZ
?GetPrevSeqNum@CDSBaseUpdate@@QEBAAEBVCSeqNum@@XZ
?GetPathName@CDSBaseUpdate@@QEAAPEAGXZ
?GetOrder@CSortKey@@QEBAKXZ
?GetObjectType@CDSBaseUpdate@@QEAAKXZ
?GetMasterId@CDSBaseUpdate@@QEAAPEBU_GUID@@XZ
?GetGuidIdentifier@CDSBaseUpdate@@QEAAPEAU_GUID@@XZ
?GetFalconServiceName@@YAKPEAGK@Z
?GetFalconSectionName@@YAPEBGXZ
?GetFalconKey@@YAJPEBGPEAPEAUHKEY__@@@Z
?GetComputerNameInternal@@YAJPEAGPEAK@Z
?GetComputerDnsNameInternal@@YAJPEAGPEAK@Z
?GetCommand@CDSBaseUpdate@@QEAAEXZ
?GetChild@CRestriction@@QEBAAEBVCPropertyRestriction@@I@Z
?Get@CSort@@QEBAAEBVCSortKey@@I@Z
?Get@CColumns@@QEBAAEBKI@Z
?DeleteProperty@CDSBaseUpdate@@AEAAXAEAUtagPROPVARIANT@@@Z
?DeleteFalconKeyValue@@YAJPEBG@Z
?Count@CSort@@QEBAIXZ
?Count@CRestriction@@QEBAIXZ
?Count@CColumns@@QEBAIXZ
?CopyProperty@CDSBaseUpdate@@AEAAJAEAUtagPROPVARIANT@@PEAU2@@Z
?ComposeRPCEndPointName@@YAXPEBG0PEAPEAG@Z
?CastToStruct@CSort@@QEAAPEAUtagMQSORTSET@@XZ
?CastToStruct@CRestriction@@QEAAPEAUtagMQRESTRICTION@@XZ
?CastToStruct@CColumns@@QEAAPEAUtagMQCOLUMNSET@@XZ
?CancelThread@CCancelRpc@@CAKPEAX@Z
?CancelRequests@CCancelRpc@@QEAAX_J@Z
?AddRestriction@CRestriction@@QEAAXPEAUtagCALPWSTR@@KK@Z
?AddRestriction@CRestriction@@QEAAXPEAUtagCACLSID@@KK@Z
?AddRestriction@CRestriction@@QEAAXPEAU_GUID@@KK@Z
?AddRestriction@CRestriction@@QEAAXPEAGKK@Z
?AddRestriction@CRestriction@@QEAAXKKK@Z
?AddRestriction@CRestriction@@QEAAXJKK@Z
?AddRestriction@CRestriction@@QEAAXFKK@Z
?AddRestriction@CRestriction@@QEAAXEKK@Z
?AddRestriction@CRestriction@@QEAAXAEBVCMQVariant@@KK@Z
?AddRestriction@CRestriction@@QEAAXAEAUtagBLOB@@KK@Z
?AddChild@CRestriction@@QEAAXAEBVCPropertyRestriction@@@Z
?Add@CSort@@QEAAXAEBVCSortKey@@@Z
?Add@CSort@@QEAAXAEBKK@Z
?Add@CColumns@@QEAAXAEBK@Z
?Add@CCancelRpc@@QEAAXPEAX_J@Z
??_FCSort@@QEAAXXZ
??_FCRestriction@@QEAAXXZ
??_FCColumns@@QEAAXXZ
??4CSortKey@@QEAAAEAV0@AEBV0@@Z
??4CRestriction@@QEAAAEAV0@AEBV0@@Z
??4CPropertyRestriction@@QEAAAEAV0@AEBV0@@Z
??4COutputReport@@QEAAAEAV0@AEBV0@@Z
??4CDSBaseUpdate@@QEAAAEAV0@AEBV0@@Z
??4CCancelRpc@@QEAAAEAV0@AEBV0@@Z
??1CSortKey@@QEAA@XZ
??1CSort@@QEAA@XZ
??1CRestriction@@QEAA@XZ
??1CPropertyRestriction@@QEAA@XZ
??1COutputReport@@QEAA@XZ
??1CDSBaseUpdate@@QEAA@XZ
??1CColumns@@QEAA@XZ
??1CCancelRpc@@QEAA@XZ
??0CSortKey@@QEAA@XZ
??0CSortKey@@QEAA@AEBKK@Z
??0CSort@@QEAA@I@Z
??0CSort@@QEAA@AEBV0@@Z
??0CRestriction@@QEAA@I@Z
??0CRestriction@@QEAA@AEBV0@@Z
??0CPropertyRestriction@@QEAA@XZ
??0CPropertyRestriction@@QEAA@KAEBKAEBVCMQVariant@@@Z
??0CPropertyRestriction@@QEAA@AEBV0@@Z
??0COutputReport@@QEAA@XZ
??0CDSBaseUpdate@@QEAA@XZ
??0CDSBaseUpdate@@QEAA@AEBV0@@Z
??0CColumns@@QEAA@I@Z
??0CColumns@@QEAA@AEBV0@@Z
??0CCancelRpc@@QEAA@XZ
??0CCancelRpc@@QEAA@AEBV0@@Z
