LIBRARY MSDART.DLL
EXPORTS
mpRealloc
mpMalloc
mpFree
mpCalloc
UMSEnterCSWraper
SetMemHook
SetIUMS
MpHeapValidate
MpHeapSize
MpHeapReAlloc
MpHeapFree
MpHeapDestroy
MpHeapCreate
MpHeapAlloc
MpGetHeapHandle
MPInitializeCriticalSectionAndSpinCount
MPInitializeCriticalSection
MPDeleteCriticalSection
MPCSUninitialize
MPCSInitialize
LoadVersionedResourceEx
IsValidString
IsValidAddress
IrtlTrace
GetIUMS
FXMemDetach
FXMemAttach
DllMain
DllBidEntryPoint
?s_aBucketSizes@?1??BucketSizes@CLKRHashTableStats@@SAPEBJXZ@4QBJB
?fHaveBackup@CEXAutoBackupFile@@QEAAHXZ
?_setFileSecurity@CExFileOperation@@AEAAJPEBG@Z
?_getFileSecurity@CExFileOperation@@AEAAJPEBG@Z
?_WriteLockSpin@CReaderWriterLock@@AEAAXXZ
?_WriteLockSpin@CReaderWriterLock3@@AEAAXXZ
?_WriteLockSpin@CReaderWriterLock2@@AEAAXXZ
?_Unlock@CSpinLock@@AEAAXXZ
?_TryWriteLock@CReaderWriterLock@@AEAA_NXZ
?_TryWriteLock@CReaderWriterLock3@@AEAA_NJ@Z
?_TryWriteLock@CReaderWriterLock2@@AEAA_NJ@Z
?_TryWriteLock2@CReaderWriterLock3@@AEAA_NXZ
?_TryReadLockRecursive@CReaderWriterLock3@@AEAA_NXZ
?_TryReadLock@CReaderWriterLock@@AEAA_NXZ
?_TryReadLock@CReaderWriterLock3@@AEAA_NXZ
?_TryReadLock@CReaderWriterLock2@@AEAA_NXZ
?_TryLock@CSpinLock@@AEAA_NXZ
?_TryLock@CSmallSpinLock@@AEAA_NXZ
?_SubTable@CLKRHashTable@@AEBAPEAVCLKRLinearHashTable@@K@Z
?_SplitRecordSet@CLKRLinearHashTable@@AEAA?AW4LK_RETCODE@@PEAVCNodeClump@1@0KKK0@Z
?_SetSegVars@CLKRLinearHashTable@@AEAAXW4LK_TABLESIZE@@@Z
?_Segment@CLKRLinearHashTable@@AEBAAEAPEAVCSegment@1@K@Z
?_SegIndex@CLKRLinearHashTable@@AEBAKK@Z
?_RemoveThisFromGlobalList@CLKRLinearHashTable@@AEAAXXZ
?_RemoveThisFromGlobalList@CLKRHashTable@@AEAAXXZ
?_ReadOrWriteUnlock@CLKRLinearHashTable@@AEBAX_N@Z
?_ReadOrWriteLock@CLKRLinearHashTable@@AEBA_NXZ
?_ReadLockSpin@CReaderWriterLock@@AEAAXXZ
?_ReadLockSpin@CReaderWriterLock3@@AEAAXW4SPIN_TYPE@1@@Z
?_ReadLockSpin@CReaderWriterLock2@@AEAAXXZ
?_PredTrue@CLKRLinearHashTable@@CA?AW4LK_PREDICATE@@PEBXPEAX@Z
?_MergeRecordSets@CLKRLinearHashTable@@AEAA?AW4LK_RETCODE@@PEAVCBucket@1@PEAVCNodeClump@1@1@Z
?_LockSpin@CSpinLock@@AEAAXXZ
?_LockSpin@CSmallSpinLock@@AEAAXXZ
?_LockSpin@CReaderWriterLock@@AEAAX_N@Z
?_LockSpin@CReaderWriterLock3@@AEAAXW4SPIN_TYPE@1@@Z
?_LockSpin@CReaderWriterLock2@@AEAAX_N@Z
?_Lock@CSpinLock@@AEAAXXZ
?_IsNodeCompact@CLKRLinearHashTable@@AEBAHQEAVCBucket@1@@Z
?_IsLocked@CSpinLock@@AEBA_NXZ
?_InsertThisIntoGlobalList@CLKRLinearHashTable@@AEAAXXZ
?_InsertThisIntoGlobalList@CLKRHashTable@@AEAAXXZ
?_InsertRecord@CLKRLinearHashTable@@AEAA?AW4LK_RETCODE@@PEBXK_N@Z
?_InitializeIterator@CLKRLinearHashTable@@AEAA?AW4LK_RETCODE@@PEAVCIterator@1@@Z
?_Initialize@CLKRLinearHashTable@@AEAA?AW4LK_RETCODE@@P6A?B_KPEBX@ZP6AK_K@ZP6A_N22@ZP6AX0H@ZPEBDNK@Z
?_H1@CLKRLinearHashTable@@CAKKK@Z
?_H1@CLKRLinearHashTable@@AEBAKK@Z
?_H0@CLKRLinearHashTable@@CAKKK@Z
?_H0@CLKRLinearHashTable@@AEBAKK@Z
?_FreeSubTableArray@CLKRHashTable@@CA_NPEAPEAVCLKRLinearHashTable@@@Z
?_FreeSubTable@CLKRHashTable@@CA_NPEAVCLKRLinearHashTable@@@Z
?_FreeSegmentDirectory@CLKRLinearHashTable@@CA_NPEAVCDirEntry@1@@Z
?_FreeSegment@CLKRLinearHashTable@@AEBA_NPEAVCSegment@1@@Z
?_FreeNodeClump@CLKRLinearHashTable@@CA_NPEAVCNodeClump@1@@Z
?_FindRecord@CLKRLinearHashTable@@AEBA?AW4LK_RETCODE@@PEBXK@Z
?_FindKey@CLKRLinearHashTable@@AEBA?AW4LK_RETCODE@@_KKPEAPEBX@Z
?_FindBucket@CLKRLinearHashTable@@AEBAPEAVCBucket@1@K_N@Z
?_ExtractKey@CLKRLinearHashTable@@AEBA?B_KPEBX@Z
?_ExtractKey@CLKRHashTable@@AEBA?B_KPEBX@Z
?_Expand@CLKRLinearHashTable@@AEAA?AW4LK_RETCODE@@XZ
?_EqualKeys@CLKRLinearHashTable@@AEBA_N_K0@Z
?_DeleteRecord@CLKRLinearHashTable@@AEAA?AW4LK_RETCODE@@PEBXK@Z
?_DeleteNode@CLKRLinearHashTable@@AEAA_NPEAVCBucket@1@AEAPEAVCNodeClump@1@1AEAH@Z
?_DeleteKey@CLKRLinearHashTable@@AEAA?AW4LK_RETCODE@@_KK@Z
?_DeleteIf@CLKRLinearHashTable@@AEAAKP6A?AW4LK_PREDICATE@@PEBXPEAX@Z1AEAW42@@Z
?_CurrentThreadId@CSpinLock@@CAJXZ
?_CurrentThreadId@CSmallSpinLock@@CAJXZ
?_CurrentThreadId@CReaderWriterLock3@@CAJXZ
?_Contract@CLKRLinearHashTable@@AEAA?AW4LK_RETCODE@@XZ
?_CmpExch@CReaderWriterLock@@AEAA_NJJ@Z
?_CmpExch@CReaderWriterLock3@@AEAA_NJJ@Z
?_CmpExch@CReaderWriterLock2@@AEAA_NJJ@Z
?_CloseIterator@CLKRLinearHashTable@@AEAA?AW4LK_RETCODE@@PEAVCIterator@1@@Z
?_Clear@CLKRLinearHashTable@@AEAAX_N@Z
?_CalcKeyHash@CLKRLinearHashTable@@AEBAK_K@Z
?_CalcKeyHash@CLKRHashTable@@AEBAK_K@Z
?_BucketAddress@CLKRLinearHashTable@@AEBAKK@Z
?_Bucket@CLKRLinearHashTable@@AEBAPEAVCBucket@1@K@Z
?_ApplyIf@CLKRLinearHashTable@@AEAAKP6A?AW4LK_PREDICATE@@PEBXPEAX@ZP6A?AW4LK_ACTION@@01@Z1W4LK_LOCKTYPE@@AEAW42@@Z
?_Apply@CLKRLinearHashTable@@AEAAKP6A?AW4LK_ACTION@@PEBXPEAX@Z1W4LK_LOCKTYPE@@AEAW4LK_PREDICATE@@@Z
?_AllocateSubTableArray@CLKRHashTable@@CAQEAPEAVCLKRLinearHashTable@@_K@Z
?_AllocateSubTable@CLKRHashTable@@CAQEAVCLKRLinearHashTable@@PEBDP6A?B_KPEBX@ZP6AK_K@ZP6A_N33@ZP6AX1H@ZNKPEAV1@@Z
?_AllocateSegmentDirectory@CLKRLinearHashTable@@CAQEAVCDirEntry@1@_K@Z
?_AllocateSegment@CLKRLinearHashTable@@AEBAQEAVCSegment@1@XZ
?_AllocateNodeClump@CLKRLinearHashTable@@CAQEAVCNodeClump@1@XZ
?_AddRefRecord@CLKRLinearHashTable@@AEBAXPEBXH@Z
?WriteUnlock@CSpinLock@@QEAAXXZ
?WriteUnlock@CSmallSpinLock@@QEAAXXZ
?WriteUnlock@CReaderWriterLock@@QEAAXXZ
?WriteUnlock@CReaderWriterLock3@@QEAAXXZ
?WriteUnlock@CReaderWriterLock2@@QEAAXXZ
?WriteUnlock@CLKRLinearHashTable@@QEBAXXZ
?WriteUnlock@CLKRHashTable@@QEBAXXZ
?WriteUnlock@CFakeLock@@QEAAXXZ
?WriteUnlock@CCritSec@@QEAAXXZ
?WriteLock@CSpinLock@@QEAAXXZ
?WriteLock@CSmallSpinLock@@QEAAXXZ
?WriteLock@CReaderWriterLock@@QEAAXXZ
?WriteLock@CReaderWriterLock3@@QEAAXXZ
?WriteLock@CReaderWriterLock2@@QEAAXXZ
?WriteLock@CLKRLinearHashTable@@QEAAXXZ
?WriteLock@CLKRHashTable@@QEAAXXZ
?WriteLock@CFakeLock@@QEAAXXZ
?WriteLock@CCritSec@@QEAAXXZ
?WaitType@?$CLockBase@$06$01$00$00$02$01@@SA?AW4LOCK_WAIT_TYPE@@XZ
?WaitType@?$CLockBase@$05$01$01$00$02$01@@SA?AW4LOCK_WAIT_TYPE@@XZ
?WaitType@?$CLockBase@$04$01$01$00$02$01@@SA?AW4LOCK_WAIT_TYPE@@XZ
?WaitType@?$CLockBase@$03$00$00$01$02$02@@SA?AW4LOCK_WAIT_TYPE@@XZ
?WaitType@?$CLockBase@$02$00$00$00$00$00@@SA?AW4LOCK_WAIT_TYPE@@XZ
?WaitType@?$CLockBase@$01$00$00$00$02$01@@SA?AW4LOCK_WAIT_TYPE@@XZ
?WaitType@?$CLockBase@$00$00$02$00$02$01@@SA?AW4LOCK_WAIT_TYPE@@XZ
?ValidSignature@CLKRLinearHashTable@@QEBA_NXZ
?ValidSignature@CLKRHashTable@@QEBA_NXZ
?Unlock@CLockedSingleList@@QEAAXXZ
?Unlock@CLockedDoubleList@@QEAAXXZ
?UndoBackup@CEXAutoBackupFile@@QEAAJXZ
?TryWriteLock@CSpinLock@@QEAA_NXZ
?TryWriteLock@CSmallSpinLock@@QEAA_NXZ
?TryWriteLock@CReaderWriterLock@@QEAA_NXZ
?TryWriteLock@CReaderWriterLock3@@QEAA_NXZ
?TryWriteLock@CReaderWriterLock2@@QEAA_NXZ
?TryWriteLock@CFakeLock@@QEAA_NXZ
?TryWriteLock@CCritSec@@QEAA_NXZ
?TryReadLock@CSpinLock@@QEAA_NXZ
?TryReadLock@CSmallSpinLock@@QEAA_NXZ
?TryReadLock@CReaderWriterLock@@QEAA_NXZ
?TryReadLock@CReaderWriterLock3@@QEAA_NXZ
?TryReadLock@CReaderWriterLock2@@QEAA_NXZ
?TryReadLock@CFakeLock@@QEAA_NXZ
?TryReadLock@CCritSec@@QEAA_NXZ
?Size@CLKRLinearHashTable@@QEBAKXZ
?Size@CLKRHashTable@@QEBAKXZ
?SetTableLockSpinCount@CLKRLinearHashTable@@QEAAXG@Z
?SetTableLockSpinCount@CLKRHashTable@@QEAAXG@Z
?SetSpinCount@CSpinLock@@QEAA_NG@Z
?SetSpinCount@CSmallSpinLock@@QEAA_NG@Z
?SetSpinCount@CReaderWriterLock@@QEAA_NG@Z
?SetSpinCount@CReaderWriterLock3@@QEAA_NG@Z
?SetSpinCount@CReaderWriterLock2@@QEAA_NG@Z
?SetSpinCount@CFakeLock@@QEAA_NG@Z
?SetSpinCount@CCritSec@@SAKPEAPEAVCCriticalSection@@K@Z
?SetSpinCount@CCritSec@@QEAA_NG@Z
?SetDefaultSpinCount@CSpinLock@@SAXG@Z
?SetDefaultSpinCount@CSmallSpinLock@@SAXG@Z
?SetDefaultSpinCount@CReaderWriterLock@@SAXG@Z
?SetDefaultSpinCount@CReaderWriterLock3@@SAXG@Z
?SetDefaultSpinCount@CReaderWriterLock2@@SAXG@Z
?SetDefaultSpinCount@CFakeLock@@SAXG@Z
?SetDefaultSpinCount@CCritSec@@SAXG@Z
?SetDefaultSpinAdjustmentFactor@CSpinLock@@SAXN@Z
?SetDefaultSpinAdjustmentFactor@CSmallSpinLock@@SAXN@Z
?SetDefaultSpinAdjustmentFactor@CReaderWriterLock@@SAXN@Z
?SetDefaultSpinAdjustmentFactor@CReaderWriterLock3@@SAXN@Z
?SetDefaultSpinAdjustmentFactor@CReaderWriterLock2@@SAXN@Z
?SetDefaultSpinAdjustmentFactor@CFakeLock@@SAXN@Z
?SetDefaultSpinAdjustmentFactor@CCritSec@@SAXN@Z
?SetBucketLockSpinCount@CLKRLinearHashTable@@QEAAXG@Z
?SetBucketLockSpinCount@CLKRHashTable@@QEAAXG@Z
?RestoreFile@CEXAutoBackupFile@@QEAAJXZ
?RemoveTail@CLockedDoubleList@@QEAAQEAVCListEntry@@XZ
?RemoveTail@CDoubleList@@QEAAQEAVCListEntry@@XZ
?RemoveHead@CLockedDoubleList@@QEAAQEAVCListEntry@@XZ
?RemoveHead@CDoubleList@@QEAAQEAVCListEntry@@XZ
?RemoveEntry@CLockedDoubleList@@QEAAXQEAVCListEntry@@@Z
?RemoveEntry@CDoubleList@@SAXQEAVCListEntry@@@Z
?ReleaseVersionInfo@CMdVersionInfo@@SAXXZ
?Recursion@?$CLockBase@$06$01$00$00$02$01@@SA?AW4LOCK_RECURSION@@XZ
?Recursion@?$CLockBase@$05$01$01$00$02$01@@SA?AW4LOCK_RECURSION@@XZ
?Recursion@?$CLockBase@$04$01$01$00$02$01@@SA?AW4LOCK_RECURSION@@XZ
?Recursion@?$CLockBase@$03$00$00$01$02$02@@SA?AW4LOCK_RECURSION@@XZ
?Recursion@?$CLockBase@$02$00$00$00$00$00@@SA?AW4LOCK_RECURSION@@XZ
?Recursion@?$CLockBase@$01$00$00$00$02$01@@SA?AW4LOCK_RECURSION@@XZ
?Recursion@?$CLockBase@$00$00$02$00$02$01@@SA?AW4LOCK_RECURSION@@XZ
?ReadUnlock@CSpinLock@@QEAAXXZ
?ReadUnlock@CSmallSpinLock@@QEAAXXZ
?ReadUnlock@CReaderWriterLock@@QEAAXXZ
?ReadUnlock@CReaderWriterLock3@@QEAAXXZ
?ReadUnlock@CReaderWriterLock2@@QEAAXXZ
?ReadUnlock@CLKRLinearHashTable@@QEBAXXZ
?ReadUnlock@CLKRHashTable@@QEBAXXZ
?ReadUnlock@CFakeLock@@QEAAXXZ
?ReadUnlock@CCritSec@@QEAAXXZ
?ReadOrWriteUnlock@CSpinLock@@QEAAX_N@Z
?ReadOrWriteUnlock@CReaderWriterLock3@@QEAAX_N@Z
?ReadOrWriteUnlock@CFakeLock@@QEAAX_N@Z
?ReadOrWriteUnlock@CCritSec@@QEAAX_N@Z
?ReadOrWriteLock@CSpinLock@@QEAA_NXZ
?ReadOrWriteLock@CReaderWriterLock3@@QEAA_NXZ
?ReadOrWriteLock@CFakeLock@@QEAA_NXZ
?ReadOrWriteLock@CCritSec@@QEAA_NXZ
?ReadLock@CSpinLock@@QEAAXXZ
?ReadLock@CSmallSpinLock@@QEAAXXZ
?ReadLock@CReaderWriterLock@@QEAAXXZ
?ReadLock@CReaderWriterLock3@@QEAAXXZ
?ReadLock@CReaderWriterLock2@@QEAAXXZ
?ReadLock@CLKRLinearHashTable@@QEBAXXZ
?ReadLock@CLKRHashTable@@QEBAXXZ
?ReadLock@CFakeLock@@QEAAXXZ
?ReadLock@CCritSec@@QEAAXXZ
?QueueType@?$CLockBase@$06$01$00$00$02$01@@SA?AW4LOCK_QUEUE_TYPE@@XZ
?QueueType@?$CLockBase@$05$01$01$00$02$01@@SA?AW4LOCK_QUEUE_TYPE@@XZ
?QueueType@?$CLockBase@$04$01$01$00$02$01@@SA?AW4LOCK_QUEUE_TYPE@@XZ
?QueueType@?$CLockBase@$03$00$00$01$02$02@@SA?AW4LOCK_QUEUE_TYPE@@XZ
?QueueType@?$CLockBase@$02$00$00$00$00$00@@SA?AW4LOCK_QUEUE_TYPE@@XZ
?QueueType@?$CLockBase@$01$00$00$00$02$01@@SA?AW4LOCK_QUEUE_TYPE@@XZ
?QueueType@?$CLockBase@$00$00$02$00$02$01@@SA?AW4LOCK_QUEUE_TYPE@@XZ
?Push@CSingleList@@QEAAXQEAVCSingleListEntry@@@Z
?Push@CLockedSingleList@@QEAAXQEAVCSingleListEntry@@@Z
?Print@CLKRLinearHashTable@@QEBAXXZ
?Print@CLKRHashTable@@QEBAXXZ
?Pop@CSingleList@@QEAAQEAVCSingleListEntry@@XZ
?Pop@CLockedSingleList@@QEAAQEAVCSingleListEntry@@XZ
?PerLockSpin@?$CLockBase@$06$01$00$00$02$01@@SA?AW4LOCK_PERLOCK_SPIN@@XZ
?PerLockSpin@?$CLockBase@$05$01$01$00$02$01@@SA?AW4LOCK_PERLOCK_SPIN@@XZ
?PerLockSpin@?$CLockBase@$04$01$01$00$02$01@@SA?AW4LOCK_PERLOCK_SPIN@@XZ
?PerLockSpin@?$CLockBase@$03$00$00$01$02$02@@SA?AW4LOCK_PERLOCK_SPIN@@XZ
?PerLockSpin@?$CLockBase@$02$00$00$00$00$00@@SA?AW4LOCK_PERLOCK_SPIN@@XZ
?PerLockSpin@?$CLockBase@$01$00$00$00$02$01@@SA?AW4LOCK_PERLOCK_SPIN@@XZ
?PerLockSpin@?$CLockBase@$00$00$02$00$02$01@@SA?AW4LOCK_PERLOCK_SPIN@@XZ
?OnUnicodeSystem@@YAHXZ
?NumSubTables@CLKRLinearHashTable@@SA?AW4LK_TABLESIZE@@AEAK0@Z
?NumSubTables@CLKRLinearHashTable@@QEBAHXZ
?NumSubTables@CLKRHashTable@@SA?AW4LK_TABLESIZE@@AEAK0@Z
?NumSubTables@CLKRHashTable@@QEBAHXZ
?MutexType@?$CLockBase@$06$01$00$00$02$01@@SA?AW4LOCK_RW_MUTEX@@XZ
?MutexType@?$CLockBase@$05$01$01$00$02$01@@SA?AW4LOCK_RW_MUTEX@@XZ
?MutexType@?$CLockBase@$04$01$01$00$02$01@@SA?AW4LOCK_RW_MUTEX@@XZ
?MutexType@?$CLockBase@$03$00$00$01$02$02@@SA?AW4LOCK_RW_MUTEX@@XZ
?MutexType@?$CLockBase@$02$00$00$00$00$00@@SA?AW4LOCK_RW_MUTEX@@XZ
?MutexType@?$CLockBase@$01$00$00$00$02$01@@SA?AW4LOCK_RW_MUTEX@@XZ
?MutexType@?$CLockBase@$00$00$02$00$02$01@@SA?AW4LOCK_RW_MUTEX@@XZ
?MpHeapCompact@@YA_KPEAX@Z
?MaxSize@CLKRLinearHashTable@@QEBAKXZ
?MaxSize@CLKRHashTable@@QEBAKXZ
?LockType@?$CLockBase@$06$01$00$00$02$01@@SA?AW4LOCK_LOCKTYPE@@XZ
?LockType@?$CLockBase@$05$01$01$00$02$01@@SA?AW4LOCK_LOCKTYPE@@XZ
?LockType@?$CLockBase@$04$01$01$00$02$01@@SA?AW4LOCK_LOCKTYPE@@XZ
?LockType@?$CLockBase@$03$00$00$01$02$02@@SA?AW4LOCK_LOCKTYPE@@XZ
?LockType@?$CLockBase@$02$00$00$00$00$00@@SA?AW4LOCK_LOCKTYPE@@XZ
?LockType@?$CLockBase@$01$00$00$00$02$01@@SA?AW4LOCK_LOCKTYPE@@XZ
?LockType@?$CLockBase@$00$00$02$00$02$01@@SA?AW4LOCK_LOCKTYPE@@XZ
?Lock@CLockedSingleList@@QEAAXXZ
?Lock@CLockedDoubleList@@QEAAXXZ
?Last@CLockedDoubleList@@QEAAQEAVCListEntry@@XZ
?Last@CDoubleList@@QEBAQEAVCListEntry@@XZ
?IsWriteUnlocked@CSpinLock@@QEBA_NXZ
?IsWriteUnlocked@CSmallSpinLock@@QEBA_NXZ
?IsWriteUnlocked@CReaderWriterLock@@QEBA_NXZ
?IsWriteUnlocked@CReaderWriterLock3@@QEBA_NXZ
?IsWriteUnlocked@CReaderWriterLock2@@QEBA_NXZ
?IsWriteUnlocked@CLKRLinearHashTable@@QEBA_NXZ
?IsWriteUnlocked@CLKRHashTable@@QEBA_NXZ
?IsWriteUnlocked@CFakeLock@@QEBA_NXZ
?IsWriteUnlocked@CCritSec@@QEBA_NXZ
?IsWriteLocked@CSpinLock@@QEBA_NXZ
?IsWriteLocked@CSmallSpinLock@@QEBA_NXZ
?IsWriteLocked@CReaderWriterLock@@QEBA_NXZ
?IsWriteLocked@CReaderWriterLock3@@QEBA_NXZ
?IsWriteLocked@CReaderWriterLock2@@QEBA_NXZ
?IsWriteLocked@CLKRLinearHashTable@@QEBA_NXZ
?IsWriteLocked@CLKRHashTable@@QEBA_NXZ
?IsWriteLocked@CFakeLock@@QEBA_NXZ
?IsWriteLocked@CCritSec@@QEBA_NXZ
?IsWinNt4orLater@CMdVersionInfo@@SAHXZ
?IsWinNT@CMdVersionInfo@@SAHXZ
?IsWinNT4@CMdVersionInfo@@SAHXZ
?IsWin9x@CMdVersionInfo@@SAHXZ
?IsWin98orLater@CMdVersionInfo@@SAHXZ
?IsWin98@CMdVersionInfo@@SAHXZ
?IsWin95@CMdVersionInfo@@SAHXZ
?IsWin2korLater@CMdVersionInfo@@SAHXZ
?IsWin2k@CMdVersionInfo@@SAHXZ
?IsValid@CLKRLinearHashTable@@QEBA_NXZ
?IsValid@CLKRHashTable@@QEBA_NXZ
?IsUsable@CLKRLinearHashTable@@QEBA_NXZ
?IsUsable@CLKRHashTable@@QEBA_NXZ
?IsUnlocked@CLockedSingleList@@QEBA_NXZ
?IsUnlocked@CLockedDoubleList@@QEBA_NXZ
?IsReadUnlocked@CSpinLock@@QEBA_NXZ
?IsReadUnlocked@CSmallSpinLock@@QEBA_NXZ
?IsReadUnlocked@CReaderWriterLock@@QEBA_NXZ
?IsReadUnlocked@CReaderWriterLock3@@QEBA_NXZ
?IsReadUnlocked@CReaderWriterLock2@@QEBA_NXZ
?IsReadUnlocked@CLKRLinearHashTable@@QEBA_NXZ
?IsReadUnlocked@CLKRHashTable@@QEBA_NXZ
?IsReadUnlocked@CFakeLock@@QEBA_NXZ
?IsReadUnlocked@CCritSec@@QEBA_NXZ
?IsReadLocked@CSpinLock@@QEBA_NXZ
?IsReadLocked@CSmallSpinLock@@QEBA_NXZ
?IsReadLocked@CReaderWriterLock@@QEBA_NXZ
?IsReadLocked@CReaderWriterLock3@@QEBA_NXZ
?IsReadLocked@CReaderWriterLock2@@QEBA_NXZ
?IsReadLocked@CLKRLinearHashTable@@QEBA_NXZ
?IsReadLocked@CLKRHashTable@@QEBA_NXZ
?IsReadLocked@CFakeLock@@QEBA_NXZ
?IsReadLocked@CCritSec@@QEBA_NXZ
?IsMillnm@CMdVersionInfo@@SAHXZ
?IsLocked@CLockedSingleList@@QEBA_NXZ
?IsLocked@CLockedDoubleList@@QEBA_NXZ
?IsEmpty@CSingleList@@QEBA_NXZ
?IsEmpty@CLockedSingleList@@QEBA_NXZ
?IsEmpty@CLockedDoubleList@@QEBA_NXZ
?IsEmpty@CDoubleList@@QEBA_NXZ
?InsertTail@CLockedDoubleList@@QEAAXQEAVCListEntry@@@Z
?InsertTail@CDoubleList@@QEAAXQEAVCListEntry@@@Z
?InsertRecord@CLKRLinearHashTable@@QEAA?AW4LK_RETCODE@@PEBX_N@Z
?InsertRecord@CLKRHashTable@@QEAA?AW4LK_RETCODE@@PEBX_N@Z
?InsertHead@CLockedDoubleList@@QEAAXQEAVCListEntry@@@Z
?InsertHead@CDoubleList@@QEAAXQEAVCListEntry@@@Z
?InitializeVersionInfo@CMdVersionInfo@@CAHXZ
?InitializeIterator@CLKRLinearHashTable@@QEBA?AW4LK_RETCODE@@PEAVCConstIterator@1@@Z
?InitializeIterator@CLKRLinearHashTable@@QEAA?AW4LK_RETCODE@@PEAVCIterator@1@@Z
?InitializeIterator@CLKRHashTable@@QEBA?AW4LK_RETCODE@@PEAVCConstIterator@1@@Z
?InitializeIterator@CLKRHashTable@@QEAA?AW4LK_RETCODE@@PEAVCIterator@1@@Z
?IncrementIterator@CLKRLinearHashTable@@QEBA?AW4LK_RETCODE@@PEAVCConstIterator@1@@Z
?IncrementIterator@CLKRLinearHashTable@@QEAA?AW4LK_RETCODE@@PEAVCIterator@1@@Z
?IncrementIterator@CLKRHashTable@@QEBA?AW4LK_RETCODE@@PEAVCConstIterator@1@@Z
?IncrementIterator@CLKRHashTable@@QEAA?AW4LK_RETCODE@@PEAVCIterator@1@@Z
?HeadNode@CLockedDoubleList@@QEBAQEBVCListEntry@@XZ
?HeadNode@CDoubleList@@QEBAQEBVCListEntry@@XZ
?GetVersionExW@CMdVersionInfo@@SAHPEAU_OSVERSIONINFOW@@@Z
?GetTableLockSpinCount@CLKRLinearHashTable@@QEAAGXZ
?GetTableLockSpinCount@CLKRHashTable@@QEAAGXZ
?GetStatistics@CLKRLinearHashTable@@QEBA?AVCLKRHashTableStats@@XZ
?GetStatistics@CLKRHashTable@@QEBA?AVCLKRHashTableStats@@XZ
?GetSpinCount@CSpinLock@@QEBAGXZ
?GetSpinCount@CSmallSpinLock@@QEBAGXZ
?GetSpinCount@CReaderWriterLock@@QEBAGXZ
?GetSpinCount@CReaderWriterLock3@@QEBAGXZ
?GetSpinCount@CReaderWriterLock2@@QEBAGXZ
?GetSpinCount@CFakeLock@@QEBAGXZ
?GetSpinCount@CCritSec@@QEBAGXZ
?GetDefaultSpinCount@CSpinLock@@SAGXZ
?GetDefaultSpinCount@CSmallSpinLock@@SAGXZ
?GetDefaultSpinCount@CReaderWriterLock@@SAGXZ
?GetDefaultSpinCount@CReaderWriterLock3@@SAGXZ
?GetDefaultSpinCount@CReaderWriterLock2@@SAGXZ
?GetDefaultSpinCount@CFakeLock@@SAGXZ
?GetDefaultSpinCount@CCritSec@@SAGXZ
?GetDefaultSpinAdjustmentFactor@CSpinLock@@SANXZ
?GetDefaultSpinAdjustmentFactor@CSmallSpinLock@@SANXZ
?GetDefaultSpinAdjustmentFactor@CReaderWriterLock@@SANXZ
?GetDefaultSpinAdjustmentFactor@CReaderWriterLock3@@SANXZ
?GetDefaultSpinAdjustmentFactor@CReaderWriterLock2@@SANXZ
?GetDefaultSpinAdjustmentFactor@CFakeLock@@SANXZ
?GetDefaultSpinAdjustmentFactor@CCritSec@@SANXZ
?GetBucketLockSpinCount@CLKRLinearHashTable@@QEAAGXZ
?GetBucketLockSpinCount@CLKRHashTable@@QEAAGXZ
?GetBackupFile@CEXAutoBackupFile@@QEAAHPEAPEAG@Z
?First@CLockedDoubleList@@QEAAQEAVCListEntry@@XZ
?First@CDoubleList@@QEBAQEAVCListEntry@@XZ
?FindRecord@CLKRLinearHashTable@@QEBA?AW4LK_RETCODE@@PEBX@Z
?FindRecord@CLKRHashTable@@QEBA?AW4LK_RETCODE@@PEBX@Z
?FindKey@CLKRLinearHashTable@@QEBA?AW4LK_RETCODE@@_KPEAPEBX@Z
?FindKey@CLKRHashTable@@QEBA?AW4LK_RETCODE@@_KPEAPEBX@Z
?FOReplaceFile@CExFileOperation@@QEAAJPEBG0@Z
?FOMoveFile@CExFileOperation@@QEAAJPEBG0@Z
?FODeleteFile@CExFileOperation@@QEAAJPEBG@Z
?FOCopyFileDACLS@CExFileOperation@@QEAAJPEBG0@Z
?FOCopyFile@CExFileOperation@@QEAAJPEBG0H@Z
?DeleteRecord@CLKRLinearHashTable@@QEAA?AW4LK_RETCODE@@PEBX@Z
?DeleteRecord@CLKRHashTable@@QEAA?AW4LK_RETCODE@@PEBX@Z
?DeleteKey@CLKRLinearHashTable@@QEAA?AW4LK_RETCODE@@_K@Z
?DeleteKey@CLKRHashTable@@QEAA?AW4LK_RETCODE@@_K@Z
?DeleteIf@CLKRLinearHashTable@@QEAAKP6A?AW4LK_PREDICATE@@PEBXPEAX@Z1@Z
?DeleteIf@CLKRHashTable@@QEAAKP6A?AW4LK_PREDICATE@@PEBXPEAX@Z1@Z
?CreateHolder@@YAJPEAUIGPDispenser@@HIPEAPEAUIGPHolder@@@Z
?ConvertSharedToExclusive@CSpinLock@@QEAAXXZ
?ConvertSharedToExclusive@CSmallSpinLock@@QEAAXXZ
?ConvertSharedToExclusive@CReaderWriterLock@@QEAAXXZ
?ConvertSharedToExclusive@CReaderWriterLock3@@QEAAXXZ
?ConvertSharedToExclusive@CReaderWriterLock2@@QEAAXXZ
?ConvertSharedToExclusive@CLKRLinearHashTable@@QEBAXXZ
?ConvertSharedToExclusive@CLKRHashTable@@QEBAXXZ
?ConvertSharedToExclusive@CFakeLock@@QEAAXXZ
?ConvertSharedToExclusive@CCritSec@@QEAAXXZ
?ConvertExclusiveToShared@CSpinLock@@QEAAXXZ
?ConvertExclusiveToShared@CSmallSpinLock@@QEAAXXZ
?ConvertExclusiveToShared@CReaderWriterLock@@QEAAXXZ
?ConvertExclusiveToShared@CReaderWriterLock3@@QEAAXXZ
?ConvertExclusiveToShared@CReaderWriterLock2@@QEAAXXZ
?ConvertExclusiveToShared@CLKRLinearHashTable@@QEBAXXZ
?ConvertExclusiveToShared@CLKRHashTable@@QEBAXXZ
?ConvertExclusiveToShared@CFakeLock@@QEAAXXZ
?ConvertExclusiveToShared@CCritSec@@QEAAXXZ
?CloseIterator@CLKRLinearHashTable@@QEBA?AW4LK_RETCODE@@PEAVCConstIterator@1@@Z
?CloseIterator@CLKRLinearHashTable@@QEAA?AW4LK_RETCODE@@PEAVCIterator@1@@Z
?CloseIterator@CLKRHashTable@@QEBA?AW4LK_RETCODE@@PEAVCConstIterator@1@@Z
?CloseIterator@CLKRHashTable@@QEAA?AW4LK_RETCODE@@PEAVCIterator@1@@Z
?Clear@CLKRLinearHashTable@@QEAAXXZ
?Clear@CLKRHashTable@@QEAAXXZ
?ClassName@CSpinLock@@SAPEBDXZ
?ClassName@CSmallSpinLock@@SAPEBDXZ
?ClassName@CReaderWriterLock@@SAPEBDXZ
?ClassName@CReaderWriterLock3@@SAPEBDXZ
?ClassName@CReaderWriterLock2@@SAPEBDXZ
?ClassName@CLKRLinearHashTable@@SAPEBDXZ
?ClassName@CLKRHashTable@@SAPEBDXZ
?ClassName@CFakeLock@@SAPEBDXZ
?ClassName@CCritSec@@SAPEBDXZ
?CheckTable@CLKRLinearHashTable@@QEBAHXZ
?CheckTable@CLKRHashTable@@QEBAHXZ
?BucketSizes@CLKRHashTableStats@@SAPEBJXZ
?BucketSize@CLKRHashTableStats@@SAJJ@Z
?BucketIndex@CLKRHashTableStats@@SAJJ@Z
?BackupFile@CEXAutoBackupFile@@QEAAJPEBG@Z
?ApplyIf@CLKRLinearHashTable@@QEAAKP6A?AW4LK_PREDICATE@@PEBXPEAX@ZP6A?AW4LK_ACTION@@01@Z1W4LK_LOCKTYPE@@@Z
?ApplyIf@CLKRHashTable@@QEAAKP6A?AW4LK_PREDICATE@@PEBXPEAX@ZP6A?AW4LK_ACTION@@01@Z1W4LK_LOCKTYPE@@@Z
?Apply@CLKRLinearHashTable@@QEAAKP6A?AW4LK_ACTION@@PEBXPEAX@Z1W4LK_LOCKTYPE@@@Z
?Apply@CLKRHashTable@@QEAAKP6A?AW4LK_ACTION@@PEBXPEAX@Z1W4LK_LOCKTYPE@@@Z
??4CSpinLock@@QEAAAEAV0@AEBV0@@Z
??4CSmallSpinLock@@QEAAAEAV0@AEBV0@@Z
??4CSingleList@@QEAAAEAV0@AEBV0@@Z
??4CReaderWriterLock@@QEAAAEAV0@AEBV0@@Z
??4CReaderWriterLock3@@QEAAAEAV0@AEBV0@@Z
??4CReaderWriterLock2@@QEAAAEAV0@AEBV0@@Z
??4CMdVersionInfo@@QEAAAEAV0@AEBV0@@Z
??4CLockedSingleList@@QEAAAEAV0@AEBV0@@Z
??4CLockedDoubleList@@QEAAAEAV0@AEBV0@@Z
??4CLKRLinearHashTable@@AEAAAEAV0@AEBV0@@Z
??4CLKRHashTableStats@@QEAAAEAV0@AEBV0@@Z
??4CLKRHashTable@@AEAAAEAV0@AEBV0@@Z
??4CFakeLock@@QEAAAEAV0@AEBV0@@Z
??4CExFileOperation@@QEAAAEAV0@AEBV0@@Z
??4CEXAutoBackupFile@@QEAAAEAV0@AEBV0@@Z
??4CDoubleList@@QEAAAEAV0@AEBV0@@Z
??4CCritSec@@QEAAAEAV0@AEBV0@@Z
??4?$CLockBase@$06$01$00$00$02$01@@QEAAAEAV0@AEBV0@@Z
??4?$CLockBase@$05$01$01$00$02$01@@QEAAAEAV0@AEBV0@@Z
??4?$CLockBase@$04$01$01$00$02$01@@QEAAAEAV0@AEBV0@@Z
??4?$CLockBase@$03$00$00$01$02$02@@QEAAAEAV0@AEBV0@@Z
??4?$CLockBase@$02$00$00$00$00$00@@QEAAAEAV0@AEBV0@@Z
??4?$CLockBase@$01$00$00$00$02$01@@QEAAAEAV0@AEBV0@@Z
??4?$CLockBase@$00$00$02$00$02$01@@QEAAAEAV0@AEBV0@@Z
??1CSpinLock@@QEAA@XZ
??1CSmallSpinLock@@QEAA@XZ
??1CSingleList@@QEAA@XZ
??1CReaderWriterLock@@QEAA@XZ
??1CReaderWriterLock3@@QEAA@XZ
??1CReaderWriterLock2@@QEAA@XZ
??1CLockedSingleList@@QEAA@XZ
??1CLockedDoubleList@@QEAA@XZ
??1CLKRLinearHashTable@@QEAA@XZ
??1CLKRHashTable@@QEAA@XZ
??1CFakeLock@@QEAA@XZ
??1CExFileOperation@@QEAA@XZ
??1CEXAutoBackupFile@@QEAA@XZ
??1CDoubleList@@QEAA@XZ
??1CCritSec@@QEAA@XZ
??0CSpinLock@@QEAA@XZ
??0CSmallSpinLock@@QEAA@XZ
??0CSingleList@@QEAA@XZ
??0CReaderWriterLock@@QEAA@XZ
??0CReaderWriterLock3@@QEAA@XZ
??0CReaderWriterLock2@@QEAA@XZ
??0CLockedSingleList@@QEAA@XZ
??0CLockedDoubleList@@QEAA@XZ
??0CLKRLinearHashTable@@QEAA@PEBDP6A?B_KPEBX@ZP6AK_K@ZP6A_N33@ZP6AX1H@ZNKK@Z
??0CLKRLinearHashTable@@AEAA@PEBDP6A?B_KPEBX@ZP6AK_K@ZP6A_N33@ZP6AX1H@ZNKPEAVCLKRHashTable@@@Z
??0CLKRLinearHashTable@@AEAA@AEBV0@@Z
??0CLKRHashTableStats@@QEAA@XZ
??0CLKRHashTable@@QEAA@PEBDP6A?B_KPEBX@ZP6AK_K@ZP6A_N33@ZP6AX1H@ZNKK@Z
??0CLKRHashTable@@AEAA@AEBV0@@Z
??0CFakeLock@@QEAA@XZ
??0CExFileOperation@@QEAA@XZ
??0CEXAutoBackupFile@@QEAA@XZ
??0CEXAutoBackupFile@@QEAA@PEBG@Z
??0CDoubleList@@QEAA@XZ
??0CCritSec@@QEAA@XZ
