LIBRARY MSDTCPRX.DLL
EXPORTS
ax_unreg
ax_reg
SysPrepDtcReinstall
ShutDownCM
EncryptAccountInformation
DllUnregisterServer
DllRegisterServer
DllGetTransactionManagerCore
DllGetDTCUtilObject
DllGetDTCProxy
DllGetDTCConnectionManager
DllGetClassObject
DecryptAccountInformation
DTC_XaStart
DTC_XaRollback
DTC_XaRecover
DTC_XaPrepare
DTC_XaOpen
DTC_XaForget
DTC_XaEnd
DTC_XaComplete
DTC_XaCommit
DTC_XaClose
DTC_AxUnReg
DTC_AxReg
ContactToNameObject
ClusterUpdateAccountInformation
ClusterDaclCryptoContainer
ClusterCryptoContainerDelete
ClusterCryptoContainerCreate
ClusterChangeDtcUserAccount
?Win95Present@@YAHXZ
?VerifyAccountInfo@@YAJXZ
?UpgradeDtc@@YAJH@Z
?UpdateTmNameObject@@YAJPEAUINameObject@@PEAPEAU1@@Z
?StringToSid@@YAJPEAGPEAPEAX@Z
?SetSpecialAccounts@CSecurityDescriptor@@QEAAJK@Z
?SetServiceObjectSecurity@CSecurityDescriptor@@QEAAJPEAUSC_HANDLE__@@K@Z
?SetSecurityRegValueW@@YAJPEAGPEBGKPEAEK@Z
?SetSecurityRegValueNonClusterW@@YAJPEAGPEBGKPEAEK@Z
?SetSecurityConfigurationOptions@@YAJPEAGKK@Z
?SetOwner@CSecurityDescriptor@@QEAAJPEAXH@Z
?SetOwner@CSecurityDescriptor@@QEAAJPEAGH@Z
?SetNewAcl@CSecurityDescriptor@@IEAAJPEAU_ACL@@KHH@Z
?SetNamedInfo@CSecurityDescriptor@@QEAAJPEAGW4_SE_OBJECT_TYPE@@K@Z
?SetEventLogSourceToMsdtcCore@@YAXXZ
?SetDtcServerProtocol@@YAJPEAD0@Z
?SetDtcRpcSecurityLevel@@YAJPEAGW4_DTC_SECURITY_LEVEL@@H@Z
?SetDtcClient@@YAJPEAGPEAD0@Z
?SetDtcCIDProps@@YAHAEAU_LOG_PROPERTIES@@AEAU_DAC_PROPERTIES@@@Z
?SetDomainControllerState@@YAJPEAG@Z
?SetControl@CSecurityDescriptor@@QEAAJGG@Z
?SetAccountInfoInRegistryW@@YAJPEAG@Z
?SetAccount@CService@@QEAAJPEAG0@Z
?RidToSid@@YAJKPEAPEAX@Z
?Reset@CSecurityDescriptor@@IEAAXXZ
?RemoveSid@CSecurityDescriptor@@QEAAJPEAX@Z
?RemoveSid@CSecurityDescriptor@@QEAAJPEAG@Z
?RemoveDtc@@YAJPEAG00@Z
?Release@CServiceControlManager@@QEAAKXZ
?Release@CService@@QEAAKXZ
?QueryServiceObjectSecurity@CSecurityDescriptor@@QEAAJPEAUSC_HANDLE__@@K@Z
?PopulateSharedClusterRegistryWithLogInfo@@YAJXZ
?PopulateSharedClusterRegistryWithContacts@@YAJXZ
?PopulateLocalRegistry@@YAJXZ
?OpenServiceA@CServiceControlManager@@QEAAJPEAPEAVCService@@PEAGK@Z
?MsDtcSPNFree@@YAJPEAPEAG@Z
?MirrorXaTmSecurityKey@@YAJPEAG@Z
?MakeAbsolute@CSecurityDescriptor@@IEAAJXZ
?LookupSpecialAccount@@YAJPEAGPEAPEAU_SPECIAL_ACCOUNT_@@@Z
?JoinDtcEx@@YAJPEAG@Z
?JoinDtc@@YAJXZ
?IsNtVersion5OrMore@@YAHXZ
?InternalInit@CServiceControlManager@@IEAAJKPEAG0@Z
?InternalInit@CService@@IEAAJPEAGPEAVCServiceControlManager@@K0@Z
?InstallXaTm@@YAJPEAG@Z
?InstallTipGw@@YAJPEAG@Z
?InstallDtcClient@@YAJPEAGKK@Z
?InstallDtc@@YAJPEAG0000K0H@Z
?GetXATmSecurityKey@@YAJPEAG0PEAK@Z
?GetTmUIContactW@@YAJPEAG0PEAPEAUIProperties@@@Z
?GetTmUIContactA@@YAJPEAD0PEAPEAUIProperties@@@Z
?GetTmContactW@@YAJPEAG0PEAPEAUIProperties@@@Z
?GetTmContactA@@YAJPEAD0PEAPEAUIProperties@@@Z
?GetSharedDtcClusteringVersion@@YAJPEAK@Z
?GetSecurityRegValueW@@YAJPEAGPEBGPEAEPEAKH@Z
?GetSecurityRegValueNonClusterW@@YAJPEAGPEBGPEAEPEAK@Z
?GetSecurityDescriptor@CSecurityDescriptor@@QEAAJPEAPEAX@Z
?GetSecurityConfigurationOptions@@YAJPEAGPEAK1H@Z
?GetOldDefaultLogPath@@YAPEAGXZ
?GetNamedInfo@CSecurityDescriptor@@QEAAJPEAGW4_SE_OBJECT_TYPE@@@Z
?GetMsDtcSPN@@YAJPEAGPEAPEAG@Z
?GetLocalDtcClusteringVersion@@YAJPEAK@Z
?GetLastKnownDomainControllerState@@YAJPEAGPEAK@Z
?GetHandle@CServiceControlManager@@QEAAJAEAPEAUSC_HANDLE__@@@Z
?GetHandle@CService@@QEAAJAEAPEAUSC_HANDLE__@@@Z
?GetEventLogSource@@YAPEAGXZ
?GetDtcRpcSecurityLevel@@YAJPEAGPEAW4_DTC_SECURITY_LEVEL@@H@Z
?GetDtcPath@@YAHKPEAG@Z
?GetDtcLogPath@@YAHKPEAG@Z
?GetDtcCIDProps@@YAHAEAU_LOG_PROPERTIES@@AEAU_DAC_PROPERTIES@@@Z
?GetDefaultServicePath@@YAPEAGXZ
?GetDefaultServiceNameW@@YAPEAGXZ
?GetDefaultServiceNameA@@YAPEADXZ
?GetDefaultSecurityConfigurationOptions@@YAJPEAGPEAK1@Z
?GetDefaultLogSize@@YAKXZ
?GetDefaultLogPath@@YAPEAGXZ
?GetControl@CSecurityDescriptor@@QEAAJPEAG@Z
?GetAccountSid@@YAJPEAG0PEAPEAX@Z
?GetAccount@CService@@QEAAJPEAGPEAK@Z
?EraseDtcClient@@YAJPEAG@Z
?DtcWriteToEventLoggerExUnFilteredA@@YAJGGKPEAXGKPEAPEBD0@Z
?DtcWriteToEventLoggerExUnFiltered@@YAJGGKPEAXGKPEAPEBD0@Z
?DtcWriteToEventLoggerEx@@YAJGGKPEAXGKPEAPEBD0@Z
?DtcWriteToEventLogger@@YAJKKKKPEAXPEAD@Z
?DllGetDTCAdmin@@YAHAEBU_GUID@@0PEAPEAX@Z
?DeleteExistingContacts@@YAXPEAGPEAUIContactPool@@0@Z
?CreateOrOpenMutexW@@YAJPEAPEAXPEBGH@Z
?CreateNewContact@@YAJPEAPEAUIProperties@@@Z
?CreateInstance@CTmProxyCore@@SAJPEAPEAV1@PEAUIUnknown@@@Z
?CreateASRKey@@YAXXZ
?Create@CServiceControlManager@@SAJPEAPEAV1@KPEAG1@Z
?Create@CService@@SAJPEAPEAV1@PEAGPEAVCServiceControlManager@@K1@Z
?Create@CNameService@@SAJPEAPEAV1@@Z
?Create@CConnectionManager@@SAJPEAPEAV1@@Z
?CloseNetpEventLogHandle@@YAXXZ
?ClearInMemoryAcl@CSecurityDescriptor@@QEAAJXZ
?ClearAcl@CSecurityDescriptor@@QEAAJXZ
?CheckForDCPromotionDemotion@@YAJPEAG@Z
?ApplyNamedSecurityChange@@YAJPEAGW4_SE_OBJECT_TYPE@@PEAX2K@Z
?ApplyAccountSettings@@YAJHPEAGK000H@Z
?Alloc@CSecurityDescriptor@@IEAAJK@Z
?AddSid@CSecurityDescriptor@@QEAAJPEAXKK@Z
?AddSid@CSecurityDescriptor@@QEAAJPEAGKK@Z
?AddRef@CServiceControlManager@@QEAAKXZ
?AddRef@CService@@QEAAKXZ
??4CServiceControlManager@@QEAAAEAV0@AEBV0@@Z
??4CService@@QEAAAEAV0@AEBV0@@Z
??4CSecurityDescriptor@@QEAAAEAV0@AEBV0@@Z
??1CServiceControlManager@@IEAA@XZ
??1CService@@IEAA@XZ
??1CSecurityDescriptor@@QEAA@XZ
??0CServiceControlManager@@IEAA@XZ
??0CService@@IEAA@XZ
??0CSecurityDescriptor@@QEAA@XZ
