LIBRARY MSDTCUIU.DLL
EXPORTS
TermDACInstance
TermDACDLL
ShutDownUIC
RunDACExe
PerfDllRegisterServer
InitDACDLL
GetDACStatsMinMaxInfo
DtcPerfOpen
DtcPerfCollect
DtcPerfClose
DoDACPropSheet
DoDACAdvanced
DllUnregisterServer
DllRegisterServer
DllGetDTCUIC
DllGetClassObject
?ValidateDACInstance@@YAPEAVCDac@@PEAPEAXPEAG@Z
?SetOwnerWnd@CDac@@QEAAXPEAVCWnd@@@Z
?SetHostNameW@CDac@@QEAAXPEAG@Z
?SetHostNameA@CDac@@QEAAXPEAD@Z
?ServiceRequest@CDac@@QEAAJKPEAXK_N@Z
?RegisterErrorSink@@YAXPEAUIDacErrorSink@@@Z
?ProcessCommand@CDac@@QEAAH_K_J@Z
?IsConnected@CDac@@QEAAHXZ
?Init@CDac@@QEAAJPEAG@Z
?GetVirtualHostName@CDac@@QEAAPEAGXZ
?GetOwnerHwnd@CDac@@QEAAPEAUHWND__@@XZ
?GetHostNameW@CDac@@QEAAPEAGXZ
?GetHostNameA@CDac@@QEAAPEADXZ
?GetAdminAccess@CDac@@QEAAKXZ
?ErrorMessage@CDac@@QEAAHKI@Z
?CreateAdvancedPropertySheet@CDac@@QEAAPEAVCDialog@@PEAVCWnd@@@Z
?Create@CUicCore@@SAJPEAPEAV1@@Z
?Connect@CDac@@QEAAHPEAUHWND__@@PEAUINTServiceControl@@@Z
??4CDac@@QEAAAEAV0@AEBV0@@Z
??1CDac@@QEAA@XZ
??0CDac@@QEAA@K@Z
??0CDac@@QEAA@AEBV0@@Z
