LIBRARY MSVCP120_APP.DLL
EXPORTS
xtime_get
__Wcrtomb_lk
_Xtime_get_ticks
_Xtime_diff_to_millis2
_Xtime_diff_to_millis
_Xp_subx
_Xp_sqrtx
_Xp_setw
_Xp_setn
_Xp_mulx
_Xp_mulh
_Xp_movx
_Xp_ldexpx
_Xp_invx
_Xp_getw
_Xp_addx
_Xp_addh
_Wcsxfrm
_Wcscoll
_Wcrtomb
_Unlock_shared_ptr_spin_lock
_Tss_set
_Tss_get
_Tss_delete
_Tss_create
_Towupper
_Towlower
_Toupper
_Tolower
_Thrd_yield
_Thrd_start
_Thrd_sleep
_Thrd_lt
_Thrd_join
_Thrd_exit
_Thrd_equal
_Thrd_detach
_Thrd_current
_Thrd_create
_Thrd_abort
_Strxfrm
_Strcoll
_Stoxflt
_Stoulx
_Stoullx
_Stoull
_Stoul
_Stopfx
_Stolx
_Stollx
_Stoll
_Stoldx
_Stold
_Stofx
_Stoflt
_Stof
_Stodx
_Stod
_Sinh
_Poly
_Pmsw
_Plsw
_Once
_Mtxunlock
_Mtxlock
_Mtxinit
_Mtxdst
_Mtx_unlock
_Mtx_trylock
_Mtx_timedlock
_Mtx_reset_owner
_Mtx_lock
_Mtx_init
_Mtx_getconcrtcs
_Mtx_destroy
_Mtx_current_owns
_Mtx_clear_owner
_Mbrtowc
_Lock_shared_ptr_spin_lock
_LXp_subx
_LXp_sqrtx
_LXp_setw
_LXp_setn
_LXp_mulx
_LXp_mulh
_LXp_movx
_LXp_ldexpx
_LXp_invx
_LXp_getw
_LXp_addx
_LXp_addh
_LSinh
_LPoly
_LPmsw
_LPlsw
_LExp
_LDunscale
_LDtest
_LDtento
_LDscale
_LDint
_LCosh
_Getwctypes
_Getwctype
_Getdateorder
_Getcvt
_Getctype
_Getcoll
_FXp_subx
_FXp_sqrtx
_FXp_setw
_FXp_setn
_FXp_mulx
_FXp_mulh
_FXp_movx
_FXp_ldexpx
_FXp_invx
_FXp_getw
_FXp_addx
_FXp_addh
_FSinh
_FPmsw
_FPlsw
_FExp
_FDunscale
_FDtest
_FDtento
_FDscale
_FDnorm
_FDint
_FCosh
_Exp
_Dunscale
_Dtest
_Dtento
_Dscale
_Do_call
_Dnorm
_Dint
_Cosh
_Cnd_wait
_Cnd_unregister_at_thread_exit
_Cnd_timedwait
_Cnd_signal
_Cnd_register_at_thread_exit
_Cnd_init
_Cnd_do_broadcast_at_thread_exit
_Cnd_destroy
_Cnd_broadcast
_Call_onceEx
_Call_once
?xsputn@?$basic_streambuf@_WU?$char_traits@_W@std@@@std@@MEAA_JPEB_W_J@Z
?xsputn@?$basic_streambuf@GU?$char_traits@G@std@@@std@@MEAA_JPEBG_J@Z
?xsputn@?$basic_streambuf@DU?$char_traits@D@std@@@std@@MEAA_JPEBD_J@Z
?xsgetn@?$basic_streambuf@_WU?$char_traits@_W@std@@@std@@MEAA_JPEA_W_J@Z
?xsgetn@?$basic_streambuf@GU?$char_traits@G@std@@@std@@MEAA_JPEAG_J@Z
?xsgetn@?$basic_streambuf@DU?$char_traits@D@std@@@std@@MEAA_JPEAD_J@Z
?xalloc@ios_base@std@@SAHXZ
?ws@std@@YAAEAV?$basic_istream@_WU?$char_traits@_W@std@@@1@AEAV21@@Z
?ws@std@@YAAEAV?$basic_istream@GU?$char_traits@G@std@@@1@AEAV21@@Z
?ws@std@@YAAEAV?$basic_istream@DU?$char_traits@D@std@@@1@AEAV21@@Z
?write@?$basic_ostream@_WU?$char_traits@_W@std@@@std@@QEAAAEAV12@PEB_W_J@Z
?write@?$basic_ostream@GU?$char_traits@G@std@@@std@@QEAAAEAV12@PEBG_J@Z
?write@?$basic_ostream@DU?$char_traits@D@std@@@std@@QEAAAEAV12@PEBD_J@Z
?width@ios_base@std@@QEBA_JXZ
?width@ios_base@std@@QEAA_J_J@Z
?widen@?$ctype@_W@std@@QEBA_WD@Z
?widen@?$ctype@_W@std@@QEBAPEBDPEBD0PEA_W@Z
?widen@?$ctype@G@std@@QEBAPEBDPEBD0PEAG@Z
?widen@?$ctype@G@std@@QEBAGD@Z
?widen@?$ctype@D@std@@QEBAPEBDPEBD0PEAD@Z
?widen@?$ctype@D@std@@QEBADD@Z
?widen@?$basic_ios@_WU?$char_traits@_W@std@@@std@@QEBA_WD@Z
?widen@?$basic_ios@GU?$char_traits@G@std@@@std@@QEBAGD@Z
?widen@?$basic_ios@DU?$char_traits@D@std@@@std@@QEBADD@Z
?wait_for_one@agent@Concurrency@@SAX_KPEAPEAV12@AEAW4agent_status@2@AEA_KI@Z
?wait_for_all@agent@Concurrency@@SAX_KPEAPEAV12@PEAW4agent_status@2@I@Z
?wait@agent@Concurrency@@SA?AW4agent_status@2@PEAV12@I@Z
?unshift@?$codecvt@_WDH@std@@QEBAHAEAHPEAD1AEAPEAD@Z
?unshift@?$codecvt@GDH@std@@QEBAHAEAHPEAD1AEAPEAD@Z
?unshift@?$codecvt@DDH@std@@QEBAHAEAHPEAD1AEAPEAD@Z
?unsetf@ios_base@std@@QEAAXH@Z
?unget@?$basic_istream@_WU?$char_traits@_W@std@@@std@@QEAAAEAV12@XZ
?unget@?$basic_istream@GU?$char_traits@G@std@@@std@@QEAAAEAV12@XZ
?unget@?$basic_istream@DU?$char_traits@D@std@@@std@@QEAAAEAV12@XZ
?underflow@?$basic_streambuf@_WU?$char_traits@_W@std@@@std@@MEAAGXZ
?underflow@?$basic_streambuf@GU?$char_traits@G@std@@@std@@MEAAGXZ
?underflow@?$basic_streambuf@DU?$char_traits@D@std@@@std@@MEAAHXZ
?uncaught_exception@std@@YA_NXZ
?uflow@?$basic_streambuf@_WU?$char_traits@_W@std@@@std@@MEAAGXZ
?uflow@?$basic_streambuf@GU?$char_traits@G@std@@@std@@MEAAGXZ
?uflow@?$basic_streambuf@DU?$char_traits@D@std@@@std@@MEAAHXZ
?toupper@?$ctype@_W@std@@QEBA_W_W@Z
?toupper@?$ctype@_W@std@@QEBAPEB_WPEA_WPEB_W@Z
?toupper@?$ctype@G@std@@QEBAPEBGPEAGPEBG@Z
?toupper@?$ctype@G@std@@QEBAGG@Z
?toupper@?$ctype@D@std@@QEBAPEBDPEADPEBD@Z
?toupper@?$ctype@D@std@@QEBADD@Z
?tolower@?$ctype@_W@std@@QEBA_W_W@Z
?tolower@?$ctype@_W@std@@QEBAPEB_WPEA_WPEB_W@Z
?tolower@?$ctype@G@std@@QEBAPEBGPEAGPEBG@Z
?tolower@?$ctype@G@std@@QEBAGG@Z
?tolower@?$ctype@D@std@@QEBAPEBDPEADPEBD@Z
?tolower@?$ctype@D@std@@QEBADD@Z
?tie@?$basic_ios@_WU?$char_traits@_W@std@@@std@@QEBAPEAV?$basic_ostream@_WU?$char_traits@_W@std@@@2@XZ
?tie@?$basic_ios@_WU?$char_traits@_W@std@@@std@@QEAAPEAV?$basic_ostream@_WU?$char_traits@_W@std@@@2@PEAV32@@Z
?tie@?$basic_ios@GU?$char_traits@G@std@@@std@@QEBAPEAV?$basic_ostream@GU?$char_traits@G@std@@@2@XZ
?tie@?$basic_ios@GU?$char_traits@G@std@@@std@@QEAAPEAV?$basic_ostream@GU?$char_traits@G@std@@@2@PEAV32@@Z
?tie@?$basic_ios@DU?$char_traits@D@std@@@std@@QEBAPEAV?$basic_ostream@DU?$char_traits@D@std@@@2@XZ
?tie@?$basic_ios@DU?$char_traits@D@std@@@std@@QEAAPEAV?$basic_ostream@DU?$char_traits@D@std@@@2@PEAV32@@Z
?tellp@?$basic_ostream@_WU?$char_traits@_W@std@@@std@@QEAA?AV?$fpos@H@2@XZ
?tellp@?$basic_ostream@GU?$char_traits@G@std@@@std@@QEAA?AV?$fpos@H@2@XZ
?tellp@?$basic_ostream@DU?$char_traits@D@std@@@std@@QEAA?AV?$fpos@H@2@XZ
?tellg@?$basic_istream@_WU?$char_traits@_W@std@@@std@@QEAA?AV?$fpos@H@2@XZ
?tellg@?$basic_istream@GU?$char_traits@G@std@@@std@@QEAA?AV?$fpos@H@2@XZ
?tellg@?$basic_istream@DU?$char_traits@D@std@@@std@@QEAA?AV?$fpos@H@2@XZ
?table@?$ctype@D@std@@QEBAPEBFXZ
?sync_with_stdio@ios_base@std@@SA_N_N@Z
?sync@?$basic_streambuf@_WU?$char_traits@_W@std@@@std@@MEAAHXZ
?sync@?$basic_streambuf@GU?$char_traits@G@std@@@std@@MEAAHXZ
?sync@?$basic_streambuf@DU?$char_traits@D@std@@@std@@MEAAHXZ
?sync@?$basic_istream@_WU?$char_traits@_W@std@@@std@@QEAAHXZ
?sync@?$basic_istream@GU?$char_traits@G@std@@@std@@QEAAHXZ
?sync@?$basic_istream@DU?$char_traits@D@std@@@std@@QEAAHXZ
?swap@ios_base@std@@QEAAXAEAV12@@Z
?swap@?$basic_streambuf@_WU?$char_traits@_W@std@@@std@@IEAAXAEAV12@@Z
?swap@?$basic_streambuf@GU?$char_traits@G@std@@@std@@IEAAXAEAV12@@Z
?swap@?$basic_streambuf@DU?$char_traits@D@std@@@std@@IEAAXAEAV12@@Z
?swap@?$basic_ostream@_WU?$char_traits@_W@std@@@std@@IEAAXAEAV12@@Z
?swap@?$basic_ostream@GU?$char_traits@G@std@@@std@@IEAAXAEAV12@@Z
?swap@?$basic_ostream@DU?$char_traits@D@std@@@std@@IEAAXAEAV12@@Z
?swap@?$basic_istream@_WU?$char_traits@_W@std@@@std@@IEAAXAEAV12@@Z
?swap@?$basic_istream@GU?$char_traits@G@std@@@std@@IEAAXAEAV12@@Z
?swap@?$basic_istream@DU?$char_traits@D@std@@@std@@IEAAXAEAV12@@Z
?swap@?$basic_iostream@_WU?$char_traits@_W@std@@@std@@IEAAXAEAV12@@Z
?swap@?$basic_iostream@GU?$char_traits@G@std@@@std@@IEAAXAEAV12@@Z
?swap@?$basic_iostream@DU?$char_traits@D@std@@@std@@IEAAXAEAV12@@Z
?swap@?$basic_ios@_WU?$char_traits@_W@std@@@std@@QEAAXAEAV12@@Z
?swap@?$basic_ios@GU?$char_traits@G@std@@@std@@QEAAXAEAV12@@Z
?swap@?$basic_ios@DU?$char_traits@D@std@@@std@@QEAAXAEAV12@@Z
?sungetc@?$basic_streambuf@_WU?$char_traits@_W@std@@@std@@QEAAGXZ
?sungetc@?$basic_streambuf@GU?$char_traits@G@std@@@std@@QEAAGXZ
?sungetc@?$basic_streambuf@DU?$char_traits@D@std@@@std@@QEAAHXZ
?stossc@?$basic_streambuf@_WU?$char_traits@_W@std@@@std@@QEAAXXZ
?stossc@?$basic_streambuf@GU?$char_traits@G@std@@@std@@QEAAXXZ
?stossc@?$basic_streambuf@DU?$char_traits@D@std@@@std@@QEAAXXZ
?status_port@agent@Concurrency@@QEAAPEAV?$ISource@W4agent_status@Concurrency@@@2@XZ
?status@agent@Concurrency@@QEAA?AW4agent_status@2@XZ
?start@agent@Concurrency@@QEAA_NXZ
?sputn@?$basic_streambuf@_WU?$char_traits@_W@std@@@std@@QEAA_JPEB_W_J@Z
?sputn@?$basic_streambuf@GU?$char_traits@G@std@@@std@@QEAA_JPEBG_J@Z
?sputn@?$basic_streambuf@DU?$char_traits@D@std@@@std@@QEAA_JPEBD_J@Z
?sputc@?$basic_streambuf@_WU?$char_traits@_W@std@@@std@@QEAAG_W@Z
?sputc@?$basic_streambuf@GU?$char_traits@G@std@@@std@@QEAAGG@Z
?sputc@?$basic_streambuf@DU?$char_traits@D@std@@@std@@QEAAHD@Z
?sputbackc@?$basic_streambuf@_WU?$char_traits@_W@std@@@std@@QEAAG_W@Z
?sputbackc@?$basic_streambuf@GU?$char_traits@G@std@@@std@@QEAAGG@Z
?sputbackc@?$basic_streambuf@DU?$char_traits@D@std@@@std@@QEAAHD@Z
?snextc@?$basic_streambuf@_WU?$char_traits@_W@std@@@std@@QEAAGXZ
?snextc@?$basic_streambuf@GU?$char_traits@G@std@@@std@@QEAAGXZ
?snextc@?$basic_streambuf@DU?$char_traits@D@std@@@std@@QEAAHXZ
?showmanyc@?$basic_streambuf@_WU?$char_traits@_W@std@@@std@@MEAA_JXZ
?showmanyc@?$basic_streambuf@GU?$char_traits@G@std@@@std@@MEAA_JXZ
?showmanyc@?$basic_streambuf@DU?$char_traits@D@std@@@std@@MEAA_JXZ
?sgetn@?$basic_streambuf@_WU?$char_traits@_W@std@@@std@@QEAA_JPEA_W_J@Z
?sgetn@?$basic_streambuf@GU?$char_traits@G@std@@@std@@QEAA_JPEAG_J@Z
?sgetn@?$basic_streambuf@DU?$char_traits@D@std@@@std@@QEAA_JPEAD_J@Z
?sgetc@?$basic_streambuf@_WU?$char_traits@_W@std@@@std@@QEAAGXZ
?sgetc@?$basic_streambuf@GU?$char_traits@G@std@@@std@@QEAAGXZ
?sgetc@?$basic_streambuf@DU?$char_traits@D@std@@@std@@QEAAHXZ
?setw@std@@YA?AU?$_Smanip@_J@1@_J@Z
?setstate@ios_base@std@@QEAAXI@Z
?setstate@ios_base@std@@QEAAXH_N@Z
?setstate@ios_base@std@@QEAAXH@Z
?setstate@?$basic_ios@_WU?$char_traits@_W@std@@@std@@QEAAXI@Z
?setstate@?$basic_ios@_WU?$char_traits@_W@std@@@std@@QEAAXH_N@Z
?setstate@?$basic_ios@GU?$char_traits@G@std@@@std@@QEAAXI@Z
?setstate@?$basic_ios@GU?$char_traits@G@std@@@std@@QEAAXH_N@Z
?setstate@?$basic_ios@DU?$char_traits@D@std@@@std@@QEAAXI@Z
?setstate@?$basic_ios@DU?$char_traits@D@std@@@std@@QEAAXH_N@Z
?setprecision@std@@YA?AU?$_Smanip@_J@1@_J@Z
?setp@?$basic_streambuf@_WU?$char_traits@_W@std@@@std@@IEAAXPEA_W0@Z
?setp@?$basic_streambuf@_WU?$char_traits@_W@std@@@std@@IEAAXPEA_W00@Z
?setp@?$basic_streambuf@GU?$char_traits@G@std@@@std@@IEAAXPEAG0@Z
?setp@?$basic_streambuf@GU?$char_traits@G@std@@@std@@IEAAXPEAG00@Z
?setp@?$basic_streambuf@DU?$char_traits@D@std@@@std@@IEAAXPEAD0@Z
?setp@?$basic_streambuf@DU?$char_traits@D@std@@@std@@IEAAXPEAD00@Z
?setiosflags@std@@YA?AU?$_Smanip@H@1@H@Z
?setg@?$basic_streambuf@_WU?$char_traits@_W@std@@@std@@IEAAXPEA_W00@Z
?setg@?$basic_streambuf@GU?$char_traits@G@std@@@std@@IEAAXPEAG00@Z
?setg@?$basic_streambuf@DU?$char_traits@D@std@@@std@@IEAAXPEAD00@Z
?setf@ios_base@std@@QEAAHHH@Z
?setf@ios_base@std@@QEAAHH@Z
?setbuf@?$basic_streambuf@_WU?$char_traits@_W@std@@@std@@MEAAPEAV12@PEA_W_J@Z
?setbuf@?$basic_streambuf@GU?$char_traits@G@std@@@std@@MEAAPEAV12@PEAG_J@Z
?setbuf@?$basic_streambuf@DU?$char_traits@D@std@@@std@@MEAAPEAV12@PEAD_J@Z
?setbase@std@@YA?AU?$_Smanip@H@1@H@Z
?set_rdbuf@?$basic_ios@_WU?$char_traits@_W@std@@@std@@QEAAXPEAV?$basic_streambuf@_WU?$char_traits@_W@std@@@2@@Z
?set_rdbuf@?$basic_ios@GU?$char_traits@G@std@@@std@@QEAAXPEAV?$basic_streambuf@GU?$char_traits@G@std@@@2@@Z
?set_rdbuf@?$basic_ios@DU?$char_traits@D@std@@@std@@QEAAXPEAV?$basic_streambuf@DU?$char_traits@D@std@@@2@@Z
?set_new_handler@std@@YAP6AXXZP6AXXZ@Z
?seekpos@?$basic_streambuf@_WU?$char_traits@_W@std@@@std@@MEAA?AV?$fpos@H@2@V32@H@Z
?seekpos@?$basic_streambuf@GU?$char_traits@G@std@@@std@@MEAA?AV?$fpos@H@2@V32@H@Z
?seekpos@?$basic_streambuf@DU?$char_traits@D@std@@@std@@MEAA?AV?$fpos@H@2@V32@H@Z
?seekp@?$basic_ostream@_WU?$char_traits@_W@std@@@std@@QEAAAEAV12@_JH@Z
?seekp@?$basic_ostream@_WU?$char_traits@_W@std@@@std@@QEAAAEAV12@V?$fpos@H@2@@Z
?seekp@?$basic_ostream@GU?$char_traits@G@std@@@std@@QEAAAEAV12@_JH@Z
?seekp@?$basic_ostream@GU?$char_traits@G@std@@@std@@QEAAAEAV12@V?$fpos@H@2@@Z
?seekp@?$basic_ostream@DU?$char_traits@D@std@@@std@@QEAAAEAV12@_JH@Z
?seekp@?$basic_ostream@DU?$char_traits@D@std@@@std@@QEAAAEAV12@V?$fpos@H@2@@Z
?seekoff@?$basic_streambuf@_WU?$char_traits@_W@std@@@std@@MEAA?AV?$fpos@H@2@_JHH@Z
?seekoff@?$basic_streambuf@GU?$char_traits@G@std@@@std@@MEAA?AV?$fpos@H@2@_JHH@Z
?seekoff@?$basic_streambuf@DU?$char_traits@D@std@@@std@@MEAA?AV?$fpos@H@2@_JHH@Z
?seekg@?$basic_istream@_WU?$char_traits@_W@std@@@std@@QEAAAEAV12@_JH@Z
?seekg@?$basic_istream@_WU?$char_traits@_W@std@@@std@@QEAAAEAV12@V?$fpos@H@2@@Z
?seekg@?$basic_istream@GU?$char_traits@G@std@@@std@@QEAAAEAV12@_JH@Z
?seekg@?$basic_istream@GU?$char_traits@G@std@@@std@@QEAAAEAV12@V?$fpos@H@2@@Z
?seekg@?$basic_istream@DU?$char_traits@D@std@@@std@@QEAAAEAV12@_JH@Z
?seekg@?$basic_istream@DU?$char_traits@D@std@@@std@@QEAAAEAV12@V?$fpos@H@2@@Z
?scan_not@?$ctype@_W@std@@QEBAPEB_WFPEB_W0@Z
?scan_not@?$ctype@G@std@@QEBAPEBGFPEBG0@Z
?scan_not@?$ctype@D@std@@QEBAPEBDFPEBD0@Z
?scan_is@?$ctype@_W@std@@QEBAPEB_WFPEB_W0@Z
?scan_is@?$ctype@G@std@@QEBAPEBGFPEBG0@Z
?scan_is@?$ctype@D@std@@QEBAPEBDFPEBD0@Z
?sbumpc@?$basic_streambuf@_WU?$char_traits@_W@std@@@std@@QEAAGXZ
?sbumpc@?$basic_streambuf@GU?$char_traits@G@std@@@std@@QEAAGXZ
?sbumpc@?$basic_streambuf@DU?$char_traits@D@std@@@std@@QEAAHXZ
?resetiosflags@std@@YA?AU?$_Smanip@H@1@H@Z
?register_callback@ios_base@std@@QEAAXP6AXW4event@12@AEAV12@H@ZH@Z
?readsome@?$basic_istream@_WU?$char_traits@_W@std@@@std@@QEAA_JPEA_W_J@Z
?readsome@?$basic_istream@GU?$char_traits@G@std@@@std@@QEAA_JPEAG_J@Z
?readsome@?$basic_istream@DU?$char_traits@D@std@@@std@@QEAA_JPEAD_J@Z
?read@?$basic_istream@_WU?$char_traits@_W@std@@@std@@QEAAAEAV12@PEA_W_J@Z
?read@?$basic_istream@GU?$char_traits@G@std@@@std@@QEAAAEAV12@PEAG_J@Z
?read@?$basic_istream@DU?$char_traits@D@std@@@std@@QEAAAEAV12@PEAD_J@Z
?rdstate@ios_base@std@@QEBAHXZ
?rdbuf@?$basic_ios@_WU?$char_traits@_W@std@@@std@@QEBAPEAV?$basic_streambuf@_WU?$char_traits@_W@std@@@2@XZ
?rdbuf@?$basic_ios@_WU?$char_traits@_W@std@@@std@@QEAAPEAV?$basic_streambuf@_WU?$char_traits@_W@std@@@2@PEAV32@@Z
?rdbuf@?$basic_ios@GU?$char_traits@G@std@@@std@@QEBAPEAV?$basic_streambuf@GU?$char_traits@G@std@@@2@XZ
?rdbuf@?$basic_ios@GU?$char_traits@G@std@@@std@@QEAAPEAV?$basic_streambuf@GU?$char_traits@G@std@@@2@PEAV32@@Z
?rdbuf@?$basic_ios@DU?$char_traits@D@std@@@std@@QEBAPEAV?$basic_streambuf@DU?$char_traits@D@std@@@2@XZ
?rdbuf@?$basic_ios@DU?$char_traits@D@std@@@std@@QEAAPEAV?$basic_streambuf@DU?$char_traits@D@std@@@2@PEAV32@@Z
?pword@ios_base@std@@QEAAAEAPEAXH@Z
?putback@?$basic_istream@_WU?$char_traits@_W@std@@@std@@QEAAAEAV12@_W@Z
?putback@?$basic_istream@GU?$char_traits@G@std@@@std@@QEAAAEAV12@G@Z
?putback@?$basic_istream@DU?$char_traits@D@std@@@std@@QEAAAEAV12@D@Z
?put@?$time_put@_WV?$ostreambuf_iterator@_WU?$char_traits@_W@std@@@std@@@std@@QEBA?AV?$ostreambuf_iterator@_WU?$char_traits@_W@std@@@2@V32@AEAVios_base@2@_WPEBUtm@@PEB_W4@Z
?put@?$time_put@_WV?$ostreambuf_iterator@_WU?$char_traits@_W@std@@@std@@@std@@QEBA?AV?$ostreambuf_iterator@_WU?$char_traits@_W@std@@@2@V32@AEAVios_base@2@_WPEBUtm@@DD@Z
?put@?$time_put@GV?$ostreambuf_iterator@GU?$char_traits@G@std@@@std@@@std@@QEBA?AV?$ostreambuf_iterator@GU?$char_traits@G@std@@@2@V32@AEAVios_base@2@GPEBUtm@@PEBG3@Z
?put@?$time_put@GV?$ostreambuf_iterator@GU?$char_traits@G@std@@@std@@@std@@QEBA?AV?$ostreambuf_iterator@GU?$char_traits@G@std@@@2@V32@AEAVios_base@2@GPEBUtm@@DD@Z
?put@?$time_put@DV?$ostreambuf_iterator@DU?$char_traits@D@std@@@std@@@std@@QEBA?AV?$ostreambuf_iterator@DU?$char_traits@D@std@@@2@V32@AEAVios_base@2@DPEBUtm@@PEBD3@Z
?put@?$time_put@DV?$ostreambuf_iterator@DU?$char_traits@D@std@@@std@@@std@@QEBA?AV?$ostreambuf_iterator@DU?$char_traits@D@std@@@2@V32@AEAVios_base@2@DPEBUtm@@DD@Z
?put@?$num_put@_WV?$ostreambuf_iterator@_WU?$char_traits@_W@std@@@std@@@std@@QEBA?AV?$ostreambuf_iterator@_WU?$char_traits@_W@std@@@2@V32@AEAVios_base@2@_W_N@Z
?put@?$num_put@_WV?$ostreambuf_iterator@_WU?$char_traits@_W@std@@@std@@@std@@QEBA?AV?$ostreambuf_iterator@_WU?$char_traits@_W@std@@@2@V32@AEAVios_base@2@_W_K@Z
?put@?$num_put@_WV?$ostreambuf_iterator@_WU?$char_traits@_W@std@@@std@@@std@@QEBA?AV?$ostreambuf_iterator@_WU?$char_traits@_W@std@@@2@V32@AEAVios_base@2@_W_J@Z
?put@?$num_put@_WV?$ostreambuf_iterator@_WU?$char_traits@_W@std@@@std@@@std@@QEBA?AV?$ostreambuf_iterator@_WU?$char_traits@_W@std@@@2@V32@AEAVios_base@2@_WPEBX@Z
?put@?$num_put@_WV?$ostreambuf_iterator@_WU?$char_traits@_W@std@@@std@@@std@@QEBA?AV?$ostreambuf_iterator@_WU?$char_traits@_W@std@@@2@V32@AEAVios_base@2@_WO@Z
?put@?$num_put@_WV?$ostreambuf_iterator@_WU?$char_traits@_W@std@@@std@@@std@@QEBA?AV?$ostreambuf_iterator@_WU?$char_traits@_W@std@@@2@V32@AEAVios_base@2@_WN@Z
?put@?$num_put@_WV?$ostreambuf_iterator@_WU?$char_traits@_W@std@@@std@@@std@@QEBA?AV?$ostreambuf_iterator@_WU?$char_traits@_W@std@@@2@V32@AEAVios_base@2@_WK@Z
?put@?$num_put@_WV?$ostreambuf_iterator@_WU?$char_traits@_W@std@@@std@@@std@@QEBA?AV?$ostreambuf_iterator@_WU?$char_traits@_W@std@@@2@V32@AEAVios_base@2@_WJ@Z
?put@?$num_put@GV?$ostreambuf_iterator@GU?$char_traits@G@std@@@std@@@std@@QEBA?AV?$ostreambuf_iterator@GU?$char_traits@G@std@@@2@V32@AEAVios_base@2@G_N@Z
?put@?$num_put@GV?$ostreambuf_iterator@GU?$char_traits@G@std@@@std@@@std@@QEBA?AV?$ostreambuf_iterator@GU?$char_traits@G@std@@@2@V32@AEAVios_base@2@G_K@Z
?put@?$num_put@GV?$ostreambuf_iterator@GU?$char_traits@G@std@@@std@@@std@@QEBA?AV?$ostreambuf_iterator@GU?$char_traits@G@std@@@2@V32@AEAVios_base@2@G_J@Z
?put@?$num_put@GV?$ostreambuf_iterator@GU?$char_traits@G@std@@@std@@@std@@QEBA?AV?$ostreambuf_iterator@GU?$char_traits@G@std@@@2@V32@AEAVios_base@2@GPEBX@Z
?put@?$num_put@GV?$ostreambuf_iterator@GU?$char_traits@G@std@@@std@@@std@@QEBA?AV?$ostreambuf_iterator@GU?$char_traits@G@std@@@2@V32@AEAVios_base@2@GO@Z
?put@?$num_put@GV?$ostreambuf_iterator@GU?$char_traits@G@std@@@std@@@std@@QEBA?AV?$ostreambuf_iterator@GU?$char_traits@G@std@@@2@V32@AEAVios_base@2@GN@Z
?put@?$num_put@GV?$ostreambuf_iterator@GU?$char_traits@G@std@@@std@@@std@@QEBA?AV?$ostreambuf_iterator@GU?$char_traits@G@std@@@2@V32@AEAVios_base@2@GK@Z
?put@?$num_put@GV?$ostreambuf_iterator@GU?$char_traits@G@std@@@std@@@std@@QEBA?AV?$ostreambuf_iterator@GU?$char_traits@G@std@@@2@V32@AEAVios_base@2@GJ@Z
?put@?$num_put@DV?$ostreambuf_iterator@DU?$char_traits@D@std@@@std@@@std@@QEBA?AV?$ostreambuf_iterator@DU?$char_traits@D@std@@@2@V32@AEAVios_base@2@D_N@Z
?put@?$num_put@DV?$ostreambuf_iterator@DU?$char_traits@D@std@@@std@@@std@@QEBA?AV?$ostreambuf_iterator@DU?$char_traits@D@std@@@2@V32@AEAVios_base@2@D_K@Z
?put@?$num_put@DV?$ostreambuf_iterator@DU?$char_traits@D@std@@@std@@@std@@QEBA?AV?$ostreambuf_iterator@DU?$char_traits@D@std@@@2@V32@AEAVios_base@2@D_J@Z
?put@?$num_put@DV?$ostreambuf_iterator@DU?$char_traits@D@std@@@std@@@std@@QEBA?AV?$ostreambuf_iterator@DU?$char_traits@D@std@@@2@V32@AEAVios_base@2@DPEBX@Z
?put@?$num_put@DV?$ostreambuf_iterator@DU?$char_traits@D@std@@@std@@@std@@QEBA?AV?$ostreambuf_iterator@DU?$char_traits@D@std@@@2@V32@AEAVios_base@2@DO@Z
?put@?$num_put@DV?$ostreambuf_iterator@DU?$char_traits@D@std@@@std@@@std@@QEBA?AV?$ostreambuf_iterator@DU?$char_traits@D@std@@@2@V32@AEAVios_base@2@DN@Z
?put@?$num_put@DV?$ostreambuf_iterator@DU?$char_traits@D@std@@@std@@@std@@QEBA?AV?$ostreambuf_iterator@DU?$char_traits@D@std@@@2@V32@AEAVios_base@2@DK@Z
?put@?$num_put@DV?$ostreambuf_iterator@DU?$char_traits@D@std@@@std@@@std@@QEBA?AV?$ostreambuf_iterator@DU?$char_traits@D@std@@@2@V32@AEAVios_base@2@DJ@Z
?put@?$basic_ostream@_WU?$char_traits@_W@std@@@std@@QEAAAEAV12@_W@Z
?put@?$basic_ostream@GU?$char_traits@G@std@@@std@@QEAAAEAV12@G@Z
?put@?$basic_ostream@DU?$char_traits@D@std@@@std@@QEAAAEAV12@D@Z
?pubsync@?$basic_streambuf@_WU?$char_traits@_W@std@@@std@@QEAAHXZ
?pubsync@?$basic_streambuf@GU?$char_traits@G@std@@@std@@QEAAHXZ
?pubsync@?$basic_streambuf@DU?$char_traits@D@std@@@std@@QEAAHXZ
?pubsetbuf@?$basic_streambuf@_WU?$char_traits@_W@std@@@std@@QEAAPEAV12@PEA_W_J@Z
?pubsetbuf@?$basic_streambuf@GU?$char_traits@G@std@@@std@@QEAAPEAV12@PEAG_J@Z
?pubsetbuf@?$basic_streambuf@DU?$char_traits@D@std@@@std@@QEAAPEAV12@PEAD_J@Z
?pubseekpos@?$basic_streambuf@_WU?$char_traits@_W@std@@@std@@QEAA?AV?$fpos@H@2@V32@I@Z
?pubseekpos@?$basic_streambuf@_WU?$char_traits@_W@std@@@std@@QEAA?AV?$fpos@H@2@V32@H@Z
?pubseekpos@?$basic_streambuf@GU?$char_traits@G@std@@@std@@QEAA?AV?$fpos@H@2@V32@I@Z
?pubseekpos@?$basic_streambuf@GU?$char_traits@G@std@@@std@@QEAA?AV?$fpos@H@2@V32@H@Z
?pubseekpos@?$basic_streambuf@DU?$char_traits@D@std@@@std@@QEAA?AV?$fpos@H@2@V32@I@Z
?pubseekpos@?$basic_streambuf@DU?$char_traits@D@std@@@std@@QEAA?AV?$fpos@H@2@V32@H@Z
?pubseekoff@?$basic_streambuf@_WU?$char_traits@_W@std@@@std@@QEAA?AV?$fpos@H@2@_JII@Z
?pubseekoff@?$basic_streambuf@_WU?$char_traits@_W@std@@@std@@QEAA?AV?$fpos@H@2@_JHH@Z
?pubseekoff@?$basic_streambuf@GU?$char_traits@G@std@@@std@@QEAA?AV?$fpos@H@2@_JII@Z
?pubseekoff@?$basic_streambuf@GU?$char_traits@G@std@@@std@@QEAA?AV?$fpos@H@2@_JHH@Z
?pubseekoff@?$basic_streambuf@DU?$char_traits@D@std@@@std@@QEAA?AV?$fpos@H@2@_JII@Z
?pubseekoff@?$basic_streambuf@DU?$char_traits@D@std@@@std@@QEAA?AV?$fpos@H@2@_JHH@Z
?pubimbue@?$basic_streambuf@_WU?$char_traits@_W@std@@@std@@QEAA?AVlocale@2@AEBV32@@Z
?pubimbue@?$basic_streambuf@GU?$char_traits@G@std@@@std@@QEAA?AVlocale@2@AEBV32@@Z
?pubimbue@?$basic_streambuf@DU?$char_traits@D@std@@@std@@QEAA?AVlocale@2@AEBV32@@Z
?precision@ios_base@std@@QEBA_JXZ
?precision@ios_base@std@@QEAA_J_J@Z
?pptr@?$basic_streambuf@_WU?$char_traits@_W@std@@@std@@IEBAPEA_WXZ
?pptr@?$basic_streambuf@GU?$char_traits@G@std@@@std@@IEBAPEAGXZ
?pptr@?$basic_streambuf@DU?$char_traits@D@std@@@std@@IEBAPEADXZ
?peek@?$basic_istream@_WU?$char_traits@_W@std@@@std@@QEAAGXZ
?peek@?$basic_istream@GU?$char_traits@G@std@@@std@@QEAAGXZ
?peek@?$basic_istream@DU?$char_traits@D@std@@@std@@QEAAHXZ
?pbump@?$basic_streambuf@_WU?$char_traits@_W@std@@@std@@IEAAXH@Z
?pbump@?$basic_streambuf@GU?$char_traits@G@std@@@std@@IEAAXH@Z
?pbump@?$basic_streambuf@DU?$char_traits@D@std@@@std@@IEAAXH@Z
?pbase@?$basic_streambuf@_WU?$char_traits@_W@std@@@std@@IEBAPEA_WXZ
?pbase@?$basic_streambuf@GU?$char_traits@G@std@@@std@@IEBAPEAGXZ
?pbase@?$basic_streambuf@DU?$char_traits@D@std@@@std@@IEBAPEADXZ
?pbackfail@?$basic_streambuf@_WU?$char_traits@_W@std@@@std@@MEAAGG@Z
?pbackfail@?$basic_streambuf@GU?$char_traits@G@std@@@std@@MEAAGG@Z
?pbackfail@?$basic_streambuf@DU?$char_traits@D@std@@@std@@MEAAHH@Z
?overflow@?$basic_streambuf@_WU?$char_traits@_W@std@@@std@@MEAAGG@Z
?overflow@?$basic_streambuf@GU?$char_traits@G@std@@@std@@MEAAGG@Z
?overflow@?$basic_streambuf@DU?$char_traits@D@std@@@std@@MEAAHH@Z
?out@?$codecvt@_WDH@std@@QEBAHAEAHPEB_W1AEAPEB_WPEAD3AEAPEAD@Z
?out@?$codecvt@GDH@std@@QEBAHAEAHPEBG1AEAPEBGPEAD3AEAPEAD@Z
?out@?$codecvt@DDH@std@@QEBAHAEAHPEBD1AEAPEBDPEAD3AEAPEAD@Z
?osfx@?$basic_ostream@_WU?$char_traits@_W@std@@@std@@QEAAXXZ
?osfx@?$basic_ostream@GU?$char_traits@G@std@@@std@@QEAAXXZ
?osfx@?$basic_ostream@DU?$char_traits@D@std@@@std@@QEAAXXZ
?opfx@?$basic_ostream@_WU?$char_traits@_W@std@@@std@@QEAA_NXZ
?opfx@?$basic_ostream@GU?$char_traits@G@std@@@std@@QEAA_NXZ
?opfx@?$basic_ostream@DU?$char_traits@D@std@@@std@@QEAA_NXZ
?narrow@?$ctype@_W@std@@QEBAPEB_WPEB_W0DPEAD@Z
?narrow@?$ctype@_W@std@@QEBAD_WD@Z
?narrow@?$ctype@G@std@@QEBAPEBGPEBG0DPEAD@Z
?narrow@?$ctype@G@std@@QEBADGD@Z
?narrow@?$ctype@D@std@@QEBAPEBDPEBD0DPEAD@Z
?narrow@?$ctype@D@std@@QEBADDD@Z
?narrow@?$basic_ios@_WU?$char_traits@_W@std@@@std@@QEBAD_WD@Z
?narrow@?$basic_ios@GU?$char_traits@G@std@@@std@@QEBADGD@Z
?narrow@?$basic_ios@DU?$char_traits@D@std@@@std@@QEBADDD@Z
?move@?$basic_ios@_WU?$char_traits@_W@std@@@std@@QEAAXAEAV12@@Z
?move@?$basic_ios@_WU?$char_traits@_W@std@@@std@@QEAAX$$QEAV12@@Z
?move@?$basic_ios@GU?$char_traits@G@std@@@std@@QEAAXAEAV12@@Z
?move@?$basic_ios@GU?$char_traits@G@std@@@std@@QEAAX$$QEAV12@@Z
?move@?$basic_ios@DU?$char_traits@D@std@@@std@@QEAAXAEAV12@@Z
?move@?$basic_ios@DU?$char_traits@D@std@@@std@@QEAAX$$QEAV12@@Z
?max_length@codecvt_base@std@@QEBAHXZ
?length@?$codecvt@_WDH@std@@QEBAHAEAHPEBD1_K@Z
?length@?$codecvt@GDH@std@@QEBAHAEAHPEBD1_K@Z
?length@?$codecvt@DDH@std@@QEBAHAEAHPEBD1_K@Z
?iword@ios_base@std@@QEAAAEAJH@Z
?isfx@?$basic_istream@_WU?$char_traits@_W@std@@@std@@QEAAXXZ
?isfx@?$basic_istream@GU?$char_traits@G@std@@@std@@QEAAXXZ
?isfx@?$basic_istream@DU?$char_traits@D@std@@@std@@QEAAXXZ
?is_current_task_group_canceling@Concurrency@@YA_NXZ
?is@?$ctype@_W@std@@QEBA_NF_W@Z
?is@?$ctype@_W@std@@QEBAPEB_WPEB_W0PEAF@Z
?is@?$ctype@G@std@@QEBA_NFG@Z
?is@?$ctype@G@std@@QEBAPEBGPEBG0PEAF@Z
?is@?$ctype@D@std@@QEBA_NFD@Z
?is@?$ctype@D@std@@QEBAPEBDPEBD0PEAF@Z
?ipfx@?$basic_istream@_WU?$char_traits@_W@std@@@std@@QEAA_N_N@Z
?ipfx@?$basic_istream@GU?$char_traits@G@std@@@std@@QEAA_N_N@Z
?ipfx@?$basic_istream@DU?$char_traits@D@std@@@std@@QEAA_N_N@Z
?init@?$basic_ios@_WU?$char_traits@_W@std@@@std@@IEAAXPEAV?$basic_streambuf@_WU?$char_traits@_W@std@@@2@_N@Z
?init@?$basic_ios@GU?$char_traits@G@std@@@std@@IEAAXPEAV?$basic_streambuf@GU?$char_traits@G@std@@@2@_N@Z
?init@?$basic_ios@DU?$char_traits@D@std@@@std@@IEAAXPEAV?$basic_streambuf@DU?$char_traits@D@std@@@2@_N@Z
?in_avail@?$basic_streambuf@_WU?$char_traits@_W@std@@@std@@QEAA_JXZ
?in_avail@?$basic_streambuf@GU?$char_traits@G@std@@@std@@QEAA_JXZ
?in_avail@?$basic_streambuf@DU?$char_traits@D@std@@@std@@QEAA_JXZ
?in@?$codecvt@_WDH@std@@QEBAHAEAHPEBD1AEAPEBDPEA_W3AEAPEA_W@Z
?in@?$codecvt@GDH@std@@QEBAHAEAHPEBD1AEAPEBDPEAG3AEAPEAG@Z
?in@?$codecvt@DDH@std@@QEBAHAEAHPEBD1AEAPEBDPEAD3AEAPEAD@Z
?imbue@ios_base@std@@QEAA?AVlocale@2@AEBV32@@Z
?imbue@?$basic_streambuf@_WU?$char_traits@_W@std@@@std@@MEAAXAEBVlocale@2@@Z
?imbue@?$basic_streambuf@GU?$char_traits@G@std@@@std@@MEAAXAEBVlocale@2@@Z
?imbue@?$basic_streambuf@DU?$char_traits@D@std@@@std@@MEAAXAEBVlocale@2@@Z
?imbue@?$basic_ios@_WU?$char_traits@_W@std@@@std@@QEAA?AVlocale@2@AEBV32@@Z
?imbue@?$basic_ios@GU?$char_traits@G@std@@@std@@QEAA?AVlocale@2@AEBV32@@Z
?imbue@?$basic_ios@DU?$char_traits@D@std@@@std@@QEAA?AVlocale@2@AEBV32@@Z
?ignore@?$basic_istream@_WU?$char_traits@_W@std@@@std@@QEAAAEAV12@_JG@Z
?ignore@?$basic_istream@GU?$char_traits@G@std@@@std@@QEAAAEAV12@_JG@Z
?ignore@?$basic_istream@DU?$char_traits@D@std@@@std@@QEAAAEAV12@_JH@Z
?gptr@?$basic_streambuf@_WU?$char_traits@_W@std@@@std@@IEBAPEA_WXZ
?gptr@?$basic_streambuf@GU?$char_traits@G@std@@@std@@IEBAPEAGXZ
?gptr@?$basic_streambuf@DU?$char_traits@D@std@@@std@@IEBAPEADXZ
?good@ios_base@std@@QEBA_NXZ
?global@locale@std@@SA?AV12@AEBV12@@Z
?getloc@ios_base@std@@QEBA?AVlocale@2@XZ
?getloc@?$basic_streambuf@_WU?$char_traits@_W@std@@@std@@QEBA?AVlocale@2@XZ
?getloc@?$basic_streambuf@GU?$char_traits@G@std@@@std@@QEBA?AVlocale@2@XZ
?getloc@?$basic_streambuf@DU?$char_traits@D@std@@@std@@QEBA?AVlocale@2@XZ
?getline@?$basic_istream@_WU?$char_traits@_W@std@@@std@@QEAAAEAV12@PEA_W_J_W@Z
?getline@?$basic_istream@_WU?$char_traits@_W@std@@@std@@QEAAAEAV12@PEA_W_J@Z
?getline@?$basic_istream@GU?$char_traits@G@std@@@std@@QEAAAEAV12@PEAG_JG@Z
?getline@?$basic_istream@GU?$char_traits@G@std@@@std@@QEAAAEAV12@PEAG_J@Z
?getline@?$basic_istream@DU?$char_traits@D@std@@@std@@QEAAAEAV12@PEAD_JD@Z
?getline@?$basic_istream@DU?$char_traits@D@std@@@std@@QEAAAEAV12@PEAD_J@Z
?get_year@?$time_get@_WV?$istreambuf_iterator@_WU?$char_traits@_W@std@@@std@@@std@@QEBA?AV?$istreambuf_iterator@_WU?$char_traits@_W@std@@@2@V32@0AEAVios_base@2@AEAHPEAUtm@@@Z
?get_year@?$time_get@GV?$istreambuf_iterator@GU?$char_traits@G@std@@@std@@@std@@QEBA?AV?$istreambuf_iterator@GU?$char_traits@G@std@@@2@V32@0AEAVios_base@2@AEAHPEAUtm@@@Z
?get_year@?$time_get@DV?$istreambuf_iterator@DU?$char_traits@D@std@@@std@@@std@@QEBA?AV?$istreambuf_iterator@DU?$char_traits@D@std@@@2@V32@0AEAVios_base@2@AEAHPEAUtm@@@Z
?get_weekday@?$time_get@_WV?$istreambuf_iterator@_WU?$char_traits@_W@std@@@std@@@std@@QEBA?AV?$istreambuf_iterator@_WU?$char_traits@_W@std@@@2@V32@0AEAVios_base@2@AEAHPEAUtm@@@Z
?get_weekday@?$time_get@GV?$istreambuf_iterator@GU?$char_traits@G@std@@@std@@@std@@QEBA?AV?$istreambuf_iterator@GU?$char_traits@G@std@@@2@V32@0AEAVios_base@2@AEAHPEAUtm@@@Z
?get_weekday@?$time_get@DV?$istreambuf_iterator@DU?$char_traits@D@std@@@std@@@std@@QEBA?AV?$istreambuf_iterator@DU?$char_traits@D@std@@@2@V32@0AEAVios_base@2@AEAHPEAUtm@@@Z
?get_time@?$time_get@_WV?$istreambuf_iterator@_WU?$char_traits@_W@std@@@std@@@std@@QEBA?AV?$istreambuf_iterator@_WU?$char_traits@_W@std@@@2@V32@0AEAVios_base@2@AEAHPEAUtm@@@Z
?get_time@?$time_get@GV?$istreambuf_iterator@GU?$char_traits@G@std@@@std@@@std@@QEBA?AV?$istreambuf_iterator@GU?$char_traits@G@std@@@2@V32@0AEAVios_base@2@AEAHPEAUtm@@@Z
?get_time@?$time_get@DV?$istreambuf_iterator@DU?$char_traits@D@std@@@std@@@std@@QEBA?AV?$istreambuf_iterator@DU?$char_traits@D@std@@@2@V32@0AEAVios_base@2@AEAHPEAUtm@@@Z
?get_new_handler@std@@YAP6AXXZXZ
?get_monthname@?$time_get@_WV?$istreambuf_iterator@_WU?$char_traits@_W@std@@@std@@@std@@QEBA?AV?$istreambuf_iterator@_WU?$char_traits@_W@std@@@2@V32@0AEAVios_base@2@AEAHPEAUtm@@@Z
?get_monthname@?$time_get@GV?$istreambuf_iterator@GU?$char_traits@G@std@@@std@@@std@@QEBA?AV?$istreambuf_iterator@GU?$char_traits@G@std@@@2@V32@0AEAVios_base@2@AEAHPEAUtm@@@Z
?get_monthname@?$time_get@DV?$istreambuf_iterator@DU?$char_traits@D@std@@@std@@@std@@QEBA?AV?$istreambuf_iterator@DU?$char_traits@D@std@@@2@V32@0AEAVios_base@2@AEAHPEAUtm@@@Z
?get_date@?$time_get@_WV?$istreambuf_iterator@_WU?$char_traits@_W@std@@@std@@@std@@QEBA?AV?$istreambuf_iterator@_WU?$char_traits@_W@std@@@2@V32@0AEAVios_base@2@AEAHPEAUtm@@@Z
?get_date@?$time_get@GV?$istreambuf_iterator@GU?$char_traits@G@std@@@std@@@std@@QEBA?AV?$istreambuf_iterator@GU?$char_traits@G@std@@@2@V32@0AEAVios_base@2@AEAHPEAUtm@@@Z
?get_date@?$time_get@DV?$istreambuf_iterator@DU?$char_traits@D@std@@@std@@@std@@QEBA?AV?$istreambuf_iterator@DU?$char_traits@D@std@@@2@V32@0AEAVios_base@2@AEAHPEAUtm@@@Z
?get@?$time_get@_WV?$istreambuf_iterator@_WU?$char_traits@_W@std@@@std@@@std@@QEBA?AV?$istreambuf_iterator@_WU?$char_traits@_W@std@@@2@V32@0AEAVios_base@2@AEAHPEAUtm@@PEB_W4@Z
?get@?$time_get@_WV?$istreambuf_iterator@_WU?$char_traits@_W@std@@@std@@@std@@QEBA?AV?$istreambuf_iterator@_WU?$char_traits@_W@std@@@2@V32@0AEAVios_base@2@AEAHPEAUtm@@DD@Z
?get@?$time_get@GV?$istreambuf_iterator@GU?$char_traits@G@std@@@std@@@std@@QEBA?AV?$istreambuf_iterator@GU?$char_traits@G@std@@@2@V32@0AEAVios_base@2@AEAHPEAUtm@@PEBG4@Z
?get@?$time_get@GV?$istreambuf_iterator@GU?$char_traits@G@std@@@std@@@std@@QEBA?AV?$istreambuf_iterator@GU?$char_traits@G@std@@@2@V32@0AEAVios_base@2@AEAHPEAUtm@@DD@Z
?get@?$time_get@DV?$istreambuf_iterator@DU?$char_traits@D@std@@@std@@@std@@QEBA?AV?$istreambuf_iterator@DU?$char_traits@D@std@@@2@V32@0AEAVios_base@2@AEAHPEAUtm@@PEBD4@Z
?get@?$time_get@DV?$istreambuf_iterator@DU?$char_traits@D@std@@@std@@@std@@QEBA?AV?$istreambuf_iterator@DU?$char_traits@D@std@@@2@V32@0AEAVios_base@2@AEAHPEAUtm@@DD@Z
?get@?$num_get@_WV?$istreambuf_iterator@_WU?$char_traits@_W@std@@@std@@@std@@QEBA?AV?$istreambuf_iterator@_WU?$char_traits@_W@std@@@2@V32@0AEAVios_base@2@AEAHAEA_N@Z
?get@?$num_get@_WV?$istreambuf_iterator@_WU?$char_traits@_W@std@@@std@@@std@@QEBA?AV?$istreambuf_iterator@_WU?$char_traits@_W@std@@@2@V32@0AEAVios_base@2@AEAHAEA_K@Z
?get@?$num_get@_WV?$istreambuf_iterator@_WU?$char_traits@_W@std@@@std@@@std@@QEBA?AV?$istreambuf_iterator@_WU?$char_traits@_W@std@@@2@V32@0AEAVios_base@2@AEAHAEA_J@Z
?get@?$num_get@_WV?$istreambuf_iterator@_WU?$char_traits@_W@std@@@std@@@std@@QEBA?AV?$istreambuf_iterator@_WU?$char_traits@_W@std@@@2@V32@0AEAVios_base@2@AEAHAEAPEAX@Z
?get@?$num_get@_WV?$istreambuf_iterator@_WU?$char_traits@_W@std@@@std@@@std@@QEBA?AV?$istreambuf_iterator@_WU?$char_traits@_W@std@@@2@V32@0AEAVios_base@2@AEAHAEAO@Z
?get@?$num_get@_WV?$istreambuf_iterator@_WU?$char_traits@_W@std@@@std@@@std@@QEBA?AV?$istreambuf_iterator@_WU?$char_traits@_W@std@@@2@V32@0AEAVios_base@2@AEAHAEAN@Z
?get@?$num_get@_WV?$istreambuf_iterator@_WU?$char_traits@_W@std@@@std@@@std@@QEBA?AV?$istreambuf_iterator@_WU?$char_traits@_W@std@@@2@V32@0AEAVios_base@2@AEAHAEAM@Z
?get@?$num_get@_WV?$istreambuf_iterator@_WU?$char_traits@_W@std@@@std@@@std@@QEBA?AV?$istreambuf_iterator@_WU?$char_traits@_W@std@@@2@V32@0AEAVios_base@2@AEAHAEAK@Z
?get@?$num_get@_WV?$istreambuf_iterator@_WU?$char_traits@_W@std@@@std@@@std@@QEBA?AV?$istreambuf_iterator@_WU?$char_traits@_W@std@@@2@V32@0AEAVios_base@2@AEAHAEAJ@Z
?get@?$num_get@_WV?$istreambuf_iterator@_WU?$char_traits@_W@std@@@std@@@std@@QEBA?AV?$istreambuf_iterator@_WU?$char_traits@_W@std@@@2@V32@0AEAVios_base@2@AEAHAEAI@Z
?get@?$num_get@_WV?$istreambuf_iterator@_WU?$char_traits@_W@std@@@std@@@std@@QEBA?AV?$istreambuf_iterator@_WU?$char_traits@_W@std@@@2@V32@0AEAVios_base@2@AEAHAEAG@Z
?get@?$num_get@GV?$istreambuf_iterator@GU?$char_traits@G@std@@@std@@@std@@QEBA?AV?$istreambuf_iterator@GU?$char_traits@G@std@@@2@V32@0AEAVios_base@2@AEAHAEA_N@Z
?get@?$num_get@GV?$istreambuf_iterator@GU?$char_traits@G@std@@@std@@@std@@QEBA?AV?$istreambuf_iterator@GU?$char_traits@G@std@@@2@V32@0AEAVios_base@2@AEAHAEA_K@Z
?get@?$num_get@GV?$istreambuf_iterator@GU?$char_traits@G@std@@@std@@@std@@QEBA?AV?$istreambuf_iterator@GU?$char_traits@G@std@@@2@V32@0AEAVios_base@2@AEAHAEA_J@Z
?get@?$num_get@GV?$istreambuf_iterator@GU?$char_traits@G@std@@@std@@@std@@QEBA?AV?$istreambuf_iterator@GU?$char_traits@G@std@@@2@V32@0AEAVios_base@2@AEAHAEAPEAX@Z
?get@?$num_get@GV?$istreambuf_iterator@GU?$char_traits@G@std@@@std@@@std@@QEBA?AV?$istreambuf_iterator@GU?$char_traits@G@std@@@2@V32@0AEAVios_base@2@AEAHAEAO@Z
?get@?$num_get@GV?$istreambuf_iterator@GU?$char_traits@G@std@@@std@@@std@@QEBA?AV?$istreambuf_iterator@GU?$char_traits@G@std@@@2@V32@0AEAVios_base@2@AEAHAEAN@Z
?get@?$num_get@GV?$istreambuf_iterator@GU?$char_traits@G@std@@@std@@@std@@QEBA?AV?$istreambuf_iterator@GU?$char_traits@G@std@@@2@V32@0AEAVios_base@2@AEAHAEAM@Z
?get@?$num_get@GV?$istreambuf_iterator@GU?$char_traits@G@std@@@std@@@std@@QEBA?AV?$istreambuf_iterator@GU?$char_traits@G@std@@@2@V32@0AEAVios_base@2@AEAHAEAK@Z
?get@?$num_get@GV?$istreambuf_iterator@GU?$char_traits@G@std@@@std@@@std@@QEBA?AV?$istreambuf_iterator@GU?$char_traits@G@std@@@2@V32@0AEAVios_base@2@AEAHAEAJ@Z
?get@?$num_get@GV?$istreambuf_iterator@GU?$char_traits@G@std@@@std@@@std@@QEBA?AV?$istreambuf_iterator@GU?$char_traits@G@std@@@2@V32@0AEAVios_base@2@AEAHAEAI@Z
?get@?$num_get@GV?$istreambuf_iterator@GU?$char_traits@G@std@@@std@@@std@@QEBA?AV?$istreambuf_iterator@GU?$char_traits@G@std@@@2@V32@0AEAVios_base@2@AEAHAEAG@Z
?get@?$num_get@DV?$istreambuf_iterator@DU?$char_traits@D@std@@@std@@@std@@QEBA?AV?$istreambuf_iterator@DU?$char_traits@D@std@@@2@V32@0AEAVios_base@2@AEAHAEA_N@Z
?get@?$num_get@DV?$istreambuf_iterator@DU?$char_traits@D@std@@@std@@@std@@QEBA?AV?$istreambuf_iterator@DU?$char_traits@D@std@@@2@V32@0AEAVios_base@2@AEAHAEA_K@Z
?get@?$num_get@DV?$istreambuf_iterator@DU?$char_traits@D@std@@@std@@@std@@QEBA?AV?$istreambuf_iterator@DU?$char_traits@D@std@@@2@V32@0AEAVios_base@2@AEAHAEA_J@Z
?get@?$num_get@DV?$istreambuf_iterator@DU?$char_traits@D@std@@@std@@@std@@QEBA?AV?$istreambuf_iterator@DU?$char_traits@D@std@@@2@V32@0AEAVios_base@2@AEAHAEAPEAX@Z
?get@?$num_get@DV?$istreambuf_iterator@DU?$char_traits@D@std@@@std@@@std@@QEBA?AV?$istreambuf_iterator@DU?$char_traits@D@std@@@2@V32@0AEAVios_base@2@AEAHAEAO@Z
?get@?$num_get@DV?$istreambuf_iterator@DU?$char_traits@D@std@@@std@@@std@@QEBA?AV?$istreambuf_iterator@DU?$char_traits@D@std@@@2@V32@0AEAVios_base@2@AEAHAEAN@Z
?get@?$num_get@DV?$istreambuf_iterator@DU?$char_traits@D@std@@@std@@@std@@QEBA?AV?$istreambuf_iterator@DU?$char_traits@D@std@@@2@V32@0AEAVios_base@2@AEAHAEAM@Z
?get@?$num_get@DV?$istreambuf_iterator@DU?$char_traits@D@std@@@std@@@std@@QEBA?AV?$istreambuf_iterator@DU?$char_traits@D@std@@@2@V32@0AEAVios_base@2@AEAHAEAK@Z
?get@?$num_get@DV?$istreambuf_iterator@DU?$char_traits@D@std@@@std@@@std@@QEBA?AV?$istreambuf_iterator@DU?$char_traits@D@std@@@2@V32@0AEAVios_base@2@AEAHAEAJ@Z
?get@?$num_get@DV?$istreambuf_iterator@DU?$char_traits@D@std@@@std@@@std@@QEBA?AV?$istreambuf_iterator@DU?$char_traits@D@std@@@2@V32@0AEAVios_base@2@AEAHAEAI@Z
?get@?$num_get@DV?$istreambuf_iterator@DU?$char_traits@D@std@@@std@@@std@@QEBA?AV?$istreambuf_iterator@DU?$char_traits@D@std@@@2@V32@0AEAVios_base@2@AEAHAEAG@Z
?get@?$basic_istream@_WU?$char_traits@_W@std@@@std@@QEAAGXZ
?get@?$basic_istream@_WU?$char_traits@_W@std@@@std@@QEAAAEAV12@PEA_W_J_W@Z
?get@?$basic_istream@_WU?$char_traits@_W@std@@@std@@QEAAAEAV12@PEA_W_J@Z
?get@?$basic_istream@_WU?$char_traits@_W@std@@@std@@QEAAAEAV12@AEA_W@Z
?get@?$basic_istream@_WU?$char_traits@_W@std@@@std@@QEAAAEAV12@AEAV?$basic_streambuf@_WU?$char_traits@_W@std@@@2@_W@Z
?get@?$basic_istream@_WU?$char_traits@_W@std@@@std@@QEAAAEAV12@AEAV?$basic_streambuf@_WU?$char_traits@_W@std@@@2@@Z
?get@?$basic_istream@GU?$char_traits@G@std@@@std@@QEAAGXZ
?get@?$basic_istream@GU?$char_traits@G@std@@@std@@QEAAAEAV12@PEAG_JG@Z
?get@?$basic_istream@GU?$char_traits@G@std@@@std@@QEAAAEAV12@PEAG_J@Z
?get@?$basic_istream@GU?$char_traits@G@std@@@std@@QEAAAEAV12@AEAV?$basic_streambuf@GU?$char_traits@G@std@@@2@G@Z
?get@?$basic_istream@GU?$char_traits@G@std@@@std@@QEAAAEAV12@AEAV?$basic_streambuf@GU?$char_traits@G@std@@@2@@Z
?get@?$basic_istream@GU?$char_traits@G@std@@@std@@QEAAAEAV12@AEAG@Z
?get@?$basic_istream@DU?$char_traits@D@std@@@std@@QEAAHXZ
?get@?$basic_istream@DU?$char_traits@D@std@@@std@@QEAAAEAV12@PEAD_JD@Z
?get@?$basic_istream@DU?$char_traits@D@std@@@std@@QEAAAEAV12@PEAD_J@Z
?get@?$basic_istream@DU?$char_traits@D@std@@@std@@QEAAAEAV12@AEAV?$basic_streambuf@DU?$char_traits@D@std@@@2@D@Z
?get@?$basic_istream@DU?$char_traits@D@std@@@std@@QEAAAEAV12@AEAV?$basic_streambuf@DU?$char_traits@D@std@@@2@@Z
?get@?$basic_istream@DU?$char_traits@D@std@@@std@@QEAAAEAV12@AEAD@Z
?gcount@?$basic_istream@_WU?$char_traits@_W@std@@@std@@QEBA_JXZ
?gcount@?$basic_istream@GU?$char_traits@G@std@@@std@@QEBA_JXZ
?gcount@?$basic_istream@DU?$char_traits@D@std@@@std@@QEBA_JXZ
?gbump@?$basic_streambuf@_WU?$char_traits@_W@std@@@std@@IEAAXH@Z
?gbump@?$basic_streambuf@GU?$char_traits@G@std@@@std@@IEAAXH@Z
?gbump@?$basic_streambuf@DU?$char_traits@D@std@@@std@@IEAAXH@Z
?flush@?$basic_ostream@_WU?$char_traits@_W@std@@@std@@QEAAAEAV12@XZ
?flush@?$basic_ostream@GU?$char_traits@G@std@@@std@@QEAAAEAV12@XZ
?flush@?$basic_ostream@DU?$char_traits@D@std@@@std@@QEAAAEAV12@XZ
?flags@ios_base@std@@QEBAHXZ
?flags@ios_base@std@@QEAAHH@Z
?fill@?$basic_ios@_WU?$char_traits@_W@std@@@std@@QEBA_WXZ
?fill@?$basic_ios@_WU?$char_traits@_W@std@@@std@@QEAA_W_W@Z
?fill@?$basic_ios@GU?$char_traits@G@std@@@std@@QEBAGXZ
?fill@?$basic_ios@GU?$char_traits@G@std@@@std@@QEAAGG@Z
?fill@?$basic_ios@DU?$char_traits@D@std@@@std@@QEBADXZ
?fill@?$basic_ios@DU?$char_traits@D@std@@@std@@QEAADD@Z
?fail@ios_base@std@@QEBA_NXZ
?exceptions@ios_base@std@@QEBAHXZ
?exceptions@ios_base@std@@QEAAXI@Z
?exceptions@ios_base@std@@QEAAXH@Z
?epptr@?$basic_streambuf@_WU?$char_traits@_W@std@@@std@@IEBAPEA_WXZ
?epptr@?$basic_streambuf@GU?$char_traits@G@std@@@std@@IEBAPEAGXZ
?epptr@?$basic_streambuf@DU?$char_traits@D@std@@@std@@IEBAPEADXZ
?eof@ios_base@std@@QEBA_NXZ
?encoding@codecvt_base@std@@QEBAHXZ
?empty@locale@std@@SA?AV12@XZ
?empty@?$_Yarn@D@std@@QEBA_NXZ
?egptr@?$basic_streambuf@_WU?$char_traits@_W@std@@@std@@IEBAPEA_WXZ
?egptr@?$basic_streambuf@GU?$char_traits@G@std@@@std@@IEBAPEAGXZ
?egptr@?$basic_streambuf@DU?$char_traits@D@std@@@std@@IEBAPEADXZ
?eback@?$basic_streambuf@_WU?$char_traits@_W@std@@@std@@IEBAPEA_WXZ
?eback@?$basic_streambuf@GU?$char_traits@G@std@@@std@@IEBAPEAGXZ
?eback@?$basic_streambuf@DU?$char_traits@D@std@@@std@@IEBAPEADXZ
?done@agent@Concurrency@@IEAA_NXZ
?do_widen@?$ctype@_W@std@@MEBA_WD@Z
?do_widen@?$ctype@_W@std@@MEBAPEBDPEBD0PEA_W@Z
?do_widen@?$ctype@G@std@@MEBAPEBDPEBD0PEAG@Z
?do_widen@?$ctype@G@std@@MEBAGD@Z
?do_widen@?$ctype@D@std@@MEBAPEBDPEBD0PEAD@Z
?do_widen@?$ctype@D@std@@MEBADD@Z
?do_unshift@?$codecvt@_WDH@std@@MEBAHAEAHPEAD1AEAPEAD@Z
?do_unshift@?$codecvt@GDH@std@@MEBAHAEAHPEAD1AEAPEAD@Z
?do_unshift@?$codecvt@DDH@std@@MEBAHAEAHPEAD1AEAPEAD@Z
?do_toupper@?$ctype@_W@std@@MEBA_W_W@Z
?do_toupper@?$ctype@_W@std@@MEBAPEB_WPEA_WPEB_W@Z
?do_toupper@?$ctype@G@std@@MEBAPEBGPEAGPEBG@Z
?do_toupper@?$ctype@G@std@@MEBAGG@Z
?do_toupper@?$ctype@D@std@@MEBAPEBDPEADPEBD@Z
?do_toupper@?$ctype@D@std@@MEBADD@Z
?do_tolower@?$ctype@_W@std@@MEBA_W_W@Z
?do_tolower@?$ctype@_W@std@@MEBAPEB_WPEA_WPEB_W@Z
?do_tolower@?$ctype@G@std@@MEBAPEBGPEAGPEBG@Z
?do_tolower@?$ctype@G@std@@MEBAGG@Z
?do_tolower@?$ctype@D@std@@MEBAPEBDPEADPEBD@Z
?do_tolower@?$ctype@D@std@@MEBADD@Z
?do_scan_not@?$ctype@_W@std@@MEBAPEB_WFPEB_W0@Z
?do_scan_not@?$ctype@G@std@@MEBAPEBGFPEBG0@Z
?do_scan_is@?$ctype@_W@std@@MEBAPEB_WFPEB_W0@Z
?do_scan_is@?$ctype@G@std@@MEBAPEBGFPEBG0@Z
?do_put@?$time_put@_WV?$ostreambuf_iterator@_WU?$char_traits@_W@std@@@std@@@std@@MEBA?AV?$ostreambuf_iterator@_WU?$char_traits@_W@std@@@2@V32@AEAVios_base@2@_WPEBUtm@@DD@Z
?do_put@?$time_put@GV?$ostreambuf_iterator@GU?$char_traits@G@std@@@std@@@std@@MEBA?AV?$ostreambuf_iterator@GU?$char_traits@G@std@@@2@V32@AEAVios_base@2@GPEBUtm@@DD@Z
?do_put@?$time_put@DV?$ostreambuf_iterator@DU?$char_traits@D@std@@@std@@@std@@MEBA?AV?$ostreambuf_iterator@DU?$char_traits@D@std@@@2@V32@AEAVios_base@2@DPEBUtm@@DD@Z
?do_put@?$num_put@_WV?$ostreambuf_iterator@_WU?$char_traits@_W@std@@@std@@@std@@MEBA?AV?$ostreambuf_iterator@_WU?$char_traits@_W@std@@@2@V32@AEAVios_base@2@_W_N@Z
?do_put@?$num_put@_WV?$ostreambuf_iterator@_WU?$char_traits@_W@std@@@std@@@std@@MEBA?AV?$ostreambuf_iterator@_WU?$char_traits@_W@std@@@2@V32@AEAVios_base@2@_W_K@Z
?do_put@?$num_put@_WV?$ostreambuf_iterator@_WU?$char_traits@_W@std@@@std@@@std@@MEBA?AV?$ostreambuf_iterator@_WU?$char_traits@_W@std@@@2@V32@AEAVios_base@2@_W_J@Z
?do_put@?$num_put@_WV?$ostreambuf_iterator@_WU?$char_traits@_W@std@@@std@@@std@@MEBA?AV?$ostreambuf_iterator@_WU?$char_traits@_W@std@@@2@V32@AEAVios_base@2@_WPEBX@Z
?do_put@?$num_put@_WV?$ostreambuf_iterator@_WU?$char_traits@_W@std@@@std@@@std@@MEBA?AV?$ostreambuf_iterator@_WU?$char_traits@_W@std@@@2@V32@AEAVios_base@2@_WO@Z
?do_put@?$num_put@_WV?$ostreambuf_iterator@_WU?$char_traits@_W@std@@@std@@@std@@MEBA?AV?$ostreambuf_iterator@_WU?$char_traits@_W@std@@@2@V32@AEAVios_base@2@_WN@Z
?do_put@?$num_put@_WV?$ostreambuf_iterator@_WU?$char_traits@_W@std@@@std@@@std@@MEBA?AV?$ostreambuf_iterator@_WU?$char_traits@_W@std@@@2@V32@AEAVios_base@2@_WK@Z
?do_put@?$num_put@_WV?$ostreambuf_iterator@_WU?$char_traits@_W@std@@@std@@@std@@MEBA?AV?$ostreambuf_iterator@_WU?$char_traits@_W@std@@@2@V32@AEAVios_base@2@_WJ@Z
?do_put@?$num_put@GV?$ostreambuf_iterator@GU?$char_traits@G@std@@@std@@@std@@MEBA?AV?$ostreambuf_iterator@GU?$char_traits@G@std@@@2@V32@AEAVios_base@2@G_N@Z
?do_put@?$num_put@GV?$ostreambuf_iterator@GU?$char_traits@G@std@@@std@@@std@@MEBA?AV?$ostreambuf_iterator@GU?$char_traits@G@std@@@2@V32@AEAVios_base@2@G_K@Z
?do_put@?$num_put@GV?$ostreambuf_iterator@GU?$char_traits@G@std@@@std@@@std@@MEBA?AV?$ostreambuf_iterator@GU?$char_traits@G@std@@@2@V32@AEAVios_base@2@G_J@Z
?do_put@?$num_put@GV?$ostreambuf_iterator@GU?$char_traits@G@std@@@std@@@std@@MEBA?AV?$ostreambuf_iterator@GU?$char_traits@G@std@@@2@V32@AEAVios_base@2@GPEBX@Z
?do_put@?$num_put@GV?$ostreambuf_iterator@GU?$char_traits@G@std@@@std@@@std@@MEBA?AV?$ostreambuf_iterator@GU?$char_traits@G@std@@@2@V32@AEAVios_base@2@GO@Z
?do_put@?$num_put@GV?$ostreambuf_iterator@GU?$char_traits@G@std@@@std@@@std@@MEBA?AV?$ostreambuf_iterator@GU?$char_traits@G@std@@@2@V32@AEAVios_base@2@GN@Z
?do_put@?$num_put@GV?$ostreambuf_iterator@GU?$char_traits@G@std@@@std@@@std@@MEBA?AV?$ostreambuf_iterator@GU?$char_traits@G@std@@@2@V32@AEAVios_base@2@GK@Z
?do_put@?$num_put@GV?$ostreambuf_iterator@GU?$char_traits@G@std@@@std@@@std@@MEBA?AV?$ostreambuf_iterator@GU?$char_traits@G@std@@@2@V32@AEAVios_base@2@GJ@Z
?do_put@?$num_put@DV?$ostreambuf_iterator@DU?$char_traits@D@std@@@std@@@std@@MEBA?AV?$ostreambuf_iterator@DU?$char_traits@D@std@@@2@V32@AEAVios_base@2@D_N@Z
?do_put@?$num_put@DV?$ostreambuf_iterator@DU?$char_traits@D@std@@@std@@@std@@MEBA?AV?$ostreambuf_iterator@DU?$char_traits@D@std@@@2@V32@AEAVios_base@2@D_K@Z
?do_put@?$num_put@DV?$ostreambuf_iterator@DU?$char_traits@D@std@@@std@@@std@@MEBA?AV?$ostreambuf_iterator@DU?$char_traits@D@std@@@2@V32@AEAVios_base@2@D_J@Z
?do_put@?$num_put@DV?$ostreambuf_iterator@DU?$char_traits@D@std@@@std@@@std@@MEBA?AV?$ostreambuf_iterator@DU?$char_traits@D@std@@@2@V32@AEAVios_base@2@DPEBX@Z
?do_put@?$num_put@DV?$ostreambuf_iterator@DU?$char_traits@D@std@@@std@@@std@@MEBA?AV?$ostreambuf_iterator@DU?$char_traits@D@std@@@2@V32@AEAVios_base@2@DO@Z
?do_put@?$num_put@DV?$ostreambuf_iterator@DU?$char_traits@D@std@@@std@@@std@@MEBA?AV?$ostreambuf_iterator@DU?$char_traits@D@std@@@2@V32@AEAVios_base@2@DN@Z
?do_put@?$num_put@DV?$ostreambuf_iterator@DU?$char_traits@D@std@@@std@@@std@@MEBA?AV?$ostreambuf_iterator@DU?$char_traits@D@std@@@2@V32@AEAVios_base@2@DK@Z
?do_put@?$num_put@DV?$ostreambuf_iterator@DU?$char_traits@D@std@@@std@@@std@@MEBA?AV?$ostreambuf_iterator@DU?$char_traits@D@std@@@2@V32@AEAVios_base@2@DJ@Z
?do_out@?$codecvt@_WDH@std@@MEBAHAEAHPEB_W1AEAPEB_WPEAD3AEAPEAD@Z
?do_out@?$codecvt@GDH@std@@MEBAHAEAHPEBG1AEAPEBGPEAD3AEAPEAD@Z
?do_out@?$codecvt@DDH@std@@MEBAHAEAHPEBD1AEAPEBDPEAD3AEAPEAD@Z
?do_narrow@?$ctype@_W@std@@MEBAPEB_WPEB_W0DPEAD@Z
?do_narrow@?$ctype@_W@std@@MEBAD_WD@Z
?do_narrow@?$ctype@G@std@@MEBAPEBGPEBG0DPEAD@Z
?do_narrow@?$ctype@G@std@@MEBADGD@Z
?do_narrow@?$ctype@D@std@@MEBAPEBDPEBD0DPEAD@Z
?do_narrow@?$ctype@D@std@@MEBADDD@Z
?do_max_length@codecvt_base@std@@MEBAHXZ
?do_max_length@?$codecvt@_WDH@std@@MEBAHXZ
?do_max_length@?$codecvt@GDH@std@@MEBAHXZ
?do_length@?$codecvt@_WDH@std@@MEBAHAEAHPEBD1_K@Z
?do_length@?$codecvt@GDH@std@@MEBAHAEAHPEBD1_K@Z
?do_length@?$codecvt@DDH@std@@MEBAHAEAHPEBD1_K@Z
?do_is@?$ctype@_W@std@@MEBA_NF_W@Z
?do_is@?$ctype@_W@std@@MEBAPEB_WPEB_W0PEAF@Z
?do_is@?$ctype@G@std@@MEBA_NFG@Z
?do_is@?$ctype@G@std@@MEBAPEBGPEBG0PEAF@Z
?do_in@?$codecvt@_WDH@std@@MEBAHAEAHPEBD1AEAPEBDPEA_W3AEAPEA_W@Z
?do_in@?$codecvt@GDH@std@@MEBAHAEAHPEBD1AEAPEBDPEAG3AEAPEAG@Z
?do_in@?$codecvt@DDH@std@@MEBAHAEAHPEBD1AEAPEBDPEAD3AEAPEAD@Z
?do_get_year@?$time_get@_WV?$istreambuf_iterator@_WU?$char_traits@_W@std@@@std@@@std@@MEBA?AV?$istreambuf_iterator@_WU?$char_traits@_W@std@@@2@V32@0AEAVios_base@2@AEAHPEAUtm@@@Z
?do_get_year@?$time_get@GV?$istreambuf_iterator@GU?$char_traits@G@std@@@std@@@std@@MEBA?AV?$istreambuf_iterator@GU?$char_traits@G@std@@@2@V32@0AEAVios_base@2@AEAHPEAUtm@@@Z
?do_get_year@?$time_get@DV?$istreambuf_iterator@DU?$char_traits@D@std@@@std@@@std@@MEBA?AV?$istreambuf_iterator@DU?$char_traits@D@std@@@2@V32@0AEAVios_base@2@AEAHPEAUtm@@@Z
?do_get_weekday@?$time_get@_WV?$istreambuf_iterator@_WU?$char_traits@_W@std@@@std@@@std@@MEBA?AV?$istreambuf_iterator@_WU?$char_traits@_W@std@@@2@V32@0AEAVios_base@2@AEAHPEAUtm@@@Z
?do_get_weekday@?$time_get@GV?$istreambuf_iterator@GU?$char_traits@G@std@@@std@@@std@@MEBA?AV?$istreambuf_iterator@GU?$char_traits@G@std@@@2@V32@0AEAVios_base@2@AEAHPEAUtm@@@Z
?do_get_weekday@?$time_get@DV?$istreambuf_iterator@DU?$char_traits@D@std@@@std@@@std@@MEBA?AV?$istreambuf_iterator@DU?$char_traits@D@std@@@2@V32@0AEAVios_base@2@AEAHPEAUtm@@@Z
?do_get_time@?$time_get@_WV?$istreambuf_iterator@_WU?$char_traits@_W@std@@@std@@@std@@MEBA?AV?$istreambuf_iterator@_WU?$char_traits@_W@std@@@2@V32@0AEAVios_base@2@AEAHPEAUtm@@@Z
?do_get_time@?$time_get@GV?$istreambuf_iterator@GU?$char_traits@G@std@@@std@@@std@@MEBA?AV?$istreambuf_iterator@GU?$char_traits@G@std@@@2@V32@0AEAVios_base@2@AEAHPEAUtm@@@Z
?do_get_time@?$time_get@DV?$istreambuf_iterator@DU?$char_traits@D@std@@@std@@@std@@MEBA?AV?$istreambuf_iterator@DU?$char_traits@D@std@@@2@V32@0AEAVios_base@2@AEAHPEAUtm@@@Z
?do_get_monthname@?$time_get@_WV?$istreambuf_iterator@_WU?$char_traits@_W@std@@@std@@@std@@MEBA?AV?$istreambuf_iterator@_WU?$char_traits@_W@std@@@2@V32@0AEAVios_base@2@AEAHPEAUtm@@@Z
?do_get_monthname@?$time_get@GV?$istreambuf_iterator@GU?$char_traits@G@std@@@std@@@std@@MEBA?AV?$istreambuf_iterator@GU?$char_traits@G@std@@@2@V32@0AEAVios_base@2@AEAHPEAUtm@@@Z
?do_get_monthname@?$time_get@DV?$istreambuf_iterator@DU?$char_traits@D@std@@@std@@@std@@MEBA?AV?$istreambuf_iterator@DU?$char_traits@D@std@@@2@V32@0AEAVios_base@2@AEAHPEAUtm@@@Z
?do_get_date@?$time_get@_WV?$istreambuf_iterator@_WU?$char_traits@_W@std@@@std@@@std@@MEBA?AV?$istreambuf_iterator@_WU?$char_traits@_W@std@@@2@V32@0AEAVios_base@2@AEAHPEAUtm@@@Z
?do_get_date@?$time_get@GV?$istreambuf_iterator@GU?$char_traits@G@std@@@std@@@std@@MEBA?AV?$istreambuf_iterator@GU?$char_traits@G@std@@@2@V32@0AEAVios_base@2@AEAHPEAUtm@@@Z
?do_get_date@?$time_get@DV?$istreambuf_iterator@DU?$char_traits@D@std@@@std@@@std@@MEBA?AV?$istreambuf_iterator@DU?$char_traits@D@std@@@2@V32@0AEAVios_base@2@AEAHPEAUtm@@@Z
?do_get@?$time_get@_WV?$istreambuf_iterator@_WU?$char_traits@_W@std@@@std@@@std@@MEBA?AV?$istreambuf_iterator@_WU?$char_traits@_W@std@@@2@V32@0AEAVios_base@2@AEAHPEAUtm@@DD@Z
?do_get@?$time_get@GV?$istreambuf_iterator@GU?$char_traits@G@std@@@std@@@std@@MEBA?AV?$istreambuf_iterator@GU?$char_traits@G@std@@@2@V32@0AEAVios_base@2@AEAHPEAUtm@@DD@Z
?do_get@?$time_get@DV?$istreambuf_iterator@DU?$char_traits@D@std@@@std@@@std@@MEBA?AV?$istreambuf_iterator@DU?$char_traits@D@std@@@2@V32@0AEAVios_base@2@AEAHPEAUtm@@DD@Z
?do_get@?$num_get@_WV?$istreambuf_iterator@_WU?$char_traits@_W@std@@@std@@@std@@MEBA?AV?$istreambuf_iterator@_WU?$char_traits@_W@std@@@2@V32@0AEAVios_base@2@AEAHAEA_N@Z
?do_get@?$num_get@_WV?$istreambuf_iterator@_WU?$char_traits@_W@std@@@std@@@std@@MEBA?AV?$istreambuf_iterator@_WU?$char_traits@_W@std@@@2@V32@0AEAVios_base@2@AEAHAEA_K@Z
?do_get@?$num_get@_WV?$istreambuf_iterator@_WU?$char_traits@_W@std@@@std@@@std@@MEBA?AV?$istreambuf_iterator@_WU?$char_traits@_W@std@@@2@V32@0AEAVios_base@2@AEAHAEA_J@Z
?do_get@?$num_get@_WV?$istreambuf_iterator@_WU?$char_traits@_W@std@@@std@@@std@@MEBA?AV?$istreambuf_iterator@_WU?$char_traits@_W@std@@@2@V32@0AEAVios_base@2@AEAHAEAPEAX@Z
?do_get@?$num_get@_WV?$istreambuf_iterator@_WU?$char_traits@_W@std@@@std@@@std@@MEBA?AV?$istreambuf_iterator@_WU?$char_traits@_W@std@@@2@V32@0AEAVios_base@2@AEAHAEAO@Z
?do_get@?$num_get@_WV?$istreambuf_iterator@_WU?$char_traits@_W@std@@@std@@@std@@MEBA?AV?$istreambuf_iterator@_WU?$char_traits@_W@std@@@2@V32@0AEAVios_base@2@AEAHAEAN@Z
?do_get@?$num_get@_WV?$istreambuf_iterator@_WU?$char_traits@_W@std@@@std@@@std@@MEBA?AV?$istreambuf_iterator@_WU?$char_traits@_W@std@@@2@V32@0AEAVios_base@2@AEAHAEAM@Z
?do_get@?$num_get@_WV?$istreambuf_iterator@_WU?$char_traits@_W@std@@@std@@@std@@MEBA?AV?$istreambuf_iterator@_WU?$char_traits@_W@std@@@2@V32@0AEAVios_base@2@AEAHAEAK@Z
?do_get@?$num_get@_WV?$istreambuf_iterator@_WU?$char_traits@_W@std@@@std@@@std@@MEBA?AV?$istreambuf_iterator@_WU?$char_traits@_W@std@@@2@V32@0AEAVios_base@2@AEAHAEAJ@Z
?do_get@?$num_get@_WV?$istreambuf_iterator@_WU?$char_traits@_W@std@@@std@@@std@@MEBA?AV?$istreambuf_iterator@_WU?$char_traits@_W@std@@@2@V32@0AEAVios_base@2@AEAHAEAI@Z
?do_get@?$num_get@_WV?$istreambuf_iterator@_WU?$char_traits@_W@std@@@std@@@std@@MEBA?AV?$istreambuf_iterator@_WU?$char_traits@_W@std@@@2@V32@0AEAVios_base@2@AEAHAEAG@Z
?do_get@?$num_get@GV?$istreambuf_iterator@GU?$char_traits@G@std@@@std@@@std@@MEBA?AV?$istreambuf_iterator@GU?$char_traits@G@std@@@2@V32@0AEAVios_base@2@AEAHAEA_N@Z
?do_get@?$num_get@GV?$istreambuf_iterator@GU?$char_traits@G@std@@@std@@@std@@MEBA?AV?$istreambuf_iterator@GU?$char_traits@G@std@@@2@V32@0AEAVios_base@2@AEAHAEA_K@Z
?do_get@?$num_get@GV?$istreambuf_iterator@GU?$char_traits@G@std@@@std@@@std@@MEBA?AV?$istreambuf_iterator@GU?$char_traits@G@std@@@2@V32@0AEAVios_base@2@AEAHAEA_J@Z
?do_get@?$num_get@GV?$istreambuf_iterator@GU?$char_traits@G@std@@@std@@@std@@MEBA?AV?$istreambuf_iterator@GU?$char_traits@G@std@@@2@V32@0AEAVios_base@2@AEAHAEAPEAX@Z
?do_get@?$num_get@GV?$istreambuf_iterator@GU?$char_traits@G@std@@@std@@@std@@MEBA?AV?$istreambuf_iterator@GU?$char_traits@G@std@@@2@V32@0AEAVios_base@2@AEAHAEAO@Z
?do_get@?$num_get@GV?$istreambuf_iterator@GU?$char_traits@G@std@@@std@@@std@@MEBA?AV?$istreambuf_iterator@GU?$char_traits@G@std@@@2@V32@0AEAVios_base@2@AEAHAEAN@Z
?do_get@?$num_get@GV?$istreambuf_iterator@GU?$char_traits@G@std@@@std@@@std@@MEBA?AV?$istreambuf_iterator@GU?$char_traits@G@std@@@2@V32@0AEAVios_base@2@AEAHAEAM@Z
?do_get@?$num_get@GV?$istreambuf_iterator@GU?$char_traits@G@std@@@std@@@std@@MEBA?AV?$istreambuf_iterator@GU?$char_traits@G@std@@@2@V32@0AEAVios_base@2@AEAHAEAK@Z
?do_get@?$num_get@GV?$istreambuf_iterator@GU?$char_traits@G@std@@@std@@@std@@MEBA?AV?$istreambuf_iterator@GU?$char_traits@G@std@@@2@V32@0AEAVios_base@2@AEAHAEAJ@Z
?do_get@?$num_get@GV?$istreambuf_iterator@GU?$char_traits@G@std@@@std@@@std@@MEBA?AV?$istreambuf_iterator@GU?$char_traits@G@std@@@2@V32@0AEAVios_base@2@AEAHAEAI@Z
?do_get@?$num_get@GV?$istreambuf_iterator@GU?$char_traits@G@std@@@std@@@std@@MEBA?AV?$istreambuf_iterator@GU?$char_traits@G@std@@@2@V32@0AEAVios_base@2@AEAHAEAG@Z
?do_get@?$num_get@DV?$istreambuf_iterator@DU?$char_traits@D@std@@@std@@@std@@MEBA?AV?$istreambuf_iterator@DU?$char_traits@D@std@@@2@V32@0AEAVios_base@2@AEAHAEA_N@Z
?do_get@?$num_get@DV?$istreambuf_iterator@DU?$char_traits@D@std@@@std@@@std@@MEBA?AV?$istreambuf_iterator@DU?$char_traits@D@std@@@2@V32@0AEAVios_base@2@AEAHAEA_K@Z
?do_get@?$num_get@DV?$istreambuf_iterator@DU?$char_traits@D@std@@@std@@@std@@MEBA?AV?$istreambuf_iterator@DU?$char_traits@D@std@@@2@V32@0AEAVios_base@2@AEAHAEA_J@Z
?do_get@?$num_get@DV?$istreambuf_iterator@DU?$char_traits@D@std@@@std@@@std@@MEBA?AV?$istreambuf_iterator@DU?$char_traits@D@std@@@2@V32@0AEAVios_base@2@AEAHAEAPEAX@Z
?do_get@?$num_get@DV?$istreambuf_iterator@DU?$char_traits@D@std@@@std@@@std@@MEBA?AV?$istreambuf_iterator@DU?$char_traits@D@std@@@2@V32@0AEAVios_base@2@AEAHAEAO@Z
?do_get@?$num_get@DV?$istreambuf_iterator@DU?$char_traits@D@std@@@std@@@std@@MEBA?AV?$istreambuf_iterator@DU?$char_traits@D@std@@@2@V32@0AEAVios_base@2@AEAHAEAN@Z
?do_get@?$num_get@DV?$istreambuf_iterator@DU?$char_traits@D@std@@@std@@@std@@MEBA?AV?$istreambuf_iterator@DU?$char_traits@D@std@@@2@V32@0AEAVios_base@2@AEAHAEAM@Z
?do_get@?$num_get@DV?$istreambuf_iterator@DU?$char_traits@D@std@@@std@@@std@@MEBA?AV?$istreambuf_iterator@DU?$char_traits@D@std@@@2@V32@0AEAVios_base@2@AEAHAEAK@Z
?do_get@?$num_get@DV?$istreambuf_iterator@DU?$char_traits@D@std@@@std@@@std@@MEBA?AV?$istreambuf_iterator@DU?$char_traits@D@std@@@2@V32@0AEAVios_base@2@AEAHAEAJ@Z
?do_get@?$num_get@DV?$istreambuf_iterator@DU?$char_traits@D@std@@@std@@@std@@MEBA?AV?$istreambuf_iterator@DU?$char_traits@D@std@@@2@V32@0AEAVios_base@2@AEAHAEAI@Z
?do_get@?$num_get@DV?$istreambuf_iterator@DU?$char_traits@D@std@@@std@@@std@@MEBA?AV?$istreambuf_iterator@DU?$char_traits@D@std@@@2@V32@0AEAVios_base@2@AEAHAEAG@Z
?do_encoding@codecvt_base@std@@MEBAHXZ
?do_encoding@?$codecvt@_WDH@std@@MEBAHXZ
?do_encoding@?$codecvt@GDH@std@@MEBAHXZ
?do_date_order@?$time_get@_WV?$istreambuf_iterator@_WU?$char_traits@_W@std@@@std@@@std@@MEBA?AW4dateorder@time_base@2@XZ
?do_date_order@?$time_get@GV?$istreambuf_iterator@GU?$char_traits@G@std@@@std@@@std@@MEBA?AW4dateorder@time_base@2@XZ
?do_date_order@?$time_get@DV?$istreambuf_iterator@DU?$char_traits@D@std@@@std@@@std@@MEBA?AW4dateorder@time_base@2@XZ
?do_always_noconv@codecvt_base@std@@MEBA_NXZ
?do_always_noconv@?$codecvt@_WDH@std@@MEBA_NXZ
?do_always_noconv@?$codecvt@GDH@std@@MEBA_NXZ
?do_always_noconv@?$codecvt@DDH@std@@MEBA_NXZ
?date_order@?$time_get@_WV?$istreambuf_iterator@_WU?$char_traits@_W@std@@@std@@@std@@QEBA?AW4dateorder@time_base@2@XZ
?date_order@?$time_get@GV?$istreambuf_iterator@GU?$char_traits@G@std@@@std@@@std@@QEBA?AW4dateorder@time_base@2@XZ
?date_order@?$time_get@DV?$istreambuf_iterator@DU?$char_traits@D@std@@@std@@@std@@QEBA?AW4dateorder@time_base@2@XZ
?copyfmt@ios_base@std@@QEAAAEAV12@AEBV12@@Z
?copyfmt@?$basic_ios@_WU?$char_traits@_W@std@@@std@@QEAAAEAV12@AEBV12@@Z
?copyfmt@?$basic_ios@GU?$char_traits@G@std@@@std@@QEAAAEAV12@AEBV12@@Z
?copyfmt@?$basic_ios@DU?$char_traits@D@std@@@std@@QEAAAEAV12@AEBV12@@Z
?clear@ios_base@std@@QEAAXI@Z
?clear@ios_base@std@@QEAAXH_N@Z
?clear@ios_base@std@@QEAAXH@Z
?clear@?$basic_ios@_WU?$char_traits@_W@std@@@std@@QEAAXI@Z
?clear@?$basic_ios@_WU?$char_traits@_W@std@@@std@@QEAAXH_N@Z
?clear@?$basic_ios@GU?$char_traits@G@std@@@std@@QEAAXI@Z
?clear@?$basic_ios@GU?$char_traits@G@std@@@std@@QEAAXH_N@Z
?clear@?$basic_ios@DU?$char_traits@D@std@@@std@@QEAAXI@Z
?clear@?$basic_ios@DU?$char_traits@D@std@@@std@@QEAAXH_N@Z
?classic_table@?$ctype@D@std@@SAPEBFXZ
?classic@locale@std@@SAAEBV12@XZ
?cancel@agent@Concurrency@@QEAA_NXZ
?c_str@?$_Yarn@D@std@@QEBAPEBDXZ
?bad@ios_base@std@@QEBA_NXZ
?always_noconv@codecvt_base@std@@QEBA_NXZ
?_Xruntime_error@std@@YAXPEBD@Z
?_Xregex_error@std@@YAXW4error_type@regex_constants@1@@Z
?_Xoverflow_error@std@@YAXPEBD@Z
?_Xout_of_range@std@@YAXPEBD@Z
?_Xlength_error@std@@YAXPEBD@Z
?_Xinvalid_argument@std@@YAXPEBD@Z
?_Xbad_function_call@std@@YAXXZ
?_Xbad_alloc@std@@YAXXZ
?_XLgamma@std@@YAOO@Z
?_XLgamma@std@@YANN@Z
?_XLgamma@std@@YAMM@Z
?_Winerror_map@std@@YAPEBDH@Z
?_W_Gettnames@_Locinfo@std@@QEBA?AV_Timevec@2@XZ
?_W_Getmonths@_Locinfo@std@@QEBAPEBGXZ
?_W_Getdays@_Locinfo@std@@QEBAPEBGXZ
?_Unlock@?$basic_streambuf@_WU?$char_traits@_W@std@@@std@@UEAAXXZ
?_Unlock@?$basic_streambuf@GU?$char_traits@G@std@@@std@@UEAAXXZ
?_Unlock@?$basic_streambuf@DU?$char_traits@D@std@@@std@@UEAAXXZ
?_Unlink@sys@tr2@std@@YAHPEB_W@Z
?_Unlink@sys@tr2@std@@YAHPEBD@Z
?_Tidy@ios_base@std@@AEAAXXZ
?_Tidy@?$time_get@_WV?$istreambuf_iterator@_WU?$char_traits@_W@std@@@std@@@std@@AEAAXXZ
?_Tidy@?$time_get@GV?$istreambuf_iterator@GU?$char_traits@G@std@@@std@@@std@@AEAAXXZ
?_Tidy@?$time_get@DV?$istreambuf_iterator@DU?$char_traits@D@std@@@std@@@std@@AEAAXXZ
?_Tidy@?$ctype@D@std@@IEAAXXZ
?_Tidy@?$_Yarn@_W@std@@AEAAXXZ
?_Tidy@?$_Yarn@D@std@@AEAAXXZ
?_Throw_resource_error@threads@stdext@@YAXXZ
?_Throw_lock_error@threads@stdext@@YAXXZ
?_Throw_future_error@std@@YAXAEBVerror_code@1@@Z
?_Throw_Cpp_error@std@@YAXH@Z
?_Throw_C_error@std@@YAXH@Z
?_Syserror_map@std@@YAPEBDH@Z
?_Symlink@sys@tr2@std@@YAHPEB_W0@Z
?_Symlink@sys@tr2@std@@YAHPEBD0@Z
?_Swap_all@_Container_base12@std@@QEAAXAEAU12@@Z
?_Swap_all@_Container_base0@std@@QEAAXAEAU12@@Z
?_Statvfs@sys@tr2@std@@YA?AUspace_info@123@PEB_W@Z
?_Statvfs@sys@tr2@std@@YA?AUspace_info@123@PEBD@Z
?_Stat@sys@tr2@std@@YA?AW4file_type@123@PEB_WAEAH@Z
?_Stat@sys@tr2@std@@YA?AW4file_type@123@PEBDAEAH@Z
?_Setgloballocale@locale@std@@CAXPEAX@Z
?_Segment_index_of@_Concurrent_vector_base_v4@details@Concurrency@@KA_K_K@Z
?_Rng_abort@std@@YAXPEBD@Z
?_Rethrow_future_exception@std@@YAXVexception_ptr@1@@Z
?_Rep@?$num_put@_WV?$ostreambuf_iterator@_WU?$char_traits@_W@std@@@std@@@std@@AEBA?AV?$ostreambuf_iterator@_WU?$char_traits@_W@std@@@2@V32@_W_K@Z
?_Rep@?$num_put@GV?$ostreambuf_iterator@GU?$char_traits@G@std@@@std@@@std@@AEBA?AV?$ostreambuf_iterator@GU?$char_traits@G@std@@@2@V32@G_K@Z
?_Rep@?$num_put@DV?$ostreambuf_iterator@DU?$char_traits@D@std@@@std@@@std@@AEBA?AV?$ostreambuf_iterator@DU?$char_traits@D@std@@@2@V32@D_K@Z
?_Rename@sys@tr2@std@@YAHPEB_W0@Z
?_Rename@sys@tr2@std@@YAHPEBD0@Z
?_Remove_dir@sys@tr2@std@@YA_NPEB_W@Z
?_Remove_dir@sys@tr2@std@@YA_NPEBD@Z
?_Release@_Pad@std@@QEAAXXZ
?_Read_dir@sys@tr2@std@@YAPEA_WAEAY0BAE@_WPEAXAEAW4file_type@123@@Z
?_Read_dir@sys@tr2@std@@YAPEADAEAY0BAE@DPEAXAEAW4file_type@123@@Z
?_Random_device@std@@YAIXZ
?_Put@?$num_put@_WV?$ostreambuf_iterator@_WU?$char_traits@_W@std@@@std@@@std@@AEBA?AV?$ostreambuf_iterator@_WU?$char_traits@_W@std@@@2@V32@PEB_W_K@Z
?_Put@?$num_put@GV?$ostreambuf_iterator@GU?$char_traits@G@std@@@std@@@std@@AEBA?AV?$ostreambuf_iterator@GU?$char_traits@G@std@@@2@V32@PEBG_K@Z
?_Put@?$num_put@DV?$ostreambuf_iterator@DU?$char_traits@D@std@@@std@@@std@@AEBA?AV?$ostreambuf_iterator@DU?$char_traits@D@std@@@2@V32@PEBD_K@Z
?_Pninc@?$basic_streambuf@_WU?$char_traits@_W@std@@@std@@IEAAPEA_WXZ
?_Pninc@?$basic_streambuf@GU?$char_traits@G@std@@@std@@IEAAPEAGXZ
?_Pninc@?$basic_streambuf@DU?$char_traits@D@std@@@std@@IEAAPEADXZ
?_Pnavail@?$basic_streambuf@_WU?$char_traits@_W@std@@@std@@IEBA_JXZ
?_Pnavail@?$basic_streambuf@GU?$char_traits@G@std@@@std@@IEBA_JXZ
?_Pnavail@?$basic_streambuf@DU?$char_traits@D@std@@@std@@IEBA_JXZ
?_Osfx@?$basic_ostream@_WU?$char_traits@_W@std@@@std@@QEAAXXZ
?_Osfx@?$basic_ostream@GU?$char_traits@G@std@@@std@@QEAAXXZ
?_Osfx@?$basic_ostream@DU?$char_traits@D@std@@@std@@QEAAXXZ
?_Orphan_all@_Container_base12@std@@QEAAXXZ
?_Orphan_all@_Container_base0@std@@QEAAXXZ
?_Open_dir@sys@tr2@std@@YAPEAXAEAY0BAE@_WPEB_WAEAHAEAW4file_type@123@@Z
?_Open_dir@sys@tr2@std@@YAPEAXAEAY0BAE@DPEBDAEAHAEAW4file_type@123@@Z
?_New_Locimp@_Locimp@locale@std@@CAPEAV123@_N@Z
?_New_Locimp@_Locimp@locale@std@@CAPEAV123@AEBV123@@Z
?_Mtx_unlock@threads@stdext@@YAXPEAX@Z
?_Mtx_new@threads@stdext@@YAXAEAPEAX@Z
?_Mtx_lock@threads@stdext@@YAXPEAX@Z
?_Mtx_delete@threads@stdext@@YAXPEAX@Z
?_Makexloc@_Locimp@locale@std@@CAXAEBV_Locinfo@3@HPEAV123@PEBV23@@Z
?_Makewloc@_Locimp@locale@std@@CAXAEBV_Locinfo@3@HPEAV123@PEBV23@@Z
?_Makeushloc@_Locimp@locale@std@@CAXAEBV_Locinfo@3@HPEAV123@PEBV23@@Z
?_Makeloc@_Locimp@locale@std@@CAPEAV123@AEBV_Locinfo@3@HPEAV123@PEBV23@@Z
?_Make_dir@sys@tr2@std@@YAHPEB_W@Z
?_Make_dir@sys@tr2@std@@YAHPEBD@Z
?_MP_Rem@std@@YAXQEA_K_K@Z
?_MP_Mul@std@@YAXQEA_K_K1@Z
?_MP_Get@std@@YA_KQEA_K@Z
?_MP_Add@std@@YAXQEA_K_K@Z
?_Lstat@sys@tr2@std@@YA?AW4file_type@123@PEB_WAEAH@Z
?_Lstat@sys@tr2@std@@YA?AW4file_type@123@PEBDAEAH@Z
?_Lockit_dtor@_Lockit@std@@SAXH@Z
?_Lockit_dtor@_Lockit@std@@CAXPEAV12@@Z
?_Lockit_ctor@_Lockit@std@@SAXH@Z
?_Lockit_ctor@_Lockit@std@@CAXPEAV12@H@Z
?_Lockit_ctor@_Lockit@std@@CAXPEAV12@@Z
?_Lock@?$basic_streambuf@_WU?$char_traits@_W@std@@@std@@UEAAXXZ
?_Lock@?$basic_streambuf@GU?$char_traits@G@std@@@std@@UEAAXXZ
?_Lock@?$basic_streambuf@DU?$char_traits@D@std@@@std@@UEAAXXZ
?_Locinfo_dtor@_Locinfo@std@@SAXPEAV12@@Z
?_Locinfo_ctor@_Locinfo@std@@SAXPEAV12@PEBD@Z
?_Locinfo_ctor@_Locinfo@std@@SAXPEAV12@HPEBD@Z
?_Locinfo_Addcats@_Locinfo@std@@SAAEAV12@PEAV12@HPEBD@Z
?_Locimp_dtor@_Locimp@locale@std@@CAXPEAV123@@Z
?_Locimp_ctor@_Locimp@locale@std@@CAXPEAV123@AEBV123@@Z
?_Locimp_Addfac@_Locimp@locale@std@@CAXPEAV123@PEAVfacet@23@_K@Z
?_Link@sys@tr2@std@@YAHPEB_W0@Z
?_Link@sys@tr2@std@@YAHPEBD0@Z
?_Launch@_Pad@std@@QEAAXPEAU_Thrd_imp_t@@@Z
?_Last_write_time@sys@tr2@std@@YA_JPEB_W@Z
?_Last_write_time@sys@tr2@std@@YA_JPEBD@Z
?_Last_write_time@sys@tr2@std@@YAXPEB_W_J@Z
?_Last_write_time@sys@tr2@std@@YAXPEBD_J@Z
?_Iput@?$num_put@_WV?$ostreambuf_iterator@_WU?$char_traits@_W@std@@@std@@@std@@AEBA?AV?$ostreambuf_iterator@_WU?$char_traits@_W@std@@@2@V32@AEAVios_base@2@_WPEAD_K@Z
?_Iput@?$num_put@GV?$ostreambuf_iterator@GU?$char_traits@G@std@@@std@@@std@@AEBA?AV?$ostreambuf_iterator@GU?$char_traits@G@std@@@2@V32@AEAVios_base@2@GPEAD_K@Z
?_Iput@?$num_put@DV?$ostreambuf_iterator@DU?$char_traits@D@std@@@std@@@std@@AEBA?AV?$ostreambuf_iterator@DU?$char_traits@D@std@@@2@V32@AEAVios_base@2@DPEAD_K@Z
?_Ipfx@?$basic_istream@_WU?$char_traits@_W@std@@@std@@QEAA_N_N@Z
?_Ipfx@?$basic_istream@GU?$char_traits@G@std@@@std@@QEAA_N_N@Z
?_Ipfx@?$basic_istream@DU?$char_traits@D@std@@@std@@QEAA_N_N@Z
?_Ios_base_dtor@ios_base@std@@CAXPEAV12@@Z
?_Internal_throw_exception@_Concurrent_vector_base_v4@details@Concurrency@@IEBAX_K@Z
?_Internal_throw_exception@_Concurrent_queue_base_v4@details@Concurrency@@IEBAXXZ
?_Internal_swap@_Concurrent_vector_base_v4@details@Concurrency@@IEAAXAEAV123@@Z
?_Internal_swap@_Concurrent_queue_base_v4@details@Concurrency@@IEAAXAEAV123@@Z
?_Internal_size@_Concurrent_queue_base_v4@details@Concurrency@@IEBA_KXZ
?_Internal_resize@_Concurrent_vector_base_v4@details@Concurrency@@IEAAX_K00P6AXPEAX0@ZP6AX1PEBX0@Z3@Z
?_Internal_reserve@_Concurrent_vector_base_v4@details@Concurrency@@IEAAX_K00@Z
?_Internal_push_back@_Concurrent_vector_base_v4@details@Concurrency@@IEAAPEAX_KAEA_K@Z
?_Internal_push@_Concurrent_queue_base_v4@details@Concurrency@@IEAAXPEBX@Z
?_Internal_pop_if_present@_Concurrent_queue_base_v4@details@Concurrency@@IEAA_NPEAX@Z
?_Internal_move_push@_Concurrent_queue_base_v4@details@Concurrency@@IEAAXPEAX@Z
?_Internal_grow_to_at_least_with_result@_Concurrent_vector_base_v4@details@Concurrency@@IEAA_K_K0P6AXPEAXPEBX0@Z2@Z
?_Internal_grow_by@_Concurrent_vector_base_v4@details@Concurrency@@IEAA_K_K0P6AXPEAXPEBX0@Z2@Z
?_Internal_finish_clear@_Concurrent_queue_base_v4@details@Concurrency@@IEAAXXZ
?_Internal_empty@_Concurrent_queue_base_v4@details@Concurrency@@IEBA_NXZ
?_Internal_copy@_Concurrent_vector_base_v4@details@Concurrency@@IEAAXAEBV123@_KP6AXPEAXPEBX1@Z@Z
?_Internal_compact@_Concurrent_vector_base_v4@details@Concurrency@@IEAAPEAX_KPEAXP6AX10@ZP6AX1PEBX0@Z@Z
?_Internal_clear@_Concurrent_vector_base_v4@details@Concurrency@@IEAA_KP6AXPEAX_K@Z@Z
?_Internal_capacity@_Concurrent_vector_base_v4@details@Concurrency@@IEBA_KXZ
?_Internal_assign@_Concurrent_vector_base_v4@details@Concurrency@@IEAAXAEBV123@_KP6AXPEAX1@ZP6AX2PEBX1@Z5@Z
?_Init_locks_dtor@_Init_locks@std@@CAXPEAV12@@Z
?_Init_locks_ctor@_Init_locks@std@@CAXPEAV12@@Z
?_Init_dtor@Init@ios_base@std@@CAXPEAV123@@Z
?_Init_ctor@Init@ios_base@std@@CAXPEAV123@@Z
?_Init_cnt_func@Init@ios_base@std@@CAAEAHXZ
?_Init@locale@std@@CAPEAV_Locimp@12@_N@Z
?_Init@ios_base@std@@IEAAXXZ
?_Init@?$time_put@_WV?$ostreambuf_iterator@_WU?$char_traits@_W@std@@@std@@@std@@IEAAXAEBV_Locinfo@2@@Z
?_Init@?$time_put@GV?$ostreambuf_iterator@GU?$char_traits@G@std@@@std@@@std@@IEAAXAEBV_Locinfo@2@@Z
?_Init@?$time_put@DV?$ostreambuf_iterator@DU?$char_traits@D@std@@@std@@@std@@IEAAXAEBV_Locinfo@2@@Z
?_Init@?$time_get@_WV?$istreambuf_iterator@_WU?$char_traits@_W@std@@@std@@@std@@IEAAXAEBV_Locinfo@2@@Z
?_Init@?$time_get@GV?$istreambuf_iterator@GU?$char_traits@G@std@@@std@@@std@@IEAAXAEBV_Locinfo@2@@Z
?_Init@?$time_get@DV?$istreambuf_iterator@DU?$char_traits@D@std@@@std@@@std@@IEAAXAEBV_Locinfo@2@@Z
?_Init@?$num_put@_WV?$ostreambuf_iterator@_WU?$char_traits@_W@std@@@std@@@std@@IEAAXAEBV_Locinfo@2@@Z
?_Init@?$num_put@GV?$ostreambuf_iterator@GU?$char_traits@G@std@@@std@@@std@@IEAAXAEBV_Locinfo@2@@Z
?_Init@?$num_put@DV?$ostreambuf_iterator@DU?$char_traits@D@std@@@std@@@std@@IEAAXAEBV_Locinfo@2@@Z
?_Init@?$num_get@_WV?$istreambuf_iterator@_WU?$char_traits@_W@std@@@std@@@std@@IEAAXAEBV_Locinfo@2@@Z
?_Init@?$num_get@GV?$istreambuf_iterator@GU?$char_traits@G@std@@@std@@@std@@IEAAXAEBV_Locinfo@2@@Z
?_Init@?$num_get@DV?$istreambuf_iterator@DU?$char_traits@D@std@@@std@@@std@@IEAAXAEBV_Locinfo@2@@Z
?_Init@?$ctype@_W@std@@IEAAXAEBV_Locinfo@2@@Z
?_Init@?$ctype@G@std@@IEAAXAEBV_Locinfo@2@@Z
?_Init@?$ctype@D@std@@IEAAXAEBV_Locinfo@2@@Z
?_Init@?$codecvt@_WDH@std@@IEAAXAEBV_Locinfo@2@@Z
?_Init@?$codecvt@GDH@std@@IEAAXAEBV_Locinfo@2@@Z
?_Init@?$codecvt@DDH@std@@IEAAXAEBV_Locinfo@2@@Z
?_Init@?$basic_streambuf@_WU?$char_traits@_W@std@@@std@@IEAAXXZ
?_Init@?$basic_streambuf@_WU?$char_traits@_W@std@@@std@@IEAAXPEAPEA_W0PEAH001@Z
?_Init@?$basic_streambuf@GU?$char_traits@G@std@@@std@@IEAAXXZ
?_Init@?$basic_streambuf@GU?$char_traits@G@std@@@std@@IEAAXPEAPEAG0PEAH001@Z
?_Init@?$basic_streambuf@DU?$char_traits@D@std@@@std@@IEAAXXZ
?_Init@?$basic_streambuf@DU?$char_traits@D@std@@@std@@IEAAXPEAPEAD0PEAH001@Z
?_Incref@facet@locale@std@@UEAAXXZ
?_Ifmt@?$num_put@_WV?$ostreambuf_iterator@_WU?$char_traits@_W@std@@@std@@@std@@AEBAPEADPEADPEBDH@Z
?_Ifmt@?$num_put@GV?$ostreambuf_iterator@GU?$char_traits@G@std@@@std@@@std@@AEBAPEADPEADPEBDH@Z
?_Ifmt@?$num_put@DV?$ostreambuf_iterator@DU?$char_traits@D@std@@@std@@@std@@AEBAPEADPEADPEBDH@Z
?_Gnpreinc@?$basic_streambuf@_WU?$char_traits@_W@std@@@std@@IEAAPEA_WXZ
?_Gnpreinc@?$basic_streambuf@GU?$char_traits@G@std@@@std@@IEAAPEAGXZ
?_Gnpreinc@?$basic_streambuf@DU?$char_traits@D@std@@@std@@IEAAPEADXZ
?_Gninc@?$basic_streambuf@_WU?$char_traits@_W@std@@@std@@IEAAPEA_WXZ
?_Gninc@?$basic_streambuf@GU?$char_traits@G@std@@@std@@IEAAPEAGXZ
?_Gninc@?$basic_streambuf@DU?$char_traits@D@std@@@std@@IEAAPEADXZ
?_Gndec@?$basic_streambuf@_WU?$char_traits@_W@std@@@std@@IEAAPEA_WXZ
?_Gndec@?$basic_streambuf@GU?$char_traits@G@std@@@std@@IEAAPEAGXZ
?_Gndec@?$basic_streambuf@DU?$char_traits@D@std@@@std@@IEAAPEADXZ
?_Gnavail@?$basic_streambuf@_WU?$char_traits@_W@std@@@std@@IEBA_JXZ
?_Gnavail@?$basic_streambuf@GU?$char_traits@G@std@@@std@@IEBA_JXZ
?_Gnavail@?$basic_streambuf@DU?$char_traits@D@std@@@std@@IEBA_JXZ
?_Gettrue@_Locinfo@std@@QEBAPEBDXZ
?_Gettnames@_Locinfo@std@@QEBA?AV_Timevec@2@XZ
?_Getptr@_Timevec@std@@QEBAPEAXXZ
?_Getpfirst@_Container_base12@std@@QEBAPEAPEAU_Iterator_base12@2@XZ
?_Getname@_Locinfo@std@@QEBAPEBDXZ
?_Getmonths@_Locinfo@std@@QEBAPEBDXZ
?_Getlconv@_Locinfo@std@@QEBAPEBUlconv@@XZ
?_Getint@?$time_get@_WV?$istreambuf_iterator@_WU?$char_traits@_W@std@@@std@@@std@@AEBAHAEAV?$istreambuf_iterator@_WU?$char_traits@_W@std@@@2@0HHAEAHAEBV?$ctype@_W@2@@Z
?_Getint@?$time_get@GV?$istreambuf_iterator@GU?$char_traits@G@std@@@std@@@std@@AEBAHAEAV?$istreambuf_iterator@GU?$char_traits@G@std@@@2@0HHAEAHAEBV?$ctype@G@2@@Z
?_Getint@?$time_get@DV?$istreambuf_iterator@DU?$char_traits@D@std@@@std@@@std@@AEBAHAEAV?$istreambuf_iterator@DU?$char_traits@D@std@@@2@0HHAEAHAEBV?$ctype@D@2@@Z
?_Getifld@?$num_get@_WV?$istreambuf_iterator@_WU?$char_traits@_W@std@@@std@@@std@@AEBAHPEADAEAV?$istreambuf_iterator@_WU?$char_traits@_W@std@@@2@1HAEBVlocale@2@@Z
?_Getifld@?$num_get@GV?$istreambuf_iterator@GU?$char_traits@G@std@@@std@@@std@@AEBAHPEADAEAV?$istreambuf_iterator@GU?$char_traits@G@std@@@2@1HAEBVlocale@2@@Z
?_Getifld@?$num_get@DV?$istreambuf_iterator@DU?$char_traits@D@std@@@std@@@std@@AEBAHPEADAEAV?$istreambuf_iterator@DU?$char_traits@D@std@@@2@1HAEBVlocale@2@@Z
?_Getgloballocale@locale@std@@CAPEAV_Locimp@12@XZ
?_Getfmt@?$time_get@_WV?$istreambuf_iterator@_WU?$char_traits@_W@std@@@std@@@std@@IEBA?AV?$istreambuf_iterator@_WU?$char_traits@_W@std@@@2@V32@0AEAVios_base@2@AEAHPEAUtm@@PEBD@Z
?_Getfmt@?$time_get@GV?$istreambuf_iterator@GU?$char_traits@G@std@@@std@@@std@@IEBA?AV?$istreambuf_iterator@GU?$char_traits@G@std@@@2@V32@0AEAVios_base@2@AEAHPEAUtm@@PEBD@Z
?_Getfmt@?$time_get@DV?$istreambuf_iterator@DU?$char_traits@D@std@@@std@@@std@@IEBA?AV?$istreambuf_iterator@DU?$char_traits@D@std@@@2@V32@0AEAVios_base@2@AEAHPEAUtm@@PEBD@Z
?_Getffldx@?$num_get@_WV?$istreambuf_iterator@_WU?$char_traits@_W@std@@@std@@@std@@AEBAHPEADAEAV?$istreambuf_iterator@_WU?$char_traits@_W@std@@@2@1AEAVios_base@2@PEAH@Z
?_Getffldx@?$num_get@GV?$istreambuf_iterator@GU?$char_traits@G@std@@@std@@@std@@AEBAHPEADAEAV?$istreambuf_iterator@GU?$char_traits@G@std@@@2@1AEAVios_base@2@PEAH@Z
?_Getffldx@?$num_get@DV?$istreambuf_iterator@DU?$char_traits@D@std@@@std@@@std@@AEBAHPEADAEAV?$istreambuf_iterator@DU?$char_traits@D@std@@@2@1AEAVios_base@2@PEAH@Z
?_Getffld@?$num_get@_WV?$istreambuf_iterator@_WU?$char_traits@_W@std@@@std@@@std@@AEBAHPEADAEAV?$istreambuf_iterator@_WU?$char_traits@_W@std@@@2@1AEAVios_base@2@PEAH@Z
?_Getffld@?$num_get@GV?$istreambuf_iterator@GU?$char_traits@G@std@@@std@@@std@@AEBAHPEADAEAV?$istreambuf_iterator@GU?$char_traits@G@std@@@2@1AEAVios_base@2@PEAH@Z
?_Getffld@?$num_get@DV?$istreambuf_iterator@DU?$char_traits@D@std@@@std@@@std@@AEBAHPEADAEAV?$istreambuf_iterator@DU?$char_traits@D@std@@@2@1AEAVios_base@2@PEAH@Z
?_Getfalse@_Locinfo@std@@QEBAPEBDXZ
?_Getdays@_Locinfo@std@@QEBAPEBDXZ
?_Getdateorder@_Locinfo@std@@QEBAHXZ
?_Getcvt@_Locinfo@std@@QEBA?AU_Cvtvec@@XZ
?_Getctype@_Locinfo@std@@QEBA?AU_Ctypevec@@XZ
?_Getcoll@_Locinfo@std@@QEBA?AU_Collvec@@XZ
?_Getcat@facet@locale@std@@SA_KPEAPEBV123@PEBV23@@Z
?_Getcat@?$time_put@_WV?$ostreambuf_iterator@_WU?$char_traits@_W@std@@@std@@@std@@SA_KPEAPEBVfacet@locale@2@PEBV42@@Z
?_Getcat@?$time_put@GV?$ostreambuf_iterator@GU?$char_traits@G@std@@@std@@@std@@SA_KPEAPEBVfacet@locale@2@PEBV42@@Z
?_Getcat@?$time_put@DV?$ostreambuf_iterator@DU?$char_traits@D@std@@@std@@@std@@SA_KPEAPEBVfacet@locale@2@PEBV42@@Z
?_Getcat@?$time_get@_WV?$istreambuf_iterator@_WU?$char_traits@_W@std@@@std@@@std@@SA_KPEAPEBVfacet@locale@2@PEBV42@@Z
?_Getcat@?$time_get@GV?$istreambuf_iterator@GU?$char_traits@G@std@@@std@@@std@@SA_KPEAPEBVfacet@locale@2@PEBV42@@Z
?_Getcat@?$time_get@DV?$istreambuf_iterator@DU?$char_traits@D@std@@@std@@@std@@SA_KPEAPEBVfacet@locale@2@PEBV42@@Z
?_Getcat@?$num_put@_WV?$ostreambuf_iterator@_WU?$char_traits@_W@std@@@std@@@std@@SA_KPEAPEBVfacet@locale@2@PEBV42@@Z
?_Getcat@?$num_put@GV?$ostreambuf_iterator@GU?$char_traits@G@std@@@std@@@std@@SA_KPEAPEBVfacet@locale@2@PEBV42@@Z
?_Getcat@?$num_put@DV?$ostreambuf_iterator@DU?$char_traits@D@std@@@std@@@std@@SA_KPEAPEBVfacet@locale@2@PEBV42@@Z
?_Getcat@?$num_get@_WV?$istreambuf_iterator@_WU?$char_traits@_W@std@@@std@@@std@@SA_KPEAPEBVfacet@locale@2@PEBV42@@Z
?_Getcat@?$num_get@GV?$istreambuf_iterator@GU?$char_traits@G@std@@@std@@@std@@SA_KPEAPEBVfacet@locale@2@PEBV42@@Z
?_Getcat@?$num_get@DV?$istreambuf_iterator@DU?$char_traits@D@std@@@std@@@std@@SA_KPEAPEBVfacet@locale@2@PEBV42@@Z
?_Getcat@?$ctype@_W@std@@SA_KPEAPEBVfacet@locale@2@PEBV42@@Z
?_Getcat@?$ctype@G@std@@SA_KPEAPEBVfacet@locale@2@PEBV42@@Z
?_Getcat@?$ctype@D@std@@SA_KPEAPEBVfacet@locale@2@PEBV42@@Z
?_Getcat@?$codecvt@_WDH@std@@SA_KPEAPEBVfacet@locale@2@PEBV42@@Z
?_Getcat@?$codecvt@GDH@std@@SA_KPEAPEBVfacet@locale@2@PEBV42@@Z
?_Getcat@?$codecvt@DDH@std@@SA_KPEAPEBVfacet@locale@2@PEBV42@@Z
?_GetCombinableSize@details@Concurrency@@YA_KXZ
?_Future_error_map@std@@YAPEBDH@Z
?_Fput@?$num_put@_WV?$ostreambuf_iterator@_WU?$char_traits@_W@std@@@std@@@std@@AEBA?AV?$ostreambuf_iterator@_WU?$char_traits@_W@std@@@2@V32@AEAVios_base@2@_WPEBD_K444@Z
?_Fput@?$num_put@GV?$ostreambuf_iterator@GU?$char_traits@G@std@@@std@@@std@@AEBA?AV?$ostreambuf_iterator@GU?$char_traits@G@std@@@2@V32@AEAVios_base@2@GPEBD_K333@Z
?_Fput@?$num_put@DV?$ostreambuf_iterator@DU?$char_traits@D@std@@@std@@@std@@AEBA?AV?$ostreambuf_iterator@DU?$char_traits@D@std@@@2@V32@AEAVios_base@2@DPEBD_K333@Z
?_Fiopen@std@@YAPEAU_iobuf@@PEB_WHH@Z
?_Fiopen@std@@YAPEAU_iobuf@@PEBGHH@Z
?_Fiopen@std@@YAPEAU_iobuf@@PEBDHH@Z
?_Findarr@ios_base@std@@AEAAAEAU_Iosarray@12@H@Z
?_File_size@sys@tr2@std@@YA_KPEB_W@Z
?_File_size@sys@tr2@std@@YA_KPEBD@Z
?_Ffmt@?$num_put@_WV?$ostreambuf_iterator@_WU?$char_traits@_W@std@@@std@@@std@@AEBAPEADPEADDH@Z
?_Ffmt@?$num_put@GV?$ostreambuf_iterator@GU?$char_traits@G@std@@@std@@@std@@AEBAPEADPEADDH@Z
?_Ffmt@?$num_put@DV?$ostreambuf_iterator@DU?$char_traits@D@std@@@std@@@std@@AEBAPEADPEADDH@Z
?_Equivalent@sys@tr2@std@@YAHPEB_W0@Z
?_Equivalent@sys@tr2@std@@YAHPEBD0@Z
?_Empty@?$_Yarn@_W@std@@QEBA_NXZ
?_Empty@?$_Yarn@D@std@@QEBA_NXZ
?_Dowiden@?$ctype@_W@std@@IEBA_WD@Z
?_Dowiden@?$ctype@G@std@@IEBAGD@Z
?_Donarrow@?$ctype@_W@std@@IEBAD_WD@Z
?_Donarrow@?$ctype@G@std@@IEBADGD@Z
?_Decref@facet@locale@std@@UEAAPEAV_Facet_base@3@XZ
?_Current_set@sys@tr2@std@@YA_NPEB_W@Z
?_Current_set@sys@tr2@std@@YA_NPEBD@Z
?_Current_get@sys@tr2@std@@YAPEA_WAEAY0BAE@_W@Z
?_Current_get@sys@tr2@std@@YAPEADAEAY0BAE@D@Z
?_Copy_file@sys@tr2@std@@YAHPEB_W0_N@Z
?_Copy_file@sys@tr2@std@@YAHPEBD0_N@Z
?_Close_dir@sys@tr2@std@@YAXPEAX@Z
?_Callfns@ios_base@std@@AEAAXW4event@12@@Z
?_C_str@?$_Yarn@_W@std@@QEBAPEB_WXZ
?_C_str@?$_Yarn@D@std@@QEBAPEBDXZ
?_Atexit@@YAXP6AXXZ@Z
?_Assign@_Concurrent_queue_iterator_base_v4@details@Concurrency@@IEAAXAEBV123@@Z
?_Advance@_Concurrent_queue_iterator_base_v4@details@Concurrency@@IEAAXXZ
?_Addstd@ios_base@std@@SAXPEAV12@@Z
?_Addfac@_Locimp@locale@std@@AEAAXPEAVfacet@23@_K@Z
?_Addcats@_Locinfo@std@@QEAAAEAV12@HPEBD@Z
?NFS_GetLineSize@details@Concurrency@@YA_KXZ
?NFS_Free@details@Concurrency@@YAXPEAX@Z
?NFS_Allocate@details@Concurrency@@YAPEAX_K0PEAX@Z
?GetNextAsyncId@platform@details@Concurrency@@YAIXZ
??_Ftime_base@std@@QEAAXXZ
??_Fid@locale@std@@QEAAXXZ
??_Ffacet@locale@std@@QEAAXXZ
??_Fctype_base@std@@QEAAXXZ
??_Fcodecvt_base@std@@QEAAXXZ
??_F_Timevec@std@@QEAAXXZ
??_F_Locinfo@std@@QEAAXXZ
??_F?$time_put@_WV?$ostreambuf_iterator@_WU?$char_traits@_W@std@@@std@@@std@@QEAAXXZ
??_F?$time_put@GV?$ostreambuf_iterator@GU?$char_traits@G@std@@@std@@@std@@QEAAXXZ
??_F?$time_put@DV?$ostreambuf_iterator@DU?$char_traits@D@std@@@std@@@std@@QEAAXXZ
??_F?$time_get@_WV?$istreambuf_iterator@_WU?$char_traits@_W@std@@@std@@@std@@QEAAXXZ
??_F?$time_get@GV?$istreambuf_iterator@GU?$char_traits@G@std@@@std@@@std@@QEAAXXZ
??_F?$time_get@DV?$istreambuf_iterator@DU?$char_traits@D@std@@@std@@@std@@QEAAXXZ
??_F?$num_put@_WV?$ostreambuf_iterator@_WU?$char_traits@_W@std@@@std@@@std@@QEAAXXZ
??_F?$num_put@GV?$ostreambuf_iterator@GU?$char_traits@G@std@@@std@@@std@@QEAAXXZ
??_F?$num_put@DV?$ostreambuf_iterator@DU?$char_traits@D@std@@@std@@@std@@QEAAXXZ
??_F?$num_get@_WV?$istreambuf_iterator@_WU?$char_traits@_W@std@@@std@@@std@@QEAAXXZ
??_F?$num_get@GV?$istreambuf_iterator@GU?$char_traits@G@std@@@std@@@std@@QEAAXXZ
??_F?$num_get@DV?$istreambuf_iterator@DU?$char_traits@D@std@@@std@@@std@@QEAAXXZ
??_F?$ctype@_W@std@@QEAAXXZ
??_F?$ctype@G@std@@QEAAXXZ
??_F?$ctype@D@std@@QEAAXXZ
??_F?$codecvt@_WDH@std@@QEAAXXZ
??_F?$codecvt@GDH@std@@QEAAXXZ
??_F?$codecvt@DDH@std@@QEAAXXZ
??_D?$basic_ostream@_WU?$char_traits@_W@std@@@std@@QEAAXXZ
??_D?$basic_ostream@GU?$char_traits@G@std@@@std@@QEAAXXZ
??_D?$basic_ostream@DU?$char_traits@D@std@@@std@@QEAAXXZ
??_D?$basic_istream@_WU?$char_traits@_W@std@@@std@@QEAAXXZ
??_D?$basic_istream@GU?$char_traits@G@std@@@std@@QEAAXXZ
??_D?$basic_istream@DU?$char_traits@D@std@@@std@@QEAAXXZ
??_D?$basic_iostream@_WU?$char_traits@_W@std@@@std@@QEAAXXZ
??_D?$basic_iostream@GU?$char_traits@G@std@@@std@@QEAAXXZ
??_D?$basic_iostream@DU?$char_traits@D@std@@@std@@QEAAXXZ
??Bios_base@std@@QEBA_NXZ
??Bid@locale@std@@QEAA_KXZ
??7ios_base@std@@QEBA_NXZ
??6?$basic_ostream@_WU?$char_traits@_W@std@@@std@@QEAAAEAV01@_N@Z
??6?$basic_ostream@_WU?$char_traits@_W@std@@@std@@QEAAAEAV01@_K@Z
??6?$basic_ostream@_WU?$char_traits@_W@std@@@std@@QEAAAEAV01@_J@Z
??6?$basic_ostream@_WU?$char_traits@_W@std@@@std@@QEAAAEAV01@PEBX@Z
??6?$basic_ostream@_WU?$char_traits@_W@std@@@std@@QEAAAEAV01@PEAV?$basic_streambuf@_WU?$char_traits@_W@std@@@1@@Z
??6?$basic_ostream@_WU?$char_traits@_W@std@@@std@@QEAAAEAV01@P6AAEAVios_base@1@AEAV21@@Z@Z
??6?$basic_ostream@_WU?$char_traits@_W@std@@@std@@QEAAAEAV01@P6AAEAV?$basic_ios@_WU?$char_traits@_W@std@@@1@AEAV21@@Z@Z
??6?$basic_ostream@_WU?$char_traits@_W@std@@@std@@QEAAAEAV01@P6AAEAV01@AEAV01@@Z@Z
??6?$basic_ostream@_WU?$char_traits@_W@std@@@std@@QEAAAEAV01@O@Z
??6?$basic_ostream@_WU?$char_traits@_W@std@@@std@@QEAAAEAV01@N@Z
??6?$basic_ostream@_WU?$char_traits@_W@std@@@std@@QEAAAEAV01@M@Z
??6?$basic_ostream@_WU?$char_traits@_W@std@@@std@@QEAAAEAV01@K@Z
??6?$basic_ostream@_WU?$char_traits@_W@std@@@std@@QEAAAEAV01@J@Z
??6?$basic_ostream@_WU?$char_traits@_W@std@@@std@@QEAAAEAV01@I@Z
??6?$basic_ostream@_WU?$char_traits@_W@std@@@std@@QEAAAEAV01@H@Z
??6?$basic_ostream@_WU?$char_traits@_W@std@@@std@@QEAAAEAV01@G@Z
??6?$basic_ostream@_WU?$char_traits@_W@std@@@std@@QEAAAEAV01@F@Z
??6?$basic_ostream@GU?$char_traits@G@std@@@std@@QEAAAEAV01@_N@Z
??6?$basic_ostream@GU?$char_traits@G@std@@@std@@QEAAAEAV01@_K@Z
??6?$basic_ostream@GU?$char_traits@G@std@@@std@@QEAAAEAV01@_J@Z
??6?$basic_ostream@GU?$char_traits@G@std@@@std@@QEAAAEAV01@PEBX@Z
??6?$basic_ostream@GU?$char_traits@G@std@@@std@@QEAAAEAV01@PEAV?$basic_streambuf@GU?$char_traits@G@std@@@1@@Z
??6?$basic_ostream@GU?$char_traits@G@std@@@std@@QEAAAEAV01@P6AAEAVios_base@1@AEAV21@@Z@Z
??6?$basic_ostream@GU?$char_traits@G@std@@@std@@QEAAAEAV01@P6AAEAV?$basic_ios@GU?$char_traits@G@std@@@1@AEAV21@@Z@Z
??6?$basic_ostream@GU?$char_traits@G@std@@@std@@QEAAAEAV01@P6AAEAV01@AEAV01@@Z@Z
??6?$basic_ostream@GU?$char_traits@G@std@@@std@@QEAAAEAV01@O@Z
??6?$basic_ostream@GU?$char_traits@G@std@@@std@@QEAAAEAV01@N@Z
??6?$basic_ostream@GU?$char_traits@G@std@@@std@@QEAAAEAV01@M@Z
??6?$basic_ostream@GU?$char_traits@G@std@@@std@@QEAAAEAV01@K@Z
??6?$basic_ostream@GU?$char_traits@G@std@@@std@@QEAAAEAV01@J@Z
??6?$basic_ostream@GU?$char_traits@G@std@@@std@@QEAAAEAV01@I@Z
??6?$basic_ostream@GU?$char_traits@G@std@@@std@@QEAAAEAV01@H@Z
??6?$basic_ostream@GU?$char_traits@G@std@@@std@@QEAAAEAV01@G@Z
??6?$basic_ostream@GU?$char_traits@G@std@@@std@@QEAAAEAV01@F@Z
??6?$basic_ostream@DU?$char_traits@D@std@@@std@@QEAAAEAV01@_N@Z
??6?$basic_ostream@DU?$char_traits@D@std@@@std@@QEAAAEAV01@_K@Z
??6?$basic_ostream@DU?$char_traits@D@std@@@std@@QEAAAEAV01@_J@Z
??6?$basic_ostream@DU?$char_traits@D@std@@@std@@QEAAAEAV01@PEBX@Z
??6?$basic_ostream@DU?$char_traits@D@std@@@std@@QEAAAEAV01@PEAV?$basic_streambuf@DU?$char_traits@D@std@@@1@@Z
??6?$basic_ostream@DU?$char_traits@D@std@@@std@@QEAAAEAV01@P6AAEAVios_base@1@AEAV21@@Z@Z
??6?$basic_ostream@DU?$char_traits@D@std@@@std@@QEAAAEAV01@P6AAEAV?$basic_ios@DU?$char_traits@D@std@@@1@AEAV21@@Z@Z
??6?$basic_ostream@DU?$char_traits@D@std@@@std@@QEAAAEAV01@P6AAEAV01@AEAV01@@Z@Z
??6?$basic_ostream@DU?$char_traits@D@std@@@std@@QEAAAEAV01@O@Z
??6?$basic_ostream@DU?$char_traits@D@std@@@std@@QEAAAEAV01@N@Z
??6?$basic_ostream@DU?$char_traits@D@std@@@std@@QEAAAEAV01@M@Z
??6?$basic_ostream@DU?$char_traits@D@std@@@std@@QEAAAEAV01@K@Z
??6?$basic_ostream@DU?$char_traits@D@std@@@std@@QEAAAEAV01@J@Z
??6?$basic_ostream@DU?$char_traits@D@std@@@std@@QEAAAEAV01@I@Z
??6?$basic_ostream@DU?$char_traits@D@std@@@std@@QEAAAEAV01@H@Z
??6?$basic_ostream@DU?$char_traits@D@std@@@std@@QEAAAEAV01@G@Z
??6?$basic_ostream@DU?$char_traits@D@std@@@std@@QEAAAEAV01@F@Z
??5?$basic_istream@_WU?$char_traits@_W@std@@@std@@QEAAAEAV01@PEAV?$basic_streambuf@_WU?$char_traits@_W@std@@@1@@Z
??5?$basic_istream@_WU?$char_traits@_W@std@@@std@@QEAAAEAV01@P6AAEAVios_base@1@AEAV21@@Z@Z
??5?$basic_istream@_WU?$char_traits@_W@std@@@std@@QEAAAEAV01@P6AAEAV?$basic_ios@_WU?$char_traits@_W@std@@@1@AEAV21@@Z@Z
??5?$basic_istream@_WU?$char_traits@_W@std@@@std@@QEAAAEAV01@P6AAEAV01@AEAV01@@Z@Z
??5?$basic_istream@_WU?$char_traits@_W@std@@@std@@QEAAAEAV01@AEA_N@Z
??5?$basic_istream@_WU?$char_traits@_W@std@@@std@@QEAAAEAV01@AEA_K@Z
??5?$basic_istream@_WU?$char_traits@_W@std@@@std@@QEAAAEAV01@AEA_J@Z
??5?$basic_istream@_WU?$char_traits@_W@std@@@std@@QEAAAEAV01@AEAPEAX@Z
??5?$basic_istream@_WU?$char_traits@_W@std@@@std@@QEAAAEAV01@AEAO@Z
??5?$basic_istream@_WU?$char_traits@_W@std@@@std@@QEAAAEAV01@AEAN@Z
??5?$basic_istream@_WU?$char_traits@_W@std@@@std@@QEAAAEAV01@AEAM@Z
??5?$basic_istream@_WU?$char_traits@_W@std@@@std@@QEAAAEAV01@AEAK@Z
??5?$basic_istream@_WU?$char_traits@_W@std@@@std@@QEAAAEAV01@AEAJ@Z
??5?$basic_istream@_WU?$char_traits@_W@std@@@std@@QEAAAEAV01@AEAI@Z
??5?$basic_istream@_WU?$char_traits@_W@std@@@std@@QEAAAEAV01@AEAH@Z
??5?$basic_istream@_WU?$char_traits@_W@std@@@std@@QEAAAEAV01@AEAG@Z
??5?$basic_istream@_WU?$char_traits@_W@std@@@std@@QEAAAEAV01@AEAF@Z
??5?$basic_istream@GU?$char_traits@G@std@@@std@@QEAAAEAV01@PEAV?$basic_streambuf@GU?$char_traits@G@std@@@1@@Z
??5?$basic_istream@GU?$char_traits@G@std@@@std@@QEAAAEAV01@P6AAEAVios_base@1@AEAV21@@Z@Z
??5?$basic_istream@GU?$char_traits@G@std@@@std@@QEAAAEAV01@P6AAEAV?$basic_ios@GU?$char_traits@G@std@@@1@AEAV21@@Z@Z
??5?$basic_istream@GU?$char_traits@G@std@@@std@@QEAAAEAV01@P6AAEAV01@AEAV01@@Z@Z
??5?$basic_istream@GU?$char_traits@G@std@@@std@@QEAAAEAV01@AEA_N@Z
??5?$basic_istream@GU?$char_traits@G@std@@@std@@QEAAAEAV01@AEA_K@Z
??5?$basic_istream@GU?$char_traits@G@std@@@std@@QEAAAEAV01@AEA_J@Z
??5?$basic_istream@GU?$char_traits@G@std@@@std@@QEAAAEAV01@AEAPEAX@Z
??5?$basic_istream@GU?$char_traits@G@std@@@std@@QEAAAEAV01@AEAO@Z
??5?$basic_istream@GU?$char_traits@G@std@@@std@@QEAAAEAV01@AEAN@Z
??5?$basic_istream@GU?$char_traits@G@std@@@std@@QEAAAEAV01@AEAM@Z
??5?$basic_istream@GU?$char_traits@G@std@@@std@@QEAAAEAV01@AEAK@Z
??5?$basic_istream@GU?$char_traits@G@std@@@std@@QEAAAEAV01@AEAJ@Z
??5?$basic_istream@GU?$char_traits@G@std@@@std@@QEAAAEAV01@AEAI@Z
??5?$basic_istream@GU?$char_traits@G@std@@@std@@QEAAAEAV01@AEAH@Z
??5?$basic_istream@GU?$char_traits@G@std@@@std@@QEAAAEAV01@AEAG@Z
??5?$basic_istream@GU?$char_traits@G@std@@@std@@QEAAAEAV01@AEAF@Z
??5?$basic_istream@DU?$char_traits@D@std@@@std@@QEAAAEAV01@PEAV?$basic_streambuf@DU?$char_traits@D@std@@@1@@Z
??5?$basic_istream@DU?$char_traits@D@std@@@std@@QEAAAEAV01@P6AAEAVios_base@1@AEAV21@@Z@Z
??5?$basic_istream@DU?$char_traits@D@std@@@std@@QEAAAEAV01@P6AAEAV?$basic_ios@DU?$char_traits@D@std@@@1@AEAV21@@Z@Z
??5?$basic_istream@DU?$char_traits@D@std@@@std@@QEAAAEAV01@P6AAEAV01@AEAV01@@Z@Z
??5?$basic_istream@DU?$char_traits@D@std@@@std@@QEAAAEAV01@AEA_N@Z
??5?$basic_istream@DU?$char_traits@D@std@@@std@@QEAAAEAV01@AEA_K@Z
??5?$basic_istream@DU?$char_traits@D@std@@@std@@QEAAAEAV01@AEA_J@Z
??5?$basic_istream@DU?$char_traits@D@std@@@std@@QEAAAEAV01@AEAPEAX@Z
??5?$basic_istream@DU?$char_traits@D@std@@@std@@QEAAAEAV01@AEAO@Z
??5?$basic_istream@DU?$char_traits@D@std@@@std@@QEAAAEAV01@AEAN@Z
??5?$basic_istream@DU?$char_traits@D@std@@@std@@QEAAAEAV01@AEAM@Z
??5?$basic_istream@DU?$char_traits@D@std@@@std@@QEAAAEAV01@AEAK@Z
??5?$basic_istream@DU?$char_traits@D@std@@@std@@QEAAAEAV01@AEAJ@Z
??5?$basic_istream@DU?$char_traits@D@std@@@std@@QEAAAEAV01@AEAI@Z
??5?$basic_istream@DU?$char_traits@D@std@@@std@@QEAAAEAV01@AEAH@Z
??5?$basic_istream@DU?$char_traits@D@std@@@std@@QEAAAEAV01@AEAG@Z
??5?$basic_istream@DU?$char_traits@D@std@@@std@@QEAAAEAV01@AEAF@Z
??4_Winit@std@@QEAAAEAV01@AEBV01@@Z
??4_UShinit@std@@QEAAAEAV01@AEBV01@@Z
??4_Timevec@std@@QEAAAEAV01@AEBV01@@Z
??4_Pad@std@@QEAAAEAV01@AEBV01@@Z
??4_Init_locks@std@@QEAAAEAV01@AEBV01@@Z
??4_Facet_base@std@@QEAAAEAV01@AEBV01@@Z
??4_Container_base12@std@@QEAAAEAU01@AEBU01@@Z
??4_Container_base0@std@@QEAAAEAU01@AEBU01@@Z
??4Init@ios_base@std@@QEAAAEAV012@AEBV012@@Z
??4?$basic_streambuf@_WU?$char_traits@_W@std@@@std@@IEAAAEAV01@AEBV01@@Z
??4?$basic_streambuf@GU?$char_traits@G@std@@@std@@IEAAAEAV01@AEBV01@@Z
??4?$basic_streambuf@DU?$char_traits@D@std@@@std@@IEAAAEAV01@AEBV01@@Z
??4?$basic_ostream@_WU?$char_traits@_W@std@@@std@@IEAAAEAV01@$$QEAV01@@Z
??4?$basic_ostream@GU?$char_traits@G@std@@@std@@IEAAAEAV01@$$QEAV01@@Z
??4?$basic_ostream@DU?$char_traits@D@std@@@std@@IEAAAEAV01@$$QEAV01@@Z
??4?$basic_istream@_WU?$char_traits@_W@std@@@std@@IEAAAEAV01@$$QEAV01@@Z
??4?$basic_istream@GU?$char_traits@G@std@@@std@@IEAAAEAV01@$$QEAV01@@Z
??4?$basic_istream@DU?$char_traits@D@std@@@std@@IEAAAEAV01@$$QEAV01@@Z
??4?$basic_iostream@_WU?$char_traits@_W@std@@@std@@IEAAAEAV01@$$QEAV01@@Z
??4?$basic_iostream@GU?$char_traits@G@std@@@std@@IEAAAEAV01@$$QEAV01@@Z
??4?$basic_iostream@DU?$char_traits@D@std@@@std@@IEAAAEAV01@$$QEAV01@@Z
??4?$_Yarn@_W@std@@QEAAAEAV01@PEB_W@Z
??4?$_Yarn@D@std@@QEAAAEAV01@PEBD@Z
??4?$_Yarn@D@std@@QEAAAEAV01@AEBV01@@Z
??4?$_Iosb@H@std@@QEAAAEAV01@AEBV01@@Z
??1time_base@std@@UEAA@XZ
??1ios_base@std@@UEAA@XZ
??1facet@locale@std@@MEAA@XZ
??1ctype_base@std@@UEAA@XZ
??1codecvt_base@std@@UEAA@XZ
??1agent@Concurrency@@UEAA@XZ
??1_Winit@std@@QEAA@XZ
??1_UShinit@std@@QEAA@XZ
??1_Timevec@std@@QEAA@XZ
??1_Pad@std@@QEAA@XZ
??1_Lockit@std@@QEAA@XZ
??1_Locinfo@std@@QEAA@XZ
??1_Locimp@locale@std@@MEAA@XZ
??1_Init_locks@std@@QEAA@XZ
??1_Facet_base@std@@UEAA@XZ
??1_Container_base12@std@@QEAA@XZ
??1_Concurrent_vector_base_v4@details@Concurrency@@IEAA@XZ
??1_Concurrent_queue_iterator_base_v4@details@Concurrency@@IEAA@XZ
??1_Concurrent_queue_base_v4@details@Concurrency@@MEAA@XZ
??1Init@ios_base@std@@QEAA@XZ
??1?$time_put@_WV?$ostreambuf_iterator@_WU?$char_traits@_W@std@@@std@@@std@@MEAA@XZ
??1?$time_put@GV?$ostreambuf_iterator@GU?$char_traits@G@std@@@std@@@std@@MEAA@XZ
??1?$time_put@DV?$ostreambuf_iterator@DU?$char_traits@D@std@@@std@@@std@@MEAA@XZ
??1?$time_get@_WV?$istreambuf_iterator@_WU?$char_traits@_W@std@@@std@@@std@@MEAA@XZ
??1?$time_get@GV?$istreambuf_iterator@GU?$char_traits@G@std@@@std@@@std@@MEAA@XZ
??1?$time_get@DV?$istreambuf_iterator@DU?$char_traits@D@std@@@std@@@std@@MEAA@XZ
??1?$num_put@_WV?$ostreambuf_iterator@_WU?$char_traits@_W@std@@@std@@@std@@MEAA@XZ
??1?$num_put@GV?$ostreambuf_iterator@GU?$char_traits@G@std@@@std@@@std@@MEAA@XZ
??1?$num_put@DV?$ostreambuf_iterator@DU?$char_traits@D@std@@@std@@@std@@MEAA@XZ
??1?$num_get@_WV?$istreambuf_iterator@_WU?$char_traits@_W@std@@@std@@@std@@MEAA@XZ
??1?$num_get@GV?$istreambuf_iterator@GU?$char_traits@G@std@@@std@@@std@@MEAA@XZ
??1?$num_get@DV?$istreambuf_iterator@DU?$char_traits@D@std@@@std@@@std@@MEAA@XZ
??1?$ctype@_W@std@@MEAA@XZ
??1?$ctype@G@std@@MEAA@XZ
??1?$ctype@D@std@@MEAA@XZ
??1?$codecvt@_WDH@std@@MEAA@XZ
??1?$codecvt@GDH@std@@MEAA@XZ
??1?$codecvt@DDH@std@@MEAA@XZ
??1?$basic_streambuf@_WU?$char_traits@_W@std@@@std@@UEAA@XZ
??1?$basic_streambuf@GU?$char_traits@G@std@@@std@@UEAA@XZ
??1?$basic_streambuf@DU?$char_traits@D@std@@@std@@UEAA@XZ
??1?$basic_ostream@_WU?$char_traits@_W@std@@@std@@UEAA@XZ
??1?$basic_ostream@GU?$char_traits@G@std@@@std@@UEAA@XZ
??1?$basic_ostream@DU?$char_traits@D@std@@@std@@UEAA@XZ
??1?$basic_istream@_WU?$char_traits@_W@std@@@std@@UEAA@XZ
??1?$basic_istream@GU?$char_traits@G@std@@@std@@UEAA@XZ
??1?$basic_istream@DU?$char_traits@D@std@@@std@@UEAA@XZ
??1?$basic_iostream@_WU?$char_traits@_W@std@@@std@@UEAA@XZ
??1?$basic_iostream@GU?$char_traits@G@std@@@std@@UEAA@XZ
??1?$basic_iostream@DU?$char_traits@D@std@@@std@@UEAA@XZ
??1?$basic_ios@_WU?$char_traits@_W@std@@@std@@UEAA@XZ
??1?$basic_ios@GU?$char_traits@G@std@@@std@@UEAA@XZ
??1?$basic_ios@DU?$char_traits@D@std@@@std@@UEAA@XZ
??1?$_Yarn@_W@std@@QEAA@XZ
??1?$_Yarn@D@std@@QEAA@XZ
??0time_base@std@@QEAA@_K@Z
??0ios_base@std@@IEAA@XZ
??0id@locale@std@@QEAA@_K@Z
??0facet@locale@std@@IEAA@_K@Z
??0ctype_base@std@@QEAA@_K@Z
??0codecvt_base@std@@QEAA@_K@Z
??0agent@Concurrency@@QEAA@XZ
??0agent@Concurrency@@QEAA@AEAVScheduler@1@@Z
??0agent@Concurrency@@QEAA@AEAVScheduleGroup@1@@Z
??0_Winit@std@@QEAA@XZ
??0_UShinit@std@@QEAA@XZ
??0_Timevec@std@@QEAA@PEAX@Z
??0_Timevec@std@@QEAA@AEBV01@@Z
??0_Runtime_object@details@Concurrency@@QEAA@XZ
??0_Runtime_object@details@Concurrency@@QEAA@H@Z
??0_Pad@std@@QEAA@XZ
??0_Pad@std@@QEAA@AEBV01@@Z
??0_Lockit@std@@QEAA@XZ
??0_Lockit@std@@QEAA@H@Z
??0_Locinfo@std@@QEAA@PEBD@Z
??0_Locinfo@std@@QEAA@HPEBD@Z
??0_Locimp@locale@std@@AEAA@_N@Z
??0_Locimp@locale@std@@AEAA@AEBV012@@Z
??0_Init_locks@std@@QEAA@XZ
??0_Facet_base@std@@QEAA@XZ
??0_Facet_base@std@@QEAA@AEBV01@@Z
??0_Container_base12@std@@QEAA@XZ
??0_Container_base12@std@@QEAA@AEBU01@@Z
??0_Concurrent_queue_iterator_base_v4@details@Concurrency@@IEAA@AEBV_Concurrent_queue_base_v4@12@@Z
??0_Concurrent_queue_base_v4@details@Concurrency@@IEAA@_K@Z
??0Init@ios_base@std@@QEAA@XZ
??0?$time_put@_WV?$ostreambuf_iterator@_WU?$char_traits@_W@std@@@std@@@std@@QEAA@_K@Z
??0?$time_put@_WV?$ostreambuf_iterator@_WU?$char_traits@_W@std@@@std@@@std@@QEAA@AEBV_Locinfo@1@_K@Z
??0?$time_put@_WV?$ostreambuf_iterator@_WU?$char_traits@_W@std@@@std@@@std@@IEAA@PEBD_K@Z
??0?$time_put@GV?$ostreambuf_iterator@GU?$char_traits@G@std@@@std@@@std@@QEAA@_K@Z
??0?$time_put@GV?$ostreambuf_iterator@GU?$char_traits@G@std@@@std@@@std@@QEAA@AEBV_Locinfo@1@_K@Z
??0?$time_put@GV?$ostreambuf_iterator@GU?$char_traits@G@std@@@std@@@std@@IEAA@PEBD_K@Z
??0?$time_put@DV?$ostreambuf_iterator@DU?$char_traits@D@std@@@std@@@std@@QEAA@_K@Z
??0?$time_put@DV?$ostreambuf_iterator@DU?$char_traits@D@std@@@std@@@std@@QEAA@AEBV_Locinfo@1@_K@Z
??0?$time_get@_WV?$istreambuf_iterator@_WU?$char_traits@_W@std@@@std@@@std@@QEAA@_K@Z
??0?$time_get@_WV?$istreambuf_iterator@_WU?$char_traits@_W@std@@@std@@@std@@QEAA@AEBV_Locinfo@1@_K@Z
??0?$time_get@_WV?$istreambuf_iterator@_WU?$char_traits@_W@std@@@std@@@std@@IEAA@PEBD_K@Z
??0?$time_get@GV?$istreambuf_iterator@GU?$char_traits@G@std@@@std@@@std@@QEAA@_K@Z
??0?$time_get@GV?$istreambuf_iterator@GU?$char_traits@G@std@@@std@@@std@@QEAA@AEBV_Locinfo@1@_K@Z
??0?$time_get@GV?$istreambuf_iterator@GU?$char_traits@G@std@@@std@@@std@@IEAA@PEBD_K@Z
??0?$time_get@DV?$istreambuf_iterator@DU?$char_traits@D@std@@@std@@@std@@QEAA@_K@Z
??0?$time_get@DV?$istreambuf_iterator@DU?$char_traits@D@std@@@std@@@std@@QEAA@AEBV_Locinfo@1@_K@Z
??0?$time_get@DV?$istreambuf_iterator@DU?$char_traits@D@std@@@std@@@std@@IEAA@PEBD_K@Z
??0?$num_put@_WV?$ostreambuf_iterator@_WU?$char_traits@_W@std@@@std@@@std@@QEAA@_K@Z
??0?$num_put@_WV?$ostreambuf_iterator@_WU?$char_traits@_W@std@@@std@@@std@@QEAA@AEBV_Locinfo@1@_K@Z
??0?$num_put@GV?$ostreambuf_iterator@GU?$char_traits@G@std@@@std@@@std@@QEAA@_K@Z
??0?$num_put@GV?$ostreambuf_iterator@GU?$char_traits@G@std@@@std@@@std@@QEAA@AEBV_Locinfo@1@_K@Z
??0?$num_put@DV?$ostreambuf_iterator@DU?$char_traits@D@std@@@std@@@std@@QEAA@_K@Z
??0?$num_put@DV?$ostreambuf_iterator@DU?$char_traits@D@std@@@std@@@std@@QEAA@AEBV_Locinfo@1@_K@Z
??0?$num_get@_WV?$istreambuf_iterator@_WU?$char_traits@_W@std@@@std@@@std@@QEAA@_K@Z
??0?$num_get@_WV?$istreambuf_iterator@_WU?$char_traits@_W@std@@@std@@@std@@QEAA@AEBV_Locinfo@1@_K@Z
??0?$num_get@GV?$istreambuf_iterator@GU?$char_traits@G@std@@@std@@@std@@QEAA@_K@Z
??0?$num_get@GV?$istreambuf_iterator@GU?$char_traits@G@std@@@std@@@std@@QEAA@AEBV_Locinfo@1@_K@Z
??0?$num_get@DV?$istreambuf_iterator@DU?$char_traits@D@std@@@std@@@std@@QEAA@_K@Z
??0?$num_get@DV?$istreambuf_iterator@DU?$char_traits@D@std@@@std@@@std@@QEAA@AEBV_Locinfo@1@_K@Z
??0?$ctype@_W@std@@QEAA@_K@Z
??0?$ctype@_W@std@@QEAA@AEBV_Locinfo@1@_K@Z
??0?$ctype@G@std@@QEAA@_K@Z
??0?$ctype@G@std@@QEAA@AEBV_Locinfo@1@_K@Z
??0?$ctype@D@std@@QEAA@PEBF_N_K@Z
??0?$ctype@D@std@@QEAA@AEBV_Locinfo@1@_K@Z
??0?$codecvt@_WDH@std@@QEAA@_K@Z
??0?$codecvt@_WDH@std@@QEAA@AEBV_Locinfo@1@_K@Z
??0?$codecvt@GDH@std@@QEAA@_K@Z
??0?$codecvt@GDH@std@@QEAA@AEBV_Locinfo@1@_K@Z
??0?$codecvt@DDH@std@@QEAA@_K@Z
??0?$codecvt@DDH@std@@QEAA@AEBV_Locinfo@1@_K@Z
??0?$basic_streambuf@_WU?$char_traits@_W@std@@@std@@IEAA@XZ
??0?$basic_streambuf@_WU?$char_traits@_W@std@@@std@@IEAA@W4_Uninitialized@1@@Z
??0?$basic_streambuf@_WU?$char_traits@_W@std@@@std@@IEAA@AEBV01@@Z
??0?$basic_streambuf@GU?$char_traits@G@std@@@std@@IEAA@XZ
??0?$basic_streambuf@GU?$char_traits@G@std@@@std@@IEAA@W4_Uninitialized@1@@Z
??0?$basic_streambuf@GU?$char_traits@G@std@@@std@@IEAA@AEBV01@@Z
??0?$basic_streambuf@DU?$char_traits@D@std@@@std@@IEAA@XZ
??0?$basic_streambuf@DU?$char_traits@D@std@@@std@@IEAA@W4_Uninitialized@1@@Z
??0?$basic_streambuf@DU?$char_traits@D@std@@@std@@IEAA@AEBV01@@Z
??0?$basic_ostream@_WU?$char_traits@_W@std@@@std@@QEAA@W4_Uninitialized@1@_N@Z
??0?$basic_ostream@_WU?$char_traits@_W@std@@@std@@QEAA@PEAV?$basic_streambuf@_WU?$char_traits@_W@std@@@1@_N@Z
??0?$basic_ostream@_WU?$char_traits@_W@std@@@std@@IEAA@$$QEAV01@@Z
??0?$basic_ostream@GU?$char_traits@G@std@@@std@@QEAA@W4_Uninitialized@1@_N@Z
??0?$basic_ostream@GU?$char_traits@G@std@@@std@@QEAA@PEAV?$basic_streambuf@GU?$char_traits@G@std@@@1@_N@Z
??0?$basic_ostream@GU?$char_traits@G@std@@@std@@IEAA@$$QEAV01@@Z
??0?$basic_ostream@DU?$char_traits@D@std@@@std@@QEAA@W4_Uninitialized@1@_N@Z
??0?$basic_ostream@DU?$char_traits@D@std@@@std@@QEAA@PEAV?$basic_streambuf@DU?$char_traits@D@std@@@1@_N@Z
??0?$basic_ostream@DU?$char_traits@D@std@@@std@@IEAA@$$QEAV01@@Z
??0?$basic_istream@_WU?$char_traits@_W@std@@@std@@QEAA@W4_Uninitialized@1@@Z
??0?$basic_istream@_WU?$char_traits@_W@std@@@std@@QEAA@PEAV?$basic_streambuf@_WU?$char_traits@_W@std@@@1@_N@Z
??0?$basic_istream@_WU?$char_traits@_W@std@@@std@@QEAA@PEAV?$basic_streambuf@_WU?$char_traits@_W@std@@@1@_N1@Z
??0?$basic_istream@_WU?$char_traits@_W@std@@@std@@IEAA@$$QEAV01@@Z
??0?$basic_istream@GU?$char_traits@G@std@@@std@@QEAA@W4_Uninitialized@1@@Z
??0?$basic_istream@GU?$char_traits@G@std@@@std@@QEAA@PEAV?$basic_streambuf@GU?$char_traits@G@std@@@1@_N@Z
??0?$basic_istream@GU?$char_traits@G@std@@@std@@QEAA@PEAV?$basic_streambuf@GU?$char_traits@G@std@@@1@_N1@Z
??0?$basic_istream@GU?$char_traits@G@std@@@std@@IEAA@$$QEAV01@@Z
??0?$basic_istream@DU?$char_traits@D@std@@@std@@QEAA@W4_Uninitialized@1@@Z
??0?$basic_istream@DU?$char_traits@D@std@@@std@@QEAA@PEAV?$basic_streambuf@DU?$char_traits@D@std@@@1@_N@Z
??0?$basic_istream@DU?$char_traits@D@std@@@std@@QEAA@PEAV?$basic_streambuf@DU?$char_traits@D@std@@@1@_N1@Z
??0?$basic_istream@DU?$char_traits@D@std@@@std@@IEAA@$$QEAV01@@Z
??0?$basic_iostream@_WU?$char_traits@_W@std@@@std@@QEAA@PEAV?$basic_streambuf@_WU?$char_traits@_W@std@@@1@@Z
??0?$basic_iostream@_WU?$char_traits@_W@std@@@std@@IEAA@$$QEAV01@@Z
??0?$basic_iostream@GU?$char_traits@G@std@@@std@@QEAA@PEAV?$basic_streambuf@GU?$char_traits@G@std@@@1@@Z
??0?$basic_iostream@GU?$char_traits@G@std@@@std@@IEAA@$$QEAV01@@Z
??0?$basic_iostream@DU?$char_traits@D@std@@@std@@QEAA@PEAV?$basic_streambuf@DU?$char_traits@D@std@@@1@@Z
??0?$basic_iostream@DU?$char_traits@D@std@@@std@@IEAA@$$QEAV01@@Z
??0?$basic_ios@_WU?$char_traits@_W@std@@@std@@QEAA@PEAV?$basic_streambuf@_WU?$char_traits@_W@std@@@1@@Z
??0?$basic_ios@_WU?$char_traits@_W@std@@@std@@IEAA@XZ
??0?$basic_ios@GU?$char_traits@G@std@@@std@@QEAA@PEAV?$basic_streambuf@GU?$char_traits@G@std@@@1@@Z
??0?$basic_ios@GU?$char_traits@G@std@@@std@@IEAA@XZ
??0?$basic_ios@DU?$char_traits@D@std@@@std@@QEAA@PEAV?$basic_streambuf@DU?$char_traits@D@std@@@1@@Z
??0?$basic_ios@DU?$char_traits@D@std@@@std@@IEAA@XZ
??0?$_Yarn@_W@std@@QEAA@XZ
??0?$_Yarn@D@std@@QEAA@XZ
??0?$_Yarn@D@std@@QEAA@PEBD@Z
??0?$_Yarn@D@std@@QEAA@AEBV01@@Z
??$_Getvals@_W@?$time_get@_WV?$istreambuf_iterator@_WU?$char_traits@_W@std@@@std@@@std@@IEAAX_WAEBV_Locinfo@1@@Z
??$_Getvals@_W@?$time_get@GV?$istreambuf_iterator@GU?$char_traits@G@std@@@std@@@std@@IEAAX_WAEBV_Locinfo@1@@Z
??$_Getvals@_W@?$time_get@DV?$istreambuf_iterator@DU?$char_traits@D@std@@@std@@@std@@IEAAX_WAEBV_Locinfo@1@@Z
