LIBRARY MSVCIRT.DLL
EXPORTS
_mtunlock
_mtlock
?xsputn@streambuf@@UEAAHPEBDH@Z
?xsgetn@streambuf@@UEAAHPEADH@Z
?xalloc@ios@@SAHXZ
?ws@@YAAEAVistream@@AEAV1@@Z
?writepad@ostream@@AEAAAEAV1@PEBD0@Z
?write@ostream@@QEAAAEAV1@PEBEH@Z
?write@ostream@@QEAAAEAV1@PEBDH@Z
?write@ostream@@QEAAAEAV1@PEBCH@Z
?width@ios@@QEBAHXZ
?width@ios@@QEAAHH@Z
?what@exception@@UEBAPEBDXZ
?unsetf@ios@@QEAAJJ@Z
?unlockc@ios@@KAXXZ
?unlockbuf@ios@@QEAAXXZ
?unlock@streambuf@@QEAAXXZ
?unlock@ios@@QEAAXXZ
?underflow@strstreambuf@@UEAAHXZ
?underflow@stdiobuf@@UEAAHXZ
?underflow@filebuf@@UEAAHXZ
?unbuffered@streambuf@@IEBAHXZ
?unbuffered@streambuf@@IEAAXH@Z
?tie@ios@@QEBAPEAVostream@@XZ
?tie@ios@@QEAAPEAVostream@@PEAV2@@Z
?text@filebuf@@2HB
?tellp@ostream@@QEAAJXZ
?tellg@istream@@QEAAJXZ
?sync_with_stdio@ios@@SAXXZ
?sync@strstreambuf@@UEAAHXZ
?sync@streambuf@@UEAAHXZ
?sync@stdiobuf@@UEAAHXZ
?sync@istream@@QEAAHXZ
?sync@filebuf@@UEAAHXZ
?str@strstreambuf@@QEAAPEADXZ
?str@strstream@@QEAAPEADXZ
?str@ostrstream@@QEAAPEADXZ
?str@istrstream@@QEAAPEADXZ
?stossc@streambuf@@QEAAXXZ
?stdiofile@stdiobuf@@QEAAPEAU_iobuf@@XZ
?sputn@streambuf@@QEAAHPEBDH@Z
?sputc@streambuf@@QEAAHH@Z
?sputbackc@streambuf@@QEAAHD@Z
?snextc@streambuf@@QEAAHXZ
?sh_write@filebuf@@2HB
?sh_read@filebuf@@2HB
?sh_none@filebuf@@2HB
?sgetn@streambuf@@QEAAHPEADH@Z
?sgetc@streambuf@@QEAAHXZ
?setrwbuf@stdiobuf@@QEAAHHH@Z
?setp@streambuf@@IEAAXPEAD0@Z
?setmode@ofstream@@QEAAHH@Z
?setmode@ifstream@@QEAAHH@Z
?setmode@fstream@@QEAAHH@Z
?setmode@filebuf@@QEAAHH@Z
?setlock@streambuf@@QEAAXXZ
?setlock@ios@@QEAAXXZ
?setg@streambuf@@IEAAXPEAD00@Z
?setf@ios@@QEAAJJJ@Z
?setf@ios@@QEAAJJ@Z
?setbuf@strstreambuf@@UEAAPEAVstreambuf@@PEADH@Z
?setbuf@streambuf@@UEAAPEAV1@PEADH@Z
?setbuf@ofstream@@QEAAPEAVstreambuf@@PEADH@Z
?setbuf@ifstream@@QEAAPEAVstreambuf@@PEADH@Z
?setbuf@fstream@@QEAAPEAVstreambuf@@PEADH@Z
?setbuf@filebuf@@UEAAPEAVstreambuf@@PEADH@Z
?setb@streambuf@@IEAAXPEAD0H@Z
?seekpos@streambuf@@UEAAJJH@Z
?seekp@ostream@@QEAAAEAV1@JW4seek_dir@ios@@@Z
?seekp@ostream@@QEAAAEAV1@J@Z
?seekoff@strstreambuf@@UEAAJJW4seek_dir@ios@@H@Z
?seekoff@streambuf@@UEAAJJW4seek_dir@ios@@H@Z
?seekoff@stdiobuf@@UEAAJJW4seek_dir@ios@@H@Z
?seekoff@filebuf@@UEAAJJW4seek_dir@ios@@H@Z
?seekg@istream@@QEAAAEAV1@JW4seek_dir@ios@@@Z
?seekg@istream@@QEAAAEAV1@J@Z
?sbumpc@streambuf@@QEAAHXZ
?read@istream@@QEAAAEAV1@PEAEH@Z
?read@istream@@QEAAAEAV1@PEADH@Z
?read@istream@@QEAAAEAV1@PEACH@Z
?rdstate@ios@@QEBAHXZ
?rdbuf@strstream@@QEBAPEAVstrstreambuf@@XZ
?rdbuf@stdiostream@@QEBAPEAVstdiobuf@@XZ
?rdbuf@ostrstream@@QEBAPEAVstrstreambuf@@XZ
?rdbuf@ofstream@@QEBAPEAVfilebuf@@XZ
?rdbuf@istrstream@@QEBAPEAVstrstreambuf@@XZ
?rdbuf@ios@@QEBAPEAVstreambuf@@XZ
?rdbuf@ifstream@@QEBAPEAVfilebuf@@XZ
?rdbuf@fstream@@QEBAPEAVfilebuf@@XZ
?pword@ios@@QEBAAEAPEAXH@Z
?putback@istream@@QEAAAEAV1@D@Z
?put@ostream@@QEAAAEAV1@E@Z
?put@ostream@@QEAAAEAV1@D@Z
?put@ostream@@QEAAAEAV1@C@Z
?precision@ios@@QEBAHXZ
?precision@ios@@QEAAHH@Z
?pptr@streambuf@@IEBAPEADXZ
?peek@istream@@QEAAHXZ
?pcount@strstream@@QEBAHXZ
?pcount@ostrstream@@QEBAHXZ
?pbump@streambuf@@IEAAXH@Z
?pbase@streambuf@@IEBAPEADXZ
?pbackfail@streambuf@@UEAAHH@Z
?pbackfail@stdiobuf@@UEAAHH@Z
?overflow@strstreambuf@@UEAAHH@Z
?overflow@stdiobuf@@UEAAHH@Z
?overflow@filebuf@@UEAAHH@Z
?out_waiting@streambuf@@QEBAHXZ
?osfx@ostream@@QEAAXXZ
?opfx@ostream@@QEAAHXZ
?openprot@filebuf@@2HB
?open@ofstream@@QEAAXPEBDHH@Z
?open@ifstream@@QEAAXPEBDHH@Z
?open@fstream@@QEAAXPEBDHH@Z
?open@filebuf@@QEAAPEAV1@PEBDHH@Z
?oct@@YAAEAVios@@AEAV1@@Z
?lockptr@streambuf@@IEAAPEAU_CRT_CRITICAL_SECTION@@XZ
?lockptr@ios@@IEAAPEAU_CRT_CRITICAL_SECTION@@XZ
?lockc@ios@@KAXXZ
?lockbuf@ios@@QEAAXXZ
?lock@streambuf@@QEAAXXZ
?lock@ios@@QEAAXXZ
?iword@ios@@QEBAAEAJH@Z
?isfx@istream@@QEAAXXZ
?is_open@ofstream@@QEBAHXZ
?is_open@ifstream@@QEBAHXZ
?is_open@fstream@@QEBAHXZ
?is_open@filebuf@@QEBAHXZ
?ipfx@istream@@QEAAHH@Z
?init@ios@@IEAAXPEAVstreambuf@@@Z
?in_avail@streambuf@@QEBAHXZ
?ignore@istream@@QEAAAEAV1@HH@Z
?hex@@YAAEAVios@@AEAV1@@Z
?gptr@streambuf@@IEBAPEADXZ
?good@ios@@QEBAHXZ
?getline@istream@@QEAAAEAV1@PEAEHD@Z
?getline@istream@@QEAAAEAV1@PEADHD@Z
?getline@istream@@QEAAAEAV1@PEACHD@Z
?getint@istream@@AEAAHPEAD@Z
?getdouble@istream@@AEAAHPEADH@Z
?get@istream@@QEAAHXZ
?get@istream@@QEAAAEAV1@PEAEHD@Z
?get@istream@@QEAAAEAV1@PEADHD@Z
?get@istream@@QEAAAEAV1@PEACHD@Z
?get@istream@@QEAAAEAV1@AEAVstreambuf@@D@Z
?get@istream@@QEAAAEAV1@AEAE@Z
?get@istream@@QEAAAEAV1@AEAD@Z
?get@istream@@QEAAAEAV1@AEAC@Z
?get@istream@@IEAAAEAV1@PEADHH@Z
?gcount@istream@@QEBAHXZ
?gbump@streambuf@@IEAAXH@Z
?freeze@strstreambuf@@QEAAXH@Z
?flush@ostream@@QEAAAEAV1@XZ
?flush@@YAAEAVostream@@AEAV1@@Z
?floatfield@ios@@2JB
?flags@ios@@QEBAJXZ
?flags@ios@@QEAAJJ@Z
?fill@ios@@QEBADXZ
?fill@ios@@QEAADD@Z
?fd@ofstream@@QEBAHXZ
?fd@ifstream@@QEBAHXZ
?fd@fstream@@QEBAHXZ
?fd@filebuf@@QEBAHXZ
?fail@ios@@QEBAHXZ
?epptr@streambuf@@IEBAPEADXZ
?eof@ios@@QEBAHXZ
?ends@@YAAEAVostream@@AEAV1@@Z
?endl@@YAAEAVostream@@AEAV1@@Z
?egptr@streambuf@@IEBAPEADXZ
?ebuf@streambuf@@IEBAPEADXZ
?eback@streambuf@@IEBAPEADXZ
?eatwhite@istream@@QEAAXXZ
?doallocate@strstreambuf@@MEAAHXZ
?doallocate@streambuf@@MEAAHXZ
?delbuf@ios@@QEBAHXZ
?delbuf@ios@@QEAAXH@Z
?dec@@YAAEAVios@@AEAV1@@Z
?dbp@streambuf@@QEAAXXZ
?clrlock@streambuf@@QEAAXXZ
?clrlock@ios@@QEAAXXZ
?close@ofstream@@QEAAXXZ
?close@ifstream@@QEAAXXZ
?close@fstream@@QEAAXXZ
?close@filebuf@@QEAAPEAV1@XZ
?clear@ios@@QEAAXH@Z
?blen@streambuf@@IEBAHXZ
?bitalloc@ios@@SAJXZ
?binary@filebuf@@2HB
?basefield@ios@@2JB
?base@streambuf@@IEBAPEADXZ
?bad@ios@@QEBAHXZ
?attach@ofstream@@QEAAXH@Z
?attach@ifstream@@QEAAXH@Z
?attach@fstream@@QEAAXH@Z
?attach@filebuf@@QEAAPEAV1@H@Z
?allocate@streambuf@@IEAAHXZ
?adjustfield@ios@@2JB
??_Dstrstream@@QEAAXXZ
??_Dstdiostream@@QEAAXXZ
??_Dostrstream@@QEAAXXZ
??_Dostream_withassign@@QEAAXXZ
??_Dostream@@QEAAXXZ
??_Dofstream@@QEAAXXZ
??_Distrstream@@QEAAXXZ
??_Distream_withassign@@QEAAXXZ
??_Distream@@QEAAXXZ
??_Diostream@@QEAAXXZ
??_Difstream@@QEAAXXZ
??_Dfstream@@QEAAXXZ
??_7strstreambuf@@6B@
??_7strstream@@6B@
??_7streambuf@@6B@
??_7stdiostream@@6B@
??_7stdiobuf@@6B@
??_7ostrstream@@6B@
??_7ostream_withassign@@6B@
??_7ostream@@6B@
??_7ofstream@@6B@
??_7logic_error@@6B@
??_7istrstream@@6B@
??_7istream_withassign@@6B@
??_7istream@@6B@
??_7iostream@@6B@
??_7ios@@6B@
??_7ifstream@@6B@
??_7fstream@@6B@
??_7filebuf@@6B@
??_7exception@@6B@
??Bios@@QEBAPEAXXZ
??7ios@@QEBAHXZ
??6ostream@@QEAAAEAV0@PEBX@Z
??6ostream@@QEAAAEAV0@PEBE@Z
??6ostream@@QEAAAEAV0@PEBD@Z
??6ostream@@QEAAAEAV0@PEBC@Z
??6ostream@@QEAAAEAV0@PEAVstreambuf@@@Z
??6ostream@@QEAAAEAV0@P6AAEAVios@@AEAV1@@Z@Z
??6ostream@@QEAAAEAV0@P6AAEAV0@AEAV0@@Z@Z
??6ostream@@QEAAAEAV0@O@Z
??6ostream@@QEAAAEAV0@N@Z
??6ostream@@QEAAAEAV0@M@Z
??6ostream@@QEAAAEAV0@K@Z
??6ostream@@QEAAAEAV0@J@Z
??6ostream@@QEAAAEAV0@I@Z
??6ostream@@QEAAAEAV0@H@Z
??6ostream@@QEAAAEAV0@G@Z
??6ostream@@QEAAAEAV0@F@Z
??6ostream@@QEAAAEAV0@E@Z
??6ostream@@QEAAAEAV0@D@Z
??6ostream@@QEAAAEAV0@C@Z
??5istream@@QEAAAEAV0@PEAVstreambuf@@@Z
??5istream@@QEAAAEAV0@PEAE@Z
??5istream@@QEAAAEAV0@PEAD@Z
??5istream@@QEAAAEAV0@PEAC@Z
??5istream@@QEAAAEAV0@P6AAEAVios@@AEAV1@@Z@Z
??5istream@@QEAAAEAV0@P6AAEAV0@AEAV0@@Z@Z
??5istream@@QEAAAEAV0@AEAO@Z
??5istream@@QEAAAEAV0@AEAN@Z
??5istream@@QEAAAEAV0@AEAM@Z
??5istream@@QEAAAEAV0@AEAK@Z
??5istream@@QEAAAEAV0@AEAJ@Z
??5istream@@QEAAAEAV0@AEAI@Z
??5istream@@QEAAAEAV0@AEAH@Z
??5istream@@QEAAAEAV0@AEAG@Z
??5istream@@QEAAAEAV0@AEAF@Z
??5istream@@QEAAAEAV0@AEAE@Z
??5istream@@QEAAAEAV0@AEAD@Z
??5istream@@QEAAAEAV0@AEAC@Z
??4strstreambuf@@QEAAAEAV0@AEBV0@@Z
??4strstream@@QEAAAEAV0@AEAV0@@Z
??4streambuf@@QEAAAEAV0@AEBV0@@Z
??4stdiostream@@QEAAAEAV0@AEAV0@@Z
??4stdiobuf@@QEAAAEAV0@AEBV0@@Z
??4ostrstream@@QEAAAEAV0@AEBV0@@Z
??4ostream_withassign@@QEAAAEAVostream@@PEAVstreambuf@@@Z
??4ostream_withassign@@QEAAAEAVostream@@AEBV1@@Z
??4ostream_withassign@@QEAAAEAV0@AEBV0@@Z
??4ostream@@IEAAAEAV0@PEAVstreambuf@@@Z
??4ostream@@IEAAAEAV0@AEBV0@@Z
??4ofstream@@QEAAAEAV0@AEBV0@@Z
??4logic_error@@QEAAAEAV0@AEBV0@@Z
??4istrstream@@QEAAAEAV0@AEBV0@@Z
??4istream_withassign@@QEAAAEAVistream@@PEAVstreambuf@@@Z
??4istream_withassign@@QEAAAEAVistream@@AEBV1@@Z
??4istream_withassign@@QEAAAEAV0@AEBV0@@Z
??4istream@@IEAAAEAV0@PEAVstreambuf@@@Z
??4istream@@IEAAAEAV0@AEBV0@@Z
??4iostream@@IEAAAEAV0@PEAVstreambuf@@@Z
??4iostream@@IEAAAEAV0@AEAV0@@Z
??4ios@@IEAAAEAV0@AEBV0@@Z
??4ifstream@@QEAAAEAV0@AEBV0@@Z
??4fstream@@QEAAAEAV0@AEAV0@@Z
??4filebuf@@QEAAAEAV0@AEBV0@@Z
??4exception@@QEAAAEAV0@AEBV0@@Z
??4Iostream_init@@QEAAAEAV0@AEBV0@@Z
??1strstreambuf@@UEAA@XZ
??1strstream@@UEAA@XZ
??1streambuf@@UEAA@XZ
??1stdiostream@@UEAA@XZ
??1stdiobuf@@UEAA@XZ
??1ostrstream@@UEAA@XZ
??1ostream_withassign@@UEAA@XZ
??1ostream@@UEAA@XZ
??1ofstream@@UEAA@XZ
??1logic_error@@UEAA@XZ
??1istrstream@@UEAA@XZ
??1istream_withassign@@UEAA@XZ
??1istream@@UEAA@XZ
??1iostream@@UEAA@XZ
??1ios@@UEAA@XZ
??1ifstream@@UEAA@XZ
??1fstream@@UEAA@XZ
??1filebuf@@UEAA@XZ
??1exception@@UEAA@XZ
??1Iostream_init@@QEAA@XZ
??0strstreambuf@@QEAA@XZ
??0strstreambuf@@QEAA@PEAEH0@Z
??0strstreambuf@@QEAA@PEADH0@Z
??0strstreambuf@@QEAA@P6APEAXJ@ZP6AXPEAX@Z@Z
??0strstreambuf@@QEAA@H@Z
??0strstreambuf@@QEAA@AEBV0@@Z
??0strstream@@QEAA@XZ
??0strstream@@QEAA@PEADHH@Z
??0strstream@@QEAA@AEBV0@@Z
??0streambuf@@QEAA@AEBV0@@Z
??0streambuf@@IEAA@XZ
??0streambuf@@IEAA@PEADH@Z
??0stdiostream@@QEAA@PEAU_iobuf@@@Z
??0stdiostream@@QEAA@AEBV0@@Z
??0stdiobuf@@QEAA@PEAU_iobuf@@@Z
??0stdiobuf@@QEAA@AEBV0@@Z
??0ostrstream@@QEAA@XZ
??0ostrstream@@QEAA@PEADHH@Z
??0ostrstream@@QEAA@AEBV0@@Z
??0ostream_withassign@@QEAA@XZ
??0ostream_withassign@@QEAA@PEAVstreambuf@@@Z
??0ostream_withassign@@QEAA@AEBV0@@Z
??0ostream@@QEAA@PEAVstreambuf@@@Z
??0ostream@@IEAA@XZ
??0ostream@@IEAA@AEBV0@@Z
??0ofstream@@QEAA@XZ
??0ofstream@@QEAA@PEBDHH@Z
??0ofstream@@QEAA@HPEADH@Z
??0ofstream@@QEAA@H@Z
??0ofstream@@QEAA@AEBV0@@Z
??0logic_error@@QEAA@AEBV0@@Z
??0logic_error@@QEAA@AEBQEBD@Z
??0istrstream@@QEAA@PEADH@Z
??0istrstream@@QEAA@PEAD@Z
??0istrstream@@QEAA@AEBV0@@Z
??0istream_withassign@@QEAA@XZ
??0istream_withassign@@QEAA@PEAVstreambuf@@@Z
??0istream_withassign@@QEAA@AEBV0@@Z
??0istream@@QEAA@PEAVstreambuf@@@Z
??0istream@@IEAA@XZ
??0istream@@IEAA@AEBV0@@Z
??0iostream@@QEAA@PEAVstreambuf@@@Z
??0iostream@@IEAA@XZ
??0iostream@@IEAA@AEBV0@@Z
??0ios@@QEAA@PEAVstreambuf@@@Z
??0ios@@IEAA@XZ
??0ios@@IEAA@AEBV0@@Z
??0ifstream@@QEAA@XZ
??0ifstream@@QEAA@PEBDHH@Z
??0ifstream@@QEAA@HPEADH@Z
??0ifstream@@QEAA@H@Z
??0ifstream@@QEAA@AEBV0@@Z
??0fstream@@QEAA@XZ
??0fstream@@QEAA@PEBDHH@Z
??0fstream@@QEAA@HPEADH@Z
??0fstream@@QEAA@H@Z
??0fstream@@QEAA@AEBV0@@Z
??0filebuf@@QEAA@XZ
??0filebuf@@QEAA@HPEADH@Z
??0filebuf@@QEAA@H@Z
??0filebuf@@QEAA@AEBV0@@Z
??0exception@@QEAA@XZ
??0exception@@QEAA@AEBV0@@Z
??0exception@@QEAA@AEBQEBD@Z
??0Iostream_init@@QEAA@XZ
??0Iostream_init@@QEAA@AEAVios@@H@Z
