LIBRARY NETUI2.DLL
EXPORTS
UIntToPtr
ShellDlgProc
PtrToUlong
OpenUserBrowser
LongToHandle
EnumUserBrowserSelection
CloseUserBrowser
BltWndProc
BltDlgProc
BltCCWndProc
?pfGetSaveFileName@GET_FNAME_BASE_DLG@@QEBAP6AHPEAUtagOFNW@@@ZXZ
?pfGetOpenFileName@GET_FNAME_BASE_DLG@@QEBAP6AHPEAUtagOFNW@@@ZXZ
?pfExtendedError@GET_FNAME_BASE_DLG@@QEBAP6AKXZXZ
?min@@YAHHH@Z
?max@@YAHHH@Z
?WndProc@CUSTOM_CONTROL@@SA_JPEAUHWND__@@I_K_J@Z
?WndProc@CLIENT_WINDOW@@SA_JPEAUHWND__@@I_K_J@Z
?WithinRange@ARRAY_CONTROLVAL_CID_PAIR@@AEBAHI@Z
?WarnCloseSingle@OPEN_DIALOG_BASE@@AEAAHPEAVOPEN_LBI_BASE@@@Z
?WarnCloseMulti@OPEN_DIALOG_BASE@@AEAAHXZ
?WaitForAdminAuthority@DOMAIN_FILL_THREAD@@QEBAJKPEAH@Z
?WaitForAdminAuthority@BROWSER_DOMAIN@@QEBAJKPEAH@Z
?Wait@WIN32_SYNC_BASE@@QEAAJI@Z
?W_SetIcon@ICON_CONTROL@@AEAAJAEBVIDRESOURCE@@H@Z
?W_QueryString@LOCAL_ATOM@@EEBAJPEAGI@Z
?W_QueryString@GLOBAL_ATOM@@EEBAJPEAGI@Z
?W_QueryItemText@MENU_BASE@@IEBAHPEAGIII@Z
?W_Paint@BROWSER_DOMAIN_LBI@@QEBAXPEAVBROWSER_DOMAIN_CB@@PEAVLISTBOX@@PEAUHDC__@@PEBUtagRECT@@PEAUGUILTT_INFO@@@Z
?W_Modify@MENU_BASE@@IEBAJPEBXI_KI@Z
?W_LoadExtension@UI_EXT_MGR@@MEAAPEAVUI_EXT@@PEBGK@Z
?W_Insert@MENU_BASE@@IEBAJPEBXI_KI@Z
?W_GrowCache@USER_LBI_CACHE@@AEAAHH@Z
?W_GetLBI@USER_LBI_CACHE@@AEAAPEAVLBI@@H@Z
?W_BiasMenuIds@UI_MENU_EXT@@AEAAJPEAUHMENU__@@K@Z
?W_Append@MENU_BASE@@IEBAJPEBX_KI@Z
?W_AddAtom@LOCAL_ATOM@@EEBAGPEBG@Z
?W_AddAtom@GLOBAL_ATOM@@EEBAGPEBG@Z
?W_Add@SLE_STRLB_GROUP@@MEAAJPEBG@Z
?Validate@SPIN_SLE_NUM@@UEAAJXZ
?Validate@ICANON_SLE@@UEAAJXZ
?Validate@DIALOG_WINDOW@@AEAAJXZ
?Validate@CONTROL_WINDOW@@UEAAJXZ
?UpdateRasMode@BASE_SET_FOCUS_DLG@@AEAAXXZ
?UpdateButtonState@NT_USER_BROWSER_DIALOG@@IEAAXXZ
?UpdateButtonState@NT_LOCALGROUP_BROWSER_DIALOG@@MEAAXXZ
?UpdateButtonState@NT_GROUP_BROWSER_DIALOG@@MEAAXXZ
?UpdateButtonState@NT_FIND_ACCOUNT_DIALOG@@IEAAXXZ
?Update@SPIN_SLE_STR@@UEAAXXZ
?Update@SPIN_SLE_NUM@@UEAAXXZ
?Update@CHANGEABLE_SPIN_ITEM@@UEAAXXZ
?Unwind@BLTIMP@@CAXW4BLT_CTOR_STATE@@@Z
?UnlockCache@USER_LBI_CACHE@@MEAAXXZ
?UnloadLabels@LOGON_HOURS_CONTROL@@AEAAXXZ
?UnloadExtensions@UI_EXT_MGR@@UEAAXXZ
?UnRequestAccountData@DOMAIN_FILL_THREAD@@QEAAJXZ
?UnRequestAccountData@BROWSER_DOMAIN@@QEAAJXZ
?TurnOn@AUTO_CURSOR@@QEAAXXZ
?TurnOff@AUTO_CURSOR@@QEAAXXZ
?TrimTrailing@@YAJPEAVNLS_STR@@PEBG@Z
?TrimLeading@@YAJPEAVNLS_STR@@PEBG@Z
?TriggerNow@TIMER_BASE@@QEAAXXZ
?Translate@ACCELTABLE@@QEBAHPEBVWINDOW@@PEAUtagMSG@@@Z
?Track@POPUP_MENU@@QEBAJAEBVPWND2HWND@@IHHPEBUtagRECT@@@Z
?ToggleDomain@LM_OLLB@@QEAAJH@Z
?Toggle@CHECKBOX@@QEAAHXZ
?TextOutW@DEVICE_CONTEXT@@QEBAHPEBGHHHPEBUtagRECT@@@Z
?TextOutW@DEVICE_CONTEXT@@QEBAHPEBGHHH@Z
?TextOutW@DEVICE_CONTEXT@@QEBAHAEBVNLS_STR@@VXYPOINT@@PEBUtagRECT@@@Z
?TextOutW@DEVICE_CONTEXT@@QEBAHAEBVNLS_STR@@VXYPOINT@@@Z
?Terminate@WIN32_THREAD@@QEAAJI@Z
?TermDLL@BLT@@SAXXZ
?Term@POPUP@@SAXXZ
?Term@CLIENT_WINDOW@@SAXXZ
?Term@BLT_MASTER_TIMER@@SAXXZ
?Term@BLTIMP@@SAXXZ
?Term@BLT@@SAXPEAUHINSTANCE__@@@Z
?Term@BASE_ELLIPSIS@@SAXXZ
?Suspend@WIN32_THREAD@@QEAAJXZ
?SubClassWndProc@CUSTOM_CONTROL@@IEAA_JAEBVEVENT@@@Z
?StripDomainIfWellKnown@ACCOUNT_NAMES_MLE@@IEAAJPEAVNLS_STR@@@Z
?StringToBits@MASK_MAP@@QEAAJAEBVNLS_STR@@PEAVBITFIELD@@HPEAI@Z
?StretchForFonts@LB_COL_WIDTHS@@AEAAJPEAUHWND__@@PEBG@Z
?StartThread@WIN32_THREAD@@CAKPEAX@Z
?Sort@USER_LBI_CACHE@@QEAAXXZ
?Sleep@WIN32_THREAD@@QEAAXI@Z
?ShowSpecialCursor@H_SPLITTER_BAR@@AEAAXH@Z
?ShowFirst@WINDOW@@QEAAXXZ
?ShowDragBar@H_SPLITTER_BAR@@AEAAXAEBVXYPOINT@@@Z
?ShowArea@EXPANDABLE_DIALOG@@IEAAXH@Z
?ShowArea@BASE_SET_FOCUS_DLG@@IEAAXH@Z
?Show@WINDOW@@QEAAHH@Z
?Show@POPUP@@QEAAHXZ
?Show@CURSOR@@SAXH@Z
?SetYear@BLT_DATE_SPIN_GROUP@@QEAAXH@Z
?SetY@XYPOINT@@QEAAXH@Z
?SetX@XYPOINT@@QEAAXH@Z
?SetWidth@XYDIMENSION@@QEAAXI@Z
?SetValue@DEC_SLT@@QEAAXK@Z
?SetValue@DEC_SLT@@QEAAXJ@Z
?SetValue@CHANGEABLE_SPIN_ITEM@@QEAAXK@Z
?SetUserBrowserLBI@BROWSER_SUBJECT@@QEAAJPEAVUSER_BROWSER_LBI@@@Z
?SetTopIndex@LIST_CONTROL@@QEAAXH@Z
?SetTextColor@DEVICE_CONTEXT@@QEAAKK@Z
?SetTextAlign@DEVICE_CONTEXT@@QEAAII@Z
?SetText@WINDOW@@QEAAXPEBG@Z
?SetText@WINDOW@@QEAAXAEBVNLS_STR@@@Z
?SetText@SLT_ELLIPSIS@@QEAAJPEBG@Z
?SetText@SLT_ELLIPSIS@@QEAAJAEBVNLS_STR@@@Z
?SetText@MENUITEM@@QEAAHPEBG@Z
?SetText@GET_FNAME_BASE_DLG@@QEAAJAEBVNLS_STR@@@Z
?SetTargetDomain@ACCOUNT_NAMES_MLE@@QEAAJPEBG@Z
?SetTabStop@CONTROL_WINDOW@@MEAAXH@Z
?SetTabStop@CONTROL_VALUE@@MEAAXH@Z
?SetStyle@WINDOW@@QEAAXK@Z
?SetStyle@BASE_ELLIPSIS@@QEAAXW4ELLIPSIS_STYLE@@@Z
?SetStringField@GET_FNAME_BASE_DLG@@AEAAJPEAPEAGAEBVNLS_STR@@@Z
?SetStr@SPIN_SLE_STR@@AEAAXJ@Z
?SetStatus@GRAPHICAL_BUTTON@@QEAAXPEAUHBITMAP__@@@Z
?SetStatus@GRAPHICAL_BUTTON@@QEAAXI@Z
?SetState@WIN32_THREAD@@AEAAXW4_THREAD_STATE@@@Z
?SetState@STLBITEM@@QEAAHH@Z
?SetState@STATE_BUTTON_CONTROL@@IEAAXI@Z
?SetState@SLE_STRLB_GROUP@@IEBAXXZ
?SetSpinItemAccKey@ELAPSED_TIME_CONTROL@@AEAAJPEAVSPIN_ITEM@@AEAVSLT@@H@Z
?SetSourceDialog@NT_GROUP_BROWSER_DIALOG@@IEAAXPEAV1@@Z
?SetSmallIncValue@CHANGEABLE_SPIN_ITEM@@QEAAXK@Z
?SetSmallDecValue@CHANGEABLE_SPIN_ITEM@@QEAAXK@Z
?SetSize@WIN_ELLIPSIS@@QEAAXHH@Z
?SetSize@WINDOW@@QEAAXVXYDIMENSION@@H@Z
?SetSize@WINDOW@@QEAAXHHH@Z
?SetSize@SLT_ELLIPSIS@@QEAAXHHH@Z
?SetSize@CONSOLE_ELLIPSIS@@QEAAXH@Z
?SetSelectionDontNotifyGroups@RADIO_GROUP@@IEAAXI@Z
?SetSelection@RADIO_GROUP@@QEAAXI@Z
?SetSelection@MAGIC_GROUP@@QEAAXI@Z
?SetSelection@LOGON_HOURS_CONTROL@@AEAAXHH@Z
?SetSelection@LOGON_HOURS_CONTROL@@AEAAXH@Z
?SetSelectedCells@LOGON_HOURS_CONTROL@@AEAAXH@Z
?SetSelected@GRAPHICAL_BUTTON_WITH_DISABLE@@QEAAXH@Z
?SetSecondValue@ELAPSED_TIME_CONTROL@@QEAAXJ@Z
?SetSecondRange@ELAPSED_TIME_CONTROL@@QEAAXJ@Z
?SetSecondMin@ELAPSED_TIME_CONTROL@@QEAAXJ@Z
?SetSecondFieldName@ELAPSED_TIME_CONTROL@@QEAAXJ@Z
?SetSecond@BLT_TIME_SPIN_GROUP@@QEAAXH@Z
?SetScrollPos@LISTBOX@@QEAAXI@Z
?SetSaveValue@SPIN_SLE_NUM@@QEAAJK@Z
?SetSaveValue@EDIT_CONTROL@@QEAAJPEBG@Z
?SetRedraw@WINDOW@@QEAAXH@Z
?SetRange@SPIN_SLE_STR@@QEAAXJ@Z
?SetRange@SPIN_SLE_NUM@@QEAAXK@Z
?SetRange@SCROLLBAR@@QEAAXII@Z
?SetRange@CHANGEABLE_SPIN_ITEM@@QEAAXK@Z
?SetPriority@WIN32_THREAD@@QEAAJH@Z
?SetPredefinedIcon@ICON_CONTROL@@QEAAJAEBVIDRESOURCE@@@Z
?SetPos@WINDOW@@QEAAXVXYPOINT@@HPEAV1@@Z
?SetPos@SCROLLBAR@@QEAAXI@Z
?SetPos@CURSOR@@SAXAEBVXYPOINT@@@Z
?SetPlacement@APP_WINDOW@@QEBAJPEBUtagWINDOWPLACEMENT@@@Z
?SetPelIndent@HIER_LBI@@UEAAXI@Z
?SetPdm@DM_DTE@@IEAAXPEAVDISPLAY_MAP@@@Z
?SetOriginalStr@BASE_ELLIPSIS@@QEAAJPEBG@Z
?SetNewTimeDue@TIMER_BASE@@AEAAXXZ
?SetNetworkFocus@STANDALONE_SET_FOCUS_DLG@@MEAAJPEAUHWND__@@PEBGW4FOCUS_CACHE_SETTING@@@Z
?SetNetworkFocus@BASE_SET_FOCUS_DLG@@MEAAJPEAUHWND__@@PEBGW4FOCUS_CACHE_SETTING@@@Z
?SetMsgMapTable@POPUP@@SAXPEAU_MSGMAPENTRY@@@Z
?SetMonth@BLT_DATE_SPIN_GROUP@@QEAAXH@Z
?SetModified@SPIN_GROUP@@QEAAXH@Z
?SetMinuteValue@ELAPSED_TIME_CONTROL@@QEAAXJ@Z
?SetMinuteRange@ELAPSED_TIME_CONTROL@@QEAAXJ@Z
?SetMinuteMin@ELAPSED_TIME_CONTROL@@QEAAXJ@Z
?SetMinuteFieldName@ELAPSED_TIME_CONTROL@@QEAAXJ@Z
?SetMinute@BLT_TIME_SPIN_GROUP@@QEAAXH@Z
?SetMin@SPIN_SLE_NUM@@QEAAXK@Z
?SetMin@CHANGEABLE_SPIN_ITEM@@QEAAXK@Z
?SetMenu@APP_WINDOW@@QEAAHAEBVIDRESOURCE@@@Z
?SetMaxLength@EDIT_CONTROL@@QEAAXI@Z
?SetMaxLength@COMBOBOX@@QEAAHI@Z
?SetMaxInput@SPIN_SLE_NUM@@AEAAXXZ
?SetMaskBits@DISPLAY_MAP@@AEAAXPEAEHHI@Z
?SetMapMode@DEVICE_CONTEXT@@QEAAHH@Z
?SetItemData@LIST_CONTROL@@IEAAHHPEAX@Z
?SetItem@BLT_LISTBOX@@AEAAXHPEAVLBI@@@Z
?SetInitialDir@GET_FNAME_BASE_DLG@@QEAAJAEBVNLS_STR@@@Z
?SetIndentLevel@HIER_LBI@@AEAAXXZ
?SetIncludeUsers@USER_BROWSER_LBI_CACHE@@QEAAXH@Z
?SetInTimer@CANCEL_TASK_DIALOG@@IEAAXH@Z
?SetIcon@ICON_CONTROL@@QEAAJAEBVIDRESOURCE@@@Z
?SetIcon@APP_WINDOW@@QEAAHAEBVIDRESOURCE@@@Z
?SetHwnd@WINDOW@@IEAAXPEAUHWND__@@@Z
?SetHours@LOGON_HOURS_CONTROL@@QEAAJPEBVLOGON_HOURS_SETTING@@@Z
?SetHour@BLT_TIME_SPIN_GROUP@@QEAAXH@Z
?SetHorizontalExtent@LISTBOX@@QEAAXI@Z
?SetHookProc@GET_FNAME_BASE_DLG@@QEAAX_K@Z
?SetHelpContextBase@POPUP@@SAKK@Z
?SetHelpActive@GET_FNAME_BASE_DLG@@QEAAXH@Z
?SetHeight@XYDIMENSION@@QEAAXI@Z
?SetHandle@WIN32_HANDLE@@IEAAXPEAX@Z
?SetHandle@MENU_BASE@@IEAAXPEAUHMENU__@@@Z
?SetGroup@CONTROL_VALUE@@QEAAXPEAVCONTROL_GROUP@@@Z
?SetFont@FONT@@QEAAJPEAUHFONT__@@@Z
?SetFont@FONT@@QEAAJAEBUtagLOGFONTW@@@Z
?SetFont@CONTROL_WINDOW@@QEAAXPEAUHFONT__@@H@Z
?SetFocus@OWNER_WINDOW@@QEAAXI@Z
?SetFmtLines@MLE@@QEAAXH@Z
?SetFilter@GET_FNAME_BASE_DLG@@QEAAJAEAVSTRLIST@@K@Z
?SetFileExtension@GET_FNAME_BASE_DLG@@QEAAJAEBVNLS_STR@@@Z
?SetFieldName@SPIN_SLE_NUM_VALID@@QEAAJJ@Z
?SetFieldMinMax@SPIN_GROUP@@QEAAHG@Z
?SetExpanded@OLLB_ENTRY@@AEAAXH@Z
?SetExpanded@HIER_LBI@@QEAAXH@Z
?SetEnableHook@GET_FNAME_BASE_DLG@@IEAAXH@Z
?SetEllipsisRight@BASE_ELLIPSIS@@IEAAJPEAVNLS_STR@@@Z
?SetEllipsisPath@BASE_ELLIPSIS@@IEAAJPEAVNLS_STR@@@Z
?SetEllipsisLeft@BASE_ELLIPSIS@@IEAAJPEAVNLS_STR@@@Z
?SetEllipsisCenter@BASE_ELLIPSIS@@IEAAJPEAVNLS_STR@@@Z
?SetEllipsis@BASE_ELLIPSIS@@QEAAJPEAVNLS_STR@@@Z
?SetEllipsis@BASE_ELLIPSIS@@QEAAJPEAG@Z
?SetDomainExpanded@OUTLINE_LISTBOX@@QEAAXHH@Z
?SetDomainComboDropFlag@NT_USER_BROWSER_DIALOG@@IEAAXH@Z
?SetDialogFocus@OWNER_WINDOW@@QEAAXAEAVCONTROL_WINDOW@@@Z
?SetDestroyable@HIER_LBI@@CAXH@Z
?SetDay@BLT_DATE_SPIN_GROUP@@QEAAXH@Z
?SetDSFieldName@DISK_SPACE_SUBCLASS@@QEAAXJ@Z
?SetCustomFilter@GET_FNAME_BASE_DLG@@QEAAJAEAVSTRLIST@@K@Z
?SetCurrentTime@BLT_TIME_SPIN_GROUP@@QEAAJXZ
?SetCurrentField@SPIN_GROUP@@IEAAXPEAVSPIN_ITEM@@@Z
?SetCurrentDomainFocus@NT_USER_BROWSER_DIALOG@@QEAAXPEAVBROWSER_DOMAIN@@@Z
?SetCurrentDay@BLT_DATE_SPIN_GROUP@@QEAAJXZ
?SetCurrentCache@USER_BROWSER_LB@@QEAAXPEAVUSER_BROWSER_LBI_CACHE@@@Z
?SetCount@LAZY_LISTBOX@@QEAAXI@Z
?SetControlValueFocus@SPIN_GROUP@@UEAAXXZ
?SetControlValueFocus@RADIO_GROUP@@UEAAXXZ
?SetControlValueFocus@MAGIC_GROUP@@UEAAXXZ
?SetControlValueFocus@EDIT_CONTROL@@MEAAXXZ
?SetControlValueFocus@CONTROL_WINDOW@@UEAAXXZ
?SetControlValueFocus@CONTROL_VALUE@@UEAAXXZ
?SetControlValueFocus@BLT_TIME_SPIN_GROUP@@MEAAXXZ
?SetControlValueFocus@BLT_DATE_SPIN_GROUP@@MEAAXXZ
?SetComplete@METER@@QEAAXH@Z
?SetClientGeneratedMsgFlag@WINDOW@@KAXH@Z
?SetCheckBoxNames@SET_OF_AUDIT_CATEGORIES@@QEAAJPEAVMASK_MAP@@@Z
?SetCheck@STATE2_BUTTON_CONTROL@@QEAAXH@Z
?SetCheck@RADIO_BUTTON@@AEAAXH@Z
?SetCheck@MENUITEM@@QEAAXH@Z
?SetCaretIndex@LIST_CONTROL@@QEAAXHH@Z
?SetCaption@POPUP@@SAXJ@Z
?SetButton@ORDER_GROUP@@QEAAXXZ
?SetBufferPtr@ENUM_OBJ_BASE@@IEAAXPEBE@Z
?SetBuffer@GET_FNAME_BASE_DLG@@IEAAJPEAVBUFFER@@AEAVSTRLIST@@@Z
?SetBkMode@DEVICE_CONTEXT@@QEAAHH@Z
?SetBkColor@DEVICE_CONTEXT@@QEAAKK@Z
?SetBitmapBits@DISPLAY_MAP@@AEAAXPEAEHHI@Z
?SetBitmap@BIT_MAP@@QEAAXPEAUHBITMAP__@@@Z
?SetBigIncValue@CHANGEABLE_SPIN_ITEM@@QEAAXK@Z
?SetBigDecValue@CHANGEABLE_SPIN_ITEM@@QEAAXK@Z
?SetAutoReadjust@HEAP_BASE@@IEAAXH@Z
?SetAsTargetDomain@BROWSER_DOMAIN@@QEAAJXZ
?SetArrowButtonStatus@SPIN_GROUP@@IEAAXXZ
?SetAndFillErrorText@NT_USER_BROWSER_DIALOG@@QEAAJJH@Z
?SetAccKey@SPIN_ITEM@@QEAAJJ@Z
?SetAccKey@SPIN_ITEM@@QEAAJAEBVNLS_STR@@@Z
?Set@WIN32_EVENT@@QEAAJXZ
?Set@CURSOR@@SAPEAUHICON__@@PEAU2@@Z
?SendTo@EVENT@@QEBA_JPEAUHWND__@@@Z
?SelectString@EDIT_CONTROL@@QEAAXXZ
?SelectString@COMBOBOX@@QEAAXXZ
?SelectPen@DEVICE_CONTEXT@@QEAAPEAUHPEN__@@PEAU2@@Z
?SelectObject@DEVICE_CONTEXT@@IEAAPEAXPEAX@Z
?SelectNetPathString@BASE_SET_FOCUS_DLG@@AEAAXXZ
?SelectItems@LIST_CONTROL@@QEAAXPEAHHH@Z
?SelectItem@LIST_CONTROL@@QEAAXHH@Z
?SelectItem@BROWSER_DOMAIN_CB@@QEAAXPEAVBROWSER_DOMAIN@@@Z
?SelectFont@DEVICE_CONTEXT@@QEAAPEAUHFONT__@@PEAU2@@Z
?SelectBrush@DEVICE_CONTEXT@@QEAAPEAUHBRUSH__@@PEAU2@@Z
?SelectBitmap@DEVICE_CONTEXT@@QEAAPEAUHBITMAP__@@PEAU2@@Z
?ScreenToClient@XYPOINT@@QEAAXPEAUHWND__@@@Z
?SaveValue@STATE_BUTTON_CONTROL@@MEAAXH@Z
?SaveValue@SPIN_GROUP@@UEAAXH@Z
?SaveValue@SLT@@MEAAXH@Z
?SaveValue@RADIO_GROUP@@MEAAXH@Z
?SaveValue@MAGIC_GROUP@@MEAAXH@Z
?SaveValue@LIST_CONTROL@@MEAAXH@Z
?SaveValue@EDIT_CONTROL@@MEAAXH@Z
?SaveValue@CONTROL_VALUE@@MEAAXH@Z
?SaveValue@COMBOBOX@@MEAAXH@Z
?SaveValue@BLT_TIME_SPIN_GROUP@@MEAAXH@Z
?SaveValue@BLT_DATE_SPIN_GROUP@@MEAAXH@Z
?SaveCurrentData@SPIN_SLE_STR@@UEAAJXZ
?SaveCurrentData@SPIN_SLE_NUM@@UEAAJXZ
?SaveCurrentData@CHANGEABLE_SPIN_ITEM@@UEAAJXZ
?RunMessagePump@HAS_MESSAGE_PUMP@@IEAA_KXZ
?Run@APPLICATION@@MEAAHXZ
?Resume@WIN32_THREAD@@QEAAJXZ
?RestoreValue@STATE_BUTTON_CONTROL@@MEAAXH@Z
?RestoreValue@SPIN_GROUP@@UEAAXH@Z
?RestoreValue@SLT@@MEAAXH@Z
?RestoreValue@RADIO_GROUP@@MEAAXH@Z
?RestoreValue@MAGIC_GROUP@@MEAAXH@Z
?RestoreValue@LIST_CONTROL@@MEAAXH@Z
?RestoreValue@EDIT_CONTROL@@MEAAXH@Z
?RestoreValue@CONTROL_VALUE@@MEAAXH@Z
?RestoreValue@COMBOBOX@@MEAAXH@Z
?RestoreValue@BLT_TIME_SPIN_GROUP@@MEAAXH@Z
?RestoreValue@BLT_DATE_SPIN_GROUP@@MEAAXH@Z
?Resort@BLT_LISTBOX@@QEAAJXZ
?Resize@ARRAY_CONTROLVAL_CID_PAIR@@QEAAHIH@Z
?ResetStyle@SLT_ELLIPSIS@@QEAAXW4ELLIPSIS_STYLE@@@Z
?ResetIterator@BLT_MASTER_TIMER@@QEAAXXZ
?ResetError@SLT_ELLIPSIS@@IEAAXXZ
?ResetError@FORWARDING_BASE@@IEAAXXZ
?ResetError@CONTROL_WINDOW@@IEAAXXZ
?ResetError@BASE@@IEAAXXZ
?ResetCreator@WINDOW@@IEAAXXZ
?ResetCaption@POPUP@@SAXXZ
?Reset@WIN32_EVENT@@QEAAJXZ
?Reset@ITER_CTRL@@QEAAXXZ
?Reset@BROWSE_DOMAIN_ENUM@@QEAAXXZ
?RequestLBI@LAZY_LISTBOX@@EEAAPEAVLBI@@PEBUtagDRAWITEMSTRUCT@@@Z
?RequestLBI@BLT_LISTBOX@@EEAAPEAVLBI@@PEBUtagDRAWITEMSTRUCT@@@Z
?RequestAndWaitForUsers@DOMAIN_FILL_THREAD@@QEAAJXZ
?RequestAndWaitForUsers@BROWSER_DOMAIN@@QEAAJXZ
?RequestAccountData@DOMAIN_FILL_THREAD@@QEAAJXZ
?RequestAccountData@BROWSER_DOMAIN@@QEAAJXZ
?ReportError@SLT_ELLIPSIS@@IEAAXJ@Z
?ReportError@FORWARDING_BASE@@IEAAXJ@Z
?ReportError@CONTROL_WINDOW@@IEAAXJ@Z
?ReportError@CONTROL_TABLE@@IEAAXXZ
?ReportError@BASE@@IEAAXJ@Z
?ReplaceItem@BLT_LISTBOX@@QEAAJHPEAVLBI@@PEAPEAV2@@Z
?ReplaceDomainIfBuiltIn@ACCOUNT_NAMES_MLE@@IEAAJPEAVNLS_STR@@PEAH@Z
?RepaintNow@WINDOW@@QEAAXXZ
?RemoveTopItem@LBI_HEAP@@QEAAPEAVLBI@@XZ
?RemoveTimer@BLT_MASTER_TIMER@@QEAAXPEAVTIMER_BASE@@@Z
?RemoveSelection@LIST_CONTROL@@QEAAXXZ
?RemoveItem@USER_LBI_CACHE@@UEAAPEAVLBI@@H@Z
?RemoveItem@USER_BROWSER_LBI_CACHE@@UEAAPEAVLBI@@H@Z
?RemoveItem@USER_BROWSER_LB@@QEAAPEAVLBI@@H@Z
?RemoveItem@BLT_LISTBOX@@QEAAPEAVLBI@@H@Z
?RemoveHelpAssoc@BLTIMP@@SAXPEAUHINSTANCE__@@K@Z
?RemoveDuplicateAccountNames@ACCOUNT_NAMES_MLE@@IEAAXPEAVSTRLIST@@@Z
?RemoveControl@CONTROL_TABLE@@QEAAHPEAVCONTROL_WINDOW@@@Z
?RemoveClient@BLTIMP@@SAXPEAUHINSTANCE__@@@Z
?RemoveAllItems@BLT_LISTBOX@@QEAAXXZ
?Remove@SLIST_OF_USER_BROWSER_LBI@@QEAAPEAVUSER_BROWSER_LBI@@AEAVITER_SL_USER_BROWSER_LBI@@@Z
?Remove@SLIST_OF_TIMER_BASE@@QEAAPEAVTIMER_BASE@@AEAVITER_SL_TIMER_BASE@@@Z
?Remove@SLIST_OF_NLS_STR@@QEAAPEAVNLS_STR@@AEAVITER_SL_NLS_STR@@@Z
?Remove@SLIST_OF_CLIENTDATA@@QEAAPEAUCLIENTDATA@@AEAVITER_SL_CLIENTDATA@@@Z
?Remove@SLIST_OF_ASSOCHCFILE@@QEAAPEAVASSOCHCFILE@@AEAVITER_SL_ASSOCHCFILE@@@Z
?Remove@MENU_BASE@@QEBAJII@Z
?Remove@HWND_DLGPTR_CACHE@@SAXPEAUHWND__@@@Z
?Remove@ARRAY_LIST_CONTROLVAL_CID_PAIR@@QEAAHAEBVCONTROLVAL_CID_PAIR@@@Z
?ReloadColumnWidths@LB_COL_WIDTHS@@UEAAJPEAUHWND__@@PEAUHINSTANCE__@@AEBVIDRESOURCE@@@Z
?ReleaseMouse@DISPATCHER@@QEAAXXZ
?ReleaseMouse@CLIENT_WINDOW@@QEAAXXZ
?ReleaseLBI@LAZY_LISTBOX@@EEAAXPEAVLBI@@@Z
?ReleaseLBI@BLT_LISTBOX@@EEAAXPEAVLBI@@@Z
?Release@WIN32_SEMAPHORE@@QEAAJJPEAJ@Z
?Release@WIN32_MUTEX@@QEAAJXZ
?RegisterHelpFile@BLT@@SAJPEAUHINSTANCE__@@JKK@Z
?RefreshExtensions@UI_EXT_MGR@@UEAAXPEAUHWND__@@@Z
?RefreshChildren@HIER_LISTBOX@@MEAAXPEAVHIER_LBI@@@Z
?Refresh@OPEN_LBOX_BASE@@QEAAJXZ
?Refresh@OPEN_DIALOG_BASE@@IEAAXXZ
?Refresh@DEVICE_COMBO@@QEAAJXZ
?ReadUsers@USER_LBI_CACHE@@QEAAJPEAVADMIN_AUTHORITY@@IIHPEAH@Z
?ReadFocusCache@BASE_SET_FOCUS_DLG@@MEBA?AW4FOCUS_CACHE_SETTING@@PEBG@Z
?QueryYearPos@INTL_PROFILE@@QEBAHXZ
?QueryYear@WIN_TIME@@QEBAHXZ
?QueryYear@BLT_DATE_SPIN_GROUP@@QEBAHXZ
?QueryY@XYPOINT@@QEBAHXZ
?QueryXForRow@LOGON_HOURS_CONTROL@@QEAAIH@Z
?QueryX@XYPOINT@@QEBAHXZ
?QueryWrap@CHANGEABLE_SPIN_ITEM@@QEBAHXZ
?QueryWindowRect@WINDOW@@QEBAXPEAVXYRECT@@@Z
?QueryWindowRect@WINDOW@@QEBAXPEAUtagRECT@@@Z
?QueryWidth@XYDIMENSION@@QEBAIXZ
?QueryWidth@SIZE_EVENT@@QEBAIXZ
?QueryWidth@DISPLAY_MAP@@QEBAIXZ
?QueryWidth@BIT_MAP@@QEBAIXZ
?QueryWhiteSpace@SLE_STRIP@@SAPEBGXZ
?QueryWParam@EVENT@@QEBA_KXZ
?QueryVerticalMargins@METALLIC_STR_DTE@@SAIXZ
?QueryValue@CHANGEABLE_SPIN_ITEM@@QEBAKXZ
?QueryVKey@VKEY_EVENT@@QEBA_KXZ
?QueryUserSelectedBits@SET_OF_AUDIT_CATEGORIES@@QEAAJPEAVBITFIELD@@0@Z
?QueryUserName@OPEN_LBI_BASE@@QEBAPEBGXZ
?QueryUserBrowserDialog@NT_GROUP_BROWSER_DIALOG@@IEAAPEAVNT_USER_BROWSER_DIALOG@@XZ
?QueryUserAccountFlags@USER_BROWSER_LBI@@QEBAKXZ
?QueryUse@LSA_TRANSLATED_SID_MEM@@QEBA?AW4_SID_NAME_USE@@K@Z
?QueryUse@LSA_TRANSLATED_NAME_MEM@@QEBA?AW4_SID_NAME_USE@@K@Z
?QueryUnicodeName@SAM_RID_ENUMERATION_MEM@@QEBAPEBU_UNICODE_STRING@@K@Z
?QueryUnicodeName@LSA_TRUST_INFO_MEM@@QEBAPEBU_UNICODE_STRING@@K@Z
?QueryUnicodeName@LSA_TRANSLATED_NAME_MEM@@AEBAPEBU_UNICODE_STRING@@K@Z
?QueryUnicodeName@LSA_REF_DOMAIN_MEM@@AEBAPEBU_UNICODE_STRING@@K@Z
?QueryUnicodeName@LSA_PRIMARY_DOM_INFO_MEM@@QEBAPEBU_UNICODE_STRING@@XZ
?QueryUnicodeGroup@NT_GROUP_ENUM_OBJ@@QEBAPEBU_UNICODE_STRING@@XZ
?QueryUnicodeComment@NT_GROUP_ENUM_OBJ@@QEBAPEBU_UNICODE_STRING@@XZ
?QueryULCEntrySize@USER_LBI_CACHE@@IEAAHXZ
?QueryULCEntryPtr@USER_LBI_CACHE@@IEAAPEAU_ULC_ENTRY@@H@Z
?QueryUISysSid@USER_BROWSER_LBI@@QEBA?AW4UI_SystemSid@@XZ
?QueryType@USER_BROWSER_LBI@@QEBA?AW4_SID_NAME_USE@@XZ
?QueryType@OLLB_ENTRY@@QEBA?AW4OUTLINE_LB_LEVEL@@XZ
?QueryType@BROWSER_SUBJECT@@QEBA?AW4_SID_NAME_USE@@XZ
?QueryTopIndex@LIST_CONTROL@@QEBAHXZ
?QueryTop@XYRECT@@QEBAHXZ
?QueryTextWidth@DISPLAY_CONTEXT@@QEBAHPEBGI@Z
?QueryTextWidth@DISPLAY_CONTEXT@@QEBAHAEBVNLS_STR@@@Z
?QueryTextSize@WINDOW@@QEBAHXZ
?QueryTextSize@BASE_ELLIPSIS@@QEBAHXZ
?QueryTextMetrics@DEVICE_CONTEXT@@QEBAHPEAUtagTEXTMETRICW@@@Z
?QueryTextLength@WINDOW@@QEBAHXZ
?QueryTextLength@NLS_STR@@QEBAIXZ
?QueryTextLength@BASE_ELLIPSIS@@QEBAHXZ
?QueryTextExtent@DEVICE_CONTEXT@@QEBA?AVXYDIMENSION@@PEBGI@Z
?QueryTextExtent@DEVICE_CONTEXT@@QEBA?AVXYDIMENSION@@AEBVNLS_STR@@@Z
?QueryText@WINDOW@@QEBAJPEAVNLS_STR@@@Z
?QueryText@WINDOW@@QEBAJPEAGI@Z
?QueryText@SLT_ELLIPSIS@@QEBAJPEAVNLS_STR@@@Z
?QueryText@SLT_ELLIPSIS@@QEBAJPEAGI@Z
?QueryText@SLE_STRIP@@QEBAJPEAVNLS_STR@@PEBG1@Z
?QueryText@SLE_STRIP@@QEBAJPEAGIPEBG1@Z
?QueryText@BASE_ELLIPSIS@@QEBAJPEAVNLS_STR@@@Z
?QueryText@BASE_ELLIPSIS@@QEBAJPEAGI@Z
?QuerySuppliedHelpFile@BASE_SET_FOCUS_DLG@@IEAAPEBGXZ
?QuerySuppliedHelpContext@BASE_SET_FOCUS_DLG@@IEAAKXZ
?QuerySuccessBaseCID@SET_OF_AUDIT_CATEGORIES@@QEAAIXZ
?QuerySubMenu@MENU_BASE@@QEBAPEAUHMENU__@@H@Z
?QueryStyle@WINDOW@@QEBAKXZ
?QueryStyle@BASE_ELLIPSIS@@QEBA?AW4ELLIPSIS_STYLE@@XZ
?QueryString@STRING_BITSET_PAIR@@QEAAPEAVNLS_STR@@XZ
?QueryString@ATOM_BASE@@QEBAJPEAGI@Z
?QueryStrNum@SPIN_SLE_STR@@AEAAJAEBVNLS_STR@@J@Z
?QueryStrLen@WIN_ELLIPSIS@@MEAAHVNLS_STR@@@Z
?QueryStrLen@WIN_ELLIPSIS@@MEAAHPEBGH@Z
?QueryStrLen@CONSOLE_ELLIPSIS@@MEAAHVNLS_STR@@@Z
?QueryStrLen@CONSOLE_ELLIPSIS@@MEAAHPEBGH@Z
?QueryStrLB@SLE_STRLB_GROUP@@QEBAPEAVSTRING_LISTBOX@@XZ
?QueryStaticClassName@CONTROL_WINDOW@@KAPEBGXZ
?QueryState@WIN32_THREAD@@AEBA?AW4_THREAD_STATE@@XZ
?QueryState@STLBITEM@@QEBAHXZ
?QueryState@STATE_BUTTON_CONTROL@@IEBAIXZ
?QuerySourceListbox@NT_GROUP_BROWSER_DIALOG@@QEAAPEAVUSER_BROWSER_LB@@XZ
?QuerySourceListbox@NT_FIND_ACCOUNT_DIALOG@@QEAAPEAVUSER_BROWSER_LB@@XZ
?QuerySourceDialog@NT_GROUP_BROWSER_DIALOG@@IEAAPEAV1@XZ
?QuerySmallIncValue@SPIN_SLE_VALID_SECOND@@UEBAKXZ
?QuerySmallIncValue@CHANGEABLE_SPIN_ITEM@@UEBAKXZ
?QuerySmallDecValue@SPIN_SLE_VALID_SECOND@@UEBAKXZ
?QuerySmallDecValue@CHANGEABLE_SPIN_ITEM@@UEBAKXZ
?QuerySize@WINDOW@@QEBAXPEAH0@Z
?QuerySize@WINDOW@@QEBA?AVXYDIMENSION@@XZ
?QuerySize@SPIN_GROUP@@QEAA?AVXYDIMENSION@@XZ
?QuerySize@BLT_SCRATCH@@QEBAIXZ
?QuerySingleLineHeight@BLT_LISTBOX@@QEAAIXZ
?QuerySid@OS_SID@@QEBAPEAXXZ
?QuerySid@BROWSER_SUBJECT@@QEBAPEBVOS_SID@@XZ
?QueryServerResourceLivesOn@NT_USER_BROWSER_DIALOG@@QEBAPEBGXZ
?QueryServer@OPEN_DIALOG_BASE@@QEBAPEBGXZ
?QueryServer@OLLB_ENTRY@@QEBAPEBGXZ
?QueryServer@ADMIN_AUTHORITY@@QEBAPEBGXZ
?QuerySelectionList@NT_USER_BROWSER_DIALOG@@QEAAPEAVSLIST_OF_USER_BROWSER_LBI@@XZ
?QuerySelectionCache@NT_USER_BROWSER_DIALOG@@QEAAPEAVSLIST_OF_USER_BROWSER_LBI@@XZ
?QuerySelection@RADIO_GROUP@@QEBAIXZ
?QuerySelection@MAGIC_GROUP@@QEBAIXZ
?QuerySelected@GRAPHICAL_BUTTON_WITH_DISABLE@@QEBAHXZ
?QuerySelItems@LIST_CONTROL@@QEBAJPEAHH@Z
?QuerySelCount@LIST_CONTROL@@QEBAHXZ
?QuerySecondValue@ELAPSED_TIME_CONTROL@@QEBAJXZ
?QuerySecond@WIN_TIME@@QEBAHXZ
?QuerySec@BLT_TIME_SPIN_GROUP@@QEBAHXZ
?QueryScrollPos@LISTBOX@@QEBAIXZ
?QuerySLTBaseCID@SET_OF_AUDIT_CATEGORIES@@QEAAIXZ
?QueryRobustHwnd@DISPATCHER@@UEBAPEAUHWND__@@XZ
?QueryRobustHwnd@DIALOG_WINDOW@@UEBAPEAUHWND__@@XZ
?QueryRobustHwnd@CLIENT_WINDOW@@UEBAPEAUHWND__@@XZ
?QueryRightSibling@HEAP_BASE@@IEBAHH@Z
?QueryRight@XYRECT@@QEBAHXZ
?QueryRepeat@KEY_EVENT@@QEBAIXZ
?QueryRemoveButton@SLE_STRLB_GROUP@@IEBAPEAVPUSH_BUTTON@@XZ
?QueryRange@CHANGEABLE_SPIN_ITEM@@QEBAKXZ
?QueryRID@SAM_RID_MEM@@QEBAKK@Z
?QueryRID@SAM_RID_ENUMERATION_MEM@@QEBAKK@Z
?QueryRID@NT_GROUP_ENUM_OBJ@@QEBAIXZ
?QueryRID@LSA_TRANSLATED_SID_MEM@@QEBAKK@Z
?QueryRBCID@CONTROLVAL_CID_PAIR@@QEBAIXZ
?QueryQualifiedName@BROWSER_SUBJECT@@QEBAJPEAVNLS_STR@@PEBV2@H@Z
?QueryPtr@SAM_SID_MEM@@QEBAPEAPEAXXZ
?QueryPtr@SAM_RID_MEM@@AEBAPEBKXZ
?QueryPtr@SAM_RID_ENUMERATION_MEM@@QEBAPEBU_SAM_RID_ENUMERATION@@XZ
?QueryPtr@LSA_TRUST_INFO_MEM@@QEBAPEBU_LSA_TRUST_INFORMATION@@XZ
?QueryPtr@LSA_TRANSLATED_SID_MEM@@AEBAPEBU_LSA_TRANSLATED_SID@@XZ
?QueryPtr@LSA_TRANSLATED_NAME_MEM@@AEBAPEBU_LSA_TRANSLATED_NAME@@XZ
?QueryPtr@LSA_REF_DOMAIN_MEM@@AEBAPEBU_LSA_TRUST_INFORMATION@@XZ
?QueryPtr@LSA_PRIMARY_DOM_INFO_MEM@@QEBAPEBU_POLICY_PRIMARY_DOMAIN_INFO@@XZ
?QueryPtr@LSA_ACCT_DOM_INFO_MEM@@QEBAPEBU_POLICY_ACCOUNT_DOMAIN_INFO@@XZ
?QueryPtr@BLT_SCRATCH@@QEBAPEAEXZ
?QueryPsz@IDRESOURCE@@QEBAPEBGXZ
?QueryProp@ITER_SL_USER_BROWSER_LBI@@QEAAPEAVUSER_BROWSER_LBI@@XZ
?QueryProp@ITER_SL_NLS_STR@@QEAAPEAVNLS_STR@@XZ
?QueryProc@PROC_INSTANCE@@QEBA_KXZ
?QueryPriority@WIN32_THREAD@@QEAAHXZ
?QueryPos@WINDOW@@QEBA?AVXYPOINT@@XZ
?QueryPos@SPIN_GROUP@@QEAA?AVXYPOINT@@XZ
?QueryPos@SCROLLBAR@@QEBAIXZ
?QueryPos@MOUSE_EVENT@@QEBA?AVXYPOINT@@XZ
?QueryPos@CURSOR@@SA?AVXYPOINT@@XZ
?QueryPoint@XYPOINT@@QEBA?AUtagPOINT@@XZ
?QueryPermissions@OPEN_LBI_BASE@@QEBAKXZ
?QueryPch@STR_DTE@@QEBAPEBGXZ
?QueryPch@NLS_STR@@QEBAPEBGXZ
?QueryPath@OPEN_LBI_BASE@@QEBAPEBGXZ
?QueryPassword@BASE_PASSWORD_DIALOG@@QEAAJPEAVNLS_STR@@@Z
?QueryParent@HEAP_BASE@@IEBAHH@Z
?QueryPSID@USER_BROWSER_LBI@@QEBAQEAXXZ
?QueryPSID@SAM_DOMAIN@@QEBAPEAXXZ
?QueryPSID@OS_SID@@QEBAPEAXXZ
?QueryPSID@LSA_TRUST_INFO_MEM@@QEBAPEAXK@Z
?QueryPSID@LSA_REF_DOMAIN_MEM@@QEBAPEAXK@Z
?QueryPSID@LSA_PRIMARY_DOM_INFO_MEM@@QEBAPEAXXZ
?QueryPSID@LSA_ACCT_DOM_INFO_MEM@@QEBAPEAXXZ
?QueryPDC@UI_DOMAIN@@QEBAPEBGXZ
?QueryOwnerWindow@SET_OF_AUDIT_CATEGORIES@@QEAAPEAVOWNER_WINDOW@@XZ
?QueryOwnerHwnd@WINDOW@@QEBAPEAUHWND__@@XZ
?QueryOriginalStr@BASE_ELLIPSIS@@QEBA?AVNLS_STR@@XZ
?QueryObjectName@CANCEL_TASK_DIALOG@@MEAAJPEAVNLS_STR@@@Z
?QueryOSSID@USER_BROWSER_LBI@@QEBAPEBVOS_SID@@XZ
?QueryOSSID@SAM_DOMAIN@@QEBAPEBVOS_SID@@XZ
?QueryOFN@GET_FNAME_BASE_DLG@@IEAAPEAUtagOFNW@@XZ
?QueryName@UI_DOMAIN@@QEBAPEBGXZ
?QueryName@SERVER1_ENUM_OBJ@@QEBAPEBGXZ
?QueryName@SAM_RID_ENUMERATION_MEM@@QEBAJKPEAVNLS_STR@@@Z
?QueryName@LSA_TRUST_INFO_MEM@@QEBAJKPEAVNLS_STR@@@Z
?QueryName@LSA_TRANSLATED_NAME_MEM@@QEBAJKPEAVNLS_STR@@@Z
?QueryName@LSA_REF_DOMAIN_MEM@@QEBAJKPEAVNLS_STR@@@Z
?QueryName@LSA_PRIMARY_DOM_INFO_MEM@@QEBAJPEAVNLS_STR@@@Z
?QueryMonthPos@INTL_PROFILE@@QEBAHXZ
?QueryMonth@WIN_TIME@@QEBAHXZ
?QueryMonth@BLT_DATE_SPIN_GROUP@@QEBAHXZ
?QueryModule@ASSOCHCFILE@@QEBAPEAUHINSTANCE__@@XZ
?QueryMinuteValue@ELAPSED_TIME_CONTROL@@QEBAJXZ
?QueryMinute@WIN_TIME@@QEBAHXZ
?QueryMin@SCROLLBAR@@QEBAIXZ
?QueryMin@CHANGEABLE_SPIN_ITEM@@QEBAKXZ
?QueryMin@BLT_TIME_SPIN_GROUP@@QEBAHXZ
?QueryMessage@EVENT@@QEBAIXZ
?QueryMenuHandle@UI_MENU_EXT@@QEBAPEAUHMENU__@@XZ
?QueryMenu@APP_WINDOW@@QEBAPEAUHMENU__@@XZ
?QueryMaxCharWidth@WIN_ELLIPSIS@@MEAAHXZ
?QueryMaxCharWidth@CONSOLE_ELLIPSIS@@MEAAHXZ
?QueryMax@SCROLLBAR@@QEBAIXZ
?QueryMax@CHANGEABLE_SPIN_ITEM@@QEBAKXZ
?QueryMasterTimer@BLT_MASTER_TIMER@@SAJPEAPEAV1@@Z
?QueryMaskHandle@DISPLAY_MAP@@QEBAPEAUHBITMAP__@@XZ
?QueryMask@AUDIT_CHECKBOXES@@QEAAPEAVBITFIELD@@XZ
?QueryMapCount@STATELB@@QEBAHXZ
?QueryMapArray@STATELB@@QEBAPEBQEAVDISPLAY_MAP@@XZ
?QueryMainInvert@GRAPHICAL_BUTTON_WITH_DISABLE@@QEBAPEAUHBITMAP__@@XZ
?QueryMain@GRAPHICAL_BUTTON_WITH_DISABLE@@QEBAPEAUHBITMAP__@@XZ
?QueryLsaLookupName@BROWSER_DOMAIN@@QEBAPEBGXZ
?QueryLoggedOnDomainInfo@@YAJPEAVNLS_STR@@0@Z
?QueryListboxClassName@CONTROL_WINDOW@@KAPEBGXZ
?QueryLimit@WIN_ELLIPSIS@@MEAAHXZ
?QueryLimit@CONSOLE_ELLIPSIS@@MEAAHXZ
?QueryLimit@CHANGEABLE_SPIN_ITEM@@QEBAKXZ
?QueryLevel@OLLB_ENTRY@@QEBAHXZ
?QueryLeftMargin@METALLIC_STR_DTE@@UEBAIXZ
?QueryLeftMargin@DTE@@UEBAIXZ
?QueryLeftChild@HEAP_BASE@@IEBAHH@Z
?QueryLeft@XYRECT@@QEBAHXZ
?QueryLeadingChar@USER_BROWSER_LBI@@UEBAGXZ
?QueryLeadingChar@STLBITEM@@MEBAGXZ
?QueryLeadingChar@OPEN_LBI_BASE@@MEBAGXZ
?QueryLeadingChar@OLLB_ENTRY@@UEBAGXZ
?QueryLeadingChar@LBI@@UEBAGXZ
?QueryLeadingChar@BROWSER_DOMAIN_LBI_PB@@UEBAGXZ
?QueryLeadingChar@BROWSER_DOMAIN_LBI@@UEBAGXZ
?QueryLb@STATELBGRP@@QEAAPEAVSTATELB@@XZ
?QueryLSAPolicy@BROWSER_DOMAIN@@QEBAPEAVLSA_POLICY@@XZ
?QueryLParam@EVENT@@QEBA_JXZ
?QueryLBIndex@HIER_LBI@@AEAAHXZ
?QueryItemTextAux@STRING_LIST_CONTROL@@AEBAJPEAGH@Z
?QueryItemText@STRING_LIST_CONTROL@@QEBAJPEAVNLS_STR@@H@Z
?QueryItemText@STRING_LIST_CONTROL@@QEBAJPEAVNLS_STR@@@Z
?QueryItemText@STRING_LIST_CONTROL@@QEBAJPEAGHH@Z
?QueryItemText@MENU_BASE@@QEBAJPEAVNLS_STR@@II@Z
?QueryItemText@MENU_BASE@@QEBAJPEAGIII@Z
?QueryItemState@MENU_BASE@@QEBAIII@Z
?QueryItemSize@STRING_LIST_CONTROL@@QEBAHH@Z
?QueryItemLength@STRING_LIST_CONTROL@@QEBAHH@Z
?QueryItemID@MENU_BASE@@QEBAIH@Z
?QueryItemHeight@LIST_CONTROL@@QEBAII@Z
?QueryItemCount@MENU_BASE@@QEBAHXZ
?QueryItem@USER_LBI_CACHE@@UEAAPEAVLBI@@H@Z
?QueryItem@USER_BROWSER_LB@@QEBAPEAVUSER_BROWSER_LBI@@XZ
?QueryItem@USER_BROWSER_LB@@QEBAPEAVUSER_BROWSER_LBI@@H@Z
?QueryItem@STATELB@@QEBAPEAVSTLBITEM@@XZ
?QueryItem@OUTLINE_LISTBOX@@QEBAPEAVOLLB_ENTRY@@XZ
?QueryItem@OUTLINE_LISTBOX@@QEBAPEAVOLLB_ENTRY@@H@Z
?QueryItem@OPEN_LBOX_BASE@@QEBAPEAVOPEN_LBI_BASE@@XZ
?QueryItem@OPEN_LBOX_BASE@@QEBAPEAVOPEN_LBI_BASE@@H@Z
?QueryItem@CONTROL_TABLE@@QEBAPEAVCONTROL_ENTRY@@I@Z
?QueryItem@BLT_LISTBOX@@QEBAPEAVLBI@@XZ
?QueryItem@BLT_LISTBOX@@QEBAPEAVLBI@@H@Z
?QueryInvalidRect@PAINT_DISPLAY_CONTEXT@@QEBAAEBVXYRECT@@XZ
?QueryInputSLE@SLE_STRLB_GROUP@@QEBAPEAVSLE@@XZ
?QueryIndentLevel@HIER_LBI@@QEAAHXZ
?QueryIcon@MSGPOPUP_DIALOG@@AEAAPEBGW4MSG_SEVERITY@@@Z
?QueryIcon@APP_WINDOW@@QEBAPEAUHICON__@@XZ
?QueryID@TIMER_BASE@@QEBAIXZ
?QueryID@STRING_BITSET_PAIR@@QEAAHXZ
?QueryID@DISPLAY_MAP@@QEBAIXZ
?QueryHwnd@WINDOW@@QEBAPEAUHWND__@@XZ
?QueryHwnd@PWND2HWND@@QEBAPEAUHWND__@@XZ
?QueryHwnd@OWNINGWND@@QEBAPEAUHWND__@@XZ
?QueryHwnd@DLGLOAD@@QEBAPEAUHWND__@@XZ
?QueryHwnd@DISPLAY_CONTEXT@@IEAAPEAUHWND__@@XZ
?QueryHwnd@DISPATCHER@@QEBAPEAUHWND__@@XZ
?QueryHwnd@CONTROL_EVENT@@QEBAPEAUHWND__@@XZ
?QueryHours@LOGON_HOURS_CONTROL@@QEBAJPEAVLOGON_HOURS_SETTING@@@Z
?QueryHour@WIN_TIME@@QEBAHXZ
?QueryHour@BLT_TIME_SPIN_GROUP@@QEBAHXZ
?QueryHorizontalExtent@LISTBOX@@QEBAIXZ
?QueryHitTest@QMOUSEACT_EVENT@@QEBAIXZ
?QueryHelpFile@NT_USER_BROWSER_DIALOG@@UEAAPEBGK@Z
?QueryHelpFile@NT_GROUP_BROWSER_DIALOG@@MEAAPEBGK@Z
?QueryHelpFile@NT_FIND_ACCOUNT_DIALOG@@MEAAPEBGK@Z
?QueryHelpFile@GET_FNAME_BASE_DLG@@QEAAPEAVNLS_STR@@XZ
?QueryHelpFile@DIALOG_WINDOW@@MEAAPEBGK@Z
?QueryHelpFile@BASE_SET_FOCUS_DLG@@MEAAPEBGK@Z
?QueryHelpFile@ASSOCHCFILE@@QEBAPEBGXZ
?QueryHelpContextSearch@NT_USER_BROWSER_DIALOG@@QEAAKXZ
?QueryHelpContextLocalMembership@NT_USER_BROWSER_DIALOG@@QEAAKXZ
?QueryHelpContextGlobalMembership@NT_USER_BROWSER_DIALOG@@QEAAKXZ
?QueryHelpContext@PROMPT_FOR_ANY_DC_DLG@@MEAAKXZ
?QueryHelpContext@OPEN_DIALOG_BASE@@MEAAKXZ
?QueryHelpContext@NT_USER_BROWSER_DIALOG@@UEAAKXZ
?QueryHelpContext@NT_LOCALGROUP_BROWSER_DIALOG@@MEAAKXZ
?QueryHelpContext@NT_GLOBALGROUP_BROWSER_DIALOG@@MEAAKXZ
?QueryHelpContext@NT_FIND_ACCOUNT_DIALOG@@MEAAKXZ
?QueryHelpContext@MSGPOPUP_DIALOG@@MEAAKXZ
?QueryHelpContext@GET_FNAME_BASE_DLG@@QEAAKXZ
?QueryHelpContext@DIALOG_WINDOW@@MEAAKXZ
?QueryHelpContext@BASE_SET_FOCUS_DLG@@MEAAKXZ
?QueryHelpContext@BASE_PASSWORD_DIALOG@@MEAAKXZ
?QueryHeight@XYDIMENSION@@QEBAIXZ
?QueryHeight@SIZE_EVENT@@QEBAIXZ
?QueryHeight@LB_COLUMN_HEADER@@QEAAHXZ
?QueryHeight@DISPLAY_MAP@@QEBAIXZ
?QueryHeight@BIT_MAP@@QEBAIXZ
?QueryHdc@DEVICE_CONTEXT@@QEBAPEAUHDC__@@XZ
?QueryHandle@WIN32_HANDLE@@QEBAPEAXXZ
?QueryHandle@SOLID_BRUSH@@QEBAPEAUHBRUSH__@@XZ
?QueryHandle@SAM_OBJECT@@QEBAPEAXXZ
?QueryHandle@MENU_BASE@@QEBAPEAUHMENU__@@XZ
?QueryHandle@FONT@@QEBAPEAUHFONT__@@XZ
?QueryHandle@BIT_MAP@@QEBAPEAUHBITMAP__@@XZ
?QueryHandle@ATOM_BASE@@QEBAGXZ
?QueryHandle@ACCELTABLE@@QEBAPEAUHACCEL__@@XZ
?QueryGroup@SPIN_ITEM@@QEAAPEAVCONTROL_GROUP@@XZ
?QueryGroup@NT_GROUP_ENUM_OBJ@@QEBAJPEAVNLS_STR@@@Z
?QueryGroup@CONTROL_VALUE@@QEBAPEAVCONTROL_GROUP@@XZ
?QueryFullName@USER_BROWSER_LBI@@QEBAPEBGXZ
?QueryFullName@BROWSER_SUBJECT@@QEBAPEBGXZ
?QueryFontHeight@DEVICE_CONTEXT@@QEBAHXZ
?QueryFont@CONTROL_WINDOW@@QEBAPEAUHFONT__@@XZ
?QueryFlags@NT_USER_BROWSER_DIALOG@@QEBAKXZ
?QueryFlags@ACCOUNT_NAMES_MLE@@QEBAKXZ
?QueryFirstLeaf@HEAP_BASE@@IEBAHXZ
?QueryFilename@GET_FNAME_BASE_DLG@@QEBAJPEAVNLS_STR@@@Z
?QueryFileTitle@GET_FNAME_BASE_DLG@@QEBAJPEAVNLS_STR@@@Z
?QueryFileID@OPEN_LBI_BASE@@QEBAKXZ
?QueryFailedBaseCID@SET_OF_AUDIT_CATEGORIES@@QEAAIXZ
?QueryExtensions@UI_EXT_MGR@@QEAAPEAVSLIST_OF_UI_EXT@@XZ
?QueryExpanded@HIER_LBI@@QEBAHXZ
?QueryEventEffects@LIST_CONTROL@@MEAAIAEBVCONTROL_EVENT@@@Z
?QueryEventEffects@EDIT_CONTROL@@MEAAIAEBVCONTROL_EVENT@@@Z
?QueryEventEffects@CONTROL_VALUE@@UEAAIAEBVCONTROL_EVENT@@@Z
?QueryEventEffects@COMBOBOX@@MEAAIAEBVCONTROL_EVENT@@@Z
?QueryEventEffects@BUTTON_CONTROL@@MEAAIAEBVCONTROL_EVENT@@@Z
?QueryEventEffects@ARROW_BUTTON@@MEAAIAEBVCONTROL_EVENT@@@Z
?QueryErrorLoadingAuthority@DOMAIN_FILL_THREAD@@QEBAJXZ
?QueryErrorLoadingAuthority@BROWSER_DOMAIN@@QEBAJXZ
?QueryErrorLBI@USER_BROWSER_LB@@QEBAPEAVUSER_BROWSER_LBI@@XZ
?QueryErrorCode@GET_FNAME_BASE_DLG@@IEBAJXZ
?QueryError@SLT_ELLIPSIS@@QEBAJXZ
?QueryError@FORWARDING_BASE@@QEBAJXZ
?QueryError@CONTROL_WINDOW@@QEBAJXZ
?QueryError@BASE@@QEBAJXZ
?QueryError@ASSOCHWNDPWND@@QEBAJXZ
?QueryError@ASSOCHWNDPDLG@@QEBAJXZ
?QueryEntryPtr@USER_BROWSER_LBI_CACHE@@QEAAPEAU_ULC_ENTRY_BASE@@H@Z
?QueryEditClassName@CONTROL_WINDOW@@KAPEBGXZ
?QueryDomainSid@BROWSER_SUBJECT@@QEBAPEBVOS_SID@@XZ
?QueryDomainSid@BROWSER_DOMAIN@@QEBAPEBVOS_SID@@XZ
?QueryDomainName@USER_BROWSER_LBI@@QEBAPEBGXZ
?QueryDomainName@BROWSE_DOMAIN_INFO@@QEBAPEBGXZ
?QueryDomainName@BROWSER_SUBJECT@@QEBAPEBGXZ
?QueryDomainName@BROWSER_DOMAIN@@QEBAPEBGXZ
?QueryDomainIndex@LSA_TRANSLATED_SID_MEM@@QEBAJK@Z
?QueryDomainIndex@LSA_TRANSLATED_NAME_MEM@@QEBAJK@Z
?QueryDomainCount@BROWSE_DOMAIN_ENUM@@QEAAIXZ
?QueryDomain@OLLB_ENTRY@@QEBAPEBGXZ
?QueryDmDte@SUBJECT_BITMAP_BLOCK@@QEAAPEAVDMID_DTE@@HHH@Z
?QueryDmDte@OUTLINE_LISTBOX@@QEBAPEAVDM_DTE@@W4OUTLINE_LB_LEVEL@@H@Z
?QueryDllName@UI_EXT@@QEBAPEBGXZ
?QueryDisplayWidth@DM_DTE@@QEBAIXZ
?QueryDisplayName@USER_BROWSER_LBI@@QEBAPEBGXZ
?QueryDisplayName@BROWSER_DOMAIN_LBI@@QEBAPEBGXZ
?QueryDisplayName@BROWSER_DOMAIN@@QEBAPEBGXZ
?QueryDisplayMap@USER_BROWSER_LB@@QEAAPEAVDISPLAY_MAP@@PEBVUSER_BROWSER_LBI@@@Z
?QueryDisplayMap@SUBJECT_BITMAP_BLOCK@@QEAAPEAVDISPLAY_MAP@@HHH@Z
?QueryDisplayMap@DM_DTE@@QEBAPEAVDISPLAY_MAP@@XZ
?QueryDisplayMap@BROWSER_DOMAIN_CB@@QEAAPEAVDISPLAY_MAP@@PEBVBROWSER_DOMAIN_LBI@@@Z
?QueryDisable@GRAPHICAL_BUTTON_WITH_DISABLE@@QEBAPEAUHBITMAP__@@XZ
?QueryDevice@DEVICE_COMBO@@QEBAJPEAVNLS_STR@@@Z
?QueryDesiredHeight@H_SPLITTER_BAR@@QEAAHXZ
?QueryDescendants@HIER_LBI@@AEAAIXZ
?QueryDeltaDelta@UI_EXT_MGR@@QEBAKXZ
?QueryDelta@UI_EXT@@QEBAKXZ
?QueryDayPos@INTL_PROFILE@@QEBAHXZ
?QueryDay@WIN_TIME@@QEBAHXZ
?QueryDay@BLT_DATE_SPIN_GROUP@@QEBAHXZ
?QueryDCofPrimaryDomain@NT_USER_BROWSER_DIALOG@@QEAAPEBGXZ
?QueryCurrentItem@LIST_CONTROL@@QEBAHXZ
?QueryCurrentField@SPIN_GROUP@@IEBAPEAVSPIN_ITEM@@XZ
?QueryCurrentDomainFocus@NT_USER_BROWSER_DIALOG@@QEBAPEAVBROWSER_DOMAIN@@XZ
?QueryCurrentCache@USER_BROWSER_LB@@QEBAPEAVUSER_BROWSER_LBI_CACHE@@XZ
?QueryCtrlPtr@CONTROL_ENTRY@@QEBAPEAVCONTROL_WINDOW@@XZ
?QueryCountPreferences@USRLB_NT_GROUP_ENUM@@MEAAJPEAK0IKKK@Z
?QueryCount@USER_LBI_CACHE@@QEBAHXZ
?QueryCount@USER_BROWSER_LBI_CACHE@@QEBAKXZ
?QueryCount@SET_OF_AUDIT_CATEGORIES@@QEAAHXZ
?QueryCount@RADIO_GROUP@@QEAAHXZ
?QueryCount@NT_MEMORY@@QEBAKXZ
?QueryCount@MASK_MAP@@QEAAIXZ
?QueryCount@LIST_CONTROL@@QEBAHXZ
?QueryCount@HEAP_BASE@@QEBAHXZ
?QueryCount@COUNTED_STR_DTE@@QEBAHXZ
?QueryCount@CONTROL_TABLE@@QEBAIXZ
?QueryCount@BITFIELD@@QEBAIXZ
?QueryCount@ARRAY_CONTROLVAL_CID_PAIR@@QEBAIXZ
?QueryControlWin@CUSTOM_CONTROL@@QEBAPEAVCONTROL_WINDOW@@XZ
?QueryContent@SPIN_SLE_STR@@QEBAJPEAVNLS_STR@@@Z
?QueryContent@SPIN_SLE_NUM@@QEBAXPEAVNLS_STR@@@Z
?QueryContent@SPIN_SLE_NUM@@QEBAXPEAK@Z
?QueryContVal@CONTROLVAL_CID_PAIR@@QEBAPEAVCONTROL_VALUE@@XZ
?QueryCompareMethod@USER_LBI_CACHE@@MEBAP6AHPEBX0@ZXZ
?QueryCompareMethod@USER_BROWSER_LBI_CACHE@@MEBAP6AHPEBX0@ZXZ
?QueryComment@USER_BROWSER_LBI@@QEBAPEBGXZ
?QueryComment@SERVER1_ENUM_OBJ@@QEBAPEBGXZ
?QueryComment@NT_GROUP_ENUM_OBJ@@QEBAJPEAVNLS_STR@@@Z
?QueryComment@BROWSER_SUBJECT@@QEBAPEBGXZ
?QueryCommand@SCROLL_EVENT@@QEBA?AW4SCROLL_COMMAND@1@XZ
?QueryComboboxClassName@CONTROL_WINDOW@@KAPEBGXZ
?QueryColWidthArray@USER_BROWSER_LB@@QEBAPEBIXZ
?QueryColWidthArray@BROWSER_DOMAIN_CB@@QEBAPEBIXZ
?QueryColData@STATELB@@QEAAPEBIXZ
?QueryCode@CONTROL_EVENT@@QEBAIXZ
?QueryClientRect@WINDOW@@QEBAXPEAVXYRECT@@@Z
?QueryClientRect@WINDOW@@QEBAXPEAUtagRECT@@@Z
?QueryCid@CONTROL_WINDOW@@QEBAIXZ
?QueryCid@CONTROL_EVENT@@QEBAIXZ
?QueryCid@CONTROL_ENTRY@@QEBAIXZ
?QueryCheck@STATE2_BUTTON_CONTROL@@QEBAHXZ
?QueryChar@CHAR_EVENT@@QEBAGXZ
?QueryCaretIndex@LIST_CONTROL@@QEBAHXZ
?QueryButton@MSGPOPUP_DIALOG@@AEAAPEAVPUSH_BUTTON@@I@Z
?QueryBuiltinDomain@BROWSER_DOMAIN@@QEBAPEAVSAM_DOMAIN@@XZ
?QueryBufferPtr@SERVER1_ENUM_OBJ@@QEBAPEBU_SERVER_INFO_101@@XZ
?QueryBufferPtr@NT_GROUP_ENUM_OBJ@@QEBAPEBU_DOMAIN_DISPLAY_GROUP@@XZ
?QueryBufferPtr@ENUM_OBJ_BASE@@IEBAPEBEXZ
?QueryBuffer@NT_MEMORY@@IEBAPEAXXZ
?QueryBrowserDomain@BROWSER_DOMAIN_LBI_PB@@QEBAPEAVBROWSER_DOMAIN@@XZ
?QueryBrowserDomain@BROWSER_DOMAIN_LBI@@QEBAPEAVBROWSER_DOMAIN@@XZ
?QueryBottom@XYRECT@@QEBAHXZ
?QueryBits@MASK_MAP@@QEAAJIPEAVBITFIELD@@PEAVNLS_STR@@PEAH@Z
?QueryBitmapHandle@DISPLAY_MAP@@QEBAPEAUHBITMAP__@@XZ
?QueryBitfield@STRING_BITSET_PAIR@@QEAAPEAVBITFIELD@@XZ
?QueryBigIncValue@SPIN_SLE_VALID_SECOND@@UEBAKXZ
?QueryBigIncValue@CHANGEABLE_SPIN_ITEM@@UEBAKXZ
?QueryBigDecValue@SPIN_SLE_VALID_SECOND@@UEBAKXZ
?QueryBigDecValue@CHANGEABLE_SPIN_ITEM@@UEBAKXZ
?QueryAveCharWidth@DEVICE_CONTEXT@@QEBAHXZ
?QueryAuditCheckBox@SET_OF_AUDIT_CATEGORIES@@QEAAPEAVAUDIT_CHECKBOXES@@H@Z
?QueryAttribute@OWNER_WINDOW@@QEAAHK@Z
?QueryAnyDC@UI_DOMAIN@@QEBAPEBGXZ
?QueryAdminAuthority@DOMAIN_FILL_THREAD@@QEBAPEAVADMIN_AUTHORITY@@XZ
?QueryAdminAuthority@BROWSER_DOMAIN@@QEBAPEAVADMIN_AUTHORITY@@XZ
?QueryAddButton@SLE_STRLB_GROUP@@IEBAPEAVPUSH_BUTTON@@XZ
?QueryActiveArea@H_SPLITTER_BAR@@MEAAHXZ
?QueryAccountName@USER_BROWSER_LBI@@QEBAPEBGXZ
?QueryAccountName@BROWSER_SUBJECT@@QEBAPEBGXZ
?QueryAccountDomain@BROWSER_DOMAIN@@QEBAPEAVSAM_DOMAIN@@XZ
?QueryAccessName@OPEN_LBI_BASE@@QEBAPEBGXZ
?QueryAccKey@SPIN_ITEM@@QEAAJPEAVNLS_STR@@@Z
?QueryAccCharPos@SPIN_SLE_STR@@UEAAJG@Z
?QueryAccCharPos@SPIN_ITEM@@UEAAJG@Z
?Query@CURSOR@@SAPEAUHICON__@@XZ
?QualifyDisplayName@USER_BROWSER_LBI@@QEAAJXZ
?Pulse@WIN32_EVENT@@QEAAJXZ
?ProcessNetPath@BASE_SET_FOCUS_DLG@@AEAAJPEAVNLS_STR@@PEAJ@Z
?Process@WIN32_FONT_PICKER@@SAJPEAVOWNER_WINDOW@@PEAHPEAVFONT@@PEAUtagLOGFONTW@@PEAUtagCHOOSEFONTW@@@Z
?Process@GET_SAVE_FILENAME_DLG@@UEAAJPEAH@Z
?Process@GET_OPEN_FILENAME_DLG@@UEAAJPEAH@Z
?Process@EXPANDABLE_DIALOG@@QEAAJPEAI@Z
?Process@EXPANDABLE_DIALOG@@QEAAJPEAH@Z
?Process@DIALOG_WINDOW@@QEAAJPEAI@Z
?Process@DIALOG_WINDOW@@QEAAJPEAH@Z
?Process@BASE_SET_FOCUS_DLG@@QEAAJPEAI@Z
?Process@BASE_SET_FOCUS_DLG@@QEAAJPEAH@Z
?PreMain@WIN32_THREAD@@MEAAJXZ
?PostMain@WIN32_THREAD@@MEAAJXZ
?PostMain@FOCUSDLG_DATA_THREAD@@MEAAJXZ
?PostMain@DOMAIN_FILL_THREAD@@MEAAJXZ
?PlaceControl@BLT_DATE_SPIN_GROUP@@AEAAJHPEAVOWNER_WINDOW@@AEBVINTL_PROFILE@@AEBVXYPOINT@@AEBVXYDIMENSION@@2323@Z
?PlaceButtons@MSGPOPUP_DIALOG@@AEAAXXZ
?ParseUserNameList@ACCOUNT_NAMES_MLE@@IEAAJPEAVSTRLIST@@PEBG@Z
?Paint@USER_BROWSER_LBI@@UEBAXPEAVLISTBOX@@PEAUHDC__@@PEBUtagRECT@@PEAUGUILTT_INFO@@@Z
?Paint@STR_DTE_ELLIPSIS@@UEBAXPEAUHDC__@@PEBUtagRECT@@@Z
?Paint@STR_DTE@@UEBAXPEAUHDC__@@PEBUtagRECT@@@Z
?Paint@STLBITEM@@MEBAXPEAVLISTBOX@@PEAUHDC__@@PEBUtagRECT@@PEAUGUILTT_INFO@@@Z
?Paint@OWNER_DRAW_STR_DTE@@UEBAXPEAUHDC__@@PEBUtagRECT@@@Z
?Paint@OWNER_DRAW_MULTILINE_STR_DTE@@UEBAXPEAUHDC__@@PEBUtagRECT@@@Z
?Paint@OWNER_DRAW_DMID_DTE@@UEBAXPEAUHDC__@@PEBUtagRECT@@@Z
?Paint@OLLB_ENTRY@@UEBAXPEAVLISTBOX@@PEAUHDC__@@PEBUtagRECT@@PEAUGUILTT_INFO@@@Z
?Paint@MULTILINE_STR_DTE@@UEBAXPEAUHDC__@@PEBUtagRECT@@@Z
?Paint@METALLIC_STR_DTE@@UEBAXPEAUHDC__@@PEBUtagRECT@@@Z
?Paint@LBI@@UEBAXPEAVLISTBOX@@PEAUHDC__@@PEBUtagRECT@@PEAUGUILTT_INFO@@@Z
?Paint@DM_DTE@@UEBAXPEAUHDC__@@PEBUtagRECT@@@Z
?Paint@DISPLAY_TABLE@@QEBAXPEAVLISTBOX@@PEAUHDC__@@PEBUtagRECT@@PEAUGUILTT_INFO@@@Z
?Paint@DISPLAY_TABLE@@QEBAXPEAVLISTBOX@@PEAUHDC__@@PEBUtagRECT@@@Z
?Paint@DISPLAY_MAP@@QEBAHPEAUHDC__@@HH@Z
?Paint@COUNTED_STR_DTE@@UEBAXPEAUHDC__@@PEBUtagRECT@@@Z
?Paint@BROWSER_DOMAIN_LBI_PB@@UEBAXPEAVLISTBOX@@PEAUHDC__@@PEBUtagRECT@@PEAUGUILTT_INFO@@@Z
?Paint@BROWSER_DOMAIN_LBI@@UEBAXPEAVLISTBOX@@PEAUHDC__@@PEBUtagRECT@@PEAUGUILTT_INFO@@@Z
?OtherListbox@SET_CONTROL@@AEBAPEAVLISTBOX@@PEAV2@@Z
?OnValidationError@DIALOG_WINDOW@@MEAAXIJ@Z
?OnUserMessage@OWNER_WINDOW@@MEAAHAEBVEVENT@@@Z
?OnUserMessage@NT_USER_BROWSER_DIALOG@@MEAAHAEBVEVENT@@@Z
?OnUserMessage@DISPATCHER@@MEAAHAEBVEVENT@@@Z
?OnUserMessage@BASE_SET_FOCUS_DLG@@MEAAHAEBVEVENT@@@Z
?OnUserAction@STATELBGRP@@MEAAJPEAVCONTROL_WINDOW@@AEBVCONTROL_EVENT@@@Z
?OnUserAction@SPIN_GROUP@@MEAAJPEAVCONTROL_WINDOW@@AEBVCONTROL_EVENT@@@Z
?OnUserAction@SLE_STRLB_GROUP@@MEAAJPEAVCONTROL_WINDOW@@AEBVCONTROL_EVENT@@@Z
?OnUserAction@SET_CONTROL@@MEAAJPEAVCONTROL_WINDOW@@AEBVCONTROL_EVENT@@@Z
?OnUserAction@RADIO_GROUP@@MEAAJPEAVCONTROL_WINDOW@@AEBVCONTROL_EVENT@@@Z
?OnUserAction@ORDER_GROUP@@MEAAJPEAVCONTROL_WINDOW@@AEBVCONTROL_EVENT@@@Z
?OnUserAction@MAGIC_GROUP@@MEAAJPEAVCONTROL_WINDOW@@AEBVCONTROL_EVENT@@@Z
?OnUserAction@LM_OLLB@@MEAAJAEBVCONTROL_EVENT@@@Z
?OnUserAction@CONTROL_WINDOW@@MEAAJAEBVCONTROL_EVENT@@@Z
?OnUserAction@CONTROL_GROUP@@MEAAJPEAVCONTROL_WINDOW@@AEBVCONTROL_EVENT@@@Z
?OnTimerNotification@TIMER_CALLOUT@@MEAAXI@Z
?OnTimer@TIMER_WINDOW@@MEAAHAEBVTIMER_EVENT@@@Z
?OnTimer@DISPATCHER@@MEAAHAEBVTIMER_EVENT@@@Z
?OnTimer@DIALOG_WINDOW@@MEAAHAEBVTIMER_EVENT@@@Z
?OnTimer@CLIENT_WINDOW@@MEAAHAEBVTIMER_EVENT@@@Z
?OnTimer@CANCEL_TASK_DIALOG@@MEAAHAEBVTIMER_EVENT@@@Z
?OnTimer@ARROW_BUTTON@@MEAAHAEBVTIMER_EVENT@@@Z
?OnSystemChange@APP_WINDOW@@MEAAHAEBVSYSCHANGE_EVENT@@@Z
?OnSysColorChange@DIALOG_WINDOW@@MEAAXXZ
?OnShutdown@APP_WINDOW@@MEAAXXZ
?OnShowUsers@NT_USER_BROWSER_DIALOG@@IEAAJXZ
?OnSelect@CLIENT_WINDOW@@MEAAHAEBVCONTROL_EVENT@@@Z
?OnSearch@NT_USER_BROWSER_DIALOG@@IEAAJXZ
?OnScrollBarThumb@DIALOG_WINDOW@@MEAAHAEBVSCROLL_THUMB_EVENT@@@Z
?OnScrollBar@DIALOG_WINDOW@@MEAAHAEBVSCROLL_EVENT@@@Z
?OnResize@H_SPLITTER_BAR@@MEAAHAEBVSIZE_EVENT@@@Z
?OnResize@DISPATCHER@@MEAAHAEBVSIZE_EVENT@@@Z
?OnResize@CLIENT_WINDOW@@MEAAHAEBVSIZE_EVENT@@@Z
?OnRemove@SLE_STRLB_GROUP@@IEAAJXZ
?OnQMouseCursor@LOGON_HOURS_CONTROL@@MEAAHAEBVQMOUSEACT_EVENT@@@Z
?OnQMouseCursor@H_SPLITTER_BAR@@MEAAHAEBVQMOUSEACT_EVENT@@@Z
?OnQMouseCursor@DISPATCHER@@MEAAHAEBVQMOUSEACT_EVENT@@@Z
?OnQMouseActivate@LOGON_HOURS_CONTROL@@MEAAKAEBVQMOUSEACT_EVENT@@@Z
?OnQMouseActivate@DISPATCHER@@MEAAKAEBVQMOUSEACT_EVENT@@@Z
?OnQMinMax@APP_WINDOW@@MEAAHAEAVQMINMAX_EVENT@@@Z
?OnQHitTest@LOGON_HOURS_CONTROL@@MEAAKAEBVXYPOINT@@@Z
?OnQHitTest@H_SPLITTER_BAR@@MEAAKAEBVXYPOINT@@@Z
?OnQHitTest@DISPATCHER@@MEAAKAEBVXYPOINT@@@Z
?OnQDlgCode@LOGON_HOURS_CONTROL@@MEAAKXZ
?OnQDlgCode@DISPATCHER@@MEAAKXZ
?OnPaintReq@METER@@MEAAHXZ
?OnPaintReq@LOGON_HOURS_CONTROL@@MEAAHXZ
?OnPaintReq@H_SPLITTER_BAR@@MEAAHXZ
?OnPaintReq@FOCUS_CHECKBOX@@MEAAHXZ
?OnPaintReq@DISPATCHER@@MEAAHXZ
?OnPaintReq@CLIENT_WINDOW@@MEAAHXZ
?OnPaintReq@APP_WINDOW@@MEAAHXZ
?OnOther@CLIENT_WINDOW@@MEAAHAEBVEVENT@@@Z
?OnOK@PROMPT_FOR_ANY_DC_DLG@@MEAAHXZ
?OnOK@NT_USER_BROWSER_DIALOG@@MEAAHXZ
?OnOK@NT_FIND_ACCOUNT_DIALOG@@MEAAHXZ
?OnOK@MSG_DIALOG_BASE@@EEAAHXZ
?OnOK@MSGPOPUP_DIALOG@@MEAAHXZ
?OnOK@DIALOG_WINDOW@@MEAAHXZ
?OnOK@BASE_SET_FOCUS_DLG@@MEAAHXZ
?OnNewItem@USER_BROWSER_LB@@MEAAPEAVLBI@@I@Z
?OnMove@DISPATCHER@@MEAAHAEBVMOVE_EVENT@@@Z
?OnMove@CLIENT_WINDOW@@MEAAHAEBVMOVE_EVENT@@@Z
?OnMouseMove@LOGON_HOURS_CONTROL@@MEAAHAEBVMOUSE_EVENT@@@Z
?OnMouseMove@H_SPLITTER_BAR@@MEAAHAEBVMOUSE_EVENT@@@Z
?OnMouseMove@DISPATCHER@@MEAAHAEBVMOUSE_EVENT@@@Z
?OnMouseMove@CLIENT_WINDOW@@MEAAHAEBVMOUSE_EVENT@@@Z
?OnMenuSelect@APP_WINDOW@@MEAAHAEBVMENUITEM_EVENT@@@Z
?OnMenuInit@APP_WINDOW@@MEAAHAEBVMENU_EVENT@@@Z
?OnMenuCommand@APP_WINDOW@@MEAAHI@Z
?OnMembers@NT_USER_BROWSER_DIALOG@@IEAAJXZ
?OnMembers@NT_LOCALGROUP_BROWSER_DIALOG@@IEAAJXZ
?OnLMouseButtonUp@LOGON_HOURS_CONTROL@@MEAAHAEBVMOUSE_EVENT@@@Z
?OnLMouseButtonUp@H_SPLITTER_BAR@@MEAAHAEBVMOUSE_EVENT@@@Z
?OnLMouseButtonUp@DISPATCHER@@MEAAHAEBVMOUSE_EVENT@@@Z
?OnLMouseButtonUp@CLIENT_WINDOW@@MEAAHAEBVMOUSE_EVENT@@@Z
?OnLMouseButtonUp@ARROW_BUTTON@@MEAAHAEBVMOUSE_EVENT@@@Z
?OnLMouseButtonDown@LOGON_HOURS_CONTROL@@MEAAHAEBVMOUSE_EVENT@@@Z
?OnLMouseButtonDown@H_SPLITTER_BAR@@MEAAHAEBVMOUSE_EVENT@@@Z
?OnLMouseButtonDown@DISPATCHER@@MEAAHAEBVMOUSE_EVENT@@@Z
?OnLMouseButtonDown@CLIENT_WINDOW@@MEAAHAEBVMOUSE_EVENT@@@Z
?OnLMouseButtonDown@ARROW_BUTTON@@MEAAHAEBVMOUSE_EVENT@@@Z
?OnLMouseButtonDblClick@DISPATCHER@@MEAAHAEBVMOUSE_EVENT@@@Z
?OnLMouseButtonDblClick@CLIENT_WINDOW@@MEAAHAEBVMOUSE_EVENT@@@Z
?OnLMouseButtonDblClick@ARROW_BUTTON@@MEAAHAEBVMOUSE_EVENT@@@Z
?OnLBIMessages@OWNER_WINDOW@@KAHI_K_J@Z
?OnKeyUp@LOGON_HOURS_CONTROL@@MEAAHAEBVVKEY_EVENT@@@Z
?OnKeyUp@DISPATCHER@@MEAAHAEBVVKEY_EVENT@@@Z
?OnKeyUp@CLIENT_WINDOW@@MEAAHAEBVVKEY_EVENT@@@Z
?OnKeyDown@SPIN_SLE_STR@@MEAAHAEBVVKEY_EVENT@@@Z
?OnKeyDown@SPIN_SLE_NUM@@MEAAHAEBVVKEY_EVENT@@@Z
?OnKeyDown@LOGON_HOURS_CONTROL@@MEAAHAEBVVKEY_EVENT@@@Z
?OnKeyDown@DISPATCHER@@MEAAHAEBVVKEY_EVENT@@@Z
?OnKeyDown@CLIENT_WINDOW@@MEAAHAEBVVKEY_EVENT@@@Z
?OnHelp@GET_FNAME_BASE_DLG@@QEAAXPEAUHWND__@@@Z
?OnHelp@DIALOG_WINDOW@@AEAAHXZ
?OnGroupAction@MAGIC_GROUP@@MEAAJPEAVCONTROL_GROUP@@@Z
?OnGroupAction@CONTROL_GROUP@@MEAAJPEAV1@@Z
?OnFocus@STATIC_SPIN_ITEM@@MEAAHAEBVFOCUS_EVENT@@@Z
?OnFocus@SPIN_SLE_STR@@MEAAHAEBVFOCUS_EVENT@@@Z
?OnFocus@SPIN_SLE_NUM@@MEAAHAEBVFOCUS_EVENT@@@Z
?OnFocus@SPIN_ITEM@@MEAAHAEBVFOCUS_EVENT@@@Z
?OnFocus@LOGON_HOURS_CONTROL@@MEAAHAEBVFOCUS_EVENT@@@Z
?OnFocus@FOCUS_CHECKBOX@@MEAAHAEBVFOCUS_EVENT@@@Z
?OnFocus@DISPATCHER@@MEAAHAEBVFOCUS_EVENT@@@Z
?OnFocus@CLIENT_WINDOW@@MEAAHAEBVFOCUS_EVENT@@@Z
?OnExpand@EXPANDABLE_DIALOG@@MEAAXXZ
?OnEnter@SPIN_SLE_NUM_VALID@@MEAAHAEBVCONTROL_EVENT@@@Z
?OnEnter@SPIN_SLE_NUM@@MEAAHAEBVCONTROL_EVENT@@@Z
?OnEnter@CLIENT_WINDOW@@MEAAHAEBVCONTROL_EVENT@@@Z
?OnDropDown@CLIENT_WINDOW@@MEAAHAEBVCONTROL_EVENT@@@Z
?OnDragRelease@H_SPLITTER_BAR@@MEAAXAEBVXYPOINT@@@Z
?OnDoubleClick@HIER_LISTBOX@@QEAAXPEAVHIER_LBI@@@Z
?OnDomainLBChange@BASE_SET_FOCUS_DLG@@AEAAXXZ
?OnDomainChange@NT_USER_BROWSER_DIALOG@@IEAAJPEAVBROWSER_DOMAIN@@PEBVADMIN_AUTHORITY@@@Z
?OnDlgDeactivation@NT_USER_BROWSER_DIALOG@@MEAAHAEBVACTIVATION_EVENT@@@Z
?OnDlgDeactivation@DIALOG_WINDOW@@MEAAHAEBVACTIVATION_EVENT@@@Z
?OnDlgActivation@DIALOG_WINDOW@@MEAAHAEBVACTIVATION_EVENT@@@Z
?OnDestroy@DISPATCHER@@MEAAHXZ
?OnDestroy@CLIENT_WINDOW@@MEAAHXZ
?OnDeleteItem@USER_BROWSER_LB@@MEAAXPEAVLBI@@@Z
?OnDeleteItem@LBI@@SAX_K_J@Z
?OnDeleteItem@LAZY_LISTBOX@@MEAAXPEAVLBI@@@Z
?OnDefocus@SPIN_SLE_NUM_VALID@@MEAAHAEBVFOCUS_EVENT@@@Z
?OnDefocus@SPIN_SLE_NUM@@MEAAHAEBVFOCUS_EVENT@@@Z
?OnDefocus@LOGON_HOURS_CONTROL@@MEAAHAEBVFOCUS_EVENT@@@Z
?OnDefocus@FOCUS_CHECKBOX@@MEAAHAEBVFOCUS_EVENT@@@Z
?OnDefocus@DISPATCHER@@MEAAHAEBVFOCUS_EVENT@@@Z
?OnDefocus@CLIENT_WINDOW@@MEAAHAEBVFOCUS_EVENT@@@Z
?OnDeactivation@DISPATCHER@@MEAAHAEBVACTIVATION_EVENT@@@Z
?OnDeactivation@CLIENT_WINDOW@@MEAAHAEBVACTIVATION_EVENT@@@Z
?OnDblClick@CLIENT_WINDOW@@MEAAHAEBVCONTROL_EVENT@@@Z
?OnCtlColor@SPIN_SLT_SEPARATOR@@UEAAPEAUHBRUSH__@@PEAUHDC__@@PEAUHWND__@@PEAI@Z
?OnCtlColor@DIALOG_WINDOW@@MEAAPEAUHBRUSH__@@PEAUHDC__@@PEAUHWND__@@PEAI@Z
?OnCtlColor@CONTROL_WINDOW@@UEAAPEAUHBRUSH__@@PEAUHDC__@@PEAUHWND__@@PEAI@Z
?OnCtlColor@BLT_BACKGROUND_EDIT@@UEAAPEAUHBRUSH__@@PEAUHDC__@@PEAUHWND__@@PEAI@Z
?OnControlError@DIALOG_WINDOW@@MEAAXIJ@Z
?OnCompareItem@LBI@@SAH_K_J@Z
?OnCommand@OPEN_DIALOG_BASE@@MEAAHAEBVCONTROL_EVENT@@@Z
?OnCommand@NT_USER_BROWSER_DIALOG@@MEAAHAEBVCONTROL_EVENT@@@Z
?OnCommand@NT_LOCALGROUP_BROWSER_DIALOG@@MEAAHAEBVCONTROL_EVENT@@@Z
?OnCommand@NT_GROUP_BROWSER_DIALOG@@MEAAHAEBVCONTROL_EVENT@@@Z
?OnCommand@NT_FIND_ACCOUNT_DIALOG@@MEAAHAEBVCONTROL_EVENT@@@Z
?OnCommand@MSGPOPUP_DIALOG@@MEAAHAEBVCONTROL_EVENT@@@Z
?OnCommand@EXPANDABLE_DIALOG@@MEAAHAEBVCONTROL_EVENT@@@Z
?OnCommand@DISPATCHER@@MEAAHAEBVCONTROL_EVENT@@@Z
?OnCommand@DIALOG_WINDOW@@MEAAHAEBVCONTROL_EVENT@@@Z
?OnCommand@CLIENT_WINDOW@@MEAAHAEBVCONTROL_EVENT@@@Z
?OnCommand@BASE_SET_FOCUS_DLG@@MEAAHAEBVCONTROL_EVENT@@@Z
?OnCloseReq@DISPATCHER@@MEAAHXZ
?OnCloseReq@CLIENT_WINDOW@@MEAAHXZ
?OnCloseReq@APP_WINDOW@@MEAAHXZ
?OnClick@CLIENT_WINDOW@@MEAAHAEBVCONTROL_EVENT@@@Z
?OnChar@SPIN_SLE_STR@@MEAAHAEBVCHAR_EVENT@@@Z
?OnChar@SPIN_SLE_NUM@@MEAAHAEBVCHAR_EVENT@@@Z
?OnChar@SPIN_ITEM@@MEAAHAEBVCHAR_EVENT@@@Z
?OnChar@DISPATCHER@@MEAAHAEBVCHAR_EVENT@@@Z
?OnChar@CLIENT_WINDOW@@MEAAHAEBVCHAR_EVENT@@@Z
?OnChange@CLIENT_WINDOW@@MEAAHAEBVCONTROL_EVENT@@@Z
?OnCancel@MSGPOPUP_DIALOG@@MEAAHXZ
?OnCancel@DIALOG_WINDOW@@MEAAHXZ
?OnCDMessages@OWNER_WINDOW@@IEAAHI_K_J@Z
?OnAdd@SLE_STRLB_GROUP@@IEAAJXZ
?OnAdd@NT_USER_BROWSER_DIALOG@@IEAAJXZ
?OnActivation@DISPATCHER@@MEAAHAEBVACTIVATION_EVENT@@@Z
?OnActivation@CLIENT_WINDOW@@MEAAHAEBVACTIVATION_EVENT@@@Z
?Offset@XYRECT@@QEAAAEAV1@VXYDIMENSION@@@Z
?Offset@XYRECT@@QEAAAEAV1@HH@Z
?NotifyGroups@CONTROL_WINDOW@@QEAAJAEBVCONTROL_EVENT@@@Z
?NextTimer@BLT_MASTER_TIMER@@QEAAPEAVTIMER_BASE@@XZ
?NextState@STLBITEM@@QEAAHXZ
?Next@RITER_DL_SPIN_ITEM@@QEAAPEAVSPIN_ITEM@@XZ
?Next@ITER_SL_USER_BROWSER_LBI@@QEAAPEAVUSER_BROWSER_LBI@@XZ
?Next@ITER_SL_UI_EXT@@QEAAPEAVUI_EXT@@XZ
?Next@ITER_SL_TIMER_BASE@@QEAAPEAVTIMER_BASE@@XZ
?Next@ITER_SL_STRING_BITSET_PAIR@@QEAAPEAVSTRING_BITSET_PAIR@@XZ
?Next@ITER_SL_NLS_STR@@QEAAPEAVNLS_STR@@XZ
?Next@ITER_SL_CLIENTDATA@@QEAAPEAUCLIENTDATA@@XZ
?Next@ITER_SL_BROWSE_DOMAIN_INFO@@QEAAPEAVBROWSE_DOMAIN_INFO@@XZ
?Next@ITER_SL_ASSOCHCFILE@@QEAAPEAVASSOCHCFILE@@XZ
?Next@ITER_DL_SPIN_ITEM@@QEAAPEAVSPIN_ITEM@@XZ
?Next@ITER_CTRL@@QEAAPEAVCONTROL_WINDOW@@XZ
?Next@BROWSE_DOMAIN_ENUM@@QEAAPEBVBROWSE_DOMAIN_INFO@@XZ
?Next@BROWSER_SUBJECT_ITER@@QEAAJPEAPEAVBROWSER_SUBJECT@@@Z
?MsgPopup@@YAHAEBVOWNINGWND@@JW4MSG_SEVERITY@@KIQEAPEAVNLS_STR@@I@Z
?MsgPopup@@YAHAEBVOWNINGWND@@JW4MSG_SEVERITY@@IPEBGI@Z
?MsgPopup@@YAHAEBVOWNINGWND@@JW4MSG_SEVERITY@@IPEBG2I@Z
?MsgPopup@@YAHAEBVOWNINGWND@@JW4MSG_SEVERITY@@II@Z
?MsgPopup@@YAHAEBVOWNINGWND@@JW4MSG_SEVERITY@@@Z
?MsgPopup@@YAHAEBVOWNINGWND@@JJW4MSG_SEVERITY@@KIQEAPEAVNLS_STR@@I@Z
?Msg2HC@MSGPOPUP_DIALOG@@CAHJPEAK@Z
?MoveTo@DEVICE_CONTEXT@@QEBAXHH@Z
?MoveItems@BLT_SET_CONTROL@@MEAAJPEAVLISTBOX@@0@Z
?MoveFocusUp@LOGON_HOURS_CONTROL@@AEAAXXZ
?MoveFocusTo@LOGON_HOURS_CONTROL@@AEAAXH@Z
?MoveFocusRight@LOGON_HOURS_CONTROL@@AEAAXXZ
?MoveFocusLeft@LOGON_HOURS_CONTROL@@AEAAXXZ
?MoveFocusDown@LOGON_HOURS_CONTROL@@AEAAXXZ
?Modify@MENU_BASE@@QEBAJPEBGIPEAUHMENU__@@I@Z
?Modify@MENU_BASE@@QEBAJPEBGIII@Z
?MenuInitExtensions@UI_MENU_EXT_MGR@@UEAAXXZ
?MayShutdown@APP_WINDOW@@MEAAHXZ
?MayRun@DIALOG_WINDOW@@MEAAHXZ
?MayRun@CANCEL_TASK_DIALOG@@MEAAHXZ
?MayRestore@APP_WINDOW@@MEAAHXZ
?MapMessage@POPUP@@SAJJ@Z
?MapLastError@BLT@@SAJJ@Z
?MapButton@POPUP@@CAHI@Z
?MakeDefault@PUSH_BUTTON@@QEAAXXZ
?Main@WIN32_THREAD@@MEAAJXZ
?Main@FOCUSDLG_DATA_THREAD@@MEAAJXZ
?Main@DOMAIN_FILL_THREAD@@MEAAJXZ
?MLTextPaint@@YAXPEAUHDC__@@PEBGPEBUtagRECT@@@Z
?LockCache@USER_LBI_CACHE@@MEAAXXZ
?LoadSystem@NLS_STR@@QEAAJJ@Z
?LoadSystem@CURSOR@@SAPEAUHICON__@@AEBVIDRESOURCE@@@Z
?LoadMessage@POPUP@@AEAAPEAVNLS_STR@@JH@Z
?LoadLabels@LOGON_HOURS_CONTROL@@AEAAJJ@Z
?LoadExtensions@UI_EXT_MGR@@UEAAIXZ
?Load@NLS_STR@@QEAAJJ@Z
?Load@CURSOR@@SAPEAUHICON__@@AEBVIDRESOURCE@@@Z
?LineTo@DEVICE_CONTEXT@@QEBAXHH@Z
?LeaveResourceCritSect@BLTIMP@@SAXXZ
?LeaveBLTCritSect@BLTIMP@@SAXXZ
?LaunchHelp@DIALOG_WINDOW@@AEAAXXZ
?JumpPrevField@SPIN_GROUP@@QEAAHXZ
?JumpNextField@SPIN_GROUP@@QEAAHXZ
?ItemExists@MENUITEM@@SAHPEAVAPP_WINDOW@@I@Z
?ItemExists@MENUITEM@@SAHPEAUHMENU__@@I@Z
?IsYrCentury@INTL_PROFILE@@QEBAHXZ
?IsWithinHitZone@SET_CONTROL@@AEBAHPEAVLISTBOX@@0AEBVXYPOINT@@@Z
?IsWithinHitZone@H_SPLITTER_BAR@@IEAAHAEBVXYPOINT@@@Z
?IsWinNTMachine@BROWSER_DOMAIN@@QEBAHXZ
?IsWellKnownAccount@ACCOUNT_NAMES_MLE@@IEAAHAEBVNLS_STR@@@Z
?IsValidStyle@BASE_ELLIPSIS@@IEBAHW4ELLIPSIS_STYLE@@@Z
?IsValidField@SPIN_GROUP@@IEAAHXZ
?IsValid@SPIN_SLE_NUM_VALID@@MEAAHXZ
?IsValid@DIALOG_WINDOW@@MEAAHXZ
?IsValid@BLT_TIME_SPIN_GROUP@@QEAAHXZ
?IsValid@BLT_DATE_SPIN_GROUP@@QEAAHXZ
?IsUserEdittable@COMBOBOX@@QEBAHXZ
?IsTimePrefix@INTL_PROFILE@@QEBAHXZ
?IsTargetDomain@BROWSER_DOMAIN_LBI_PB@@QEBAHXZ
?IsTargetDomain@BROWSER_DOMAIN_LBI@@QEBAHXZ
?IsTargetDomain@BROWSER_DOMAIN@@QEBAHXZ
?IsSystemInitialized@APPLICATION@@SAHXZ
?IsSuccessChecked@AUDIT_CHECKBOXES@@QEAAHXZ
?IsStatic@STATIC_SPIN_ITEM@@UEBAHXZ
?IsStatic@CHANGEABLE_SPIN_ITEM@@UEBAHXZ
?IsSingleSelection@NT_USER_BROWSER_DIALOG@@QEBAHXZ
?IsSingleSelect@ACCOUNT_NAMES_MLE@@QEBAHXZ
?IsSimple@COMBOBOX@@QEBAHXZ
?IsShowUsersButtonUsed@NT_USER_BROWSER_DIALOG@@IEBAHXZ
?IsSeparator@MENU_BASE@@QEBAHH@Z
?IsSelectionExpandableGroup@USER_BROWSER_LB@@QEBAHXZ
?IsSelectionExpandableGroup@USER_BROWSER_LB@@IEBAHPEBVUSER_BROWSER_LBI@@H@Z
?IsRunnable@WIN32_THREAD@@QEBAHXZ
?IsRoot@HEAP_BASE@@IEBAHH@Z
?IsReadOnly@LISTBOX@@QEBAHXZ
?IsPumpFinished@HAS_MESSAGE_PUMP@@MEAAHXZ
?IsPumpFinished@DIALOG_WINDOW@@MEAAHXZ
?IsPresent@MASK_MAP@@QEAAHPEAVBITFIELD@@@Z
?IsPopup@MENU_BASE@@QEBAHH@Z
?IsParent@HIER_LBI@@AEAAHPEAV1@@Z
?IsOverTarget@SET_CONTROL@@AEBAHPEAVLISTBOX@@0AEBVXYPOINT@@@Z
?IsOnSelectedItem@SET_CONTROL@@AEBAHPEAVLISTBOX@@0AEBVXYPOINT@@@Z
?IsOnDragStart@SET_CONTROL@@AEBAHPEAVLISTBOX@@0AEBVXYPOINT@@@Z
?IsMultSel@LIST_CONTROL@@QEBAHXZ
?IsMonthLZero@INTL_PROFILE@@QEBAHXZ
?IsModified@SPIN_GROUP@@QEBAHXZ
?IsMinimized@CLIENT_WINDOW@@QEBAHXZ
?IsMember@RADIO_GROUP@@QEAAHI@Z
?IsItemSelected@LIST_CONTROL@@QEBAHI@Z
?IsItemAvailable@USER_LBI_CACHE@@UEAAHH@Z
?IsInitialized@BROWSER_DOMAIN@@QEBAHXZ
?IsInTimer@CANCEL_TASK_DIALOG@@IEBAHXZ
?IsHourLZero@INTL_PROFILE@@QEBAHXZ
?IsHelpActive@GET_FNAME_BASE_DLG@@QEAAHXZ
?IsFinished@CANCEL_TASK_DIALOG@@IEBAHXZ
?IsFailedChecked@AUDIT_CHECKBOXES@@QEAAHXZ
?IsExpanded@OLLB_ENTRY@@QEBAHXZ
?IsExpanded@BASE_SET_FOCUS_DLG@@IEBAHXZ
?IsEnabled@WINDOW@@QEBAHXZ
?IsEnabled@TIMER_BASE@@QEBAHXZ
?IsEnabled@MENUITEM@@QEBAHXZ
?IsEmpty@XYRECT@@QEBAHXZ
?IsDropped@BLT_COMBOBOX@@QEBAHXZ
?IsDropDownList@COMBOBOX@@QEBAHXZ
?IsDropDown@COMBOBOX@@QEBAHXZ
?IsDomainComboDropped@NT_USER_BROWSER_DIALOG@@IEBAHXZ
?IsDestroyable@LBI@@MEAAHXZ
?IsDestroyable@HIER_LBI@@EEAAHXZ
?IsDayLZero@INTL_PROFILE@@QEBAHXZ
?IsConstructionFail@BLT_TIME_SPIN_GROUP@@AEAAHPEAVCONTROL_WINDOW@@@Z
?IsConstructionFail@BLT_DATE_SPIN_GROUP@@AEAAHPEAVCONTROL_WINDOW@@@Z
?IsConnected@PROMPT_AND_CONNECT@@QEAAHXZ
?IsCombo@LIST_CONTROL@@QEBAHXZ
?IsClientGeneratedMessage@WINDOW@@SAHXZ
?IsChild@WINDOW@@QEBAHXZ
?IsChecked@MENUITEM@@QEBAHXZ
?IsButtonACell@LOGON_HOURS_CONTROL@@AEBAHH@Z
?IsBrowsingEnabled@NT_USER_BROWSER_DIALOG@@IEBAHXZ
?IsAutoReadjusting@HEAP_BASE@@IEBAHXZ
?IsAssociatedHC@ASSOCHCFILE@@QEBAHK@Z
?IsActive@SPIN_GROUP@@QEBAHXZ
?IsActivating@ACTIVATION_EVENT@@QEBAHXZ
?Is24Hour@INTL_PROFILE@@QEBAHXZ
?InvertRect@DEVICE_CONTEXT@@QEBAXPEBUtagRECT@@@Z
?InvertDragBar@H_SPLITTER_BAR@@AEAAXAEBVXYPOINT@@@Z
?InvalidateItem@LISTBOX@@QEAAXHH@Z
?InvalidateButton@LOGON_HOURS_CONTROL@@AEAAXH@Z
?Invalidate@WINDOW@@QEAAXH@Z
?Invalidate@WINDOW@@QEAAXAEBVXYRECT@@@Z
?InsertTimer@BLT_MASTER_TIMER@@QEAAJPEAVTIMER_BASE@@@Z
?InsertSeparator@MENU_BASE@@QEBAJII@Z
?InsertParams@NLS_STR@@QEAAJAEBV1@@Z
?InsertItemData@LIST_CONTROL@@IEAAHHPEAX@Z
?InsertItem@STRING_LIST_CONTROL@@QEAAHHPEBG@Z
?InsertItem@STRING_LIST_CONTROL@@QEAAHHAEBVNLS_STR@@@Z
?InsertItem@BLT_LISTBOX@@QEAAHHPEAVLBI@@@Z
?Insert@MENU_BASE@@QEBAJPEBGIPEAUHMENU__@@I@Z
?Insert@MENU_BASE@@QEBAJPEBGIII@Z
?Initialize@SPIN_SLT_SEPARATOR@@AEAAJXZ
?Initialize@SPIN_SLE_STR@@AEAAJQEAPEBGPEAVOWNER_WINDOW@@I@Z
?Initialize@SPIN_SLE_STR@@AEAAJJPEAVOWNER_WINDOW@@I@Z
?InitialOFN@GET_FNAME_BASE_DLG@@IEAAXXZ
?InitDLL@BLT@@SAJXZ
?InitCHOOSEFONT@WIN32_FONT_PICKER@@SAXPEAUtagCHOOSEFONTW@@PEAUtagLOGFONTW@@PEAUHWND__@@@Z
?Init@SLE_STRLB_GROUP@@QEAAJPEAVSTRLIST@@@Z
?Init@POPUP@@SAJXZ
?Init@CLIENT_WINDOW@@SAJXZ
?Init@BLT_MASTER_TIMER@@SAJXZ
?Init@BLTIMP@@SAJXZ
?Init@BLT@@SAJPEAUHINSTANCE__@@IIII@Z
?Init@BASE_ELLIPSIS@@SAJXZ
?Inflate@XYRECT@@QEAAAEAV1@VXYDIMENSION@@@Z
?Inflate@XYRECT@@QEAAAEAV1@HH@Z
?IndicateError@SLE@@UEAAXJ@Z
?IndicateError@CONTROL_WINDOW@@UEAAXJ@Z
?InRect@XYPOINT@@QEBAHAEBVXYRECT@@@Z
?InRasMode@BASE_SET_FOCUS_DLG@@QEBAHXZ
?HwndToThis@ASSOCHWNDTHIS@@SAPEAXPEAUHWND__@@@Z
?HwndToPwnd@DISPATCHER@@KAPEAV1@PEAUHWND__@@@Z
?HwndToPwnd@DIALOG_WINDOW@@CAPEAV1@PEAUHWND__@@@Z
?HwndToPwnd@CLIENT_WINDOW@@CAPEAV1@PEAUHWND__@@@Z
?HwndToPwnd@ASSOCHWNDPWND@@SAPEAVCLIENT_WINDOW@@PEAUHWND__@@@Z
?HwndToPdlg@ASSOCHWNDPDLG@@SAPEAVDIALOG_WINDOW@@PEAUHWND__@@@Z
?HwndToPdispatch@ASSOCHWNDDISP@@SAPEAVDISPATCHER@@PEAUHWND__@@@Z
?HasFocus@WINDOW@@QEBAHXZ
?HasChildren@HIER_LBI@@QEAAHXZ
?HandleOnMouseMove@SET_CONTROL@@QEAAHPEAVLISTBOX@@AEBVMOUSE_EVENT@@@Z
?HandleOnLMouseButtonUp@SET_CONTROL@@QEAAHPEAVLISTBOX@@PEAVCUSTOM_CONTROL@@AEBVMOUSE_EVENT@@@Z
?HandleOnLMouseButtonDown@SET_CONTROL@@QEAAHPEAVLISTBOX@@PEAVCUSTOM_CONTROL@@AEBVMOUSE_EVENT@@@Z
?GetTrustedDomainList@NT_USER_BROWSER_DIALOG@@IEAAJPEBGPEAPEAVBROWSER_DOMAIN@@PEAVBROWSER_DOMAIN_CB@@PEBVADMIN_AUTHORITY@@@Z
?GetTransColorIndex@DISPLAY_MAP@@AEBAHPEAKH@Z
?GetTextColor@DEVICE_CONTEXT@@QEBAKXZ
?GetQualifiedDomainName@BROWSER_DOMAIN_LBI_PB@@QEAAJPEAVNLS_STR@@@Z
?GetQualifiedDomainName@BROWSER_DOMAIN@@QEAAJPEAVNLS_STR@@@Z
?GetPlacement@APP_WINDOW@@QEBAJPEAUtagWINDOWPLACEMENT@@@Z
?GetInfo@UI_DOMAIN@@QEAAJXZ
?GetDomainInfo@BROWSER_DOMAIN@@QEAAJPEAVNT_USER_BROWSER_DIALOG@@PEBVADMIN_AUTHORITY@@@Z
?GetBkColor@DEVICE_CONTEXT@@QEBAKXZ
?GetAndSendText@MSG_DIALOG_BASE@@AEAAJXZ
?GetAccKey@SPIN_SLT_SEPARATOR@@MEAAJPEAVNLS_STR@@@Z
?GetAccKey@SPIN_SLE_STR@@EEAAJPEAVNLS_STR@@@Z
?FrameRect@DEVICE_CONTEXT@@QEBAXPEBUtagRECT@@PEAUHBRUSH__@@@Z
?FindItemExact@STRING_LIST_CONTROL@@QEBAHPEBGH@Z
?FindItemExact@STRING_LIST_CONTROL@@QEBAHPEBG@Z
?FindItem@STRING_LIST_CONTROL@@QEBAHPEBGH@Z
?FindItem@STRING_LIST_CONTROL@@QEBAHPEBG@Z
?FindItem@OUTLINE_LISTBOX@@QEBAHPEBG0@Z
?FindItem@BLT_LISTBOX@@QEBAHAEBVLBI@@@Z
?FindExtensionByName@UI_EXT_MGR@@QEAAPEAVUI_EXT@@PEBG@Z
?FindExtensionByDelta@UI_EXT_MGR@@QEAAPEAVUI_EXT@@K@Z
?FindDomain@NT_USER_BROWSER_DIALOG@@QEAAPEAVBROWSER_DOMAIN@@PEBVOS_SID@@@Z
?FindAssocRadioButton@MAGIC_GROUP@@AEAAIPEAVCONTROL_VALUE@@@Z
?Find@HWND_DLGPTR_CACHE@@SAPEAVDIALOG_WINDOW@@PEAUHWND__@@@Z
?Find@ARRAY_LIST_CONTROLVAL_CID_PAIR@@QEBAHAEBVCONTROLVAL_CID_PAIR@@@Z
?FilterMessage@HAS_MESSAGE_PUMP@@MEAAHPEAUtagMSG@@@Z
?FilterMessage@DIALOG_WINDOW@@MEAAHPEAUtagMSG@@@Z
?FillServers@LM_OLLB@@AEAAJPEBGPEAI@Z
?FillLocalGroupMembers@NT_GROUP_BROWSER_LB@@QEAAJPEBVOS_SID@@PEBVSAM_DOMAIN@@1PEAVLSA_POLICY@@PEBG@Z
?FillGlobalGroupMembers@NT_GROUP_BROWSER_LB@@QEAAJPEBVOS_SID@@PEBVSAM_DOMAIN@@1PEAVLSA_POLICY@@PEBG@Z
?FillDomains@LM_OLLB@@AEAAJKPEBG@Z
?FillDevices@DEVICE_COMBO@@AEAAJXZ
?FillButtonArray@MSGPOPUP_DIALOG@@AEAAXIPEAH0@Z
?FillAllInfo@LM_OLLB@@QEAAXPEAVBROWSE_DOMAIN_ENUM@@PEAVSERVER1_ENUM@@PEBG@Z
?Fill@USER_BROWSER_LBI_CACHE@@QEAAJPEAVADMIN_AUTHORITY@@PEBGKHHPEAH@Z
?Fill@OPEN_LBOX_BASE@@QEAAJXZ
?Fill@NT_GROUP_BROWSER_LB@@QEAAJPEBQEAXKPEBVSAM_DOMAIN@@PEAVLSA_POLICY@@PEBG@Z
?ExtTextOutW@DEVICE_CONTEXT@@QEAAHHHIPEBUtagRECT@@PEBGHPEAH@Z
?ExtTextOutW@DEVICE_CONTEXT@@QEAAHHHIPEBUtagRECT@@AEBVNLS_STR@@PEAH@Z
?ExpandItem@HIER_LISTBOX@@QEAAJPEAVHIER_LBI@@@Z
?ExpandItem@HIER_LISTBOX@@QEAAJH@Z
?ExpandDomain@LM_OLLB@@QEAAJXZ
?ExpandDomain@LM_OLLB@@QEAAJH@Z
?ExpandChildren@HIER_LISTBOX@@AEAAHHPEAVHIER_LBI@@@Z
?ExitThread@FOCUSDLG_DATA_THREAD@@QEAAJXZ
?ExitThread@DOMAIN_FILL_THREAD@@QEAAJXZ
?Exit@WIN32_THREAD@@IEAAXI@Z
?EraseSelection@LOGON_HOURS_CONTROL@@AEAAXAEBVDISPLAY_CONTEXT@@@Z
?EraseFocusRect@FOCUS_CHECKBOX@@IEAAXPEAVDEVICE_CONTEXT@@PEAUtagRECT@@@Z
?EnumStrings@MASK_MAP@@QEAAJPEAVNLS_STR@@PEAH1H@Z
?EnumBits@MASK_MAP@@QEAAJPEAVBITFIELD@@PEAH1H@Z
?EnterResourceCritSect@BLTIMP@@SAJXZ
?EnterBLTCritSect@BLTIMP@@SAJXZ
?EnableThirdState@TRISTATE@@QEAAXH@Z
?EnableMoves@SET_CONTROL@@QEAAXH@Z
?EnableItem@MENU_BASE@@QEBAIIHI@Z
?EnableButtons@SET_CONTROL@@IEAAXXZ
?EnableBrowsing@NT_USER_BROWSER_DIALOG@@IEAAXH@Z
?Enable@WINDOW@@QEAAXH@Z
?Enable@TIMER_BASE@@QEAAXH@Z
?Enable@SET_OF_AUDIT_CATEGORIES@@QEAAXHH@Z
?Enable@RADIO_GROUP@@QEAAXH@Z
?Enable@MENUITEM@@QEAAXH@Z
?Enable@MAGIC_GROUP@@QEAAXH@Z
?Enable@AUDIT_CHECKBOXES@@QEAAXHH@Z
?Emergency@POPUP@@AEBAHXZ
?DrawTextW@DEVICE_CONTEXT@@QEAAHAEBVNLS_STR@@PEAUtagRECT@@I@Z
?DrawSelectionOnCells@LOGON_HOURS_CONTROL@@AEBAXAEBVDISPLAY_CONTEXT@@HH@Z
?DrawSelectionOnCell@LOGON_HOURS_CONTROL@@AEBAXAEBVDISPLAY_CONTEXT@@H@Z
?DrawRect@DEVICE_CONTEXT@@QEBAXPEBUtagRECT@@@Z
?DrawOneFlatButton@LOGON_HOURS_CONTROL@@AEBAXAEAVPAINT_DISPLAY_CONTEXT@@AEBVXYRECT@@HPEAUHBRUSH__@@PEAUHPEN__@@3@Z
?DrawOneDayBar@LOGON_HOURS_CONTROL@@AEBAHAEAVPAINT_DISPLAY_CONTEXT@@HHHPEAUHBRUSH__@@@Z
?DrawOneCornerButton@LOGON_HOURS_CONTROL@@AEBAXAEAVPAINT_DISPLAY_CONTEXT@@AEBVXYRECT@@HPEAUHBRUSH__@@PEAUHPEN__@@3@Z
?DrawMenuBar@APP_WINDOW@@QEBAJXZ
?DrawIcon@APP_WINDOW@@AEAAHXZ
?DrawGridWires@LOGON_HOURS_CONTROL@@AEBAHAEAVPAINT_DISPLAY_CONTEXT@@@Z
?DrawGridSetting@LOGON_HOURS_CONTROL@@AEBAHAEAVPAINT_DISPLAY_CONTEXT@@@Z
?DrawFocusSomewhere@LOGON_HOURS_CONTROL@@AEBAXAEBVDISPLAY_CONTEXT@@H@Z
?DrawFocusRect@FOCUS_CHECKBOX@@IEAAXPEAVDEVICE_CONTEXT@@PEAUtagRECT@@H@Z
?DrawFocusRect@DEVICE_CONTEXT@@QEBAXPEBUtagRECT@@@Z
?DrawFocusOnHourButton@LOGON_HOURS_CONTROL@@AEBAXAEBVDISPLAY_CONTEXT@@H@Z
?DrawFocusOnDayButton@LOGON_HOURS_CONTROL@@AEBAXAEBVDISPLAY_CONTEXT@@H@Z
?DrawFocusOnCornerButton@LOGON_HOURS_CONTROL@@AEBAXAEBVDISPLAY_CONTEXT@@@Z
?DrawFocusOnCell@LOGON_HOURS_CONTROL@@AEBAXAEBVDISPLAY_CONTEXT@@H@Z
?DrawCurrentSelection@LOGON_HOURS_CONTROL@@AEBAXAEBVDISPLAY_CONTEXT@@@Z
?DrawBackground@LOGON_HOURS_CONTROL@@AEBAHAEAVPAINT_DISPLAY_CONTEXT@@@Z
?DrawAllButtons@LOGON_HOURS_CONTROL@@AEBAHAEAVPAINT_DISPLAY_CONTEXT@@@Z
?DoUserMessage@DISPATCHER@@QEAAHAEBVEVENT@@@Z
?DoSearch@NT_FIND_ACCOUNT_DIALOG@@IEAAJXZ
?DoRemove@SET_CONTROL@@UEAAJXZ
?DoPermitButton@LOGON_HOURS_CONTROL@@QEAAXXZ
?DoOneItem@CANCEL_TASK_DIALOG@@MEAAJ_KPEAH1PEAJ@Z
?DoNewFocus@SPIN_GROUP@@QEAAHPEAVSPIN_ITEM@@@Z
?DoChar@SPIN_GROUP@@QEAAHAEBVCHAR_EVENT@@@Z
?DoChar@DISPATCHER@@QEAAHAEBVCHAR_EVENT@@@Z
?DoButtonUpVisuals@LOGON_HOURS_CONTROL@@AEAAXH@Z
?DoButtonDownVisuals@LOGON_HOURS_CONTROL@@AEAAXXZ
?DoButtonClick@LOGON_HOURS_CONTROL@@AEAAXH@Z
?DoBanButton@LOGON_HOURS_CONTROL@@QEAAXXZ
?DoArrowCommand@SPIN_GROUP@@QEAAHIG@Z
?DoAddOrRemove@SET_CONTROL@@AEAAJPEAVLISTBOX@@0@Z
?DoAdd@SET_CONTROL@@UEAAJXZ
?DlgProc@DIALOG_WINDOW@@SA_JPEAUHWND__@@I_K_J@Z
?DisplayNum@SPIN_SLE_NUM@@AEAAXK@Z
?DisplayGenericError@@YAIAEBVOWNINGWND@@JJPEBGW4MSG_SEVERITY@@@Z
?DisplayGenericError@@YAIAEBVOWNINGWND@@JJPEBG1W4MSG_SEVERITY@@@Z
?DisplayErrorMsg@SPIN_SLE_NUM_VALID@@MEAAXXZ
?DisplayCtError@APPLICATION@@AEAAXJ@Z
?DispatchTimer@WINDOW_TIMER@@MEAAXXZ
?DispatchTimer@TIMER_BASE@@MEAAXXZ
?DispatchTimer@TIMER@@MEAAXXZ
?DispatchTimer@PROC_TIMER@@MEAAXXZ
?DispatchMessageW@CLIENT_WINDOW@@MEAA_JAEBVEVENT@@@Z
?DispatchMessageW@APP_WINDOW@@MEAA_JAEBVEVENT@@@Z
?Dispatch@LB_COLUMN_HEADER@@MEAAHAEBVEVENT@@PEAK@Z
?Dispatch@H_SPLITTER_BAR@@MEAAHAEBVEVENT@@PEAK@Z
?Dispatch@DISPATCHER@@MEAAHAEBVEVENT@@PEAK@Z
?DismissMsg@DIALOG_WINDOW@@IEAAXJI@Z
?Dismiss@DIALOG_WINDOW@@IEAAXI@Z
?Destroy@POPUP_MENU@@QEAAJXZ
?DeregisterHelpFile@BLT@@SAXPEAUHINSTANCE__@@K@Z
?DeleteItem@LIST_CONTROL@@QEAAHH@Z
?DeleteItem@HIER_LISTBOX@@QEAAHHH@Z
?DeleteCurrentDeviceName@DEVICE_COMBO@@QEAAXXZ
?DeleteChildren@HIER_LISTBOX@@QEAAXPEAVHIER_LBI@@@Z
?DeleteAndExit@WIN32_THREAD@@IEAAXI@Z
?DeleteAllItems@LIST_CONTROL@@QEAAXXZ
?Delete@MENU_BASE@@QEBAJII@Z
?CtAux@PROGRESS_CONTROL@@AEAAXXZ
?CtAux@POPUP_MENU@@AEAAJPEAUHMENU__@@@Z
?CtAux@H_SPLITTER_BAR@@AEAAXXZ
?CtAux@GRAPHICAL_BUTTON@@AEAAXPEBG00@Z
?CreateLBIsFromSids@@YAJPEBQEAXKQEAXPEAVLSA_POLICY@@PEBGPEAVUSER_BROWSER_LB@@PEAVSLIST_OF_USER_BROWSER_LBI@@@Z
?CreateLBIListFromNames@ACCOUNT_NAMES_MLE@@QEAAJPEBG0PEAVSLIST_OF_USER_BROWSER_LBI@@1PEAJPEAVNLS_STR@@@Z
?CreateLBI@USER_BROWSER_LBI_CACHE@@MEAAPEAVLBI@@PEBU_DOMAIN_DISPLAY_USER@@@Z
?ConvertScreenToClient@XYRECT@@QEAAXPEAUHWND__@@@Z
?ConvertClientToScreen@XYRECT@@QEAAXPEAUHWND__@@@Z
?ConvertAndSetStr@SLT_ELLIPSIS@@IEAAJXZ
?ContainsXY@XYRECT@@QEBAHVXYPOINT@@@Z
?Connect@PROMPT_AND_CONNECT@@QEAAJXZ
?ComparepLBIs@@YAHPEBQEAVUSER_BROWSER_LBI@@0@Z
?Compare_HAWforHawaii@USER_BROWSER_LBI@@UEBAHAEBVNLS_STR@@@Z
?Compare_HAWforHawaii@LBI@@UEBAHAEBVNLS_STR@@@Z
?CompareLogonNames@USER_LBI_CACHE@@KAHPEBX0@Z
?CompareCacheLBIs@USER_BROWSER_LBI_CACHE@@KAHPEBU_ULC_ENTRY_BASE@@0@Z
?CompareAux@USER_BROWSER_LBI@@QEBAHPEBVLBI@@@Z
?Compare@USER_BROWSER_LBI_CACHE@@MEBAHPEBVLBI@@PEBU_DOMAIN_DISPLAY_USER@@@Z
?Compare@USER_BROWSER_LBI_CACHE@@MEBAHPEBVLBI@@0@Z
?Compare@USER_BROWSER_LBI@@UEBAHPEBVLBI@@@Z
?Compare@STLBITEM@@MEBAHPEBVLBI@@@Z
?Compare@OLLB_ENTRY@@UEBAHPEBVLBI@@@Z
?Compare@LBI@@UEBAHPEBV1@@Z
?Compare@CONTROLVAL_CID_PAIR@@QEBAHPEBV1@@Z
?Compare@BROWSER_DOMAIN_LBI_PB@@UEBAHPEBVLBI@@@Z
?Compare@BROWSER_DOMAIN_LBI@@UEBAHPEBVLBI@@@Z
?Command@WINDOW@@QEBA_KI_K_J@Z
?CommDlgHookProc@@YAHPEAUHWND__@@G_K_J@Z
?CollapseItem@HIER_LISTBOX@@QEAAXPEAVHIER_LBI@@H@Z
?CollapseItem@HIER_LISTBOX@@QEAAXHH@Z
?CollapseDomain@LM_OLLB@@QEAAJXZ
?CollapseDomain@LM_OLLB@@QEAAJH@Z
?CmpUniStrs@USER_LBI_CACHE@@KAHPEBU_UNICODE_STRING@@0@Z
?CloseFile@OPEN_DIALOG_BASE@@IEAAXPEAVOPEN_LBI_BASE@@@Z
?Close@WIN32_HANDLE@@QEAAJXZ
?Close@APP_WINDOW@@QEAAXXZ
?ClientToScreen@XYPOINT@@QEAAXPEAUHWND__@@@Z
?ClearText@WINDOW@@QEAAXXZ
?ClearText@SLT_ELLIPSIS@@QEAAXXZ
?ClearMasterTimerHotkey@BLT_MASTER_TIMER@@SAKXZ
?ClearDragBar@H_SPLITTER_BAR@@AEAAXXZ
?Clear@SLIST_OF_USER_BROWSER_LBI@@QEAAXXZ
?Clear@SLIST_OF_ULC_API_BUFFER@@QEAAXXZ
?Clear@SLIST_OF_UI_EXT@@QEAAXXZ
?Clear@SLIST_OF_TIMER_BASE@@QEAAXXZ
?Clear@SLIST_OF_STRING_BITSET_PAIR@@QEAAXXZ
?Clear@SLIST_OF_OS_SID@@QEAAXXZ
?Clear@SLIST_OF_CLIENTDATA@@QEAAXXZ
?Clear@SLIST_OF_ASSOCHCFILE@@QEAAXXZ
?Clear@DLIST_OF_SPIN_ITEM@@QEAAXXZ
?Clear@ARRAY_LIST_CONTROLVAL_CID_PAIR@@QEAAXXZ
?ClaimFocus@CONTROL_WINDOW@@QEAAXXZ
?CidToCtrlPtr@OWNER_WINDOW@@IEBAPEAVCONTROL_WINDOW@@I@Z
?CidToCtrlPtr@CONTROL_TABLE@@QEBAPEAVCONTROL_WINDOW@@I@Z
?CheckValid@SPIN_SLE_NUM_VALID@@UEAAHXZ
?CheckValid@CHANGEABLE_SPIN_ITEM@@UEAAHXZ
?CheckSuccess@AUDIT_CHECKBOXES@@QEAAXH@Z
?CheckRange@CHANGEABLE_SPIN_ITEM@@QEBAHK@Z
?CheckNameType@ACCOUNT_NAMES_MLE@@SAJW4_SID_NAME_USE@@K@Z
?CheckLookedUpNames@ACCOUNT_NAMES_MLE@@IEAAJPEAPEAGPEAVLSA_TRANSLATED_SID_MEM@@PEAVSTRLIST@@PEAVNLS_STR@@PEBGPEAJ@Z
?CheckItem@MENU_BASE@@QEBAIIHI@Z
?CheckFailed@AUDIT_CHECKBOXES@@QEAAXH@Z
?ChangeFieldValue@SPIN_GROUP@@QEAAHGH@Z
?Center@WINDOW@@QEAAXPEAUHWND__@@@Z
?CaptureMouse@DISPATCHER@@QEAAXXZ
?CaptureMouse@CLIENT_WINDOW@@QEAAXXZ
?CanonicalizeNames@ACCOUNT_NAMES_MLE@@QEAAJPEBGPEAVSTRLIST@@@Z
?CalcWidth@XYRECT@@QEBAHXZ
?CalcUnion@XYRECT@@QEAAAEAV1@AEBV1@0@Z
?CalcTopTextMargin@METALLIC_STR_DTE@@CAIXZ
?CalcSizes@LOGON_HOURS_CONTROL@@AEAAJVXYDIMENSION@@@Z
?CalcSingleLineHeight@BLT_LISTBOX@@QEAAJXZ
?CalcRectForHour@LOGON_HOURS_CONTROL@@AEBAXPEAVXYRECT@@H@Z
?CalcRectForDay@LOGON_HOURS_CONTROL@@AEBAXPEAVXYRECT@@H@Z
?CalcRectForCorner@LOGON_HOURS_CONTROL@@AEBAXPEAVXYRECT@@@Z
?CalcRectForCell@LOGON_HOURS_CONTROL@@AEBAXPEAVXYRECT@@H@Z
?CalcIntersect@XYRECT@@QEAAAEAV1@AEBV1@0@Z
?CalcHmodString@BLT@@SAPEAUHINSTANCE__@@J@Z
?CalcHmodRsrc@BLT@@SAPEAUHINSTANCE__@@AEBVIDRESOURCE@@@Z
?CalcHelpFileHC@BLT@@SAPEBGK@Z
?CalcHeight@XYRECT@@QEBAHXZ
?CalcHeight@LBI@@UEAAII@Z
?CalcGridRect@LOGON_HOURS_CONTROL@@AEBAXPEAVXYRECT@@@Z
?CalcFixedHeight@WINDOW@@KAHPEAUHWND__@@PEAI@Z
?CalcFixedCDMeasure@OWNER_WINDOW@@KAHPEAUHWND__@@PEAUtagMEASUREITEMSTRUCT@@@Z
?CalcDefButton@POPUP@@CAHII@Z
?CalcColumnWidths@DISPLAY_TABLE@@SAJPEAIIPEAVOWNER_WINDOW@@IH@Z
?CalcButtonFromPoint@LOGON_HOURS_CONTROL@@AEBAHVXYPOINT@@@Z
?CalcBottomTextMargin@METALLIC_STR_DTE@@CAIXZ
?CalcAppropriateCursor@SET_CONTROL@@AEBAPEAUHICON__@@PEAVLISTBOX@@0AEBVXYPOINT@@@Z
?CVSaveValue@CUSTOM_CONTROL@@QEAAXH@Z
?CVSaveValue@CONTROL_GROUP@@IEAAXPEAVCONTROL_VALUE@@H@Z
?CVRestoreValue@CUSTOM_CONTROL@@QEAAXH@Z
?CVRestoreValue@CONTROL_GROUP@@IEAAXPEAVCONTROL_VALUE@@H@Z
?CD_VKey@USER_BROWSER_LB@@MEAAHGG@Z
?CD_VKey@STATELB@@MEAAHGG@Z
?CD_VKey@LISTBOX@@MEAAHGG@Z
?CD_VKey@CONTROL_WINDOW@@MEAAHGG@Z
?CD_Measure@CONTROL_WINDOW@@MEAAHPEAUtagMEASUREITEMSTRUCT@@@Z
?CD_Measure@BLT_LISTBOX@@MEAAHPEAUtagMEASUREITEMSTRUCT@@@Z
?CD_Guiltt@LAZY_LISTBOX@@MEAAJHPEAVNLS_STR@@@Z
?CD_Guiltt@CONTROL_WINDOW@@MEAAJHPEAVNLS_STR@@@Z
?CD_Guiltt@BLT_LISTBOX@@MEAAJHPEAVNLS_STR@@@Z
?CD_Draw@LISTBOX@@MEAAHPEAUtagDRAWITEMSTRUCT@@@Z
?CD_Draw@GRAPHICAL_BUTTON_WITH_DISABLE@@MEAAHPEAUtagDRAWITEMSTRUCT@@@Z
?CD_Draw@GRAPHICAL_BUTTON@@MEAAHPEAUtagDRAWITEMSTRUCT@@@Z
?CD_Draw@CONTROL_WINDOW@@MEAAHPEAUtagDRAWITEMSTRUCT@@@Z
?CD_Char_HAWforHawaii@USER_BROWSER_LB@@IEAAHGGPEAVHAW_FOR_HAWAII_INFO@@@Z
?CD_Char_HAWforHawaii@BLT_LISTBOX@@IEAAHGGPEAVHAW_FOR_HAWAII_INFO@@@Z
?CD_Char@USER_BROWSER_LB@@MEAAHGG@Z
?CD_Char@STATELB@@MEAAHGG@Z
?CD_Char@OUTLINE_LISTBOX@@MEAAHGG@Z
?CD_Char@LM_OLLB@@MEAAHGG@Z
?CD_Char@CONTROL_WINDOW@@MEAAHGG@Z
?CD_Char@BLT_LISTBOX_HAW@@MEAAHGG@Z
?CD_Char@BLT_LISTBOX@@MEAAHGG@Z
?CBSubclassProc@BLT_COMBOBOX@@KA_JPEAUHWND__@@I_K_J@Z
?BuildNameListFromStrList@ACCOUNT_NAMES_MLE@@IEAAJPEAVNLS_STR@@PEAVSTRLIST@@@Z
?BuildAndAddLBI@USER_BROWSER_LBI_CACHE@@IEAAJPEBG0000QEAXW4UI_SystemSid@@W4_SID_NAME_USE@@K@Z
?BitsToString@MASK_MAP@@QEAAJAEBVBITFIELD@@PEAVNLS_STR@@HPEAI@Z
?BitBlt@DEVICE_CONTEXT@@QEAAHHHHHAEBV1@HHK@Z
?BitBlt@DEVICE_CONTEXT@@QEAAHAEBVXYPOINT@@VXYDIMENSION@@AEBV1@0K@Z
?BinarySearch@USER_LBI_CACHE@@QEAAHPEAVLBI@@@Z
?BinarySearch@USER_LBI_CACHE@@QEAAHPEAU_DOMAIN_DISPLAY_USER@@@Z
?BiasMenuIds@UI_MENU_EXT@@IEAAJK@Z
?Beep@LOGON_HOURS_CONTROL@@AEBAXXZ
?BLTPoints2LogUnits@@YAHH@Z
?BLTMoveItems@SET_CONTROL@@MEAAJPEAVBLT_LISTBOX@@0@Z
?BLTDoubleChar@@YAJPEAVNLS_STR@@G@Z
?Attach@POPUP_MENU@@QEAAJAEBVPWND2HWND@@@Z
?AssignAux@ATOM_BASE@@IEAAPEBGPEBG@Z
?AreUsersShown@NT_USER_BROWSER_DIALOG@@QEBAHXZ
?ApplyPermissionsToCheckBoxes@SET_OF_AUDIT_CATEGORIES@@QEAAJPEAVBITFIELD@@0@Z
?AppendSeparator@MENU_BASE@@QEBAJXZ
?AppendDataTo@STR_DTE@@UEBAJPEAVNLS_STR@@@Z
?AppendDataTo@DM_DTE@@UEBAJPEAVNLS_STR@@@Z
?Append@SLIST_OF_USER_BROWSER_LBI@@QEAAJPEBVUSER_BROWSER_LBI@@@Z
?Append@SLIST_OF_ULC_API_BUFFER@@QEAAJPEBVULC_API_BUFFER@@@Z
?Append@SLIST_OF_UI_EXT@@QEAAJPEBVUI_EXT@@@Z
?Append@SLIST_OF_STRING_BITSET_PAIR@@QEAAJPEBVSTRING_BITSET_PAIR@@@Z
?Append@SLIST_OF_NLS_STR@@QEAAJPEBVNLS_STR@@@Z
?Append@MENU_BASE@@QEBAJPEBGPEAUHMENU__@@I@Z
?Append@MENU_BASE@@QEBAJPEBGII@Z
?Append@DLIST_OF_SPIN_ITEM@@QEAAJQEAVSPIN_ITEM@@@Z
?AliasUnicodeStrToDisplayName@USER_BROWSER_LBI@@QEAAXPEAU_UNICODE_STRING@@@Z
?AfterGroupActions@CONTROL_GROUP@@MEAAXXZ
?Advance@PROGRESS_CONTROL@@QEAAXH@Z
?Adopt@HIER_LBI@@AEAAXPEAV1@H@Z
?AdjustUpwards@LBI_HEAP@@AEAAXH@Z
?AdjustTop@XYRECT@@QEAAAEAV1@H@Z
?AdjustRight@XYRECT@@QEAAAEAV1@H@Z
?AdjustLeft@XYRECT@@QEAAAEAV1@H@Z
?AdjustDownwards@LBI_HEAP@@AEAAXH@Z
?AdjustDescendantCount@HIER_LBI@@AEAAXH@Z
?AdjustBottom@XYRECT@@QEAAAEAV1@H@Z
?Adjust@LBI_HEAP@@QEAAXXZ
?AddWellKnownSids@USER_BROWSER_LBI_CACHE@@IEAAJPEAVADMIN_AUTHORITY@@KPEAH@Z
?AddUsers@USER_BROWSER_LBI_CACHE@@QEAAJPEAVADMIN_AUTHORITY@@PEBGHPEAH@Z
?AddSortedItems@HIER_LISTBOX@@QEAAXPEAPEAVHIER_LBI@@HPEAV2@H@Z
?AddServer@OUTLINE_LISTBOX@@QEAAHPEBG00@Z
?AddSelectedUserBrowserLBIs@NT_USER_BROWSER_DIALOG@@QEAAJPEAVUSER_BROWSER_LB@@HH@Z
?AddNode@LBITREE@@QEAAHPEAVHIER_LBI@@0H@Z
?AddItemIdemp@STRING_LIST_CONTROL@@QEAAHPEBG@Z
?AddItemIdemp@STRING_LIST_CONTROL@@QEAAHAEBVNLS_STR@@@Z
?AddItemIdemp@BLT_LISTBOX@@QEAAHPEAVLBI@@@Z
?AddItemData@LIST_CONTROL@@IEAAHPEAX@Z
?AddItem@USER_LBI_CACHE@@UEAAHPEAVLBI@@@Z
?AddItem@USER_BROWSER_LBI_CACHE@@UEAAHPEAVLBI@@@Z
?AddItem@USER_BROWSER_LB@@QEAAHPEAVLBI@@@Z
?AddItem@STRING_LIST_CONTROL@@QEAAHPEBG@Z
?AddItem@OUTLINE_LISTBOX@@IEAAHW4OUTLINE_LB_LEVEL@@HPEBG11@Z
?AddItem@LBI_HEAP@@QEAAJPEAVLBI@@@Z
?AddItem@HIER_LISTBOX@@QEAAHPEAVHIER_LBI@@0H@Z
?AddItem@BROWSER_DOMAIN_CB@@QEAAJPEAVBROWSER_DOMAIN@@@Z
?AddItem@BLT_LISTBOX@@QEAAHPEAVLBI@@@Z
?AddIdemp@ARRAY_LIST_CONTROLVAL_CID_PAIR@@QEAAHAEBVCONTROLVAL_CID_PAIR@@@Z
?AddHelpAssoc@BLTIMP@@SAJPEAUHINSTANCE__@@JKK@Z
?AddGroups@USER_BROWSER_LBI_CACHE@@IEAAJPEAVADMIN_AUTHORITY@@PEBGPEAH@Z
?AddDomain@OUTLINE_LISTBOX@@QEAAHPEBG0H@Z
?AddControl@OWNER_WINDOW@@AEAAHPEAVCONTROL_WINDOW@@@Z
?AddControl@CONTROL_TABLE@@QEAAHPEAVCONTROL_WINDOW@@@Z
?AddClient@BLTIMP@@SAJPEAUHINSTANCE__@@IIII@Z
?AddChildren@HIER_LISTBOX@@MEAAJPEAVHIER_LBI@@@Z
?AddAssociation@SPIN_GROUP@@QEAAJPEAVSPIN_ITEM@@@Z
?AddAssociation@MAGIC_GROUP@@QEAAJIPEAVCONTROL_VALUE@@@Z
?AddAliases@USER_BROWSER_LBI_CACHE@@IEAAJPEAVSAM_DOMAIN@@PEBGPEAH@Z
?AddAliases@USER_BROWSER_LBI_CACHE@@IEAAJPEAVADMIN_AUTHORITY@@PEBGPEAH@Z
?Add@SLIST_OF_USER_BROWSER_LBI@@QEAAJPEBVUSER_BROWSER_LBI@@@Z
?Add@SLIST_OF_TIMER_BASE@@QEAAJPEBVTIMER_BASE@@@Z
?Add@SLIST_OF_OS_SID@@QEAAJPEBVOS_SID@@@Z
?Add@SLIST_OF_NLS_STR@@QEAAJPEBVNLS_STR@@@Z
?Add@SLIST_OF_CLIENTDATA@@QEAAJPEBUCLIENTDATA@@@Z
?Add@SLIST_OF_ASSOCHCFILE@@QEAAJPEBVASSOCHCFILE@@@Z
?Add@MASK_MAP@@QEAAJQEAUUS_IDS_PAIRS@@G@Z
?Add@MASK_MAP@@QEAAJAEBVBITFIELD@@AEBVNLS_STR@@H@Z
?Add@HWND_DLGPTR_CACHE@@SAXPEAUHWND__@@PEAVDIALOG_WINDOW@@@Z
?Add@ARRAY_LIST_CONTROLVAL_CID_PAIR@@QEAAHAEBVCONTROLVAL_CID_PAIR@@@Z
?ActivateExtension@UI_EXT_MGR@@UEAAXPEAUHWND__@@K@Z
?ActivateAssocControls@MAGIC_GROUP@@AEAAXIIPEAVCONTROL_VALUE@@@Z
?ActionOnError@MSG_DIALOG_BASE@@MEAAHJ@Z
?AbandonAllChildren@HIER_LBI@@AEAAXXZ
?Abandon@HIER_LBI@@AEAAXXZ
??_J@YAXPEAX_KHP6APEAX0@Z@Z
??_I@YAXPEAX_KHP6AX0@Z@Z
??_H@YAXPEAX_KHP6APEAX0@Z@Z
??ZCHANGEABLE_SPIN_ITEM@@UEAAXK@Z
??YXYRECT@@QEAAAEAV0@AEBV0@@Z
??YCHANGEABLE_SPIN_ITEM@@UEAAXK@Z
??RNT_GROUP_ENUM_ITER@@QEAAPEBVNT_GROUP_ENUM_OBJ@@PEAJH@Z
??RITER_SL_NLS_STR@@QEAAPEAVNLS_STR@@XZ
??RITER_DEVICE@@QEAAPEBGXZ
??RITER_CTRL@@QEAAPEAVCONTROL_WINDOW@@XZ
??RHIER_LBI_ITERATOR@@QEAAPEAVHIER_LBI@@XZ
??RFILE3_ENUM_ITER@@QEAAPEBVFILE3_ENUM_OBJ@@PEAJH@Z
??BXYRECT@@QEBAPEBUtagRECT@@XZ
??BOS_SID@@QEBAPEAXXZ
??BNLS_STR@@QEBAPEBGXZ
??ARADIO_GROUP@@QEAAPEAVRADIO_BUTTON@@I@Z
??ADISPLAY_TABLE@@QEAAAEAPEAVDTE@@I@Z
??AARRAY_CONTROLVAL_CID_PAIR@@QEBAAEAVCONTROLVAL_CID_PAIR@@I@Z
??8XYRECT@@QEBAHAEBV0@@Z
??7CONTROL_WINDOW@@QEBAHXZ
??7BASE@@QEBAHXZ
??7ASSOCHWNDPWND@@QEBAHXZ
??7ASSOCHWNDDISP@@QEBAHXZ
??4XYRECT@@QEAAAEAV0@AEBV0@@Z
??4LOCAL_ATOM@@UEAAPEBGPEBG@Z
??4GLOBAL_ATOM@@UEAAPEBGPEBG@Z
??4ARRAY_CONTROLVAL_CID_PAIR@@QEAAAEAV0@AEAV0@@Z
??1WIN_ELLIPSIS@@QEAA@XZ
??1WINDOW@@QEAA@XZ
??1WIN32_THREAD@@UEAA@XZ
??1WIN32_SYNC_BASE@@QEAA@XZ
??1WIN32_SEMAPHORE@@QEAA@XZ
??1WIN32_MUTEX@@QEAA@XZ
??1WIN32_HANDLE@@QEAA@XZ
??1WIN32_EVENT@@QEAA@XZ
??1USRLB_NT_GROUP_ENUM@@QEAA@XZ
??1USER_LBI_CACHE@@UEAA@XZ
??1USER_BROWSER_LBI_CACHE@@UEAA@XZ
??1USER_BROWSER_LBI@@UEAA@XZ
??1USER_BROWSER_LB@@QEAA@XZ
??1ULC_API_BUFFER@@QEAA@XZ
??1UI_MENU_EXT_MGR@@UEAA@XZ
??1UI_MENU_EXT@@UEAA@XZ
??1UI_EXT_MGR_IF@@QEAA@XZ
??1UI_EXT_MGR@@QEAA@XZ
??1UI_EXT@@UEAA@XZ
??1UI_DOMAIN@@QEAA@XZ
??1TIMER_WINDOW@@QEAA@XZ
??1TIMER_BASE@@QEAA@XZ
??1TEXT_CONTROL@@QEAA@XZ
??1SYSTEM_MENU@@QEAA@XZ
??1SUBJECT_BITMAP_BLOCK@@QEAA@XZ
??1STRING_LIST_CONTROL@@QEAA@XZ
??1STRING_BITSET_PAIR@@QEAA@XZ
??1STLBITEM@@UEAA@XZ
??1STATIC_TEXT_CONTROL@@QEAA@XZ
??1STATIC_SPIN_ITEM@@QEAA@XZ
??1STATE_BUTTON_CONTROL@@QEAA@XZ
??1STATELBGRP@@QEAA@XZ
??1STATELB@@QEAA@XZ
??1STATE2_BUTTON_CONTROL@@QEAA@XZ
??1SPIN_SLT_SEPARATOR@@QEAA@XZ
??1SPIN_SLE_VALID_SECOND@@QEAA@XZ
??1SPIN_SLE_STR@@QEAA@XZ
??1SPIN_SLE_NUM_VALID@@QEAA@XZ
??1SPIN_SLE_NUM@@QEAA@XZ
??1SPIN_ITEM@@QEAA@XZ
??1SPIN_GROUP@@QEAA@XZ
??1SOLID_BRUSH@@QEAA@XZ
??1SLT_ELLIPSIS@@QEAA@XZ
??1SLT@@QEAA@XZ
??1SLIST_OF_USER_BROWSER_LBI@@QEAA@XZ
??1SLIST_OF_ULC_API_BUFFER@@QEAA@XZ
??1SLIST_OF_UI_EXT@@QEAA@XZ
??1SLIST_OF_TIMER_BASE@@QEAA@XZ
??1SLIST_OF_STRING_BITSET_PAIR@@QEAA@XZ
??1SLIST_OF_OS_SID@@QEAA@XZ
??1SLIST_OF_CLIENTDATA@@QEAA@XZ
??1SLIST_OF_ASSOCHCFILE@@QEAA@XZ
??1SLE_STRLB_GROUP@@QEAA@XZ
??1SLE_FONT@@QEAA@XZ
??1SLE@@QEAA@XZ
??1SET_OF_AUDIT_CATEGORIES@@QEAA@XZ
??1SET_CONTROL@@QEAA@XZ
??1SERVER_ENUM@@QEAA@XZ
??1SERVER1_ENUM_OBJ@@QEAA@XZ
??1SERVER1_ENUM_ITER@@QEAA@XZ
??1SERVER1_ENUM@@QEAA@XZ
??1SCREEN_DC@@QEAA@XZ
??1RITER_DL_SPIN_ITEM@@QEAA@XZ
??1RESOURCE_STR@@QEAA@XZ
??1RESOURCE_PASSWORD_DIALOG@@QEAA@XZ
??1RADIO_GROUP@@QEAA@XZ
??1RADIO_BUTTON@@QEAA@XZ
??1PUSH_BUTTON@@QEAA@XZ
??1PROMPT_FOR_ANY_DC_DLG@@QEAA@XZ
??1PROMPT_AND_CONNECT@@QEAA@XZ
??1PROGRESS_CONTROL@@QEAA@XZ
??1PROC_INSTANCE@@QEAA@XZ
??1POPUP_MENU@@QEAA@XZ
??1POPUP@@QEAA@XZ
??1PASSWORD_CONTROL@@QEAA@XZ
??1PAINT_DISPLAY_CONTEXT@@QEAA@XZ
??1OWNER_WINDOW@@QEAA@XZ
??1OUTLINE_LISTBOX@@QEAA@XZ
??1OPEN_LBOX_BASE@@QEAA@XZ
??1OPEN_LBI_BASE@@UEAA@XZ
??1OPEN_DIALOG_BASE@@QEAA@XZ
??1OLLB_ENTRY@@UEAA@XZ
??1NT_USER_BROWSER_DIALOG@@QEAA@XZ
??1NT_LOCALGROUP_BROWSER_DIALOG@@UEAA@XZ
??1NT_GROUP_ENUM_OBJ@@QEAA@XZ
??1NT_GROUP_ENUM_ITER@@QEAA@XZ
??1NT_GROUP_BROWSER_LB@@QEAA@XZ
??1NT_GROUP_BROWSER_DIALOG@@UEAA@XZ
??1NT_GLOBALGROUP_BROWSER_DIALOG@@UEAA@XZ
??1NT_FIND_ACCOUNT_DIALOG@@QEAA@XZ
??1MSG_DIALOG_BASE@@IEAA@XZ
??1MSGPOPUP_DIALOG@@QEAA@XZ
??1MLT@@QEAA@XZ
??1MLE_FONT@@QEAA@XZ
??1MLE@@QEAA@XZ
??1MENU_BASE@@QEAA@XZ
??1MEMORY_DC@@QEAA@XZ
??1MASK_MAP@@QEAA@XZ
??1MAGIC_GROUP@@QEAA@XZ
??1LOGON_HOURS_CONTROL@@QEAA@XZ
??1LOC_LM_OBJ@@QEAA@XZ
??1LOCAL_ATOM@@QEAA@XZ
??1LM_OLLB@@QEAA@XZ
??1LM_MESSAGE@@QEAA@XZ
??1LM_FILE_2@@QEAA@XZ
??1LIST_CONTROL@@IEAA@XZ
??1LISTBOX@@QEAA@XZ
??1LB_COL_WIDTHS@@QEAA@XZ
??1LBI_HEAP@@QEAA@XZ
??1LBITREE@@QEAA@XZ
??1LBI@@UEAA@XZ
??1LAZY_LISTBOX@@QEAA@XZ
??1ITER_SL_USER_BROWSER_LBI@@QEAA@XZ
??1ITER_SL_UI_EXT@@QEAA@XZ
??1ITER_SL_TIMER_BASE@@QEAA@XZ
??1ITER_SL_STRING_BITSET_PAIR@@QEAA@XZ
??1ITER_SL_CLIENTDATA@@QEAA@XZ
??1ITER_SL_ASSOCHCFILE@@QEAA@XZ
??1ITER_DL_SPIN_ITEM@@QEAA@XZ
??1ICON_CONTROL@@QEAA@XZ
??1ICANON_SLE@@QEAA@XZ
??1H_SPLITTER_BAR@@QEAA@XZ
??1HIER_LISTBOX@@QEAA@XZ
??1HIER_LBI_ITERATOR@@QEAA@XZ
??1HIER_LBI@@UEAA@XZ
??1HEX_STR@@QEAA@XZ
??1HAW_FOR_HAWAII_INFO@@QEAA@XZ
??1GRAPHICAL_BUTTON_WITH_DISABLE@@QEAA@XZ
??1GRAPHICAL_BUTTON@@QEAA@XZ
??1GLOBAL_ATOM@@QEAA@XZ
??1GET_FNAME_BASE_DLG@@IEAA@XZ
??1FONT@@QEAA@XZ
??1FOCUS_CHECKBOX@@QEAA@XZ
??1FOCUSDLG_DATA_THREAD@@UEAA@XZ
??1FILE3_ENUM_OBJ@@QEAA@XZ
??1FILE3_ENUM_ITER@@QEAA@XZ
??1FILE3_ENUM@@QEAA@XZ
??1EXPANDABLE_DIALOG@@QEAA@XZ
??1ENUM_OBJ_BASE@@IEAA@XZ
??1EDIT_CONTROL@@QEAA@XZ
??1DOMAIN_FILL_THREAD@@UEAA@XZ
??1DMID_DTE@@QEAA@XZ
??1DLIST_OF_SPIN_ITEM@@QEAA@XZ
??1DLGLOAD@@QEAA@XZ
??1DISPLAY_MAP@@QEAA@XZ
??1DISPLAY_CONTEXT@@QEAA@XZ
??1DISPATCHER@@IEAA@XZ
??1DIALOG_WINDOW@@QEAA@XZ
??1DEC_STR@@QEAA@XZ
??1DEC_SLT@@QEAA@XZ
??1CUSTOM_CONTROL@@QEAA@XZ
??1CONTROL_WINDOW@@QEAA@XZ
??1CONTROL_TABLE@@QEAA@XZ
??1COMBOBOX@@QEAA@XZ
??1CLIENT_WINDOW@@QEAA@XZ
??1CHECKBOX@@QEAA@XZ
??1CHANGEABLE_SPIN_ITEM@@QEAA@XZ
??1CANCEL_TASK_DIALOG@@QEAA@XZ
??1BUTTON_CONTROL@@QEAA@XZ
??1BROWSER_SUBJECT_ITER@@QEAA@XZ
??1BROWSER_SUBJECT@@QEAA@XZ
??1BROWSER_DOMAIN_LBI_PB@@UEAA@XZ
??1BROWSER_DOMAIN_LBI@@UEAA@XZ
??1BROWSER_DOMAIN_LB@@QEAA@XZ
??1BROWSER_DOMAIN_CB@@QEAA@XZ
??1BROWSER_DOMAIN@@QEAA@XZ
??1BLT_TIME_SPIN_GROUP@@QEAA@XZ
??1BLT_SCRATCH@@QEAA@XZ
??1BLT_MASTER_TIMER@@QEAA@XZ
??1BLT_LISTBOX@@QEAA@XZ
??1BLT_DATE_SPIN_GROUP@@QEAA@XZ
??1BLT_COMBOBOX@@QEAA@XZ
??1BLT_BACKGROUND_EDIT@@QEAA@XZ
??1BIT_MAP@@QEAA@XZ
??1BASE_SET_FOCUS_DLG@@QEAA@XZ
??1BASE_PASSWORD_DIALOG@@QEAA@XZ
??1BASE_ELLIPSIS@@QEAA@XZ
??1AUTO_CURSOR@@QEAA@XZ
??1AUDIT_CHECKBOXES@@QEAA@XZ
??1ATOM_BASE@@IEAA@XZ
??1ASSOCHWNDTHIS@@QEAA@XZ
??1ASSOCHWNDPWND@@QEAA@XZ
??1ASSOCHWNDPDLG@@QEAA@XZ
??1ASSOCHWNDDISP@@QEAA@XZ
??1ASSOCHCFILE@@QEAA@XZ
??1ARROW_BUTTON@@QEAA@XZ
??1ARRAY_LIST_CONTROLVAL_CID_PAIR@@QEAA@XZ
??1ARRAY_CONTROLVAL_CID_PAIR@@QEAA@XZ
??1APP_WINDOW@@IEAA@XZ
??1APPLICATION@@IEAA@XZ
??1ALLOC_STR@@QEAA@XZ
??1ALIAS_STR@@QEAA@XZ
??1ACCOUNT_NAMES_MLE@@QEAA@XZ
??1ACCELTABLE@@QEAA@XZ
??0XYRECT@@QEAA@XZ
??0XYRECT@@QEAA@VXYPOINT@@VXYDIMENSION@@@Z
??0XYRECT@@QEAA@VXYPOINT@@0@Z
??0XYRECT@@QEAA@PEBVWINDOW@@H@Z
??0XYRECT@@QEAA@PEAUHWND__@@H@Z
??0XYRECT@@QEAA@HHHH@Z
??0XYRECT@@QEAA@AEBV0@@Z
??0XYRECT@@QEAA@AEBUtagRECT@@@Z
??0XYPOINT@@QEAA@_J@Z
??0XYPOINT@@QEAA@HH@Z
??0XYPOINT@@QEAA@AEBUtagPOINT@@@Z
??0XYDIMENSION@@QEAA@II@Z
??0XYDIMENSION@@QEAA@AEBUtagSIZE@@@Z
??0WIN_ELLIPSIS@@QEAA@PEAVWINDOW@@W4ELLIPSIS_STYLE@@@Z
??0WIN_ELLIPSIS@@QEAA@PEAVWINDOW@@PEAUHDC__@@PEBUtagRECT@@W4ELLIPSIS_STYLE@@@Z
??0WINDOW_TIMER@@QEAA@PEAUHWND__@@KHH@Z
??0WINDOW@@QEAA@XZ
??0WINDOW@@QEAA@PEBGKPEBV0@I@Z
??0WINDOW@@QEAA@PEAUHWND__@@@Z
??0WINDOW@@QEAA@AEBV0@@Z
??0WIN32_THREAD@@QEAA@HIPEBG@Z
??0WIN32_SYNC_BASE@@IEAA@PEAX@Z
??0WIN32_SEMAPHORE@@QEAA@PEBGJJ@Z
??0WIN32_MUTEX@@QEAA@PEBGH@Z
??0WIN32_HANDLE@@QEAA@PEAX@Z
??0WIN32_EVENT@@QEAA@PEBGHH@Z
??0USRLB_NT_GROUP_ENUM@@QEAA@PEBVSAM_DOMAIN@@@Z
??0USER_LBI_CACHE@@QEAA@H@Z
??0USER_BROWSER_LBI_CACHE@@QEAA@XZ
??0USER_BROWSER_LBI@@QEAA@PEBG0000QEAXW4UI_SystemSid@@W4_SID_NAME_USE@@K@Z
??0USER_BROWSER_LB@@QEAA@PEAVOWNER_WINDOW@@I@Z
??0ULC_API_BUFFER@@QEAA@PEAU_DOMAIN_DISPLAY_USER@@K@Z
??0UI_MENU_EXT_MGR@@QEAA@PEAVUI_EXT_MGR_IF@@KK@Z
??0UI_MENU_EXT@@IEAA@PEBGK@Z
??0UI_EXT_MGR_IF@@IEAA@XZ
??0UI_EXT_MGR@@QEAA@PEAVUI_EXT_MGR_IF@@KK@Z
??0UI_EXT@@IEAA@PEBGK@Z
??0UI_DOMAIN@@QEAA@AEAVPWND2HWND@@KPEBGH@Z
??0TIMER_WINDOW@@QEAA@PEAVBLT_MASTER_TIMER@@@Z
??0TIMER_EVENT@@QEAA@I_K_J@Z
??0TIMER_BASE@@QEAA@KH@Z
??0TIMER@@QEAA@PEAVTIMER_CALLOUT@@KH@Z
??0TEXT_CONTROL@@QEAA@PEAVOWNER_WINDOW@@IVXYPOINT@@VXYDIMENSION@@KPEBG@Z
??0TEXT_CONTROL@@QEAA@PEAVOWNER_WINDOW@@I@Z
??0SYSTEM_MENU@@QEAA@AEBVPWND2HWND@@@Z
??0SYSMENUITEM@@QEAA@PEAVOWNER_WINDOW@@I@Z
??0SUBJECT_BITMAP_BLOCK@@QEAA@XZ
??0STR_DTE_ELLIPSIS@@QEAA@PEBGPEAVLISTBOX@@W4ELLIPSIS_STYLE@@@Z
??0STR_DTE@@QEAA@PEBG@Z
??0STRING_LIST_CONTROL@@IEAA@PEAVOWNER_WINDOW@@IHVXYPOINT@@VXYDIMENSION@@KPEBG@Z
??0STRING_LIST_CONTROL@@IEAA@PEAVOWNER_WINDOW@@IH@Z
??0STRING_LISTBOX@@QEAA@PEAVOWNER_WINDOW@@IW4FontType@@@Z
??0STRING_LISTBOX@@QEAA@PEAVOWNER_WINDOW@@IVXYPOINT@@VXYDIMENSION@@KPEBGW4FontType@@@Z
??0STRING_BITSET_PAIR@@QEAA@AEBVNLS_STR@@AEBVBITFIELD@@H@Z
??0STLBITEM@@QEAA@PEAVSTATELBGRP@@@Z
??0STATIC_TEXT_CONTROL@@QEAA@PEAVOWNER_WINDOW@@IVXYPOINT@@VXYDIMENSION@@KPEBG@Z
??0STATIC_TEXT_CONTROL@@QEAA@PEAVOWNER_WINDOW@@I@Z
??0STATIC_SPIN_ITEM@@QEAA@PEAVCONTROL_WINDOW@@@Z
??0STATE_BUTTON_CONTROL@@IEAA@PEAVOWNER_WINDOW@@IVXYPOINT@@VXYDIMENSION@@K@Z
??0STATE_BUTTON_CONTROL@@IEAA@PEAVOWNER_WINDOW@@I@Z
??0STATELBGRP@@QEAA@QEAHPEAVOWNER_WINDOW@@IHHW4FontType@@@Z
??0STATELBGRP@@QEAA@PEAVSTATELB@@@Z
??0STATELB@@QEAA@QEAHPEAVOWNER_WINDOW@@IHHW4FontType@@@Z
??0STATE2_BUTTON_CONTROL@@IEAA@PEAVOWNER_WINDOW@@I@Z
??0STANDALONE_SET_FOCUS_DLG@@QEAA@PEAUHWND__@@PEAVNLS_STR@@KW4SELECTION_TYPE@@KPEBG3K@Z
??0SPIN_SLT_SEPARATOR@@QEAA@PEAVOWNER_WINDOW@@IPEBGVXYPOINT@@VXYDIMENSION@@K@Z
??0SPIN_SLT_SEPARATOR@@QEAA@PEAVOWNER_WINDOW@@I@Z
??0SPIN_SLE_VALID_SECOND@@QEAA@PEAVOWNER_WINDOW@@IJJJJH@Z
??0SPIN_SLE_STR@@QEAA@PEAVOWNER_WINDOW@@IQEAPEBGJVXYPOINT@@VXYDIMENSION@@KHI@Z
??0SPIN_SLE_STR@@QEAA@PEAVOWNER_WINDOW@@IQEAPEBGJHI@Z
??0SPIN_SLE_STR@@QEAA@PEAVOWNER_WINDOW@@IJJVXYPOINT@@VXYDIMENSION@@KHI@Z
??0SPIN_SLE_STR@@QEAA@PEAVOWNER_WINDOW@@IJJHI@Z
??0SPIN_SLE_NUM_VALID@@QEAA@PEAVOWNER_WINDOW@@IVXYPOINT@@VXYDIMENSION@@KKKKH@Z
??0SPIN_SLE_NUM_VALID@@QEAA@PEAVOWNER_WINDOW@@IKKKH@Z
??0SPIN_SLE_NUM@@QEAA@PEAVOWNER_WINDOW@@IVXYPOINT@@VXYDIMENSION@@KKKKHI@Z
??0SPIN_SLE_NUM@@QEAA@PEAVOWNER_WINDOW@@IKKKHI@Z
??0SPIN_ITEM@@QEAA@PEAVCONTROL_WINDOW@@@Z
??0SPIN_GROUP@@QEAA@PEAVOWNER_WINDOW@@IIIVXYPOINT@@VXYDIMENSION@@KH@Z
??0SPIN_GROUP@@QEAA@PEAVOWNER_WINDOW@@IIIH@Z
??0SOLID_BRUSH@@QEAA@H@Z
??0SLT_FONT@@QEAA@PEAVOWNER_WINDOW@@IW4FontType@@@Z
??0SLT_ELLIPSIS@@QEAA@PEAVOWNER_WINDOW@@IW4ELLIPSIS_STYLE@@@Z
??0SLT_ELLIPSIS@@QEAA@PEAVOWNER_WINDOW@@IVXYPOINT@@VXYDIMENSION@@KPEBGW4ELLIPSIS_STYLE@@@Z
??0SLT@@QEAA@PEAVOWNER_WINDOW@@IVXYPOINT@@VXYDIMENSION@@KPEBG@Z
??0SLT@@QEAA@PEAVOWNER_WINDOW@@I@Z
??0SLIST_OF_USER_BROWSER_LBI@@QEAA@H@Z
??0SLIST_OF_ULC_API_BUFFER@@QEAA@H@Z
??0SLIST_OF_UI_EXT@@QEAA@H@Z
??0SLIST_OF_TIMER_BASE@@QEAA@H@Z
??0SLIST_OF_STRING_BITSET_PAIR@@QEAA@H@Z
??0SLIST_OF_OS_SID@@QEAA@H@Z
??0SLIST_OF_CLIENTDATA@@QEAA@H@Z
??0SLIST_OF_ASSOCHCFILE@@QEAA@H@Z
??0SLE_STRLB_GROUP@@QEAA@PEAVOWNER_WINDOW@@PEAVSLE@@PEAVSTRING_LISTBOX@@PEAVPUSH_BUTTON@@3@Z
??0SLE_STRIP@@QEAA@PEAVOWNER_WINDOW@@IVXYPOINT@@VXYDIMENSION@@KPEBGIH@Z
??0SLE_STRIP@@QEAA@PEAVOWNER_WINDOW@@IIH@Z
??0SLE_FONT@@QEAA@PEAVOWNER_WINDOW@@IW4FontType@@@Z
??0SLE@@QEAA@PEAVOWNER_WINDOW@@IVXYPOINT@@VXYDIMENSION@@KPEBGI@Z
??0SLE@@QEAA@PEAVOWNER_WINDOW@@II@Z
??0SET_OF_AUDIT_CATEGORIES@@QEAA@PEAVOWNER_WINDOW@@IIIPEAVMASK_MAP@@PEAVBITFIELD@@2H@Z
??0SET_CONTROL@@QEAA@PEAVOWNER_WINDOW@@IIPEAUHICON__@@1PEAVLISTBOX@@2I@Z
??0SCROLL_EVENT@@QEAA@I_K_J@Z
??0SCROLLBAR@@QEAA@PEAVOWNER_WINDOW@@IVXYPOINT@@VXYDIMENSION@@K@Z
??0SCREEN_DC@@QEAA@XZ
??0RITER_DL_SPIN_ITEM@@QEAA@AEAVDLIST@@@Z
??0RESOURCE_STR@@QEAA@J@Z
??0RESOURCE_PASSWORD_DIALOG@@QEAA@PEAUHWND__@@PEBGIK@Z
??0RADIO_GROUP@@QEAA@PEAVOWNER_WINDOW@@IHIPEAVCONTROL_GROUP@@@Z
??0RADIO_BUTTON@@QEAA@PEAVOWNER_WINDOW@@I@Z
??0PWND2HWND@@QEAA@PEAUHWND__@@@Z
??0PUSH_BUTTON@@QEAA@PEAVOWNER_WINDOW@@IVXYPOINT@@VXYDIMENSION@@K@Z
??0PUSH_BUTTON@@QEAA@PEAVOWNER_WINDOW@@I@Z
??0PROMPT_FOR_ANY_DC_DLG@@QEAA@AEAVPWND2HWND@@KPEBVNLS_STR@@PEAV2@@Z
??0PROMPT_AND_CONNECT@@QEAA@PEAUHWND__@@PEBGKI1@Z
??0PROGRESS_CONTROL@@QEAA@PEAVOWNER_WINDOW@@III@Z
??0PROC_TIMER@@QEAA@PEAUHWND__@@_KKH@Z
??0PROC_INSTANCE@@QEAA@_K@Z
??0POPUP_MENU@@QEAA@XZ
??0POPUP_MENU@@QEAA@PEAUHMENU__@@@Z
??0POPUP_MENU@@QEAA@AEBVPWND2HWND@@@Z
??0POPUP_MENU@@QEAA@AEAVIDRESOURCE@@@Z
??0POPUP@@QEAA@PEAUHWND__@@JW4MSG_SEVERITY@@KIPEAPEBVNLS_STR@@I@Z
??0POPUP@@QEAA@PEAUHWND__@@JW4MSG_SEVERITY@@IIH@Z
??0PASSWORD_CONTROL@@QEAA@PEAVOWNER_WINDOW@@IVXYPOINT@@VXYDIMENSION@@KPEBGI@Z
??0PASSWORD_CONTROL@@QEAA@PEAVOWNER_WINDOW@@II@Z
??0PAINT_DISPLAY_CONTEXT@@QEAA@PEAVWINDOW@@@Z
??0OWNINGWND@@QEAA@PEBVOWNER_WINDOW@@@Z
??0OWNINGWND@@QEAA@PEAUHWND__@@@Z
??0OWNER_WINDOW@@QEAA@XZ
??0OWNER_WINDOW@@QEAA@PEBGKPEBVWINDOW@@@Z
??0OUTLINE_LISTBOX@@QEAA@PEAVOWNER_WINDOW@@IH@Z
??0ORDER_GROUP@@QEAA@PEAVSTRING_LISTBOX@@PEAVBUTTON_CONTROL@@1PEAVCONTROL_GROUP@@@Z
??0OPEN_LBOX_BASE@@QEAA@PEAVOWNER_WINDOW@@IAEBVNLS_STR@@1@Z
??0OPEN_LBI_BASE@@QEAA@PEBG0KKK@Z
??0OPEN_DIALOG_BASE@@QEAA@PEAUHWND__@@IIIIIPEBG1PEAVOPEN_LBOX_BASE@@@Z
??0OLLB_ENTRY@@QEAA@W4OUTLINE_LB_LEVEL@@HPEBG11@Z
??0NT_USER_BROWSER_DIALOG@@QEAA@PEBGPEAUHWND__@@0KK0KKKPEBVADMIN_AUTHORITY@@@Z
??0NT_LOCALGROUP_BROWSER_DIALOG@@QEAA@PEAUHWND__@@PEAVNT_USER_BROWSER_DIALOG@@PEBG2PEBVOS_SID@@PEBVSAM_DOMAIN@@4PEAVLSA_POLICY@@2@Z
??0NT_GROUP_BROWSER_LB@@QEAA@PEAVOWNER_WINDOW@@I@Z
??0NT_GROUP_BROWSER_DIALOG@@QEAA@PEBGPEAUHWND__@@PEAVNT_USER_BROWSER_DIALOG@@00@Z
??0NT_GLOBALGROUP_BROWSER_DIALOG@@QEAA@PEAUHWND__@@PEAVNT_USER_BROWSER_DIALOG@@PEBG2PEBVOS_SID@@PEBVSAM_DOMAIN@@PEAVLSA_POLICY@@2@Z
??0NT_FIND_ACCOUNT_DIALOG@@QEAA@PEAUHWND__@@PEAVNT_USER_BROWSER_DIALOG@@PEAVBROWSER_DOMAIN_CB@@PEBGK@Z
??0MSG_DIALOG_BASE@@IEAA@PEAUHWND__@@PEBGI@Z
??0MSGPOPUP_DIALOG@@QEAA@PEAUHWND__@@AEBVNLS_STR@@JW4MSG_SEVERITY@@KIIJK@Z
??0MOUSE_EVENT@@QEAA@I_K_J@Z
??0MLT_FONT@@QEAA@PEAVOWNER_WINDOW@@IW4FontType@@@Z
??0MLT@@QEAA@PEAVOWNER_WINDOW@@IVXYPOINT@@VXYDIMENSION@@KPEBG@Z
??0MLT@@QEAA@PEAVOWNER_WINDOW@@I@Z
??0MLE_FONT@@QEAA@PEAVOWNER_WINDOW@@IW4FontType@@@Z
??0MLE@@QEAA@PEAVOWNER_WINDOW@@IVXYPOINT@@VXYDIMENSION@@KPEBGI@Z
??0MLE@@QEAA@PEAVOWNER_WINDOW@@II@Z
??0METER@@QEAA@PEAVOWNER_WINDOW@@IVXYPOINT@@VXYDIMENSION@@KK@Z
??0METER@@QEAA@PEAVOWNER_WINDOW@@IK@Z
??0MENU_BASE@@IEAA@PEAUHMENU__@@@Z
??0MENUITEM@@QEAA@PEAVAPP_WINDOW@@I@Z
??0MENUITEM@@IEAA@PEAUHMENU__@@I@Z
??0MEMORY_DC@@QEAA@AEAVDEVICE_CONTEXT@@@Z
??0MASK_MAP@@QEAA@XZ
??0MAGIC_GROUP@@QEAA@PEAVOWNER_WINDOW@@IHIPEAVCONTROL_GROUP@@@Z
??0LOGON_HOURS_CONTROL@@QEAA@PEAVOWNER_WINDOW@@IVXYPOINT@@VXYDIMENSION@@@Z
??0LOGON_HOURS_CONTROL@@QEAA@PEAVOWNER_WINDOW@@I@Z
??0LOCAL_ATOM@@QEAA@PEBG@Z
??0LM_OLLB@@QEAA@PEAVOWNER_WINDOW@@IW4SELECTION_TYPE@@PEBGKK@Z
??0LM_OLLB@@QEAA@PEAVOWNER_WINDOW@@IW4SELECTION_TYPE@@K@Z
??0LIST_CONTROL@@IEAA@PEAVOWNER_WINDOW@@IHVXYPOINT@@VXYDIMENSION@@KPEBG@Z
??0LIST_CONTROL@@IEAA@PEAVOWNER_WINDOW@@IH@Z
??0LISTBOX@@QEAA@PEAVOWNER_WINDOW@@IVXYPOINT@@VXYDIMENSION@@KHW4FontType@@H@Z
??0LISTBOX@@QEAA@PEAVOWNER_WINDOW@@IHW4FontType@@H@Z
??0LB_COL_WIDTHS@@QEAA@PEAUHWND__@@PEAUHINSTANCE__@@AEBVIDRESOURCE@@II@Z
??0LB_COLUMN_HEADER@@QEAA@PEAVOWNER_WINDOW@@IVXYPOINT@@VXYDIMENSION@@@Z
??0LBI_HEAP@@QEAA@HH@Z
??0LBITREE@@QEAA@XZ
??0LBI@@QEAA@XZ
??0LAZY_LISTBOX@@QEAA@PEAVOWNER_WINDOW@@IVXYPOINT@@VXYDIMENSION@@KHW4FontType@@@Z
??0LAZY_LISTBOX@@QEAA@PEAVOWNER_WINDOW@@IHW4FontType@@@Z
??0ITER_SL_USER_BROWSER_LBI@@QEAA@AEAVSLIST@@@Z
??0ITER_SL_UI_EXT@@QEAA@AEAVSLIST@@@Z
??0ITER_SL_TIMER_BASE@@QEAA@AEAVSLIST@@@Z
??0ITER_SL_STRING_BITSET_PAIR@@QEAA@AEAVSLIST@@@Z
??0ITER_SL_CLIENTDATA@@QEAA@AEAVSLIST@@@Z
??0ITER_SL_ASSOCHCFILE@@QEAA@AEAVSLIST@@@Z
??0ITER_DL_SPIN_ITEM@@QEAA@AEAVDLIST@@@Z
??0ITER_CTRL@@QEAA@PEBVOWNER_WINDOW@@@Z
??0IDRESOURCE@@QEAA@PEBG@Z
??0IDRESOURCE@@QEAA@I@Z
??0ICON_CONTROL@@QEAA@PEAVOWNER_WINDOW@@IVXYPOINT@@VXYDIMENSION@@KPEBG@Z
??0ICON_CONTROL@@QEAA@PEAVOWNER_WINDOW@@IVXYPOINT@@VXYDIMENSION@@AEBVIDRESOURCE@@KPEBG@Z
??0ICON_CONTROL@@QEAA@PEAVOWNER_WINDOW@@IAEBVIDRESOURCE@@@Z
??0ICON_CONTROL@@QEAA@PEAVOWNER_WINDOW@@I@Z
??0ICANON_SLE@@QEAA@PEAVOWNER_WINDOW@@IVXYPOINT@@VXYDIMENSION@@KPEBGIH@Z
??0ICANON_SLE@@QEAA@PEAVOWNER_WINDOW@@IIH@Z
??0H_SPLITTER_BAR@@QEAA@PEAVOWNER_WINDOW@@IVXYPOINT@@VXYDIMENSION@@K@Z
??0H_SPLITTER_BAR@@QEAA@PEAVOWNER_WINDOW@@I@Z
??0HIER_LISTBOX@@QEAA@PEAVOWNER_WINDOW@@IVXYPOINT@@VXYDIMENSION@@KHW4FontType@@H@Z
??0HIER_LISTBOX@@QEAA@PEAVOWNER_WINDOW@@IHW4FontType@@H@Z
??0HIER_LBI_ITERATOR@@QEAA@PEAVHIER_LBI@@H@Z
??0HIER_LBI@@QEAA@H@Z
??0HIDDEN_CONTROL@@QEAA@PEAVOWNER_WINDOW@@I@Z
??0HAW_FOR_HAWAII_INFO@@QEAA@XZ
??0HAS_MESSAGE_PUMP@@QEAA@XZ
??0GRAPHICAL_BUTTON_WITH_DISABLE@@QEAA@PEAVOWNER_WINDOW@@IIIIVXYPOINT@@VXYDIMENSION@@K@Z
??0GRAPHICAL_BUTTON_WITH_DISABLE@@QEAA@PEAVOWNER_WINDOW@@IIII@Z
??0GRAPHICAL_BUTTON@@QEAA@PEAVOWNER_WINDOW@@IPEBG1VXYPOINT@@VXYDIMENSION@@K1@Z
??0GRAPHICAL_BUTTON@@QEAA@PEAVOWNER_WINDOW@@IPEBG11@Z
??0GLOBAL_ATOM@@QEAA@PEBG@Z
??0GET_SAVE_FILENAME_DLG@@QEAA@PEAVOWNER_WINDOW@@PEBGK@Z
??0GET_OPEN_FILENAME_DLG@@QEAA@PEAVOWNER_WINDOW@@PEBGK@Z
??0GET_FNAME_BASE_DLG@@IEAA@PEAVOWNER_WINDOW@@PEBGK@Z
??0FORWARDING_BASE@@IEAA@PEAVBASE@@@Z
??0FONT@@QEAA@W4FontType@@@Z
??0FONT@@QEAA@PEBGEHW4FontAttributes@@@Z
??0FONT@@QEAA@AEBUtagLOGFONTW@@@Z
??0FOCUS_CHECKBOX@@QEAA@PEAVOWNER_WINDOW@@I@Z
??0FOCUSDLG_DATA_THREAD@@QEAA@PEAUHWND__@@KW4SELECTION_TYPE@@PEBGK@Z
??0EXPANDABLE_DIALOG@@QEAA@PEBGPEAUHWND__@@IIH@Z
??0EVENT@@QEAA@I_K_J@Z
??0ELAPSED_TIME_CONTROL@@QEAA@PEAVOWNER_WINDOW@@IIIIIIAEAVSLT@@JJJ11JJJJH@Z
??0EDIT_CONTROL@@QEAA@PEAVOWNER_WINDOW@@IVXYPOINT@@VXYDIMENSION@@KPEBGI@Z
??0EDIT_CONTROL@@QEAA@PEAVOWNER_WINDOW@@II@Z
??0DTE@@IEAA@XZ
??0DOMAIN_FILL_THREAD@@QEAA@PEAVNT_USER_BROWSER_DIALOG@@PEAVBROWSER_DOMAIN@@PEBVADMIN_AUTHORITY@@@Z
??0DOMAIN_COMBO@@QEAA@PEAVOWNER_WINDOW@@III@Z
??0DM_DTE@@QEAA@PEAVDISPLAY_MAP@@@Z
??0DM_DTE@@IEAA@XZ
??0DMID_DTE@@QEAA@I@Z
??0DLIST_OF_SPIN_ITEM@@QEAA@H@Z
??0DLGLOAD@@QEAA@PEBEIPEAUHWND__@@P6A_J1I_K_J@ZH@Z
??0DLGLOAD@@QEAA@AEBVIDRESOURCE@@PEAUHWND__@@P6A_J1I_K_J@ZH@Z
??0DISPLAY_TABLE@@QEAA@IPEBI@Z
??0DISPLAY_MAP@@QEAA@I@Z
??0DISPLAY_CONTEXT@@QEAA@PEAVWINDOW@@PEAUHDC__@@@Z
??0DISPLAY_CONTEXT@@QEAA@PEAVWINDOW@@@Z
??0DISPLAY_CONTEXT@@QEAA@PEAUHWND__@@@Z
??0DISPATCHER@@IEAA@PEAVWINDOW@@@Z
??0DISK_SPACE_SUBCLASS@@QEAA@PEAVOWNER_WINDOW@@IIIIIJJJJJH@Z
??0DIALOG_WINDOW@@QEAA@AEBVIDRESOURCE@@AEBVPWND2HWND@@H@Z
??0DIALOG_WINDOW@@IEAA@PEBEIPEAUHWND__@@H@Z
??0DEVICE_CONTEXT@@QEAA@PEAUHDC__@@@Z
??0DEVICE_COMBO@@QEAA@PEAVOWNER_WINDOW@@IW4LMO_DEVICE@@W4LMO_DEV_USAGE@@@Z
??0DEC_SLT@@QEAA@PEAVOWNER_WINDOW@@IVXYPOINT@@VXYDIMENSION@@KPEBGI@Z
??0DEC_SLT@@QEAA@PEAVOWNER_WINDOW@@II@Z
??0CUSTOM_CONTROL@@QEAA@PEAVCONTROL_WINDOW@@@Z
??0CONTROL_WINDOW@@QEAA@PEAVOWNER_WINDOW@@IVXYPOINT@@VXYDIMENSION@@KPEBG@Z
??0CONTROL_WINDOW@@QEAA@PEAVOWNER_WINDOW@@I@Z
??0CONTROL_VALUE@@QEAA@PEAVCONTROL_GROUP@@@Z
??0CONTROL_TABLE@@QEAA@XZ
??0CONTROL_GROUP@@QEAA@PEAV0@@Z
??0CONTROL_EVENT@@QEAA@I_K_J@Z
??0CONTROL_EVENT@@QEAA@II@Z
??0CONTROL_ENTRY@@AEAA@PEAVCONTROL_WINDOW@@@Z
??0CONTROLVAL_CID_PAIR@@QEAA@XZ
??0CONTROLVAL_CID_PAIR@@QEAA@IPEAVCONTROL_VALUE@@@Z
??0CONSOLE_ELLIPSIS@@QEAA@W4ELLIPSIS_STYLE@@H@Z
??0COMBOBOX@@QEAA@PEAVOWNER_WINDOW@@IIVXYPOINT@@VXYDIMENSION@@KPEBG@Z
??0COMBOBOX@@QEAA@PEAVOWNER_WINDOW@@II@Z
??0CLIENT_WINDOW@@IEAA@XZ
??0CLIENT_WINDOW@@IEAA@KPEBVWINDOW@@PEBG@Z
??0CHECKBOX@@QEAA@PEAVOWNER_WINDOW@@I@Z
??0CHANGEABLE_SPIN_ITEM@@QEAA@PEAVCONTROL_WINDOW@@KKKH@Z
??0CANCEL_TASK_DIALOG@@QEAA@IPEAUHWND__@@PEBG_KJW4ELLIPSIS_STYLE@@@Z
??0BUTTON_CONTROL@@IEAA@PEAVOWNER_WINDOW@@IVXYPOINT@@VXYDIMENSION@@K@Z
??0BUTTON_CONTROL@@IEAA@PEAVOWNER_WINDOW@@I@Z
??0BROWSER_SUBJECT_ITER@@QEAA@PEAVNT_USER_BROWSER_DIALOG@@@Z
??0BROWSER_SUBJECT@@QEAA@XZ
??0BROWSER_DOMAIN_LBI_PB@@QEAA@PEAVBROWSER_DOMAIN_LBI@@@Z
??0BROWSER_DOMAIN_LBI@@QEAA@PEAVBROWSER_DOMAIN@@@Z
??0BROWSER_DOMAIN_LB@@QEAA@PEAVOWNER_WINDOW@@IPEAVBROWSER_DOMAIN_CB@@@Z
??0BROWSER_DOMAIN_CB@@QEAA@PEAVOWNER_WINDOW@@I@Z
??0BROWSER_DOMAIN@@QEAA@PEBGPEAXHH@Z
??0BLT_TIME_SPIN_GROUP@@QEAA@PEAVOWNER_WINDOW@@AEBVINTL_PROFILE@@IIIIIIIIII@Z
??0BLT_SCRATCH@@QEAA@I@Z
??0BLT_MASTER_TIMER@@QEAA@XZ
??0BLT_LISTBOX_HAW@@QEAA@PEAVOWNER_WINDOW@@IVXYPOINT@@VXYDIMENSION@@KHW4FontType@@H@Z
??0BLT_LISTBOX_HAW@@QEAA@PEAVOWNER_WINDOW@@IHW4FontType@@H@Z
??0BLT_LISTBOX@@QEAA@PEAVOWNER_WINDOW@@IVXYPOINT@@VXYDIMENSION@@KHW4FontType@@H@Z
??0BLT_LISTBOX@@QEAA@PEAVOWNER_WINDOW@@IHW4FontType@@H@Z
??0BLT_DATE_SPIN_GROUP@@QEAA@PEAVOWNER_WINDOW@@AEBVINTL_PROFILE@@IIIIIIIII@Z
??0BLT_COMBOBOX@@QEAA@PEAVOWNER_WINDOW@@IVXYPOINT@@VXYDIMENSION@@KHW4FontType@@@Z
??0BLT_COMBOBOX@@QEAA@PEAVOWNER_WINDOW@@IHW4FontType@@@Z
??0BLT_BACKGROUND_EDIT@@QEAA@PEAVOWNER_WINDOW@@I@Z
??0BIT_MAP@@QEAA@PEAUHBITMAP__@@@Z
??0BIT_MAP@@QEAA@AEBVIDRESOURCE@@@Z
??0BASE_SET_FOCUS_DLG@@QEAA@QEAUHWND__@@W4SELECTION_TYPE@@KPEBGK2K@Z
??0BASE_PASSWORD_DIALOG@@QEAA@PEAUHWND__@@PEBGIIK1II1I1@Z
??0BASE_ELLIPSIS@@IEAA@W4ELLIPSIS_STYLE@@@Z
??0BASE@@QEAA@AEBV0@@Z
??0BASE@@IEAA@XZ
??0AUTO_CURSOR@@QEAA@PEBG@Z
??0AUDIT_CHECKBOXES@@QEAA@PEAVOWNER_WINDOW@@IIIAEBVNLS_STR@@AEBVBITFIELD@@@Z
??0ATOM_BASE@@IEAA@XZ
??0ATOM_BASE@@IEAA@G@Z
??0ASSOCHWNDTHIS@@QEAA@PEAUHWND__@@PEBX@Z
??0ASSOCHWNDPWND@@QEAA@PEAUHWND__@@PEBVCLIENT_WINDOW@@@Z
??0ASSOCHWNDPDLG@@QEAA@PEAUHWND__@@PEBVDIALOG_WINDOW@@@Z
??0ASSOCHWNDDISP@@QEAA@PEAUHWND__@@PEBVDISPATCHER@@@Z
??0ASSOCHCFILE@@QEAA@PEAUHINSTANCE__@@JKK@Z
??0ARROW_BUTTON@@QEAA@PEAVOWNER_WINDOW@@IIIIVXYPOINT@@VXYDIMENSION@@K@Z
??0ARROW_BUTTON@@QEAA@PEAVOWNER_WINDOW@@IIII@Z
??0ARRAY_LIST_CONTROLVAL_CID_PAIR@@QEAA@I@Z
??0ARRAY_CONTROLVAL_CID_PAIR@@QEAA@PEAVCONTROLVAL_CID_PAIR@@IH@Z
??0ARRAY_CONTROLVAL_CID_PAIR@@QEAA@I@Z
??0APP_WINDOW@@IEAA@VXYPOINT@@VXYDIMENSION@@AEBVNLS_STR@@AEBVIDRESOURCE@@3@Z
??0APP_WINDOW@@IEAA@AEBVNLS_STR@@AEBVIDRESOURCE@@1@Z
??0APPLICATION@@IEAA@PEAUHINSTANCE__@@HIIII@Z
??0ALLOC_STR@@QEAA@PEAGI@Z
??0ALIAS_STR@@QEAA@PEBG@Z
??0ACTIVATION_EVENT@@QEAA@I_K_J@Z
??0ACCOUNT_NAMES_MLE@@QEAA@PEAVOWNER_WINDOW@@IPEBGPEAVNT_USER_BROWSER_DIALOG@@HKW4FontType@@@Z
??0ACCELTABLE@@QEAA@AEBVIDRESOURCE@@@Z
