LIBRARY NETUI1.DLL
EXPORTS
SlowTransportWorkerThread
SetupSession
SetupNullSession
SetupNormalSession
MakeArgvArgc
MNetWkstaUserGetInfo
MNetWkstaUserEnum
MNetWkstaSetUID
MNetWkstaSetInfo
MNetWkstaGetInfo
MNetUserSetInfo
MNetUserSetGroups
MNetUserPasswordSet
MNetUserModalsSet
MNetUserModalsGet
MNetUserGetInfo
MNetUserGetGroups
MNetUserEnum
MNetUserDel
MNetUserAdd
MNetUseGetInfo
MNetUseEnum
MNetUseDel
MNetUseAdd
MNetShareSetInfo
MNetShareGetInfo
MNetShareEnumSticky
MNetShareEnum
MNetShareDelSticky
MNetShareDel
MNetShareCheck
MNetShareAdd
MNetSessionGetInfo
MNetSessionEnum
MNetSessionDel
MNetServiceInstall
MNetServiceGetInfo
MNetServiceEnum
MNetServiceControl
MNetServerSetInfo
MNetServerGetInfo
MNetServerEnum
MNetServerDiskEnum
MNetRemoteTOD
MNetMessageBufferSend
MNetLogonEnum
MNetLocalGroupAddMember
MNetGroupSetUsers
MNetGroupSetInfo
MNetGroupGetUsers
MNetGroupGetInfo
MNetGroupEnum
MNetGroupDelUser
MNetGroupDel
MNetGroupAddUser
MNetGroupAdd
MNetGetDCName
MNetFileGetInfo
MNetFileEnum
MNetFileClose
MNetErrorLogWrite
MNetErrorLogRead
MNetErrorLogClear
MNetConnectionEnum
MNetConfigSet
MNetConfigGetAll
MNetConfigGet
MNetCharDevQSetInfo
MNetCharDevQPurgeSelf
MNetCharDevQPurge
MNetCharDevQGetInfo
MNetCharDevQEnum
MNetCharDevGetInfo
MNetCharDevControl
MNetAuditWrite
MNetAuditRead
MNetAuditClear
MNetApiBufferSize
MNetApiBufferReAlloc
MNetApiBufferFree
MNetApiBufferAlloc
MNetAccessSetInfo
MNetAccessGetUserPerms
MNetAccessGetInfo
MNetAccessEnum
MNetAccessDel
MNetAccessCheck
MNetAccessAdd
MFreeMem
MDosPrintQEnum
MAllocMem
IsSlowTransport
I_MNetPathType
I_MNetPathCompare
I_MNetPathCanonicalize
I_MNetNameValidate
I_MNetNameCompare
I_MNetNameCanonicalize
I_MNetLogonControl
I_MNetComputerNameCompare
FreeArgv
DestroySession
?_RegisterIter@LM_RESUME_ENUM@@AEAAXXZ
?_RegisterIter@LM_ENUM@@AEAAXXZ
?_DeregisterIter@LM_RESUME_ENUM@@AEAAXXZ
?_DeregisterIter@LM_ENUM@@AEAAXXZ
?_DbgPrint@OS_SID@@QEBAXXZ
?_DbgPrint@OS_SECURITY_DESCRIPTOR@@QEBAXXZ
?_DbgPrint@OS_ACL@@QEBAXXZ
?_DbgPrint@OS_ACE@@QEBAXXZ
?WriteNew@NEW_LM_OBJ@@QEAAJXZ
?WriteInfo@USER_MODALS_3@@UEAAJXZ
?WriteInfo@USER_MODALS@@UEAAJXZ
?WriteInfo@NEW_LM_OBJ@@QEAAJXZ
?WriteInfo@DOMAIN@@UEAAJXZ
?WriteInfo@DEVICE@@UEAAJXZ
?Write@NEW_LM_OBJ@@QEAAJXZ
?W_Write@WKSTA_USER_1@@AEAAJXZ
?W_Write@USER_3@@IEAAJXZ
?W_Write@USER_2@@IEAAJXZ
?W_Write@SERVER_2@@AEAAJXZ
?W_Write@SERVER_1@@AEAAJXZ
?W_Write@GROUP_1@@AEAAJXZ
?W_Set@LOCATION@@AEAAJPEBGW4LOCATION_TYPE@@H@Z
?W_ServiceStart@LM_SERVICE@@AEAAJPEBG@Z
?W_ServiceControl@LM_SERVICE@@AEAAJII@Z
?W_QueryStatus@LM_SERVICE@@AEAAJPEAW4LM_SERVICE_STATUS@@PEAULM_SERVICE_OTHER_STATUS@@@Z
?W_IsWellKnownService@LM_SERVICE@@AEBAHXZ
?W_InterpretStatus@LM_SERVICE@@AEAAXPEBU_SERVICE_INFO_2@@PEAW4LM_SERVICE_STATUS@@PEAULM_SERVICE_OTHER_STATUS@@@Z
?W_GetInfo@ENUM_CALLER@@IEAAJXZ
?W_CreateNew@USER_MEMB@@MEAAJXZ
?W_CreateNew@USER_3@@MEAAJXZ
?W_CreateNew@USER_2@@MEAAJXZ
?W_CreateNew@USER_11@@MEAAJXZ
?W_CreateNew@SHARE_2@@MEAAJXZ
?W_CreateNew@SHARE_1@@MEAAJXZ
?W_CreateNew@SHARE@@MEAAJXZ
?W_CreateNew@NEW_LM_OBJ@@MEAAJXZ
?W_CreateNew@LSA_ACCOUNT@@MEAAJXZ
?W_CreateNew@GROUP_MEMB@@MEAAJXZ
?W_CreateNew@GROUP_1@@MEAAJXZ
?W_CreateNew@ENUM_CALLER_LM_OBJ@@MEAAJXZ
?W_ComputeOtherStatus@LM_SERVICE@@AEAAXPEAULM_SERVICE_OTHER_STATUS@@@Z
?W_CloneFrom@USER_3@@IEAAJAEBV1@@Z
?W_CloneFrom@USER_2@@IEAAJAEBV1@@Z
?W_CloneFrom@USER_11@@IEAAJAEBV1@@Z
?W_CloneFrom@USER@@IEAAJAEBV1@@Z
?W_CloneFrom@SHARE_2@@IEAAJAEBV1@@Z
?W_CloneFrom@SHARE_1@@IEAAJAEBV1@@Z
?W_CloneFrom@SHARE@@IEAAJAEBV1@@Z
?W_CloneFrom@NEW_LM_OBJ@@IEAAJAEBV1@@Z
?W_CloneFrom@MEMBERSHIP_LM_OBJ@@IEAAJAEBV1@@Z
?W_CloneFrom@LOC_LM_OBJ@@IEAAJAEBV1@@Z
?W_CloneFrom@GROUP_1@@IEAAJAEBV1@@Z
?W_CloneFrom@GROUP@@IEAAJAEBV1@@Z
?W_CloneFrom@ENUM_CALLER_LM_OBJ@@IEAAJAEBV1@@Z
?W_ChangeToNew@NEW_LM_OBJ@@MEAAJXZ
?W_BuildQualifiedAccountName@NT_ACCOUNTS_UTILITY@@CAJPEAVNLS_STR@@AEBV2@PEBV2@W4_SID_NAME_USE@@@Z
?VerifyLsa@LSA_POLICY@@QEBAJPEAVLSA_PRIMARY_DOM_INFO_MEM@@PEBVNLS_STR@@@Z
?ValidateQualifiedAccountName@NT_ACCOUNTS_UTILITY@@SAJAEBVNLS_STR@@PEAH@Z
?ValidateName@LM_OBJ@@MEAAJXZ
?ValidateName@DOMAIN@@MEAAJXZ
?ValidateName@DEVICE@@MEAAJXZ
?ValidateName@COMPUTER@@AEAAJPEBG@Z
?UpgradeSamServer@ADMIN_AUTHORITY@@QEAAJK@Z
?UpgradeLSAPolicy@ADMIN_AUTHORITY@@QEAAJK@Z
?UpgradeBuiltinDomain@ADMIN_AUTHORITY@@QEAAJK@Z
?UpgradeAccountDomain@ADMIN_AUTHORITY@@QEAAJK@Z
?UpdateReferencedSecurityObject@OS_SECURITY_DESCRIPTOR@@IEAAJPEAVOS_OBJECT_WITH_DATA@@@Z
?UpdateControl@OS_SECURITY_DESCRIPTOR@@IEAAJXZ
?Unlock@SC_MANAGER@@QEAAJXZ
?TrustDomain@LSA_POLICY@@QEAAJAEBVNLS_STR@@QEAX0HPEBGH@Z
?TrustDomain@LSA_POLICY@@QEAAJAEAV1@AEBVNLS_STR@@HPEBG@Z
?TrimParams@USER_11@@QEAAJXZ
?TrimLastSubAuthority@OS_SID@@QEAAJPEAK@Z
?TranslateSidsToNames@LSA_POLICY@@QEAAJPEBQEAXKPEAVLSA_TRANSLATED_NAME_MEM@@PEAVLSA_REF_DOMAIN_MEM@@@Z
?TranslateNamesToSids@LSA_POLICY@@QEAAJPEBQEBGKPEAVLSA_TRANSLATED_SID_MEM@@PEAVLSA_REF_DOMAIN_MEM@@@Z
?TranslateNamesToRids@SAM_DOMAIN@@QEBAJPEBQEBGKPEAVSAM_RID_MEM@@PEAVSAM_SID_NAME_USE_MEM@@@Z
?TcharArrayToUnistrArray@LSA_POLICY@@IEAAJPEBQEBGPEAU_UNICODE_STRING@@K@Z
?Stop@LM_SERVICE@@QEAAJII@Z
?Start@SC_SERVICE@@QEAAJIPEAPEBG@Z
?Start@LM_SERVICE@@QEAAJPEBGII@Z
?Sort@DOMAIN0_ENUM@@QEAAXXZ
?SkipWhiteSpace@@YAXPEAPEAG@Z
?SetWriteBuffer@SHARE_2@@IEAAJH@Z
?SetWorkstations@USER_11@@QEAAJPEBG@Z
?SetValue@LM_CONFIG@@QEAAJPEAVNLS_STR@@@Z
?SetUsername@SAM_USER@@QEAAJPEBVNLS_STR@@@Z
?SetUsername@LM_SESSION_10@@IEAAJPEBG@Z
?SetUsername@DEVICE2@@IEAAJPEBG@Z
?SetUserPassRequired@USER_2@@QEAAJH@Z
?SetUserName@WKSTA_USER_1@@QEAAJPEBG@Z
?SetUserId@USER_3@@IEAAJK@Z
?SetUserFlags@USER_2@@QEAAJI@Z
?SetUserFlags@LM_SESSION_1@@IEAAXK@Z
?SetUserFlag@USER_2@@IEAAJHI@Z
?SetUserComment@USER_11@@QEAAJPEBG@Z
?SetUserCantChangePass@USER_2@@QEAAJH@Z
?SetUNCPath@NET_NAME@@AEAAJPEBG@Z
?SetTime@LM_SESSION_10@@IEAAXK@Z
?SetThreshold@USER_MODALS_3@@QEAAJK@Z
?SetStatus@DEVICE@@IEAAXI@Z
?SetSize@OS_ACL@@IEAAJIH@Z
?SetSize@OS_ACE@@QEAAJI@Z
?SetShutDownOnFull@LSA_POLICY@@QEAAJH@Z
?SetServerType@SERVER_1@@IEAAXK@Z
?SetServerRole@LSA_POLICY@@QEAAJPEBVLSA_SERVER_ROLE_INFO_MEM@@@Z
?SetServerName@NET_ACCESS@@QEAAJPEBG@Z
?SetServerName@LM_SERVICE@@IEAAJPEBG@Z
?SetServerName@DEVICE@@IEAAXPEBG@Z
?SetServer@LM_FILE@@IEAAJPEBG@Z
?SetSecurity@SERVER_2@@IEAAXI@Z
?SetSecurity@SC_SERVICE@@QEAAJKQEAX@Z
?SetScriptPath@USER_2@@QEAAJPEBG@Z
?SetSID@OS_ACE@@QEAAJAEBVOS_SID@@@Z
?SetSACL@OS_SECURITY_DESCRIPTOR@@QEAAJHPEBVOS_ACL@@H@Z
?SetResourceType@SHARE_2@@QEAAJI@Z
?SetResourceType@SHARE_1@@IEAAJI@Z
?SetRemoteType@DEVICE@@IEAAXI@Z
?SetRemoteName@DEVICE@@IEAAXPEBG@Z
?SetPtr@OS_SID@@QEAAJPEAX@Z
?SetPtr@OS_PRIVILEGE_SET@@QEAAXPEAU_PRIVILEGE_SET@@@Z
?SetPtr@OS_ACE@@QEAAJPEAX@Z
?SetProfile@USER_3@@QEAAJPEBG@Z
?SetPriv@USER_11@@QEAAJI@Z
?SetPrimaryGroupId@USER_3@@QEAAJK@Z
?SetPrimaryDomainName@LSA_POLICY@@QEAAJPEBVNLS_STR@@PEBQEAX@Z
?SetPrimaryDomain@LSA_POLICY@@QEAAJPEBVLSA_PRIMARY_DOM_INFO_MEM@@@Z
?SetPrimaryBrowserGroup@LSA_POLICY@@QEAAJAEBVNLS_STR@@@Z
?SetPosixOffset@LSA_TRUSTED_DOMAIN@@QEAAJK@Z
?SetPermissions@SHARE_2@@QEAAJI@Z
?SetPerm@NET_ACCESS_1@@QEAAJPEBGW4PERMNAME_TYPE@@I@Z
?SetPath@SHARE_2@@QEAAJPEBG@Z
?SetPasswordInfo@SAM_DOMAIN@@QEAAJPEBVSAM_PSWD_DOM_INFO_MEM@@@Z
?SetPasswordExpired@USER_3@@QEAAJK@Z
?SetPassword@USER_2@@QEAAJPEBG@Z
?SetPassword@SHARE_2@@QEAAJPEBG@Z
?SetPassword@SAM_USER@@QEAAJAEBVNLS_STR@@H@Z
?SetPassword@SAM_USER@@QEAAJAEBVNLS_STR@@0@Z
?SetPasswdHistLen@USER_MODALS@@QEAAJI@Z
?SetParms@USER_11@@QEAAJPEBG@Z
?SetOwner@OS_SECURITY_DESCRIPTOR@@QEAAJHPEBVOS_SID@@H@Z
?SetOwner@OS_SECURITY_DESCRIPTOR@@QEAAJAEBVOS_SID@@H@Z
?SetOtherDomains@WKSTA_USER_1@@QEAAJPEBG@Z
?SetObservation@USER_MODALS_3@@QEAAJK@Z
?SetNumOpens@LM_SESSION_1@@IEAAXI@Z
?SetNoPasswordExpire@USER_2@@QEAAJH@Z
?SetNoAnonChange@SAM_PSWD_DOM_INFO_MEM@@QEAAXH@Z
?SetName@USER_MEMB@@QEAAJPEBG@Z
?SetName@USER@@QEAAJPEBG@Z
?SetName@SHARE@@IEAAJPEBG@Z
?SetName@NET_ACCESS@@QEAAJPEBG@Z
?SetName@LM_SESSION@@IEAAJPEBG@Z
?SetName@LM_SERVICE@@IEAAJPEBG@Z
?SetName@GROUP_MEMB@@QEAAJPEBG@Z
?SetName@GROUP@@QEAAJPEBG@Z
?SetName@COMPUTER@@QEAAJPEBG@Z
?SetMinPasswdLen@USER_MODALS@@QEAAJI@Z
?SetMinPasswdAge@USER_MODALS@@QEAAJK@Z
?SetMaxUses@SHARE_2@@QEAAJI@Z
?SetMaxUsers@SERVER_2@@IEAAXI@Z
?SetMaxPasswdAge@USER_MODALS@@QEAAJK@Z
?SetMajorMinorVer@SERVER_1@@IEAAXII@Z
?SetLuidAndAttrib@OS_LUID_AND_ATTRIBUTES@@QEAAXU_LUID_AND_ATTRIBUTES@@@Z
?SetLogonServer@WKSTA_USER_1@@QEAAJPEBG@Z
?SetLogonHours@USER_11@@QEAAJPEBEI@Z
?SetLogonHours@USER_11@@QEAAJAEBVLOGON_HOURS_SETTING@@@Z
?SetLogonDomain@WKSTA_USER_1@@QEAAJPEBG@Z
?SetLockout@USER_2@@QEAAJH@Z
?SetInheritOnly@OS_ACE@@QEAAXH@Z
?SetInfo@LSA_SECRET@@QEAAJPEBVNLS_STR@@0@Z
?SetInfo@DEVICE@@MEAAXXZ
?SetInfo@DEVICE2@@MEAAXXZ
?SetIdleTime@LM_SESSION_10@@IEAAXK@Z
?SetHomedirDrive@USER_3@@QEAAJPEBG@Z
?SetHomeDir@USER_11@@QEAAJPEBG@Z
?SetHandle@SERVICE_CONTROL@@IEAAXPEAUSC_HANDLE__@@@Z
?SetHandle@SAM_OBJECT@@IEAAXPEAX@Z
?SetHandle@LSA_OBJECT@@IEAAXPEAX@Z
?SetGroupname@SAM_GROUP@@QEAAJPEBVNLS_STR@@@Z
?SetGroup@OS_SECURITY_DESCRIPTOR@@QEAAJHPEBVOS_SID@@H@Z
?SetGroup@OS_SECURITY_DESCRIPTOR@@QEAAJAEBVOS_SID@@H@Z
?SetFullName@USER_11@@QEAAJPEBG@Z
?SetForceLogoff@USER_MODALS@@QEAAJK@Z
?SetFileId@LM_FILE@@IEAAJK@Z
?SetDuration@USER_MODALS_3@@QEAAJK@Z
?SetDomainName@DEVICE2@@IEAAJPEBG@Z
?SetDevType@DEVICE@@IEAAXW4LMO_DEVICE@@@Z
?SetDevState@DEVICE@@IEAAXW4LMO_DEV_STATE@@@Z
?SetDACL@OS_SECURITY_DESCRIPTOR@@QEAAJHPEBVOS_ACL@@H@Z
?SetCurrentUses@SHARE_2@@IEAAJI@Z
?SetCurrentACE@OS_ACL_SUBJECT_ITER@@IEAAXK@Z
?SetCount@ENUM_CALLER@@IEAAXI@Z
?SetControllerList@LSA_TRUSTED_DOMAIN@@QEAAJPEAVLSA_REF_DOMAIN_MEM@@@Z
?SetControllerList@LSA_TRUSTED_DOMAIN@@QEAAJAEBU_TRUSTED_CONTROLLERS_INFO@@@Z
?SetComment@USER_11@@QEAAJPEBG@Z
?SetComment@SHARE_1@@QEAAJPEBG@Z
?SetComment@SERVER_1@@QEAAJPEBG@Z
?SetComment@SAM_ALIAS@@QEAAJPEBVNLS_STR@@@Z
?SetComment@GROUP_1@@QEAAJPEBG@Z
?SetClientType@LM_SESSION_2@@IEAAJPEBG@Z
?SetBufferPtr@USER2_ENUM_OBJ@@QEAAXPEBU_USER_INFO_2@@@Z
?SetBufferPtr@USER1_ENUM_OBJ@@QEAAXPEBU_USER_INFO_1@@@Z
?SetBufferPtr@USER10_ENUM_OBJ@@QEAAXPEBU_USER_INFO_10@@@Z
?SetBufferPtr@USER0_ENUM_OBJ@@QEAAXPEBU_USER_INFO_0@@@Z
?SetBufferPtr@USE1_ENUM_OBJ@@QEAAXPEBU_USE_INFO_1@@@Z
?SetBufferPtr@TRUSTED_DOMAIN_ENUM_OBJ@@QEAAXPEBU_LSA_TRUST_INFORMATION@@@Z
?SetBufferPtr@TRIPLE_SERVER_ENUM_OBJ@@QEAAXPEBU_TRIPLE_SERVER_INFO@@@Z
?SetBufferPtr@SHARE2_ENUM_OBJ@@QEAAXPEBU_SHARE_INFO_2@@@Z
?SetBufferPtr@SHARE1_ENUM_OBJ@@QEAAXPEBU_SHARE_INFO_1@@@Z
?SetBufferPtr@SESSION1_ENUM_OBJ@@QEAAXPEBU_SESSION_INFO_1@@@Z
?SetBufferPtr@SESSION0_ENUM_OBJ@@QEAAXPEBU_SESSION_INFO_0@@@Z
?SetBufferPtr@SERVICE_ENUM_OBJ@@IEAAXPEBU_ENUM_SVC_STATUS@@@Z
?SetBufferPtr@SERVER1_ENUM_OBJ@@QEAAXPEBU_SERVER_INFO_101@@@Z
?SetBufferPtr@SAM_USER_ENUM_OBJ@@QEAAXPEBU_SAM_RID_ENUMERATION@@@Z
?SetBufferPtr@NT_USER_ENUM_OBJ@@QEAAXPEBU_DOMAIN_DISPLAY_USER@@@Z
?SetBufferPtr@NT_MACHINE_ENUM_OBJ@@QEAAXPEBU_DOMAIN_DISPLAY_MACHINE@@@Z
?SetBufferPtr@NT_GROUP_ENUM_OBJ@@QEAAXPEBU_DOMAIN_DISPLAY_GROUP@@@Z
?SetBufferPtr@NEW_LM_OBJ@@IEAAXPEAE@Z
?SetBufferPtr@LSA_PRIVILEGES_ENUM_OBJ@@QEAAXPEBU_POLICY_PRIVILEGE_DEFINITION@@@Z
?SetBufferPtr@LSA_ACCOUNTS_ENUM_OBJ@@QEAAXPEBQEAX@Z
?SetBufferPtr@GROUP1_ENUM_OBJ@@QEAAXPEBU_GROUP_INFO_1@@@Z
?SetBufferPtr@GROUP0_ENUM_OBJ@@QEAAXPEBU_GROUP_INFO_0@@@Z
?SetBufferPtr@FILE3_ENUM_OBJ@@QEAAXPEBU_FILE_INFO_3@@@Z
?SetBufferPtr@FILE2_ENUM_OBJ@@QEAAXPEBU_FILE_INFO_2@@@Z
?SetBufferPtr@ENUM_OBJ_BASE@@IEAAXPEBE@Z
?SetBufferPtr@DOMAIN0_ENUM_OBJ@@QEAAXPEBU_SERVER_INFO_100@@@Z
?SetBufferPtr@CONTEXT_ENUM_OBJ@@QEAAXPEBU_SERVER_INFO_101@@@Z
?SetBufferPtr@CONN1_ENUM_OBJ@@QEAAXPEBU_CONNECTION_INFO_1@@@Z
?SetBufferPtr@CONN0_ENUM_OBJ@@QEAAXPEBU_CONNECTION_INFO_0@@@Z
?SetBufferPtr@CHARDEVQ1_ENUM_OBJ@@QEAAXPEBU_CHARDEVQ_INFO_1@@@Z
?SetBufferPtr@ALIAS_ENUM_OBJ@@QEAAXPEBU_SAM_RID_ENUMERATION@@@Z
?SetBufPtr@DEVICE@@IEAAXPEAE@Z
?SetAuthFlags@USER_11@@QEAAJK@Z
?SetAuditFlags@NET_ACCESS_1@@QEAAJF@Z
?SetAuditEventInfo@LSA_POLICY@@QEAAJPEAVLSA_AUDIT_EVENT_INFO_MEM@@@Z
?SetAdminOnly@SHARE_1@@IEAAXH@Z
?SetAccountType@USER_3@@QEAAJW4_ACCOUNT_TYPE@@@Z
?SetAccountExpires@USER_2@@QEAAJJ@Z
?SetAccountDomainName@LSA_POLICY@@QEAAJPEBVNLS_STR@@PEBQEAX@Z
?SetAccountDomain@LSA_POLICY@@QEAAJPEBVLSA_ACCT_DOM_INFO_MEM@@@Z
?SetAccountDisabled@USER_2@@QEAAJH@Z
?SetAccessMask@OS_ACE@@QEAAXK@Z
?SetABSPath@NET_NAME@@AEAAJPEBG@Z
?Set@SAM_MEMORY@@UEAAXPEAXK@Z
?Set@NT_MEMORY@@UEAAXPEAXK@Z
?Set@LSA_MEMORY@@UEAAXPEAXK@Z
?Set@LOCATION@@QEAAJAEBV1@@Z
?SendBuffer@LM_MESSAGE@@QEAAJPEBGAEBVBUFFER@@@Z
?SendBuffer@LM_MESSAGE@@QEAAJPEBG0I@Z
?ResizeBuffer@NEW_LM_OBJ@@IEAAJI@Z
?Resize@OS_OBJECT_WITH_DATA@@IEAAJI@Z
?ResetHandle@SAM_OBJECT@@IEAAXXZ
?ResetHandle@LSA_OBJECT@@IEAAXXZ
?Reset@OS_ACL_SUBJECT_ITER@@QEAAXXZ
?Reset@BROWSE_DOMAIN_ENUM@@QEAAXXZ
?ReportError@NEW_LM_OBJ@@IEAAXJ@Z
?ReportError@BASE@@IEAAXJ@Z
?ReplaceSamServer@ADMIN_AUTHORITY@@QEAAJK@Z
?ReplaceLSAPolicy@ADMIN_AUTHORITY@@QEAAJK@Z
?ReplaceBuiltinDomain@ADMIN_AUTHORITY@@QEAAJK@Z
?ReplaceAccountDomain@ADMIN_AUTHORITY@@QEAAJK@Z
?Rename@USER@@QEAAJPEBG@Z
?RemovePrivilege@OS_PRIVILEGE_SET@@QEAAJU_LUID@@@Z
?RemovePrivilege@OS_PRIVILEGE_SET@@QEAAJJ@Z
?RemoveMembers@SAM_GROUP@@QEAAJPEAKI@Z
?RemoveMembers@SAM_ALIAS@@QEAAJPEAPEAXI@Z
?RemoveMemberFromAliases@SAM_DOMAIN@@QEAAJPEAX@Z
?RemoveMember@SAM_GROUP@@QEAAJK@Z
?RemoveMember@SAM_ALIAS@@QEAAJPEAX@Z
?Remove@SLIST_OF_NLS_STR@@QEAAPEAVNLS_STR@@AEAVITER_SL_NLS_STR@@@Z
?RegisterIter@LM_RESUME_ENUM@@AEAAXXZ
?RegisterIter@LM_ENUM@@AEAAXXZ
?QueryWorkstations@USER_11@@QEBAPEBGXZ
?QueryWkstaDomain@WKSTA_10@@QEBAPEBGXZ
?QueryValue@LM_CONFIG@@QEAAJPEAVNLS_STR@@PEBG@Z
?QueryUsername@LM_SESSION_10@@QEBAPEBGXZ
?QueryUsername@LM_FILE_3@@QEBAPEBGXZ
?QueryUserPassRequired@USER_2@@QEBAHXZ
?QueryUserName@WKSTA_USER_1@@QEBAPEBGXZ
?QueryUserName@SAM_USER_ENUM_OBJ@@QEBAJPEAVNLS_STR@@@Z
?QueryUserId@USER_3@@QEBAKXZ
?QueryUserFlags@USER_2@@QEBAIXZ
?QueryUserFlags@LM_SESSION_1@@QEBAKXZ
?QueryUserFlag@USER_2@@IEBAHI@Z
?QueryUserComment@USER_11@@QEBAPEBGXZ
?QueryUserCantChangePass@USER_2@@QEBAHXZ
?QueryUse@LSA_TRANSLATED_NAME_MEM@@QEBA?AW4_SID_NAME_USE@@K@Z
?QueryUpdatePtr@SAM_PSWD_DOM_INFO_MEM@@AEBAPEAU_DOMAIN_PASSWORD_INFORMATION@@XZ
?QueryUnitsPerWeek@LOGON_HOURS_SETTING@@QEBAIXZ
?QueryUnicodeUserName@SAM_USER_ENUM_OBJ@@QEBAPEBU_UNICODE_STRING@@XZ
?QueryUnicodeName@LSA_TRUST_INFO_MEM@@QEBAPEBU_UNICODE_STRING@@K@Z
?QueryUnicodeName@LSA_TRANSLATED_NAME_MEM@@AEBAPEBU_UNICODE_STRING@@K@Z
?QueryUnicodeName@LSA_REF_DOMAIN_MEM@@AEBAPEBU_UNICODE_STRING@@K@Z
?QueryUnicodeName@LSA_PRIMARY_DOM_INFO_MEM@@QEBAPEBU_UNICODE_STRING@@XZ
?QueryUnicodeName@LSA_ACCT_DOM_INFO_MEM@@QEBAPEBU_UNICODE_STRING@@XZ
?QueryUnicodeMachine@NT_MACHINE_ENUM_OBJ@@QEBAPEBU_UNICODE_STRING@@XZ
?QueryUNCPath@NET_NAME@@QEAAJPEAVNLS_STR@@@Z
?QueryType@OS_ACE@@QEBAEXZ
?QueryType@DEVICE@@QEBAIXZ
?QueryTotalItemCount@LM_RESUME_ENUM@@QEBAIXZ
?QueryTotalAceCount@OS_ACL_SUBJECT_ITER@@IEBAKXZ
?QueryTime@LM_SESSION_10@@QEBAKXZ
?QueryThreshold@USER_MODALS_3@@QEBAKXZ
?QueryTextLength@NLS_STR@@QEBAIXZ
?QuerySystemSid@NT_ACCOUNTS_UTILITY@@SAJW4UI_SystemSid@@PEAVOS_SID@@PEBG@Z
?QuerySubAuthorityCount@OS_SID@@QEBAJPEAPEAE@Z
?QuerySubAuthority@OS_SID@@QEBAJEPEAPEAK@Z
?QueryStatus@SC_SERVICE@@QEAAJPEAU_SERVICE_STATUS@@@Z
?QueryStatus@LM_SERVICE@@QEAA?AW4LM_SERVICE_STATUS@@PEAJ@Z
?QueryStatus@DEVICE@@QEBAIXZ
?QueryState@DEVICE@@QEBA?AW4LMO_DEV_STATE@@XZ
?QuerySizeInformation@OS_ACL@@QEBAJPEAU_ACL_SIZE_INFORMATION@@@Z
?QuerySize@OS_ACE@@QEBAGXZ
?QuerySid@OS_SID@@QEBAPEAXXZ
?QueryShare@NET_NAME@@QEAAJPEAVNLS_STR@@@Z
?QueryServiceKeyName@SC_MANAGER@@QEAAJPEBGPEAVNLS_STR@@@Z
?QueryServiceDisplayName@SC_MANAGER@@QEAAJPEBGPEAVNLS_STR@@@Z
?QueryServerType@SERVER_1@@QEBAKXZ
?QueryServerType@SERVER1_ENUM_OBJ@@QEBAKXZ
?QueryServerShare@NET_NAME@@QEAAJPEAVNLS_STR@@@Z
?QueryServerName@NET_ACCESS@@QEBAPEBGXZ
?QueryServerName@LM_SERVICE@@QEBAPEBGXZ
?QueryServer@SHARE@@QEBAPEBGXZ
?QueryServer@LOC_LM_RESUME_ENUM@@QEBAPEBGXZ
?QueryServer@LOC_LM_OBJ@@IEBAPEBGXZ
?QueryServer@LOC_LM_ENUM@@QEBAPEBGXZ
?QueryServer@LOCATION@@QEBAPEBGXZ
?QueryServer@LM_SESSION@@QEBAPEBGXZ
?QueryServer@LM_FILE@@QEBAPEBGXZ
?QueryServer@DEVICE@@QEBAPEBGXZ
?QuerySecurity@SERVER_2@@QEBAIXZ
?QuerySecurity@SC_SERVICE@@QEAAJKPEAPEAX@Z
?QueryScriptPath@USER_2@@QEBAPEBGXZ
?QuerySamServer@ADMIN_AUTHORITY@@QEBAPEAVSAM_SERVER@@XZ
?QuerySIDMemory@OS_ACE@@IEBAPEAXXZ
?QuerySID@OS_ACL_SUBJECT_ITER@@QEBAPEBVOS_SID@@XZ
?QuerySID@OS_ACE@@QEBAJPEAPEAVOS_SID@@@Z
?QuerySACL@OS_SECURITY_DESCRIPTOR@@QEBAJPEAHPEAPEAVOS_ACL@@0@Z
?QueryRid@ALIAS_ENUM_OBJ@@QEBA?BKXZ
?QueryRevision@OS_ACE@@SAKXZ
?QueryResourceType@SHARE_1@@QEBAIXZ
?QueryRequiredSpace@NET_ACCESS_1@@AEBAII@Z
?QueryRemoteType@DEVICE@@QEBAIXZ
?QueryRemoteName@DEVICE@@QEBAPEBGXZ
?QueryRelativePath@NET_NAME@@QEAAJPEAVNLS_STR@@@Z
?QueryRawID@OS_SID@@QEBAJPEAVNLS_STR@@@Z
?QueryRID@SAM_ALIAS@@QEAAKXZ
?QueryPtr@SAM_RID_ENUMERATION_MEM@@QEBAPEBU_SAM_RID_ENUMERATION@@XZ
?QueryPtr@SAM_PSWD_DOM_INFO_MEM@@QEBAPEBU_DOMAIN_PASSWORD_INFORMATION@@XZ
?QueryPtr@OS_OBJECT_WITH_DATA@@IEBAPEAXXZ
?QueryPtr@LSA_TRUST_INFO_MEM@@QEBAPEBU_LSA_TRUST_INFORMATION@@XZ
?QueryPtr@LSA_TRANSLATED_SID_MEM@@AEBAPEBU_LSA_TRANSLATED_SID@@XZ
?QueryPtr@LSA_TRANSLATED_NAME_MEM@@AEBAPEBU_LSA_TRANSLATED_NAME@@XZ
?QueryPtr@LSA_SERVER_ROLE_INFO_MEM@@QEBAPEBU_POLICY_LSA_SERVER_ROLE_INFO@@XZ
?QueryPtr@LSA_REF_DOMAIN_MEM@@AEBAPEBU_LSA_TRUST_INFORMATION@@XZ
?QueryPtr@LSA_PRIMARY_DOM_INFO_MEM@@QEBAPEBU_POLICY_PRIMARY_DOMAIN_INFO@@XZ
?QueryPtr@LSA_AUDIT_EVENT_INFO_MEM@@QEBAPEAU_POLICY_AUDIT_EVENTS_INFO@@XZ
?QueryPtr@LSA_ACCT_DOM_INFO_MEM@@QEBAPEBU_POLICY_ACCOUNT_DOMAIN_INFO@@XZ
?QueryPtr@LM_ENUM@@IEBAPEAEXZ
?QueryProfile@USER_3@@QEBAPEBGXZ
?QueryProductType@LSA_POLICY@@SAJPEAW4LSPL_PROD_TYPE@@@Z
?QueryPrivilegeEnumIter@LSA_ACCOUNT@@QEAAJPEAPEAVLSA_ACCOUNT_PRIVILEGE_ENUM_ITER@@@Z
?QueryPrivilege@OS_PRIVILEGE_SET@@QEAAPEBVOS_LUID_AND_ATTRIBUTES@@J@Z
?QueryPrivSet@OS_PRIVILEGE_SET@@QEBAPEAU_PRIVILEGE_SET@@XZ
?QueryPriv@USER_11@@UEBAIXZ
?QueryPriv@LOCAL_USER@@UEBAIXZ
?QueryPrimaryGroupId@USER_3@@QEBAKXZ
?QueryPrimaryDomainName@LSA_POLICY@@QEBAJPEAVNLS_STR@@@Z
?QueryPrimaryBrowserGroup@LSA_POLICY@@QEBAJPEAVNLS_STR@@@Z
?QueryPosixOffset@LSA_TRUSTED_DOMAIN@@QEBAJPEAK@Z
?QueryPermissions@SHARE_2@@QEBAIXZ
?QueryPermission@LM_FILE_3@@QEBAIXZ
?QueryPerm@NET_ACCESS_1@@QEBAIPEBGW4PERMNAME_TYPE@@@Z
?QueryPch@NLS_STR@@QEBAPEBGXZ
?QueryPathname@LM_FILE_3@@QEBAPEBGXZ
?QueryPathName@FILE3_ENUM_OBJ@@QEBAPEBGXZ
?QueryPath@SHARE_2@@QEBAPEBGXZ
?QueryPasswordExpired@USER_3@@QEBAKXZ
?QueryPassword@USER_2@@QEBAPEBGXZ
?QueryPassword@SHARE_2@@QEBAPEBGXZ
?QueryPasswdHistLen@USER_MODALS@@QEBAIXZ
?QueryParms@USER_11@@QEBAPEBGXZ
?QueryPSID@SAM_DOMAIN@@QEBAPEAXXZ
?QueryPSID@OS_SID@@QEBAPEAXXZ
?QueryPSID@LSA_TRUST_INFO_MEM@@QEBAPEAXK@Z
?QueryPSID@LSA_REF_DOMAIN_MEM@@QEBAPEAXK@Z
?QueryPSID@LSA_PRIMARY_DOM_INFO_MEM@@QEBAPEAXXZ
?QueryPSID@LSA_DOMAIN_INFO@@QEBAQEAXXZ
?QueryPSID@LSA_ACCT_DOM_INFO_MEM@@QEBAPEAXXZ
?QueryPDC@DOMAIN@@QEBAPEBGXZ
?QueryOwner@OS_SECURITY_DESCRIPTOR@@QEBAJPEAHPEAPEAVOS_SID@@0@Z
?QueryOtherDomains@WKSTA_USER_1@@QEBAPEBGXZ
?QueryOtherDomains@WKSTA_10@@QEBAPEAVSTRLIST@@XZ
?QueryObservation@USER_MODALS_3@@QEBAKXZ
?QueryNumberOfPrivileges@OS_PRIVILEGE_SET@@QEBAKXZ
?QueryNumOpens@LM_SESSION_1@@QEBAIXZ
?QueryNumLocks@FILE3_ENUM_OBJ@@QEBAKXZ
?QueryNumLock@LM_FILE_3@@QEBAIXZ
?QueryNoPasswordExpire@USER_2@@QEBAHXZ
?QueryNoAnonChange@SAM_PSWD_DOM_INFO_MEM@@QEAAHXZ
?QueryNewObjectAuditAccessMask_S@OS_SACL_SUBJECT_ITER@@QEBAKXZ
?QueryNewObjectAuditAccessMask_F@OS_SACL_SUBJECT_ITER@@QEBAKXZ
?QueryNewObjectAccessMask@OS_DACL_SUBJECT_ITER@@QEBAKXZ
?QueryNewContainerAuditAccessMask_S@OS_SACL_SUBJECT_ITER@@QEBAKXZ
?QueryNewContainerAuditAccessMask_F@OS_SACL_SUBJECT_ITER@@QEBAKXZ
?QueryNewContainerAccessMask@OS_DACL_SUBJECT_ITER@@QEBAKXZ
?QueryName@USER_MODALS_3@@UEBAPEBGXZ
?QueryName@USER_MODALS@@UEBAPEBGXZ
?QueryName@USER_MEMB@@UEBAPEBGXZ
?QueryName@USER@@UEBAPEBGXZ
?QueryName@USER0_ENUM_OBJ@@QEBAPEBGXZ
?QueryName@SHARE@@UEBAPEBGXZ
?QueryName@SERVER_0@@UEBAPEBGXZ
?QueryName@SERVER1_ENUM_OBJ@@QEBAPEBGXZ
?QueryName@OS_SID@@QEBAJPEAVNLS_STR@@PEBGPEAX@Z
?QueryName@NEW_LM_OBJ@@UEBAPEBGXZ
?QueryName@NET_ACCESS@@UEBAPEBGXZ
?QueryName@LSA_TRUST_INFO_MEM@@QEBAJKPEAVNLS_STR@@@Z
?QueryName@LSA_TRANSLATED_NAME_MEM@@QEBAJKPEAVNLS_STR@@@Z
?QueryName@LSA_REF_DOMAIN_MEM@@QEBAJKPEAVNLS_STR@@@Z
?QueryName@LSA_PRIMARY_DOM_INFO_MEM@@QEBAJPEAVNLS_STR@@@Z
?QueryName@LSA_ACCT_DOM_INFO_MEM@@QEBAJPEAVNLS_STR@@@Z
?QueryName@LSA_ACCOUNT@@UEBAPEBGXZ
?QueryName@LOCATION@@QEBAPEBGXZ
?QueryName@LM_SESSION@@UEBAPEBGXZ
?QueryName@LM_SERVICE@@QEBAPEBGXZ
?QueryName@GROUP_MEMB@@UEBAPEBGXZ
?QueryName@GROUP@@UEBAPEBGXZ
?QueryName@GROUP0_ENUM_OBJ@@QEBAPEBGXZ
?QueryName@DOMAIN@@UEBAPEBGXZ
?QueryName@DOMAIN0_ENUM_OBJ@@QEBAPEBGXZ
?QueryName@DEVICE@@UEBAPEBGXZ
?QueryName@COMPUTER@@UEBAPEBGXZ
?QueryNOSVersion@LOCATION@@QEAAJPEAI0@Z
?QueryMinorVer@WKSTA_10@@QEBAIXZ
?QueryMinorVer@SERVER_1@@QEBAIXZ
?QueryMinorVer@SERVER1_ENUM_OBJ@@QEBAIXZ
?QueryMinPasswdLen@USER_MODALS@@QEBAIXZ
?QueryMinPasswdAge@USER_MODALS@@QEBAKXZ
?QueryMaxUses@SHARE_2@@QEBAIXZ
?QueryMaxUsers@SERVER_2@@QEBAIXZ
?QueryMaxPasswdAge@USER_MODALS@@QEBAKXZ
?QueryMajorVer@WKSTA_10@@QEBAIXZ
?QueryMajorVer@SERVER_1@@QEBAIXZ
?QueryMajorVer@SERVER1_ENUM_OBJ@@QEBAIXZ
?QueryLuid@OS_LUID@@QEBA?AU_LUID@@XZ
?QueryLogonUser@WKSTA_10@@QEBAPEBGXZ
?QueryLogonServer@WKSTA_USER_1@@QEBAPEBGXZ
?QueryLogonServer@WKSTA_1@@QEBAPEBGXZ
?QueryLogonHours@USER_11@@QEBAAEBVLOGON_HOURS_SETTING@@XZ
?QueryLogonDomain@WKSTA_USER_1@@QEBAPEBGXZ
?QueryLogonDomain@WKSTA_10@@QEBAPEBGXZ
?QueryLockout@USER_2@@QEBAHXZ
?QueryLockStatus@SC_MANAGER@@QEAAJPEAPEAU_QUERY_SERVICE_LOCK_STATUSW@@@Z
?QueryLocalPath@NET_NAME@@QEAAJPEAVNLS_STR@@@Z
?QueryLocalDrive@NET_NAME@@QEAAJPEAVNLS_STR@@@Z
?QueryLength@OS_SID@@QEBAKXZ
?QueryLastSubAuthority@OS_SID@@QEBAJPEAPEAK@Z
?QueryLastComponent@NET_NAME@@QEAAJPEAVNLS_STR@@@Z
?QueryLSAPolicy@ADMIN_AUTHORITY@@QEBAPEAVLSA_POLICY@@XZ
?QueryLMRoot@WKSTA_1@@QEBAPEBGXZ
?QueryItemSize@MEMBERSHIP_LM_OBJ@@MEBAIXZ
?QueryItemCount@LM_RESUME_BUFFER@@QEBAIXZ
?QueryInheritOnlyAuditAccessMask_S@OS_SACL_SUBJECT_ITER@@QEBAKXZ
?QueryInheritOnlyAuditAccessMask_F@OS_SACL_SUBJECT_ITER@@QEBAKXZ
?QueryInheritOnlyAccessMask@OS_DACL_SUBJECT_ITER@@QEBAKXZ
?QueryInfoLevel@LM_RESUME_ENUM@@QEBAIXZ
?QueryInfoLevel@LM_ENUM@@QEBAIXZ
?QueryInfo@LSA_TRUSTED_DC_LIST@@AEAAJAEBVNLS_STR@@PEBG@Z
?QueryInfo@LSA_SECRET@@QEBAJPEAVNLS_STR@@0PEAT_LARGE_INTEGER@@1@Z
?QueryIdleTime@LM_SESSION_10@@QEBAKXZ
?QueryHoursBlock@LOGON_HOURS_SETTING@@QEBAPEAEXZ
?QueryHomedirDrive@USER_3@@QEBAPEBGXZ
?QueryHomeDir@USER_11@@QEBAPEBGXZ
?QueryHandle@SERVICE_CONTROL@@QEBAPEAUSC_HANDLE__@@XZ
?QueryHandle@SAM_OBJECT@@QEBAPEAXXZ
?QueryHandle@LSA_OBJECT@@QEBAPEAXXZ
?QueryGroup@OS_SECURITY_DESCRIPTOR@@QEBAJPEAHPEAPEAVOS_SID@@0@Z
?QueryFullStatus@LM_SERVICE@@QEAAJPEAW4LM_SERVICE_STATUS@@PEAULM_SERVICE_OTHER_STATUS@@@Z
?QueryFullName@USER_11@@QEBAPEBGXZ
?QueryForceLogoff@USER_MODALS@@QEBAKXZ
?QueryFileId@LM_FILE@@QEBAKXZ
?QueryFailingNameIndex@LSA_TRANSLATED_SID_MEM@@QEAAHPEAK@Z
?QueryFailingName@NET_ACCESS_1@@QEBAJPEAVNLS_STR@@PEAW4PERMNAME_TYPE@@@Z
?QueryExitCode@LM_SERVICE@@QEBAJXZ
?QueryError@BASE@@QEBAJXZ
?QueryDuration@USER_MODALS_3@@QEBAKXZ
?QueryDrive@NET_NAME@@QEAAJPEAVNLS_STR@@@Z
?QueryDomainSources@BROWSE_DOMAIN_INFO@@QEBAKXZ
?QueryDomainName@BROWSE_DOMAIN_INFO@@QEBAPEBGXZ
?QueryDomainIndex@LSA_TRANSLATED_NAME_MEM@@QEBAJK@Z
?QueryDomain@LOCATION@@QEBAPEBGXZ
?QueryDisplayName@LSA_PRIVILEGES_ENUM_OBJ@@QEBAJPEAVNLS_STR@@PEBVLSA_POLICY@@@Z
?QueryDisplayName@LOCATION@@QEBAJPEAVNLS_STR@@@Z
?QueryDevType@DEVICE@@IEBA?AW4LMO_DEVICE@@XZ
?QueryDcName@LSA_DOMAIN_INFO@@QEAAJPEAVNLS_STR@@@Z
?QueryDACL@OS_SECURITY_DESCRIPTOR@@QEBAJPEAHPEAPEAVOS_ACL@@0@Z
?QueryCurrentUses@SHARE_2@@QEBAIXZ
?QueryCurrentUser@LSA_POLICY@@QEBAJPEAVNLS_STR@@@Z
?QueryCurrentACE@OS_ACL_SUBJECT_ITER@@IEBAKXZ
?QueryCountPreferences@NT_ACCOUNT_ENUM@@MEAAJPEAK0IKKK@Z
?QueryCountPreferences2@NT_ACCOUNT_ENUM@@KAJPEAK0IKKK@Z
?QueryCount@NT_MEMORY@@QEBAKXZ
?QueryCount@LSA_TRUSTED_DC_LIST@@QEAAHXZ
?QueryCount@LM_RESUME_ENUM_ITER@@IEBAIXZ
?QueryCount@LM_ENUM_ITER@@IEBAIXZ
?QueryCount@ENUM_CALLER@@QEBAIXZ
?QueryControllerList@LSA_TRUSTED_DOMAIN@@QEBAJPEAVLSA_REF_DOMAIN_MEM@@@Z
?QueryControllerList@LSA_TRUSTED_DC_LIST@@QEBAAEBU_TRUSTED_CONTROLLERS_INFO@@XZ
?QueryControl@OS_SECURITY_DESCRIPTOR@@QEBAPEBVOS_SECURITY_DESCRIPTOR_CONTROL@@XZ
?QueryConfig@SC_SERVICE@@QEAAJPEAPEAU_QUERY_SERVICE_CONFIGW@@@Z
?QueryComputerName@NET_NAME@@QEAAJPEAVNLS_STR@@@Z
?QueryComment@USER_11@@QEBAPEBGXZ
?QueryComment@SHARE_1@@QEBAPEBGXZ
?QueryComment@SERVER_1@@QEBAPEBGXZ
?QueryComment@SERVER1_ENUM_OBJ@@QEBAPEBGXZ
?QueryComment@GROUP_1@@QEBAPEBGXZ
?QueryClientType@LM_SESSION_2@@QEBAPEBGXZ
?QueryBytesInUse@OS_ACL@@QEBAJPEAK@Z
?QueryBuiltinDomain@ADMIN_AUTHORITY@@QEBAPEAVSAM_DOMAIN@@XZ
?QueryBufferSize@NEW_LM_OBJ@@IEBAIXZ
?QueryBufferPtr@USER0_ENUM_OBJ@@QEBAPEBU_USER_INFO_0@@XZ
?QueryBufferPtr@SERVER1_ENUM_OBJ@@QEBAPEBU_SERVER_INFO_101@@XZ
?QueryBufferPtr@SAM_USER_ENUM_OBJ@@QEBAPEBU_SAM_RID_ENUMERATION@@XZ
?QueryBufferPtr@NT_MACHINE_ENUM_OBJ@@QEBAPEBU_DOMAIN_DISPLAY_MACHINE@@XZ
?QueryBufferPtr@NEW_LM_OBJ@@IEBAPEAEXZ
?QueryBufferPtr@LSA_PRIVILEGES_ENUM_OBJ@@QEBAPEBU_POLICY_PRIVILEGE_DEFINITION@@XZ
?QueryBufferPtr@LM_RESUME_BUFFER@@QEBAPEBEXZ
?QueryBufferPtr@GROUP0_ENUM_OBJ@@QEBAPEBU_GROUP_INFO_0@@XZ
?QueryBufferPtr@FILE3_ENUM_OBJ@@QEBAPEBU_FILE_INFO_3@@XZ
?QueryBufferPtr@ENUM_OBJ_BASE@@IEBAPEBEXZ
?QueryBufferPtr@DOMAIN0_ENUM_OBJ@@QEBAPEBU_SERVER_INFO_100@@XZ
?QueryBufferPtr@ALIAS_ENUM_OBJ@@QEBAPEBU_SAM_RID_ENUMERATION@@XZ
?QueryBuffer@SERVICE_CONTROL@@QEBAAEBVBUFFER@@XZ
?QueryBuffer@NT_MEMORY@@IEBAPEAXXZ
?QueryBufPtr@DEVICE@@IEAAPEAEXZ
?QueryBasePtr@LM_RESUME_ENUM_ITER@@IEBAPEBEXZ
?QueryBasePtr@LM_ENUM_ITER@@IEBAPEAEXZ
?QueryAuthFlags@USER_11@@UEBAKXZ
?QueryAuthFlags@LOCAL_USER@@UEBAKXZ
?QueryAuditAccessMask_S@OS_SACL_SUBJECT_ITER@@QEBAKXZ
?QueryAuditAccessMask_F@OS_SACL_SUBJECT_ITER@@QEBAKXZ
?QueryAssocName@MEMBERSHIP_LM_OBJ@@QEBAPEBGI@Z
?QueryAnyDC@DOMAIN@@QEBAPEBGXZ
?QueryAllocSize@OS_OBJECT_WITH_DATA@@IEBAIXZ
?QueryAcl@OS_ACL@@QEBAPEAU_ACL@@XZ
?QueryAceFlags@OS_ACE@@QEBAEXZ
?QueryAccountType@USER_3@@QEBA?AW4_ACCOUNT_TYPE@@XZ
?QueryAccountExpires@USER_2@@QEBAJXZ
?QueryAccountDomain@ADMIN_AUTHORITY@@QEBAPEAVSAM_DOMAIN@@XZ
?QueryAccountDisabled@USER_2@@QEBAHXZ
?QueryAccountCtrl@NT_MACHINE_ENUM_OBJ@@QEBAIXZ
?QueryAccessSamServer@ADMIN_AUTHORITY@@QEBAKXZ
?QueryAccessMask@OS_DACL_SUBJECT_ITER@@QEBAKXZ
?QueryAccessMask@OS_ACE@@QEBAKXZ
?QueryAccessLSAPolicy@ADMIN_AUTHORITY@@QEBAKXZ
?QueryAccessBuiltinDomain@ADMIN_AUTHORITY@@QEBAKXZ
?QueryAccessAccountDomain@ADMIN_AUTHORITY@@QEBAKXZ
?QueryACL@OS_ACL_SUBJECT_ITER@@IEBAPEBVOS_ACL@@XZ
?QueryACECount@OS_ACL@@QEBAJPEAK@Z
?QueryACECount@NET_ACCESS_1@@QEBAIXZ
?QueryACE@OS_ACL@@QEBAJKPEAVOS_ACE@@@Z
?QueryACE@OS_ACE@@QEBAPEAXXZ
?QueryACE@NET_ACCESS_1@@QEBAPEAU_ACCESS_LIST@@I@Z
?PrintInfo@LSA_ACCOUNT@@IEAAXPEBG@Z
?Poll@LM_SERVICE@@QEAAJPEAH@Z
?Pause@LM_SERVICE@@QEAAJII@Z
?OpenDomain@SAM_DOMAIN@@AEAAJAEBVSAM_SERVER@@PEAXK@Z
?Open@LSA_SECRET@@QEAAJAEBVLSA_POLICY@@K@Z
?Open@LSA_POLICY@@QEAAJPEBGK@Z
?NukeUsersSession@LM_SRVRES@@SAJPEBG00@Z
?NukeBuffers@LM_RESUME_ENUM@@IEAAXXZ
?NextGetInfo@LM_RESUME_ENUM_ITER@@IEAAJXZ
?Next@USER2_ENUM_ITER@@QEAAPEBVUSER2_ENUM_OBJ@@PEAJH@Z
?Next@USER1_ENUM_ITER@@QEAAPEBVUSER1_ENUM_OBJ@@PEAJH@Z
?Next@USER10_ENUM_ITER@@QEAAPEBVUSER10_ENUM_OBJ@@PEAJH@Z
?Next@USER0_ENUM_ITER@@QEAAPEBVUSER0_ENUM_OBJ@@PEAJH@Z
?Next@TRUSTED_DOMAIN_ENUM_ITER@@QEAAPEBVTRUSTED_DOMAIN_ENUM_OBJ@@PEAJH@Z
?Next@SAM_USER_ENUM_ITER@@QEAAPEBVSAM_USER_ENUM_OBJ@@PEAJH@Z
?Next@OS_SACL_SUBJECT_ITER@@UEAAHPEAJ@Z
?Next@OS_DACL_SUBJECT_ITER@@UEAAHPEAJ@Z
?Next@NT_USER_ENUM_ITER@@QEAAPEBVNT_USER_ENUM_OBJ@@PEAJH@Z
?Next@NT_MACHINE_ENUM_ITER@@QEAAPEBVNT_MACHINE_ENUM_OBJ@@PEAJH@Z
?Next@NT_GROUP_ENUM_ITER@@QEAAPEBVNT_GROUP_ENUM_OBJ@@PEAJH@Z
?Next@LSA_PRIVILEGES_ENUM_ITER@@QEAAPEBVLSA_PRIVILEGES_ENUM_OBJ@@PEAJH@Z
?Next@LSA_ACCOUNTS_ENUM_ITER@@QEAAPEBVLSA_ACCOUNTS_ENUM_OBJ@@PEAJH@Z
?Next@ITER_SL_NLS_STR@@QEAAPEAVNLS_STR@@XZ
?Next@ITER_SL_LM_RESUME_BUFFER@@QEAAPEAVLM_RESUME_BUFFER@@XZ
?Next@ITER_SL_BROWSE_DOMAIN_INFO@@QEAAPEAVBROWSE_DOMAIN_INFO@@XZ
?Next@ITER_DEVICE@@QEAAPEBGXZ
?Next@FILE3_ENUM_ITER@@QEAAPEBVFILE3_ENUM_OBJ@@PEAJH@Z
?Next@FILE2_ENUM_ITER@@QEAAPEBVFILE2_ENUM_OBJ@@PEAJH@Z
?Next@BROWSE_DOMAIN_ENUM@@QEAAPEBVBROWSE_DOMAIN_INFO@@XZ
?Next@ALIAS_ENUM_ITER@@QEAAPEBVALIAS_ENUM_OBJ@@PEAJH@Z
?NetTypeToLMOType@@YA?AW4LMO_DEVICE@@K@Z
?MapTypeMaskToType@TRIPLE_SERVER_ENUM@@AEBA?AW4_SERVER_TYPE@@K@Z
?MapTypeMaskToRole@TRIPLE_SERVER_ENUM@@AEBA?AW4_SERVER_ROLE@@K@Z
?MapSpecificToGeneric@OS_ACL_SUBJECT_ITER@@QEAAJPEAKH@Z
?MapNtToKnown@TRIPLE_SERVER_ENUM@@AEAAXPEBU_DOMAIN_DISPLAY_MACHINE@@PEAU_KNOWN_SERVER_INFO@@@Z
?MapLmToKnown@TRIPLE_SERVER_ENUM@@AEAAXPEBU_USER_INFO_0@@PEAU_KNOWN_SERVER_INFO@@@Z
?MapLmStatusToNtState@SERVICE_ENUM@@AEAAXKPEAK0@Z
?MapLPT@@YAKPEBG@Z
?MapKnownToTriple@TRIPLE_SERVER_ENUM@@AEAAXPEBU_KNOWN_SERVER_INFO@@PEAU_TRIPLE_SERVER_INFO@@@Z
?MapGenericAllOnly@OS_ACL_SUBJECT_ITER@@QEBAHXZ
?MapDrive@@YAKPEBG@Z
?MapComm@@YAKPEBG@Z
?MapBrowserToTriple@TRIPLE_SERVER_ENUM@@AEAAXPEBU_SERVER_INFO_101@@PEAU_TRIPLE_SERVER_INFO@@@Z
?MakeValid@LM_OBJ_BASE@@AEAAXXZ
?MakeValid@LM_OBJ@@IEAAXXZ
?MakeUnconstructed@LM_OBJ_BASE@@AEAAXXZ
?MakeUnconstructed@LM_OBJ@@IEAAXXZ
?MakeSecretName@LSA_POLICY@@CAJAEBVNLS_STR@@HPEAV2@@Z
?MakeNullNull@@YAKPEBGPEAPEAG@Z
?MakeNew@NEW_LM_OBJ@@AEAAXXZ
?MakeInvalid@LM_OBJ_BASE@@AEAAXXZ
?MakeInvalid@LM_OBJ@@IEAAXXZ
?MakeConstructed@LM_OBJ_BASE@@AEAAXXZ
?MakeConstructed@LM_OBJ@@IEAAXXZ
?LsaxGetComputerName@@YAJPEAVNLS_STR@@@Z
?Lock@SC_MANAGER@@QEAAJXZ
?LeaveDomain@LSA_POLICY@@QEAAJXZ
?LeaveCriticalSection@DOMAIN_WITH_DC_CACHE@@CAXXZ
?LMOTypeToNetType@@YAHW4LMO_DEVICE@@@Z
?JoinDomain@LSA_POLICY@@QEAAJAEBVNLS_STR@@0HPEBV2@PEBG@Z
?IsWhiteSpace@@YAHG@Z
?IsValidationOn@LM_OBJ_BASE@@QEAAHXZ
?IsValidDC@DOMAIN@@SAHPEBG0@Z
?IsValid@OS_SID@@QEBAHXZ
?IsValid@OS_SECURITY_DESCRIPTOR@@QEBAHXZ
?IsValid@OS_ACL@@QEBAHXZ
?IsValid@LM_OBJ_BASE@@AEBAHXZ
?IsValid@LM_OBJ@@IEBAHXZ
?IsUnconstructed@LM_OBJ_BASE@@AEBAHXZ
?IsUnconstructed@LM_OBJ@@IEBAHXZ
?IsStopping@LM_SERVICE@@QEAAHPEAJ@Z
?IsStopped@LM_SERVICE@@QEAAHPEAJ@Z
?IsStarting@LM_SERVICE@@QEAAHPEAJ@Z
?IsStarted@LM_SERVICE@@QEAAHPEAJ@Z
?IsSharable@NET_NAME@@QEAAHPEAJ@Z
?IsServerOperator@USER_11@@QEBAHXZ
?IsServer@LOCATION@@QEBAHXZ
?IsSACLPresent@OS_SECURITY_DESCRIPTOR_CONTROL@@QEBAHXZ
?IsSACLPresent@OS_SECURITY_DESCRIPTOR@@QEBAHXZ
?IsSACLDefaulted@OS_SECURITY_DESCRIPTOR_CONTROL@@QEBAHXZ
?IsPrintOperator@USER_11@@QEBAHXZ
?IsPermWrite@LM_FILE_3@@QEBAHXZ
?IsPermRead@LM_FILE_3@@QEBAHXZ
?IsPermCreate@LM_FILE_3@@QEBAHXZ
?IsPausing@LM_SERVICE@@QEAAHPEAJ@Z
?IsPaused@LM_SERVICE@@QEAAHPEAJ@Z
?IsOwnerDefaulted@OS_SECURITY_DESCRIPTOR_CONTROL@@QEBAHXZ
?IsOwnerAlloc@OS_SID@@IEBAHXZ
?IsOwnerAlloc@OS_PRIVILEGE_SET@@AEBAHXZ
?IsOwnerAlloc@OS_ACL@@IEBAHXZ
?IsOwnerAlloc@OS_ACE@@IEBAHXZ
?IsOKState@NEW_LM_OBJ@@IEBAHXZ
?IsNewObjectDenyAll@OS_DACL_SUBJECT_ITER@@QEBAHXZ
?IsNewContainerDenyAll@OS_DACL_SUBJECT_ITER@@QEBAHXZ
?IsNew@NEW_LM_OBJ@@AEBAHXZ
?IsLocal@NET_NAME@@QEAAHPEAJ@Z
?IsKnownACE@OS_ACE@@QEBAHXZ
?IsInvalid@LM_OBJ_BASE@@AEBAHXZ
?IsInvalid@LM_OBJ@@IEBAHXZ
?IsInherittedByNewObjects@OS_ACE@@QEBAHXZ
?IsInherittedByNewContainers@OS_ACE@@QEBAHXZ
?IsInheritancePropagated@OS_ACE@@QEBAHXZ
?IsInheritOnlyDenyAll@OS_DACL_SUBJECT_ITER@@QEBAHXZ
?IsInheritOnly@OS_ACE@@QEBAHXZ
?IsHandleValid@LSA_OBJECT@@QEBAHXZ
?IsGuest@LM_SESSION_1@@QEBAHXZ
?IsGroupDefaulted@OS_SECURITY_DESCRIPTOR_CONTROL@@QEBAHXZ
?IsEncrypted@LM_SESSION_1@@QEBAHXZ
?IsDomain@LOCATION@@QEBAHXZ
?IsDenyAll@OS_DACL_SUBJECT_ITER@@QEBAHXZ
?IsDefaultSettings@LSA_ACCOUNT@@QEAAHXZ
?IsDACLPresent@OS_SECURITY_DESCRIPTOR_CONTROL@@QEBAHXZ
?IsDACLPresent@OS_SECURITY_DESCRIPTOR@@QEBAHXZ
?IsDACLDefaulted@OS_SECURITY_DESCRIPTOR_CONTROL@@QEBAHXZ
?IsContinuing@LM_SERVICE@@QEAAHPEAJ@Z
?IsContainer@OS_ACL_SUBJECT_ITER@@QEBAHXZ
?IsCommOperator@USER_11@@QEBAHXZ
?IsAccountsOperator@USER_11@@QEBAHXZ
?InsertPrivilege@LSA_ACCOUNT@@QEAAJU_LUID@@K@Z
?Insert@SLIST_OF_BROWSE_DOMAIN_INFO@@QEAAJPEBVBROWSE_DOMAIN_INFO@@AEAVITER_SL_BROWSE_DOMAIN_INFO@@@Z
?InitializeMemory@OS_SID@@SAXPEAX@Z
?InitializeMemory@OS_PRIVILEGE_SET@@AEAAXXZ
?InitToZero@OS_SACL_SUBJECT_ITER@@AEAAXXZ
?InitToZero@OS_SACL_SUBJECT_DESCRIPTOR@@QEAAXXZ
?InitObjectAttributes@LSA_POLICY@@CAXPEAU_OBJECT_ATTRIBUTES@@PEAU_SECURITY_QUALITY_OF_SERVICE@@@Z
?I_WriteNew@USER_3@@MEAAJXZ
?I_WriteNew@USER_2@@MEAAJXZ
?I_WriteNew@SHARE_2@@MEAAJXZ
?I_WriteNew@NEW_LM_OBJ@@MEAAJXZ
?I_WriteNew@NET_ACCESS_1@@MEAAJXZ
?I_WriteNew@MEMBERSHIP_LM_OBJ@@MEAAJXZ
?I_WriteNew@LSA_ACCOUNT@@MEAAJXZ
?I_WriteNew@GROUP_1@@MEAAJXZ
?I_WriteInfoAux@NET_ACCESS_1@@AEAAJXZ
?I_WriteInfo@WKSTA_USER_1@@MEAAJXZ
?I_WriteInfo@USER_MEMB@@MEAAJXZ
?I_WriteInfo@USER_3@@MEAAJXZ
?I_WriteInfo@USER_2@@MEAAJXZ
?I_WriteInfo@SHARE_2@@MEAAJXZ
?I_WriteInfo@SHARE_1@@MEAAJXZ
?I_WriteInfo@SERVER_2@@MEAAJXZ
?I_WriteInfo@SERVER_1@@MEAAJXZ
?I_WriteInfo@NEW_LM_OBJ@@MEAAJXZ
?I_WriteInfo@NET_ACCESS_1@@MEAAJXZ
?I_WriteInfo@LSA_ACCOUNT@@MEAAJXZ
?I_WriteInfo@GROUP_MEMB@@MEAAJXZ
?I_WriteInfo@GROUP_1@@MEAAJXZ
?I_GetInfo@WKSTA_USER_1@@MEAAJXZ
?I_GetInfo@WKSTA_1@@UEAAJXZ
?I_GetInfo@WKSTA_10@@UEAAJXZ
?I_GetInfo@USER_3@@MEAAJXZ
?I_GetInfo@USER_2@@MEAAJXZ
?I_GetInfo@USER_11@@MEAAJXZ
?I_GetInfo@TIME_OF_DAY@@MEAAJXZ
?I_GetInfo@SHARE_2@@MEAAJXZ
?I_GetInfo@SHARE_1@@MEAAJXZ
?I_GetInfo@SERVER_2@@MEAAJXZ
?I_GetInfo@SERVER_1@@MEAAJXZ
?I_GetInfo@SERVER_0@@MEAAJXZ
?I_GetInfo@NEW_LM_OBJ@@MEAAJXZ
?I_GetInfo@NET_ACCESS_1@@MEAAJXZ
?I_GetInfo@MEMBERSHIP_LM_OBJ@@MEAAJXZ
?I_GetInfo@LSA_ACCOUNT@@MEAAJXZ
?I_GetInfo@LOCAL_USER@@MEAAJXZ
?I_GetInfo@LM_SESSION_2@@MEAAJXZ
?I_GetInfo@LM_SESSION_1@@MEAAJXZ
?I_GetInfo@LM_SESSION_10@@MEAAJXZ
?I_GetInfo@LM_SESSION_0@@MEAAJXZ
?I_GetInfo@LM_FILE_3@@MEAAJXZ
?I_GetInfo@LM_FILE_2@@MEAAJXZ
?I_GetInfo@GROUP_1@@MEAAJXZ
?I_FetchUserFields@@YAJPEAVNLS_STR@@0PEAKAEBV1@PEBV1@PEAJ@Z
?I_FetchGroupFields@@YAJPEAVNLS_STR@@AEBV1@PEBV1@PEAJ@Z
?I_FetchDCList@@YAJAEBVLSA_TRANSLATED_NAME_MEM@@AEBVLSA_REF_DOMAIN_MEM@@PEAX2PEAPEAVNLS_STR@@PEAVSTRLIST@@PEAHPEAJPEBGHHH@Z
?I_FetchAliasFields@@YAJPEAVNLS_STR@@PEAPEAVADMIN_AUTHORITY@@PEAVSLIST_OF_ADMIN_AUTHORITY@@KHAEBV1@PEBV1@PEAJ@Z
?I_Delete@USER@@MEAAJI@Z
?I_Delete@SHARE@@MEAAJI@Z
?I_Delete@NEW_LM_OBJ@@MEAAJI@Z
?I_Delete@LSA_ACCOUNT@@MEAAJI@Z
?I_Delete@LM_SESSION@@MEAAJI@Z
?I_Delete@GROUP@@MEAAJI@Z
?I_CreateNew@USER_MEMB@@MEAAJXZ
?I_CreateNew@USER_3@@MEAAJXZ
?I_CreateNew@USER_2@@MEAAJXZ
?I_CreateNew@SHARE_2@@MEAAJXZ
?I_CreateNew@NEW_LM_OBJ@@MEAAJXZ
?I_CreateNew@NET_ACCESS_1@@MEAAJXZ
?I_CreateNew@LSA_ACCOUNT@@MEAAJXZ
?I_CreateNew@GROUP_MEMB@@MEAAJXZ
?I_CreateNew@GROUP_1@@MEAAJXZ
?I_ChangeToNew@USER_MEMB@@MEAAJXZ
?I_ChangeToNew@USER_3@@MEAAJXZ
?I_ChangeToNew@USER_2@@MEAAJXZ
?I_ChangeToNew@NEW_LM_OBJ@@MEAAJXZ
?I_ChangeToNew@GROUP_MEMB@@MEAAJXZ
?I_ChangeToNew@GROUP_1@@MEAAJXZ
?I_AppendToSTRLIST@@YAJPEAVSTRLIST@@AEAVNLS_STR@@@Z
?HasThisAuditAce_S@OS_SACL_SUBJECT_ITER@@QEBAHXZ
?HasThisAuditAce_F@OS_SACL_SUBJECT_ITER@@QEBAHXZ
?HasThisAce@OS_DACL_SUBJECT_ITER@@QEBAHXZ
?HasNewObjectAuditAce_S@OS_SACL_SUBJECT_ITER@@QEBAHXZ
?HasNewObjectAuditAce_F@OS_SACL_SUBJECT_ITER@@QEBAHXZ
?HasNewObjectAce@OS_DACL_SUBJECT_ITER@@QEBAHXZ
?HasNewContainerAuditAce_S@OS_SACL_SUBJECT_ITER@@QEBAHXZ
?HasNewContainerAuditAce_F@OS_SACL_SUBJECT_ITER@@QEBAHXZ
?HasNewContainerAce@OS_DACL_SUBJECT_ITER@@QEBAHXZ
?HasMoreData@LM_RESUME_ENUM_ITER@@IEBAHXZ
?HasInheritOnlyAuditAce_S@OS_SACL_SUBJECT_ITER@@QEBAHXZ
?HasInheritOnlyAuditAce_F@OS_SACL_SUBJECT_ITER@@QEBAHXZ
?HasInheritOnlyAce@OS_DACL_SUBJECT_ITER@@QEBAHXZ
?HandleNullAccount@USER@@IEAAJXZ
?GetWorkgroupDomains@BROWSE_DOMAIN_ENUM@@AEAAJXZ
?GetW32UserName@@YAJAEAVNLS_STR@@@Z
?GetW32UserAndDomainName@@YAJAEAVNLS_STR@@0@Z
?GetW32ComputerName@@YAJAEAVNLS_STR@@@Z
?GetTrustingDomains@BROWSE_DOMAIN_ENUM@@AEAAJXZ
?GetSessionsCount@LM_SRVRES@@SAJPEBGPEAK@Z
?GetServerRole@LSA_POLICY@@QEBAJPEAVLSA_SERVER_ROLE_INFO_MEM@@@Z
?GetResourceCount@LM_SRVRES@@SAJPEBGPEAK11111@Z
?GetQualifiedAccountNames@NT_ACCOUNTS_UTILITY@@SAJAEAVLSA_POLICY@@QEAXPEBQEAXKHPEAVSTRLIST@@PEAKPEAW4_SID_NAME_USE@@PEAJPEBG3333@Z
?GetQualifiedAccountNames@NT_ACCOUNTS_UTILITY@@SAJAEAVLSA_POLICY@@AEBVSAM_DOMAIN@@PEBQEAXKHPEAVSTRLIST@@PEAKPEAW4_SID_NAME_USE@@PEAJPEBG3333@Z
?GetPrimaryDomain@LSA_POLICY@@QEBAJPEAVLSA_PRIMARY_DOM_INFO_MEM@@@Z
?GetPasswordInfo@SAM_DOMAIN@@QEBAJPEAVSAM_PSWD_DOM_INFO_MEM@@@Z
?GetMembers@SAM_GROUP@@QEAAJPEAVSAM_RID_MEM@@@Z
?GetMembers@SAM_ALIAS@@QEAAJPEAVSAM_SID_MEM@@@Z
?GetLogonDomainDC@BROWSE_DOMAIN_ENUM@@AEAAJPEAVNLS_STR@@@Z
?GetLanmanDomains@BROWSE_DOMAIN_ENUM@@AEAAJK@Z
?GetInfoSingle@LM_RESUME_ENUM@@AEAAJH@Z
?GetInfoMulti@LM_RESUME_ENUM@@AEAAJXZ
?GetInfo@USER_MODALS_3@@UEAAJXZ
?GetInfo@USER_MODALS@@UEAAJXZ
?GetInfo@NEW_LM_OBJ@@QEAAJXZ
?GetInfo@LM_RESUME_ENUM@@QEAAJH@Z
?GetInfo@LM_ENUM@@QEAAJXZ
?GetInfo@DOMAIN_WITH_DC_CACHE@@UEAAJXZ
?GetInfo@DOMAIN@@UEAAJXZ
?GetInfo@DEVICE@@UEAAJXZ
?GetDeviceInfo@NET_NAME@@AEAAJXZ
?GetComment@SAM_GROUP@@QEAAJPEAVNLS_STR@@@Z
?GetComment@SAM_ALIAS@@QEAAJPEAVNLS_STR@@@Z
?GetComment@ALIAS_ENUM_OBJ@@QEAAJAEBVSAM_DOMAIN@@PEAVNLS_STR@@@Z
?GetAuditEventInfo@LSA_POLICY@@QEAAJPEAVLSA_AUDIT_EVENT_INFO_MEM@@@Z
?GetAnyValidDC@DOMAIN_WITH_DC_CACHE@@SAJPEBG0PEAVNLS_STR@@@Z
?GetAnyValidDC@DOMAIN@@SAJPEBG0PEAVNLS_STR@@@Z
?GetAnyDCWorker@DOMAIN_WITH_DC_CACHE@@KAJPEBG0PEAVNLS_STR@@H@Z
?GetAnyDCWorker@DOMAIN@@KAJPEBG0PEAVNLS_STR@@H@Z
?GetAnyDC@DOMAIN_WITH_DC_CACHE@@SAJPEBG0PEAVNLS_STR@@@Z
?GetAnyDC@DOMAIN@@SAJPEBG0PEAVNLS_STR@@@Z
?GetAccountDomain@LSA_POLICY@@QEBAJPEAVLSA_ACCT_DOM_INFO_MEM@@@Z
?FreeUnicodeString@@YAXPEAU_UNICODE_STRING@@@Z
?FreeBuffer@TRUSTED_DOMAIN_ENUM@@MEAAXPEAPEAE@Z
?FreeBuffer@SAM_USER_ENUM@@MEAAXPEAPEAE@Z
?FreeBuffer@SAM_MEMORY@@MEAAXXZ
?FreeBuffer@NT_ACCOUNT_ENUM@@MEAAXPEAPEAE@Z
?FreeBuffer@LSA_TRUSTED_DC_LIST@@AEAAXXZ
?FreeBuffer@LSA_MEMORY@@MEAAXXZ
?FreeBuffer@LSA_ENUM@@MEAAXPEAPEAE@Z
?FreeBuffer@LOC_LM_RESUME_ENUM@@MEAAXPEAPEAE@Z
?FreeBuffer@FILE_ENUM@@MEAAXPEAPEAE@Z
?FreeBuffer@ALIAS_ENUM@@MEAAXPEAPEAE@Z
?FixupPointer@NEW_LM_OBJ@@IEAAXPEAPEAGPEBV1@@Z
?FindPrivilege@OS_PRIVILEGE_SET@@QEBAJU_LUID@@@Z
?FindNextSubject@OS_ACL_SUBJECT_ITER@@QEAAJPEAHPEAVOS_SID@@PEAVOS_ACE@@@Z
?FindNext@BROWSE_DOMAIN_ENUM@@QEAAPEBVBROWSE_DOMAIN_INFO@@K@Z
?FindFirst@BROWSE_DOMAIN_ENUM@@QEAAPEBVBROWSE_DOMAIN_INFO@@K@Z
?FindDcCache@DOMAIN_WITH_DC_CACHE@@CAPEBGPEBU_DC_CACHE_ENTRY@@PEBG@Z
?FindAssocName@MEMBERSHIP_LM_OBJ@@QEAAHPEBGPEAI@Z
?FindACE@OS_ACL@@QEBAJAEBVOS_SID@@PEAHPEAVOS_ACE@@PEAKK@Z
?FindACE@NET_ACCESS_1@@AEBAPEAU_ACCESS_LIST@@PEBGW4PERMNAME_TYPE@@@Z
?FillUnicodeString@@YAJPEAU_UNICODE_STRING@@AEBVNLS_STR@@@Z
?EnumerateUsers@SAM_DOMAIN@@QEBAJPEAVSAM_RID_ENUMERATION_MEM@@PEAKKK@Z
?EnumerateTrustedDomains@LSA_POLICY@@QEAAJPEAVLSA_TRUST_INFO_MEM@@PEAKK@Z
?EnumerateGroups@SAM_DOMAIN@@QEBAJPEAVSAM_RID_ENUMERATION_MEM@@PEAKK@Z
?EnumerateAliasesForUser@SAM_DOMAIN@@QEBAJPEAXPEAVSAM_RID_MEM@@@Z
?EnumerateAliases@SAM_DOMAIN@@QEBAJPEAVSAM_RID_ENUMERATION_MEM@@PEAKK@Z
?EnumUnavailLPTs@@YAKXZ
?EnumUnavailDrives@@YAKXZ
?EnumUnavailDevices@@YAKH@Z
?EnumUnavailComms@@YAKXZ
?EnumServiceStatus@SC_MANAGER@@QEAAJIIPEAPEAU_ENUM_SERVICE_STATUSW@@PEAKPEBG@Z
?EnumNtServices@SERVICE_ENUM@@AEAAJPEAPEAEPEAI@Z
?EnumNetLPTs@@YAKXZ
?EnumNetDrives@@YAKXZ
?EnumNetDevices@@YAKH@Z
?EnumNetComms@@YAKXZ
?EnumLocalLPTs@@YAKXZ
?EnumLocalDrives@@YAKXZ
?EnumLocalComms@@YAKXZ
?EnumLmServices@SERVICE_ENUM@@AEAAJPEAPEAEPEAI@Z
?EnumLPTs@ITER_DEVICE@@AEAAPEBGXZ
?EnumDrives@ITER_DEVICE@@AEAAPEBGXZ
?EnumDependent@SC_SERVICE@@QEAAJIPEAPEAU_ENUM_SERVICE_STATUSW@@PEAK@Z
?EnumComms@ITER_DEVICE@@AEAAPEBGXZ
?EnumAllLPTs@@YAKXZ
?EnumAllDrives@@YAKXZ
?EnumAllComms@@YAKXZ
?EnterCriticalSection@DOMAIN_WITH_DC_CACHE@@CAJXZ
?EC_SetBufferPtr@LM_ENUM@@EEAAJPEAE@Z
?EC_SetBufferPtr@ENUM_CALLER_LM_OBJ@@EEAAJPEAE@Z
?EC_ResizeBuffer@ENUM_CALLER_LM_OBJ@@EEAAJI@Z
?EC_QueryBufferSize@ENUM_CALLER_LM_OBJ@@EEBAIXZ
?EC_QueryBufferPtr@LM_ENUM@@EEBAPEAEXZ
?EC_QueryBufferPtr@ENUM_CALLER_LM_OBJ@@EEBAPEAEXZ
?DoesKeepBuffers@LM_RESUME_ENUM@@QEBAHXZ
?DistrustDomain@LSA_POLICY@@QEAAJQEAXAEBVNLS_STR@@H@Z
?Disconnect@DEVICE@@QEAAJPEBGI@Z
?Disconnect@DEVICE@@QEAAJI@Z
?DetermineIfDomainMember@BROWSE_DOMAIN_ENUM@@AEAAJPEAH@Z
?DeregisterIter@LM_RESUME_ENUM@@AEAAXXZ
?DeregisterIter@LM_ENUM@@AEAAXXZ
?DeletePrivilege@LSA_ACCOUNT@@QEAAJU_LUID@@@Z
?DeleteAssocName@MEMBERSHIP_LM_OBJ@@QEAAJPEBG@Z
?DeleteAssocName@MEMBERSHIP_LM_OBJ@@QEAAJI@Z
?DeleteAllTrustedDomains@LSA_POLICY@@IEAAJXZ
?DeleteACE@OS_ACL@@QEAAJK@Z
?Delete@SC_SERVICE@@QEAAJXZ
?Delete@SAM_ALIAS@@QEAAJXZ
?Delete@NEW_LM_OBJ@@QEAAJI@Z
?Delete@NET_ACCESS@@QEAAJXZ
?Delete@LSA_TRUSTED_DOMAIN@@QEAAJXZ
?CtAux@USER_3@@AEAAXXZ
?CtAux@USER_2@@AEAAXXZ
?CtAux@USER_11@@AEAAXXZ
?CtAux@USER@@AEAAXPEBG@Z
?CtAux@LOC_LM_OBJ@@AEAAXXZ
?CtAux@GROUP_1@@AEAAXXZ
?CtAux@GROUP@@AEAAXPEBG@Z
?CtAux@DOMAIN@@AEAAXPEBG0@Z
?CreateNew@NEW_LM_OBJ@@QEAAJXZ
?Create@LSA_SECRET@@QEAAJAEBVLSA_POLICY@@K@Z
?CrackQualifiedAccountName@NT_ACCOUNTS_UTILITY@@SAJAEBVNLS_STR@@PEAV2@1@Z
?CountServices@SERVICE_ENUM@@AEAAXPEAEPEAI1@Z
?CopyAccessPerms@NET_ACCESS_1@@QEAAJAEBV1@@Z
?Copy@OS_SID@@QEAAJAEBV1@@Z
?Copy@OS_SECURITY_DESCRIPTOR@@QEAAJAEBV1@@Z
?Copy@OS_ACL@@QEAAJAEBV1@H@Z
?Control@SC_SERVICE@@QEAAJIPEAU_SERVICE_STATUS@@@Z
?Continue@LM_SERVICE@@QEAAJII@Z
?ConnectToNullSession@@YAJAEBVNLS_STR@@@Z
?Connect@DEVICE@@QEAAJPEBG0@Z
?Connect@DEVICE2@@QEAAJPEBG000K@Z
?CompareNtServers@TRIPLE_SERVER_ENUM@@CAHPEBX0@Z
?CompareLmServers@TRIPLE_SERVER_ENUM@@CAHPEBX0@Z
?CompareDomains0@DOMAIN0_ENUM@@CAHPEBX0@Z
?CompareCurrentSubject@OS_SACL_SUBJECT_ITER@@UEAAHPEAVOS_ACL_SUBJECT_ITER@@@Z
?CompareCurrentSubject@OS_DACL_SUBJECT_ITER@@UEAAHPEAVOS_ACL_SUBJECT_ITER@@@Z
?CompareBrowserServers@TRIPLE_SERVER_ENUM@@CAHPEBX0@Z
?CompareACL@NET_ACCESS_1@@QEAAHPEAV1@@Z
?Compare@OS_SECURITY_DESCRIPTOR@@QEAAJPEAV1@PEAH111PEAU_GENERIC_MAPPING@@2HH@Z
?Compare@OS_ACL_SUBJECT_ITER@@QEAAJPEAHPEAV1@@Z
?CombineIntoTriple@TRIPLE_SERVER_ENUM@@AEAAXPEBU_SERVER_INFO_101@@PEBU_KNOWN_SERVER_INFO@@PEAU_TRIPLE_SERVER_INFO@@@Z
?CloseHandle@SAM_OBJECT@@QEAAJXZ
?CloseHandle@LSA_OBJECT@@QEAAJH@Z
?CloseFile@LM_FILE@@QEAAJXZ
?Close@SERVICE_CONTROL@@QEAAJXZ
?CloneFrom@USER_MEMB@@QEAAJAEBV1@@Z
?CloneFrom@USER_3@@QEAAJAEBV1@@Z
?CloneFrom@USER_2@@QEAAJAEBV1@@Z
?CloneFrom@SHARE_2@@QEAAJAEBV1@@Z
?CloneFrom@SHARE_1@@QEAAJAEBV1@@Z
?CloneFrom@GROUP_MEMB@@QEAAJAEBV1@@Z
?CloneFrom@GROUP_1@@QEAAJAEBV1@@Z
?ClearPerms@NET_ACCESS_1@@QEAAJXZ
?ClearDcCache@DOMAIN_WITH_DC_CACHE@@CAJPEAU_DC_CACHE_ENTRY@@@Z
?ClearBuffer@NEW_LM_OBJ@@IEAAJXZ
?Clear@SLIST_OF_LM_RESUME_BUFFER@@QEAAXXZ
?Clear@SLIST_OF_BROWSE_DOMAIN_INFO@@QEAAXXZ
?Clear@SLIST_OF_API_SESSION@@QEAAXXZ
?Clear@SLIST_OF_ADMIN_AUTHORITY@@QEAAXXZ
?Clear@OS_PRIVILEGE_SET@@QEAAXXZ
?CleanupUnistrArray@LSA_POLICY@@IEAAXPEAU_UNICODE_STRING@@K@Z
?CheckIfShutDownOnFull@LSA_POLICY@@QEAAJPEAH@Z
?CheckIfNT@LOCATION@@QEAAJPEAHPEAW4LOCATION_NT_TYPE@@@Z
?CheckIfNT@LOCATION@@QEAAJPEAH@Z
?ChangeToNew@NEW_LM_OBJ@@QEAAJXZ
?ChangeConfig@SC_SERVICE@@QEAAJIIIPEBG00000@Z
?CallAPI@USE_ENUM@@EEAAJPEAPEAEPEAI@Z
?CallAPI@USER_MEMB@@MEAAJPEAPEAEPEAI@Z
?CallAPI@USER_ENUM@@EEAAJHPEAPEAEPEAI@Z
?CallAPI@TRUSTED_DOMAIN_ENUM@@EEAAJHPEAPEAEPEAI@Z
?CallAPI@TRIPLE_SERVER_ENUM@@EEAAJPEAPEAEPEAI@Z
?CallAPI@SHARE_ENUM@@EEAAJPEAPEAEPEAI@Z
?CallAPI@SESSION_ENUM@@EEAAJPEAPEAEPEAI@Z
?CallAPI@SERVICE_ENUM@@EEAAJPEAPEAEPEAI@Z
?CallAPI@SERVER_ENUM@@EEAAJPEAPEAEPEAI@Z
?CallAPI@SAM_USER_ENUM@@EEAAJHPEAPEAEPEAI@Z
?CallAPI@NT_ACCOUNT_ENUM@@EEAAJHPEAPEAEPEAI@Z
?CallAPI@LSA_PRIVILEGES_ENUM@@MEAAJHPEAPEAEPEAI@Z
?CallAPI@LSA_ACCOUNTS_ENUM@@EEAAJHPEAPEAEPEAI@Z
?CallAPI@GROUP_MEMB@@MEAAJPEAPEAEPEAI@Z
?CallAPI@GROUP_ENUM@@EEAAJPEAPEAEPEAI@Z
?CallAPI@FILE_ENUM@@EEAAJHPEAPEAEPEAI@Z
?CallAPI@DOMAIN_ENUM@@EEAAJPEAPEAEPEAI@Z
?CallAPI@DEVICE@@MEAAJXZ
?CallAPI@DEVICE2@@MEAAJXZ
?CallAPI@CONTEXT_ENUM@@MEAAJPEAPEAEPEAI@Z
?CallAPI@CONN_ENUM@@EEAAJPEAPEAEPEAI@Z
?CallAPI@CHARDEVQ_ENUM@@EEAAJPEAPEAEPEAI@Z
?CallAPI@ALIAS_ENUM@@EEAAJHPEAPEAEPEAI@Z
?BuildQualifiedAccountName@NT_ACCOUNTS_UTILITY@@SAJPEAVNLS_STR@@AEBV2@PEAX1PEBV2@2W4_SID_NAME_USE@@@Z
?BuildQualifiedAccountName@NT_ACCOUNTS_UTILITY@@SAJPEAVNLS_STR@@AEBV2@1PEBV2@2W4_SID_NAME_USE@@@Z
?BuildAndCopySysSid@NT_ACCOUNTS_UTILITY@@SAJPEAVOS_SID@@PEAU_SID_IDENTIFIER_AUTHORITY@@EKKKKKKKK@Z
?Backup@USE1_ENUM_ITER@@QEAAHXZ
?Backup@TRIPLE_SERVER_ENUM_ITER@@QEAAHXZ
?Backup@SHARE2_ENUM_ITER@@QEAAHXZ
?Backup@SHARE1_ENUM_ITER@@QEAAHXZ
?Backup@SESSION1_ENUM_ITER@@QEAAHXZ
?Backup@SESSION0_ENUM_ITER@@QEAAHXZ
?Backup@SERVICE_ENUM_ITER@@QEAAHXZ
?Backup@SERVER1_ENUM_ITER@@QEAAHXZ
?Backup@GROUP1_ENUM_ITER@@QEAAHXZ
?Backup@GROUP0_ENUM_ITER@@QEAAHXZ
?Backup@DOMAIN0_ENUM_ITER@@QEAAHXZ
?Backup@CONTEXT_ENUM_ITER@@QEAAHXZ
?Backup@CONN1_ENUM_ITER@@QEAAHXZ
?Backup@CONN0_ENUM_ITER@@QEAAHXZ
?Backup@CHARDEVQ1_ENUM_ITER@@QEAAHXZ
?Append@SLIST_OF_NLS_STR@@QEAAJPEBVNLS_STR@@@Z
?Append@SLIST_OF_LM_RESUME_BUFFER@@QEAAJPEBVLM_RESUME_BUFFER@@@Z
?Append@SLIST_OF_BROWSE_DOMAIN_INFO@@QEAAJPEBVBROWSE_DOMAIN_INFO@@@Z
?Append@SLIST_OF_API_SESSION@@QEAAJPEBVAPI_SESSION@@@Z
?Append@SLIST_OF_ADMIN_AUTHORITY@@QEAAJPEBVADMIN_AUTHORITY@@@Z
?AddPrivilege@OS_PRIVILEGE_SET@@QEAAJU_LUID@@K@Z
?AddMembers@SAM_GROUP@@QEAAJPEAKI@Z
?AddMembers@SAM_ALIAS@@QEAAJPEAPEAXI@Z
?AddMember@SAM_GROUP@@QEAAJK@Z
?AddMember@SAM_ALIAS@@QEAAJPEAX@Z
?AddDomainToList@BROWSE_DOMAIN_ENUM@@AEAAJPEBGKH@Z
?AddDomainSource@BROWSE_DOMAIN_INFO@@AEAAXK@Z
?AddDcCache@DOMAIN_WITH_DC_CACHE@@CAJPEAPEAU_DC_CACHE_ENTRY@@PEBG1@Z
?AddAssocName@MEMBERSHIP_LM_OBJ@@QEAAJPEBG@Z
?AddACE@OS_ACL@@QEAAJKAEBVOS_ACE@@@Z
?Add@SLIST_OF_NLS_STR@@QEAAJPEBVNLS_STR@@@Z
??RUSER0_ENUM_ITER@@QEAAPEBVUSER0_ENUM_OBJ@@PEAJH@Z
??RUSE1_ENUM_ITER@@QEAAPEBVUSE1_ENUM_OBJ@@XZ
??RTRIPLE_SERVER_ENUM_ITER@@QEAAPEBVTRIPLE_SERVER_ENUM_OBJ@@XZ
??RSHARE2_ENUM_ITER@@QEAAPEBVSHARE2_ENUM_OBJ@@XZ
??RSHARE1_ENUM_ITER@@QEAAPEBVSHARE1_ENUM_OBJ@@XZ
??RSESSION1_ENUM_ITER@@QEAAPEBVSESSION1_ENUM_OBJ@@XZ
??RSESSION0_ENUM_ITER@@QEAAPEBVSESSION0_ENUM_OBJ@@XZ
??RSERVICE_ENUM_ITER@@QEAAPEBVSERVICE_ENUM_OBJ@@XZ
??RSERVER1_ENUM_ITER@@QEAAPEBVSERVER1_ENUM_OBJ@@XZ
??RNT_MACHINE_ENUM_ITER@@QEAAPEBVNT_MACHINE_ENUM_OBJ@@PEAJH@Z
??RLSA_ACCOUNT_PRIVILEGE_ENUM_ITER@@QEAAPEBVOS_LUID_AND_ATTRIBUTES@@XZ
??RGROUP1_ENUM_ITER@@QEAAPEBVGROUP1_ENUM_OBJ@@XZ
??RGROUP0_ENUM_ITER@@QEAAPEBVGROUP0_ENUM_OBJ@@XZ
??RFILE3_ENUM_ITER@@QEAAPEBVFILE3_ENUM_OBJ@@PEAJH@Z
??RDOMAIN0_ENUM_ITER@@QEAAPEBVDOMAIN0_ENUM_OBJ@@XZ
??RCONTEXT_ENUM_ITER@@QEAAPEBVCONTEXT_ENUM_OBJ@@XZ
??RCONN1_ENUM_ITER@@QEAAPEBVCONN1_ENUM_OBJ@@XZ
??RCONN0_ENUM_ITER@@QEAAPEBVCONN0_ENUM_OBJ@@XZ
??RCHARDEVQ1_ENUM_ITER@@QEAAPEBVCHARDEVQ1_ENUM_OBJ@@XZ
??BOS_SID@@QEBAPEAXXZ
??BOS_ACL@@QEBAPEAU_ACL@@XZ
??BNLS_STR@@QEBAPEBGXZ
??ANLS_STR@@QEBAPEBGAEBVISTR@@@Z
??ALSA_TRUSTED_DC_LIST@@QEBAAEBU_UNICODE_STRING@@H@Z
??8OS_SID@@QEBAHAEBV0@@Z
??8OS_LUID@@QEBAHAEBV0@@Z
??7BASE@@QEBAHXZ
??4ALLOC_STR@@QEAAAEAV0@PEBG@Z
??4ALLOC_STR@@QEAAAEAV0@AEBV0@@Z
??1WKSTA_USER_1@@QEAA@XZ
??1WKSTA_1@@QEAA@XZ
??1WKSTA_10@@QEAA@XZ
??1USE_ENUM@@QEAA@XZ
??1USER_MEMB@@QEAA@XZ
??1USER_ENUM@@QEAA@XZ
??1USER_3@@UEAA@XZ
??1USER_2@@UEAA@XZ
??1USER_11@@QEAA@XZ
??1USER@@QEAA@XZ
??1USER2_ENUM_OBJ@@QEAA@XZ
??1USER1_ENUM_OBJ@@QEAA@XZ
??1USER10_ENUM_OBJ@@QEAA@XZ
??1USER0_ENUM_OBJ@@QEAA@XZ
??1USER0_ENUM_ITER@@QEAA@XZ
??1USER0_ENUM@@QEAA@XZ
??1USE1_ENUM_OBJ@@QEAA@XZ
??1TRUSTED_DOMAIN_ENUM_OBJ@@QEAA@XZ
??1TRUSTED_DOMAIN_ENUM@@QEAA@XZ
??1TRIPLE_SERVER_ENUM_OBJ@@QEAA@XZ
??1TRIPLE_SERVER_ENUM@@QEAA@XZ
??1TIME_OF_DAY@@QEAA@XZ
??1SLIST_OF_LM_RESUME_BUFFER@@QEAA@XZ
??1SLIST_OF_BROWSE_DOMAIN_INFO@@QEAA@XZ
??1SLIST_OF_API_SESSION@@QEAA@XZ
??1SLIST_OF_ADMIN_AUTHORITY@@QEAA@XZ
??1SHARE_ENUM@@QEAA@XZ
??1SHARE_2@@QEAA@XZ
??1SHARE_1@@QEAA@XZ
??1SHARE@@QEAA@XZ
??1SHARE2_ENUM_OBJ@@QEAA@XZ
??1SHARE1_ENUM_OBJ@@QEAA@XZ
??1SESSION_ENUM@@QEAA@XZ
??1SESSION1_ENUM_OBJ@@QEAA@XZ
??1SESSION0_ENUM_OBJ@@QEAA@XZ
??1SESSION0_ENUM_ITER@@QEAA@XZ
??1SESSION0_ENUM@@QEAA@XZ
??1SERVICE_ENUM_OBJ@@QEAA@XZ
??1SERVICE_ENUM@@QEAA@XZ
??1SERVICE_CONTROL@@QEAA@XZ
??1SERVER_ENUM@@QEAA@XZ
??1SERVER_2@@QEAA@XZ
??1SERVER_1@@QEAA@XZ
??1SERVER_0@@QEAA@XZ
??1SERVER1_ENUM_OBJ@@QEAA@XZ
??1SERVER1_ENUM_ITER@@QEAA@XZ
??1SERVER1_ENUM@@QEAA@XZ
??1SC_SERVICE@@QEAA@XZ
??1SC_MANAGER@@QEAA@XZ
??1SAM_USER_ENUM_OBJ@@QEAA@XZ
??1SAM_USER_ENUM_ITER@@QEAA@XZ
??1SAM_USER_ENUM@@QEAA@XZ
??1SAM_USER@@QEAA@XZ
??1SAM_SID_NAME_USE_MEM@@QEAA@XZ
??1SAM_SID_MEM@@QEAA@XZ
??1SAM_SERVER@@QEAA@XZ
??1SAM_RID_MEM@@QEAA@XZ
??1SAM_RID_ENUMERATION_MEM@@QEAA@XZ
??1SAM_PSWD_DOM_INFO_MEM@@QEAA@XZ
??1SAM_OBJECT@@IEAA@XZ
??1SAM_MEMORY@@QEAA@XZ
??1SAM_GROUP@@QEAA@XZ
??1SAM_DOMAIN@@QEAA@XZ
??1SAM_ALIAS@@QEAA@XZ
??1REG_VALUE_INFO_STRUCT@@QEAA@XZ
??1OS_SID@@QEAA@XZ
??1OS_SECURITY_DESCRIPTOR@@QEAA@XZ
??1OS_SACL_SUBJECT_ITER@@QEAA@XZ
??1OS_PRIVILEGE_SET@@QEAA@XZ
??1OS_OBJECT_WITH_DATA@@IEAA@XZ
??1OS_DACL_SUBJECT_ITER@@QEAA@XZ
??1OS_ACL_SUBJECT_ITER@@QEAA@XZ
??1OS_ACL@@QEAA@XZ
??1OS_ACE@@QEAA@XZ
??1NT_USER_ENUM_OBJ@@QEAA@XZ
??1NT_USER_ENUM@@QEAA@XZ
??1NT_MEMORY@@IEAA@XZ
??1NT_MACHINE_ENUM_OBJ@@QEAA@XZ
??1NT_MACHINE_ENUM_ITER@@QEAA@XZ
??1NT_MACHINE_ENUM@@QEAA@XZ
??1NT_GROUP_ENUM_OBJ@@QEAA@XZ
??1NT_GROUP_ENUM@@QEAA@XZ
??1NT_ACCOUNT_ENUM@@IEAA@XZ
??1NEW_LM_OBJ@@QEAA@XZ
??1NET_NAME@@QEAA@XZ
??1NET_ACCESS_1@@QEAA@XZ
??1NET_ACCESS@@IEAA@XZ
??1MEMBERSHIP_LM_OBJ@@QEAA@XZ
??1LSA_TRUST_INFO_MEM@@QEAA@XZ
??1LSA_TRUSTED_DOMAIN@@QEAA@XZ
??1LSA_TRUSTED_DC_LIST@@QEAA@XZ
??1LSA_TRANSLATED_SID_MEM@@QEAA@XZ
??1LSA_TRANSLATED_NAME_MEM@@QEAA@XZ
??1LSA_SERVER_ROLE_INFO_MEM@@QEAA@XZ
??1LSA_SECRET@@QEAA@XZ
??1LSA_REF_DOMAIN_MEM@@QEAA@XZ
??1LSA_PRIVILEGES_ENUM_OBJ@@QEAA@XZ
??1LSA_PRIMARY_DOM_INFO_MEM@@QEAA@XZ
??1LSA_POLICY@@QEAA@XZ
??1LSA_OBJECT@@IEAA@XZ
??1LSA_MEMORY@@IEAA@XZ
??1LSA_ENUM@@QEAA@XZ
??1LSA_DOMAIN_INFO@@QEAA@XZ
??1LSA_AUDIT_EVENT_INFO_MEM@@QEAA@XZ
??1LSA_ACCT_DOM_INFO_MEM@@QEAA@XZ
??1LSA_ACCOUNT_PRIVILEGE_ENUM_ITER@@QEAA@XZ
??1LSA_ACCOUNTS_ENUM_OBJ@@QEAA@XZ
??1LSA_ACCOUNT@@QEAA@XZ
??1LOC_LM_RESUME_ENUM@@QEAA@XZ
??1LOC_LM_OBJ@@QEAA@XZ
??1LOC_LM_ENUM@@QEAA@XZ
??1LOCATION@@QEAA@XZ
??1LOCAL_USER@@QEAA@XZ
??1LM_SRVRES@@QEAA@XZ
??1LM_SESSION_1@@QEAA@XZ
??1LM_SESSION_10@@QEAA@XZ
??1LM_SESSION_0@@QEAA@XZ
??1LM_SESSION@@QEAA@XZ
??1LM_SERVICE@@QEAA@XZ
??1LM_RESUME_ENUM_ITER@@IEAA@XZ
??1LM_RESUME_ENUM@@QEAA@XZ
??1LM_RESUME_BUFFER@@QEAA@XZ
??1LM_FILE_2@@QEAA@XZ
??1LM_FILE@@IEAA@XZ
??1LM_ENUM_ITER@@IEAA@XZ
??1LM_ENUM@@QEAA@XZ
??1LM_CONFIG@@QEAA@XZ
??1ITER_SL_LM_RESUME_BUFFER@@QEAA@XZ
??1ITER_SL_BROWSE_DOMAIN_INFO@@QEAA@XZ
??1ITER_DEVICE@@QEAA@XZ
??1GROUP_MEMB@@QEAA@XZ
??1GROUP_ENUM@@QEAA@XZ
??1GROUP_1@@QEAA@XZ
??1GROUP_0@@QEAA@XZ
??1GROUP@@QEAA@XZ
??1GROUP1_ENUM_OBJ@@QEAA@XZ
??1GROUP0_ENUM_OBJ@@QEAA@XZ
??1GROUP0_ENUM_ITER@@QEAA@XZ
??1GROUP0_ENUM@@QEAA@XZ
??1FILE_ENUM@@IEAA@XZ
??1FILE3_ENUM_OBJ@@QEAA@XZ
??1FILE3_ENUM_ITER@@QEAA@XZ
??1FILE3_ENUM@@QEAA@XZ
??1FILE2_ENUM_OBJ@@QEAA@XZ
??1ENUM_OBJ_BASE@@IEAA@XZ
??1ENUM_CALLER_LM_OBJ@@QEAA@XZ
??1DOMAIN_WITH_DC_CACHE@@QEAA@XZ
??1DOMAIN_ENUM@@QEAA@XZ
??1DOMAIN@@QEAA@XZ
??1DOMAIN0_ENUM_OBJ@@QEAA@XZ
??1DOMAIN0_ENUM_ITER@@QEAA@XZ
??1DOMAIN0_ENUM@@QEAA@XZ
??1DEVICE@@QEAA@XZ
??1CONTEXT_ENUM_OBJ@@QEAA@XZ
??1CONN_ENUM@@QEAA@XZ
??1CONN1_ENUM_OBJ@@QEAA@XZ
??1CONN0_ENUM_OBJ@@QEAA@XZ
??1COMPUTER@@IEAA@XZ
??1CHARDEVQ_ENUM@@QEAA@XZ
??1CHARDEVQ1_ENUM_OBJ@@QEAA@XZ
??1BROWSE_DOMAIN_INFO@@QEAA@XZ
??1BROWSE_DOMAIN_ENUM@@QEAA@XZ
??1API_SESSION@@QEAA@XZ
??1ALLOC_STR@@QEAA@XZ
??1ALIAS_STR@@QEAA@XZ
??1ALIAS_ENUM_OBJ@@QEAA@XZ
??1ALIAS_ENUM@@QEAA@XZ
??1ADMIN_AUTHORITY@@QEAA@XZ
??0WKSTA_USER_1@@QEAA@XZ
??0WKSTA_1@@QEAA@PEBG@Z
??0WKSTA_10@@QEAA@PEBG@Z
??0USE_ENUM@@IEAA@PEBGI@Z
??0USER_MODALS_3@@QEAA@PEBG@Z
??0USER_MODALS@@QEAA@PEBG@Z
??0USER_MEMB@@QEAA@AEBVLOCATION@@PEBG@Z
??0USER_ENUM@@IEAA@W4LOCATION_TYPE@@IPEBGH@Z
??0USER_ENUM@@IEAA@PEBGI0H@Z
??0USER_ENUM@@IEAA@AEBVLOCATION@@IPEBGH@Z
??0USER_3@@QEAA@PEBGW4LOCATION_TYPE@@@Z
??0USER_3@@QEAA@PEBGAEBVLOCATION@@@Z
??0USER_3@@QEAA@PEBG0@Z
??0USER_2@@QEAA@PEBGW4LOCATION_TYPE@@@Z
??0USER_2@@QEAA@PEBGAEBVLOCATION@@@Z
??0USER_2@@QEAA@PEBG0@Z
??0USER_11@@QEAA@PEBGW4LOCATION_TYPE@@@Z
??0USER_11@@QEAA@PEBGAEBVLOCATION@@@Z
??0USER_11@@QEAA@PEBG0@Z
??0USER@@QEAA@PEBGW4LOCATION_TYPE@@@Z
??0USER@@QEAA@PEBGAEBVLOCATION@@@Z
??0USER@@QEAA@PEBG0@Z
??0USER2_ENUM_OBJ@@QEAA@XZ
??0USER2_ENUM_ITER@@QEAA@AEAVUSER2_ENUM@@@Z
??0USER2_ENUM@@QEAA@W4LOCATION_TYPE@@H@Z
??0USER2_ENUM@@QEAA@PEBGH@Z
??0USER2_ENUM@@QEAA@AEBVLOCATION@@H@Z
??0USER1_ENUM_OBJ@@QEAA@XZ
??0USER1_ENUM_ITER@@QEAA@AEAVUSER1_ENUM@@@Z
??0USER1_ENUM@@QEAA@W4LOCATION_TYPE@@H@Z
??0USER1_ENUM@@QEAA@PEBGH@Z
??0USER1_ENUM@@QEAA@AEBVLOCATION@@H@Z
??0USER10_ENUM_OBJ@@QEAA@XZ
??0USER10_ENUM_ITER@@QEAA@AEAVUSER10_ENUM@@@Z
??0USER10_ENUM@@QEAA@W4LOCATION_TYPE@@H@Z
??0USER10_ENUM@@QEAA@PEBGH@Z
??0USER10_ENUM@@QEAA@AEBVLOCATION@@H@Z
??0USER0_ENUM_OBJ@@QEAA@XZ
??0USER0_ENUM_ITER@@QEAA@AEAVUSER0_ENUM@@@Z
??0USER0_ENUM@@QEAA@W4LOCATION_TYPE@@PEBGH@Z
??0USER0_ENUM@@QEAA@PEBG0H@Z
??0USER0_ENUM@@QEAA@AEBVLOCATION@@PEBGH@Z
??0USE1_ENUM_OBJ@@QEAA@XZ
??0USE1_ENUM_ITER@@QEAA@AEAVUSE1_ENUM@@@Z
??0USE1_ENUM@@QEAA@PEBG@Z
??0TRUSTED_DOMAIN_ENUM_OBJ@@QEAA@XZ
??0TRUSTED_DOMAIN_ENUM_ITER@@QEAA@AEAVTRUSTED_DOMAIN_ENUM@@@Z
??0TRUSTED_DOMAIN_ENUM@@QEAA@PEBVLSA_POLICY@@H@Z
??0TRIPLE_SERVER_ENUM_OBJ@@QEAA@XZ
??0TRIPLE_SERVER_ENUM_ITER@@QEAA@AEAVTRIPLE_SERVER_ENUM@@@Z
??0TRIPLE_SERVER_ENUM@@QEAA@PEBG0HHHH@Z
??0TIME_OF_DAY@@QEAA@W4LOCATION_TYPE@@@Z
??0TIME_OF_DAY@@QEAA@PEBG@Z
??0TIME_OF_DAY@@QEAA@AEAVLOCATION@@@Z
??0SLIST_OF_LM_RESUME_BUFFER@@QEAA@H@Z
??0SLIST_OF_BROWSE_DOMAIN_INFO@@QEAA@H@Z
??0SLIST_OF_API_SESSION@@QEAA@H@Z
??0SLIST_OF_ADMIN_AUTHORITY@@QEAA@H@Z
??0SHARE_ENUM@@IEAA@PEBGIH@Z
??0SHARE_2@@QEAA@PEBG0H@Z
??0SHARE_1@@QEAA@PEBG0H@Z
??0SHARE@@QEAA@PEBG0H@Z
??0SHARE2_ENUM_OBJ@@QEAA@XZ
??0SHARE2_ENUM_ITER@@QEAA@AEAVSHARE2_ENUM@@@Z
??0SHARE2_ENUM@@QEAA@PEBGH@Z
??0SHARE1_ENUM_OBJ@@QEAA@XZ
??0SHARE1_ENUM_ITER@@QEAA@AEAVSHARE1_ENUM@@@Z
??0SHARE1_ENUM@@QEAA@PEBGH@Z
??0SESSION_ENUM@@IEAA@PEBGI@Z
??0SESSION1_ENUM_OBJ@@QEAA@XZ
??0SESSION1_ENUM_ITER@@QEAA@AEAVSESSION1_ENUM@@@Z
??0SESSION1_ENUM@@QEAA@PEBG@Z
??0SESSION0_ENUM_OBJ@@QEAA@XZ
??0SESSION0_ENUM_ITER@@QEAA@AEAVSESSION0_ENUM@@@Z
??0SESSION0_ENUM@@QEAA@PEBG@Z
??0SERVICE_ENUM_OBJ@@QEAA@XZ
??0SERVICE_ENUM_ITER@@QEAA@AEAVSERVICE_ENUM@@@Z
??0SERVICE_ENUM@@QEAA@PEBGHI0@Z
??0SERVICE_CONTROL@@QEAA@XZ
??0SERVER_ENUM@@IEAA@PEBGI0K@Z
??0SERVER_2@@QEAA@PEBG@Z
??0SERVER_1@@QEAA@PEBG@Z
??0SERVER_0@@QEAA@PEBG@Z
??0SERVER1_ENUM_OBJ@@QEAA@XZ
??0SERVER1_ENUM_ITER@@QEAA@AEAVSERVER1_ENUM@@@Z
??0SERVER1_ENUM@@QEAA@PEBG0K@Z
??0SC_SERVICE@@QEAA@AEBVSC_MANAGER@@PEBGI@Z
??0SC_SERVICE@@QEAA@AEBVSC_MANAGER@@PEBG1III11111I@Z
??0SC_MANAGER@@QEAA@PEBGIW4SERVICE_DATABASE@@@Z
??0SC_MANAGER@@QEAA@PEAUSC_HANDLE__@@@Z
??0SAM_USER_ENUM_OBJ@@QEAA@XZ
??0SAM_USER_ENUM_ITER@@QEAA@AEAVSAM_USER_ENUM@@@Z
??0SAM_USER_ENUM@@QEAA@PEBVSAM_DOMAIN@@KH@Z
??0SAM_USER@@QEAA@AEBVSAM_DOMAIN@@KK@Z
??0SAM_SID_NAME_USE_MEM@@QEAA@H@Z
??0SAM_SID_MEM@@QEAA@H@Z
??0SAM_SERVER@@QEAA@PEBGK@Z
??0SAM_RID_MEM@@QEAA@H@Z
??0SAM_RID_ENUMERATION_MEM@@QEAA@H@Z
??0SAM_PSWD_DOM_INFO_MEM@@QEAA@H@Z
??0SAM_OBJECT@@IEAA@XZ
??0SAM_MEMORY@@IEAA@H@Z
??0SAM_GROUP@@QEAA@AEBVSAM_DOMAIN@@KK@Z
??0SAM_DOMAIN@@QEAA@AEBVSAM_SERVER@@PEAXK@Z
??0SAM_ALIAS@@QEAA@AEBVSAM_DOMAIN@@PEBGK@Z
??0SAM_ALIAS@@QEAA@AEBVSAM_DOMAIN@@KK@Z
??0OS_SID@@QEAA@PEAXKPEAVOS_SECURITY_DESCRIPTOR@@@Z
??0OS_SID@@QEAA@PEAXHPEAVOS_SECURITY_DESCRIPTOR@@@Z
??0OS_SECURITY_DESCRIPTOR_CONTROL@@QEAA@PEAG@Z
??0OS_SECURITY_DESCRIPTOR@@QEAA@PEAXH@Z
??0OS_SACL_SUBJECT_ITER@@QEAA@PEAVOS_ACL@@PEAU_GENERIC_MAPPING@@1HH@Z
??0OS_PRIVILEGE_SET@@QEAA@PEAU_PRIVILEGE_SET@@@Z
??0OS_OBJECT_WITH_DATA@@IEAA@I@Z
??0OS_LUID_AND_ATTRIBUTES@@QEAA@XZ
??0OS_LUID@@QEAA@XZ
??0OS_LUID@@QEAA@U_LUID@@@Z
??0OS_DACL_SUBJECT_ITER@@QEAA@PEAVOS_ACL@@PEAU_GENERIC_MAPPING@@1HH@Z
??0OS_ACL_SUBJECT_ITER@@QEAA@PEBVOS_ACL@@PEAU_GENERIC_MAPPING@@1HH@Z
??0OS_ACL@@QEAA@PEAU_ACL@@HPEAVOS_SECURITY_DESCRIPTOR@@@Z
??0OS_ACE@@QEAA@PEAX@Z
??0NT_USER_ENUM_OBJ@@QEAA@XZ
??0NT_USER_ENUM_ITER@@QEAA@AEAVNT_USER_ENUM@@@Z
??0NT_USER_ENUM@@QEAA@PEBVSAM_DOMAIN@@@Z
??0NT_MEMORY@@IEAA@XZ
??0NT_MACHINE_ENUM_OBJ@@QEAA@XZ
??0NT_MACHINE_ENUM_ITER@@QEAA@AEAVNT_MACHINE_ENUM@@@Z
??0NT_MACHINE_ENUM@@QEAA@PEBVSAM_DOMAIN@@@Z
??0NT_GROUP_ENUM_OBJ@@QEAA@XZ
??0NT_GROUP_ENUM_ITER@@QEAA@AEAVNT_GROUP_ENUM@@@Z
??0NT_GROUP_ENUM@@QEAA@PEBVSAM_DOMAIN@@@Z
??0NT_ACCOUNT_ENUM@@IEAA@PEBVSAM_DOMAIN@@W4_DOMAIN_DISPLAY_INFORMATION@@H@Z
??0NEW_LM_OBJ@@QEAA@H@Z
??0NET_NAME@@QEAA@PEBGW4NETNAME_TYPE@@@Z
??0NET_ACCESS_1@@QEAA@PEBG0@Z
??0NET_ACCESS@@IEAA@PEBG0@Z
??0MEMBERSHIP_LM_OBJ@@QEAA@AEBVLOCATION@@I@Z
??0LSA_TRUST_INFO_MEM@@QEAA@H@Z
??0LSA_TRUSTED_DOMAIN@@QEAA@AEBVLSA_POLICY@@QEAXK@Z
??0LSA_TRUSTED_DOMAIN@@QEAA@AEBVLSA_POLICY@@AEBVNLS_STR@@QEAXK@Z
??0LSA_TRUSTED_DOMAIN@@QEAA@AEBVLSA_POLICY@@AEBU_LSA_TRUST_INFORMATION@@K@Z
??0LSA_TRUSTED_DC_LIST@@QEAA@AEBVNLS_STR@@PEBG@Z
??0LSA_TRANSLATED_SID_MEM@@QEAA@H@Z
??0LSA_TRANSLATED_NAME_MEM@@QEAA@H@Z
??0LSA_SERVER_ROLE_INFO_MEM@@QEAA@HH@Z
??0LSA_SECRET@@QEAA@AEBVNLS_STR@@@Z
??0LSA_REF_DOMAIN_MEM@@QEAA@H@Z
??0LSA_PRIVILEGES_ENUM_OBJ@@QEAA@XZ
??0LSA_PRIVILEGES_ENUM_ITER@@QEAA@AEAVLSA_PRIVILEGES_ENUM@@@Z
??0LSA_PRIVILEGES_ENUM@@QEAA@PEBVLSA_POLICY@@@Z
??0LSA_PRIMARY_DOM_INFO_MEM@@QEAA@H@Z
??0LSA_POLICY@@QEAA@PEBGK@Z
??0LSA_OBJECT@@IEAA@XZ
??0LSA_MEMORY@@IEAA@H@Z
??0LSA_ENUM@@IEAA@PEBVLSA_POLICY@@@Z
??0LSA_DOMAIN_INFO@@QEAA@AEBVNLS_STR@@PEBV1@1@Z
??0LSA_AUDIT_EVENT_INFO_MEM@@QEAA@H@Z
??0LSA_ACCT_DOM_INFO_MEM@@QEAA@H@Z
??0LSA_ACCOUNT_PRIVILEGE_ENUM_ITER@@QEAA@PEAVOS_PRIVILEGE_SET@@@Z
??0LSA_ACCOUNTS_ENUM_OBJ@@QEAA@XZ
??0LSA_ACCOUNTS_ENUM_ITER@@QEAA@AEAVLSA_ACCOUNTS_ENUM@@@Z
??0LSA_ACCOUNTS_ENUM@@QEAA@PEBVLSA_POLICY@@@Z
??0LSA_ACCOUNT@@QEAA@PEAVLSA_POLICY@@PEAXKPEBG1@Z
??0LOC_LM_RESUME_ENUM@@IEAA@W4LOCATION_TYPE@@IH@Z
??0LOC_LM_RESUME_ENUM@@IEAA@PEBGIH@Z
??0LOC_LM_RESUME_ENUM@@IEAA@AEBVLOCATION@@IH@Z
??0LOC_LM_OBJ@@QEAA@W4LOCATION_TYPE@@H@Z
??0LOC_LM_OBJ@@QEAA@PEBGH@Z
??0LOC_LM_OBJ@@QEAA@AEBVLOCATION@@H@Z
??0LOC_LM_ENUM@@IEAA@W4LOCATION_TYPE@@I@Z
??0LOC_LM_ENUM@@IEAA@PEBGI@Z
??0LOC_LM_ENUM@@IEAA@AEBVLOCATION@@I@Z
??0LOCATION@@QEAA@W4LOCATION_TYPE@@H@Z
??0LOCATION@@QEAA@PEBGH@Z
??0LOCATION@@QEAA@AEBV0@@Z
??0LOCAL_USER@@QEAA@W4LOCATION_TYPE@@@Z
??0LOCAL_USER@@QEAA@PEBG0@Z
??0LM_SRVRES@@QEAA@XZ
??0LM_SESSION_2@@QEAA@PEBGW4LOCATION_TYPE@@@Z
??0LM_SESSION_2@@QEAA@PEBGAEBVLOCATION@@@Z
??0LM_SESSION_2@@QEAA@PEBG0@Z
??0LM_SESSION_1@@QEAA@PEBGW4LOCATION_TYPE@@@Z
??0LM_SESSION_1@@QEAA@PEBGAEBVLOCATION@@@Z
??0LM_SESSION_1@@QEAA@PEBG0@Z
??0LM_SESSION_10@@QEAA@PEBGW4LOCATION_TYPE@@@Z
??0LM_SESSION_10@@QEAA@PEBGAEBVLOCATION@@@Z
??0LM_SESSION_10@@QEAA@PEBG0@Z
??0LM_SESSION_0@@QEAA@PEBGW4LOCATION_TYPE@@@Z
??0LM_SESSION_0@@QEAA@PEBGAEBVLOCATION@@@Z
??0LM_SESSION_0@@QEAA@PEBG0@Z
??0LM_SESSION@@IEAA@PEBGW4LOCATION_TYPE@@@Z
??0LM_SESSION@@IEAA@PEBGAEBVLOCATION@@@Z
??0LM_SESSION@@IEAA@PEBG0@Z
??0LM_SERVICE@@QEAA@PEBG0@Z
??0LM_RESUME_ENUM_ITER@@IEAA@AEAVLM_RESUME_ENUM@@@Z
??0LM_RESUME_ENUM@@IEAA@IH@Z
??0LM_RESUME_BUFFER@@QEAA@PEAVLM_RESUME_ENUM@@IPEAE@Z
??0LM_OBJ_BASE@@IEAA@H@Z
??0LM_OBJ@@QEAA@XZ
??0LM_MESSAGE@@QEAA@W4LOCATION_TYPE@@@Z
??0LM_MESSAGE@@QEAA@PEBG@Z
??0LM_MESSAGE@@QEAA@AEAVLOCATION@@@Z
??0LM_FILE_3@@QEAA@PEBGK@Z
??0LM_FILE_2@@QEAA@PEBGK@Z
??0LM_FILE@@IEAA@PEBGK@Z
??0LM_ENUM_ITER@@IEAA@AEAVLM_ENUM@@@Z
??0LM_ENUM@@IEAA@I@Z
??0LM_CONFIG@@QEAA@PEBG00@Z
??0ITER_SL_LM_RESUME_BUFFER@@QEAA@AEAVSLIST@@@Z
??0ITER_SL_BROWSE_DOMAIN_INFO@@QEAA@AEAVSLIST@@@Z
??0ITER_DEVICE@@QEAA@W4LMO_DEVICE@@W4LMO_DEV_USAGE@@@Z
??0GROUP_MEMB@@QEAA@AEBVLOCATION@@PEBG@Z
??0GROUP_ENUM@@IEAA@W4LOCATION_TYPE@@IPEBG@Z
??0GROUP_ENUM@@IEAA@PEBGI0@Z
??0GROUP_ENUM@@IEAA@AEBVLOCATION@@IPEBG@Z
??0GROUP_1@@QEAA@PEBGW4LOCATION_TYPE@@@Z
??0GROUP_1@@QEAA@PEBGAEBVLOCATION@@@Z
??0GROUP_1@@QEAA@PEBG0@Z
??0GROUP_0@@QEAA@PEBGW4LOCATION_TYPE@@@Z
??0GROUP_0@@QEAA@PEBGAEBVLOCATION@@@Z
??0GROUP_0@@QEAA@PEBG0@Z
??0GROUP@@QEAA@PEBGW4LOCATION_TYPE@@@Z
??0GROUP@@QEAA@PEBGAEBVLOCATION@@@Z
??0GROUP@@QEAA@PEBG0@Z
??0GROUP1_ENUM_OBJ@@QEAA@XZ
??0GROUP1_ENUM_ITER@@QEAA@AEAVGROUP1_ENUM@@@Z
??0GROUP1_ENUM@@QEAA@W4LOCATION_TYPE@@@Z
??0GROUP1_ENUM@@QEAA@PEBG@Z
??0GROUP1_ENUM@@QEAA@AEBVLOCATION@@@Z
??0GROUP0_ENUM_OBJ@@QEAA@XZ
??0GROUP0_ENUM_ITER@@QEAA@AEAVGROUP0_ENUM@@@Z
??0GROUP0_ENUM@@QEAA@W4LOCATION_TYPE@@PEBG@Z
??0GROUP0_ENUM@@QEAA@PEBG0@Z
??0GROUP0_ENUM@@QEAA@AEBVLOCATION@@PEBG@Z
??0FILE_ENUM@@IEAA@PEBG00I@Z
??0FILE3_ENUM_OBJ@@QEAA@XZ
??0FILE3_ENUM_ITER@@QEAA@AEAVFILE3_ENUM@@@Z
??0FILE3_ENUM@@QEAA@PEBG00@Z
??0FILE2_ENUM_OBJ@@QEAA@XZ
??0FILE2_ENUM_ITER@@QEAA@AEAVFILE2_ENUM@@@Z
??0FILE2_ENUM@@QEAA@PEBG00@Z
??0ENUM_OBJ_BASE@@IEAA@XZ
??0ENUM_CALLER_LM_OBJ@@QEAA@AEBVLOCATION@@@Z
??0ENUM_CALLER@@QEAA@XZ
??0DOMAIN_WITH_DC_CACHE@@QEAA@PEBGH@Z
??0DOMAIN_WITH_DC_CACHE@@QEAA@PEBG0H@Z
??0DOMAIN_ENUM@@IEAA@PEBGI@Z
??0DOMAIN@@QEAA@PEBGH@Z
??0DOMAIN@@QEAA@PEBG0H@Z
??0DOMAIN0_ENUM_OBJ@@QEAA@XZ
??0DOMAIN0_ENUM_ITER@@QEAA@AEAVDOMAIN0_ENUM@@@Z
??0DOMAIN0_ENUM@@QEAA@PEBG@Z
??0DEVICE@@QEAA@PEBG@Z
??0DEVICE2@@QEAA@PEBG@Z
??0CONTEXT_ENUM_OBJ@@QEAA@XZ
??0CONTEXT_ENUM_ITER@@QEAA@AEAVCONTEXT_ENUM@@@Z
??0CONTEXT_ENUM@@QEAA@K@Z
??0CONN_ENUM@@IEAA@PEBG0I@Z
??0CONN1_ENUM_OBJ@@QEAA@XZ
??0CONN1_ENUM_ITER@@QEAA@AEAVCONN1_ENUM@@@Z
??0CONN1_ENUM@@QEAA@PEBG0@Z
??0CONN0_ENUM_OBJ@@QEAA@XZ
??0CONN0_ENUM_ITER@@QEAA@AEAVCONN0_ENUM@@@Z
??0CONN0_ENUM@@QEAA@PEBG0@Z
??0COMPUTER@@IEAA@PEBG@Z
??0CHARDEVQ_ENUM@@IEAA@PEBG0I@Z
??0CHARDEVQ1_ENUM_OBJ@@QEAA@XZ
??0CHARDEVQ1_ENUM_ITER@@QEAA@AEAVCHARDEVQ1_ENUM@@@Z
??0CHARDEVQ1_ENUM@@QEAA@PEBG0@Z
??0BROWSE_DOMAIN_INFO@@QEAA@PEBGK@Z
??0BROWSE_DOMAIN_ENUM@@QEAA@KPEAK@Z
??0BASE@@IEAA@XZ
??0API_SESSION@@QEAA@PEBGH@Z
??0ALLOC_STR@@QEAA@PEAGI@Z
??0ALIAS_STR@@QEAA@PEBG@Z
??0ALIAS_ENUM_OBJ@@QEAA@XZ
??0ALIAS_ENUM_ITER@@QEAA@AEAVALIAS_ENUM@@@Z
??0ALIAS_ENUM@@QEAA@AEAVSAM_DOMAIN@@I@Z
??0ADMIN_AUTHORITY@@QEAA@PEBGKKKKH@Z
