LIBRARY NETUI0.DLL
EXPORTS
UserProfileWrite
UserProfileSet
UserProfileRead
UserProfileQuery
UserProfileInit
UserProfileFree
UserProfileEnum
UserPreferenceSetBool
UserPreferenceSet
UserPreferenceQueryBool
UserPreferenceQuery
QueryUserDefaultLCID
QueryStdCompareParam
QueryNocaseCompareParam
NETUI_strnicmp2
NETUI_strnicmp
NETUI_strncmp2
NETUI_strncmp
NETUI_stricmp
NETUI_strcmp
NETUI_IsDBCS
NETUI_InitIsDBCS
InitCompareParam
?vNext@RITER_DL@@UEAAPEAXXZ
?vNext@ITER_DL@@UEAAPEAXXZ
?strstr@NLS_STR@@QEBAHPEAVISTR@@AEBV1@AEBV2@@Z
?strstr@NLS_STR@@QEBAHPEAVISTR@@AEBV1@@Z
?strspn@NLS_STR@@QEBAHPEAVISTR@@AEBV1@AEBV2@@Z
?strspn@NLS_STR@@QEBAHPEAVISTR@@AEBV1@@Z
?strrchr@NLS_STR@@QEBAHPEAVISTR@@GAEBV2@@Z
?strrchr@NLS_STR@@QEBAHPEAVISTR@@G@Z
?strncmp@NLS_STR@@QEBAHAEBV1@AEBVISTR@@@Z
?strncmp@NLS_STR@@QEBAHAEBV1@AEBVISTR@@1@Z
?strncmp@NLS_STR@@QEBAHAEBV1@AEBVISTR@@11@Z
?strlen@NLS_STR@@QEBAIXZ
?strcspn@NLS_STR@@QEBAHPEAVISTR@@AEBV1@AEBV2@@Z
?strcspn@NLS_STR@@QEBAHPEAVISTR@@AEBV1@@Z
?strcpy@@YAPEAGPEAGAEBVNLS_STR@@@Z
?strcmp@NLS_STR@@QEBAHAEBV1@AEBVISTR@@@Z
?strcmp@NLS_STR@@QEBAHAEBV1@AEBVISTR@@1@Z
?strcmp@NLS_STR@@QEBAHAEBV1@@Z
?strchr@NLS_STR@@QEBAHPEAVISTR@@GAEBV2@@Z
?strchr@NLS_STR@@QEBAHPEAVISTR@@G@Z
?strcat@NLS_STR@@QEAAAEAV1@AEBV1@@Z
?atoul@NLS_STR@@QEBAKXZ
?atoul@NLS_STR@@QEBAKAEBVISTR@@@Z
?atol@NLS_STR@@QEBAJXZ
?atol@NLS_STR@@QEBAJAEBVISTR@@@Z
?atoi@NLS_STR@@QEBAHXZ
?atoi@NLS_STR@@QEBAHAEBVISTR@@@Z
?_strupr@NLS_STR@@QEAAAEAV1@XZ
?_strnicmp@NLS_STR@@QEBAHAEBV1@AEBVISTR@@@Z
?_strnicmp@NLS_STR@@QEBAHAEBV1@AEBVISTR@@1@Z
?_strnicmp@NLS_STR@@QEBAHAEBV1@AEBVISTR@@11@Z
?_stricmp@NLS_STR@@QEBAHAEBV1@AEBVISTR@@@Z
?_stricmp@NLS_STR@@QEBAHAEBV1@AEBVISTR@@1@Z
?_stricmp@NLS_STR@@QEBAHAEBV1@@Z
?_ReportError@BASE@@IEAAXJ@Z
?_QueryTextLength@NLS_STR@@QEBAIXZ
?_QueryPch@NLS_STR@@QEBAPEBGXZ
?_QueryAllocSize@NLS_STR@@QEBAIXZ
?_IsOwnerAlloc@NLS_STR@@QEBAHXZ
?_DebugPrint@TREE@@QEBAXXZ
?_DebugPrint@SLIST@@QEBAXXZ
?_DebugPrint@DLIST@@QEBAXXZ
?WriteToBuffer@STRLIST@@QEAAHPEAGH0@Z
?UpdateIstr@NLS_STR@@AEBAXPEAVISTR@@@Z
?Unlink@UATOM_LINKAGE@@QEAAXXZ
?Unlink@TREE@@IEAAXXZ
?Unlink@DLIST@@IEAAPEAXPEAVDL_NODE@@@Z
?UIAssertHlp@@YAXPEBDI@Z
?UIAssertHlp@@YAXPEBD0I@Z
?UIAssertCommand@@YAXPEBD@Z
?Trim@HEAP_BASE@@QEAAXXZ
?Trim@BUFFER@@QEAAXXZ
?Tokenize@UATOM_MANAGER@@AEAAPEAVUATOM@@PEBGH@Z
?Terminate@UATOM_MANAGER@@SAJXZ
?ShouldThisFileBeIncluded@FS_ENUM@@IEBAHI@Z
?SetValue@REG_KEY@@QEAAJPEBGPEBVSTRLIST@@PEBK@Z
?SetValue@REG_KEY@@QEAAJPEBGPEBVNLS_STR@@PEBKH@Z
?SetValue@REG_KEY@@QEAAJPEBGPEBEJPEBK@Z
?SetValue@REG_KEY@@QEAAJPEBGKPEBK@Z
?SetValue@REG_KEY@@QEAAJPEBG0KPEBKH@Z
?SetValue@REG_KEY@@QEAAJPEAVREG_VALUE_INFO_STRUCT@@@Z
?SetTimeLocal@WIN_TIME@@QEAAJU_FILETIME@@@Z
?SetTimeLocal@WIN_TIME@@QEAAJK@Z
?SetTime@WIN_TIME@@QEAAJU_FILETIME@@@Z
?SetTime@WIN_TIME@@QEAAJK@Z
?SetStartNode@DFSITER_TREE@@AEAAXPEBVTREE@@@Z
?SetSink@DBGSTREAM@@QEAAXPEAVOUTPUTSINK@@@Z
?SetRight@TREE@@AEAAXPEAV1@@Z
?SetProp@TREE@@QEAAXQEAX@Z
?SetParent@TREE@@AEAAXPEAV1@@Z
?SetNode@DFSITER_TREE@@AEAAXPEBVTREE@@@Z
?SetMaxDepth@DFSITER_TREE@@AEAAXI@Z
?SetLeft@TREE@@AEAAXPEAV1@@Z
?SetKeyValueString@REG_KEY@@AEAAJPEBG0KJK@Z
?SetKeyValueLong@REG_KEY@@AEAAJPEBGJK@Z
?SetKeyValueBinary@REG_KEY@@AEAAJPEBGPEBEJKK@Z
?SetIters@SLIST@@IEAAXPEAVSL_NODE@@@Z
?SetIters@SLIST@@IEAAXPEAVSL_NODE@@0@Z
?SetIters@DLIST@@IEAAXPEAVDL_NODE@@@Z
?SetItem@HEAP_BASE@@IEAAXHPEAX@Z
?SetIch@ISTR@@AEAAXH@Z
?SetHourInWeek@LOGON_HOURS_SETTING@@QEAAJHI@Z
?SetHourInDay@LOGON_HOURS_SETTING@@QEAAJHII@Z
?SetGMT@WIN_TIME@@QEAAJH@Z
?SetFromBits@LOGON_HOURS_SETTING@@QEAAJPEBEI@Z
?SetFirstSubtree@TREE@@AEAAXPEAV1@@Z
?SetFindFirstFlag@DIR_BLOCK@@QEAAXH@Z
?SetDoBreadthFirstDirs@DIR_BLOCK@@QEAAXH@Z
?SetCurrentTime@WIN_TIME@@QEAAJXZ
?SetCurrentDirBlock@FS_ENUM@@IEAAXPEAVDIR_BLOCK@@@Z
?SetCurrent@DBGSTREAM@@SAXPEAV1@@Z
?SetCurDepth@DFSITER_TREE@@AEAAXI@Z
?SetBit@BITFIELD@@QEAAXIW4BITVALUES@@@Z
?SetAllocCount@HEAP_BASE@@QEAAJH@Z
?SetAllBits@BITFIELD@@QEAAXW4BITVALUES@@@Z
?Set@SL_NODE@@QEAAXPEAV1@PEAX@Z
?Set@LOGON_HOURS_SETTING@@QEAAJAEBV1@@Z
?Set@DL_NODE@@QEAAXPEAV1@0PEAX@Z
?ScanLongDate@INTL_PROFILE@@AEBAJPEAVNLS_STR@@@Z
?RtlOemUpcase@NLS_STR@@QEAAJXZ
?Resize@BUFFER@@QEAAJI@Z
?Resize@BITFIELD@@QEAAJI@Z
?ResetError@BASE@@IEAAXXZ
?Reset@RITER_DL@@QEAAXXZ
?Reset@NLS_STR@@QEAAHXZ
?Reset@ITER_SL@@QEAAXXZ
?Reset@ITER_DL@@QEAAXXZ
?Reset@ISTR@@QEAAXXZ
?Reset@DFSITER_TREE@@QEAAXXZ
?ReportLastError@FS_ENUM@@IEAAXJ@Z
?ReportError@BASE@@IEAAXJ@Z
?ReplSubStr@NLS_STR@@QEAAXAEBV1@AEAVISTR@@AEBV2@@Z
?ReplSubStr@NLS_STR@@QEAAXAEBV1@AEAVISTR@@@Z
?ReplSubStr@NLS_STR@@AEAAXAEBV1@AEAVISTR@@I@Z
?Render@OUTPUT_TO_STDOUT@@UEAAXPEBGI@Z
?Render@OUTPUT_TO_STDOUT@@UEAAXPEBG@Z
?Render@OUTPUT_TO_STDERR@@UEAAXPEBGI@Z
?Render@OUTPUT_TO_STDERR@@UEAAXPEBG@Z
?Render@OUTPUT_TO_NUL@@EEAAXPEBGI@Z
?Render@OUTPUT_TO_NUL@@EEAAXPEBG@Z
?Render@OUTPUT_TO_AUX@@UEAAXPEBGI@Z
?Render@OUTPUT_TO_AUX@@UEAAXPEBG@Z
?Remove@SLIST_OF_NLS_STR@@QEAAPEAVNLS_STR@@AEAV2@@Z
?Remove@SLIST_OF_DIR_BLOCK@@QEAAPEAVDIR_BLOCK@@AEAVITER_SL_DIR_BLOCK@@@Z
?Remove@SLIST@@QEAAPEAXAEAVITER_SL@@@Z
?Remove@DLIST@@QEAAPEAXAEAVRITER_DL@@@Z
?Remove@DLIST@@QEAAPEAXAEAVITER_DL@@@Z
?Reload@FMX@@QEAAXXZ
?Register@SLIST@@IEAAXPEAVITER_SL@@@Z
?Register@DLIST@@IEAAXPEAVITER_L@@@Z
?Refresh@INTL_PROFILE@@QEAAJXZ
?Refresh@FMX@@QEAAXXZ
?ReallocStorage@BUFFER@@AEAAJI@Z
?Realloc@NLS_STR@@AEAAHI@Z
?QueryYearPos@INTL_PROFILE@@QEBAHXZ
?QueryYear@WIN_TIME@@QEBAHXZ
?QueryValue@REG_KEY@@QEAAJPEBGPEAVNLS_STR@@KPEAKH@Z
?QueryValue@REG_KEY@@QEAAJPEBGPEAPEAVSTRLIST@@PEAK@Z
?QueryValue@REG_KEY@@QEAAJPEBGPEAPEAGKPEAKH@Z
?QueryValue@REG_KEY@@QEAAJPEBGPEAPEAEPEAJJPEAK@Z
?QueryValue@REG_KEY@@QEAAJPEBGPEAK1@Z
?QueryValue@REG_KEY@@QEAAJPEAVREG_VALUE_INFO_STRUCT@@@Z
?QueryUnitsPerWeek@LOGON_HOURS_SETTING@@QEBAIXZ
?QueryTimeString@INTL_PROFILE@@QEBAJAEBVWIN_TIME@@PEAVNLS_STR@@@Z
?QueryTimeSeparator@INTL_PROFILE@@QEBAJPEAVNLS_STR@@@Z
?QueryTimeLocal@WIN_TIME@@QEBAJPEAK@Z
?QueryTime@WIN_TIME@@QEBAJPEAK@Z
?QueryTextSize@NLS_STR@@QEBAIXZ
?QueryTextLength@NLS_STR@@QEBAIXZ
?QueryText@HUATOM@@QEBAPEBGXZ
?QuerySubStr@NLS_STR@@QEBAPEAV1@AEBVISTR@@@Z
?QuerySubStr@NLS_STR@@QEBAPEAV1@AEBVISTR@@0@Z
?QuerySubStr@NLS_STR@@AEBAPEAV1@AEBVISTR@@I@Z
?QueryString@ISTR@@AEBAPEBVNLS_STR@@XZ
?QueryStartNode@DFSITER_TREE@@IEBAPEBVTREE@@XZ
?QuerySize@BUFFER@@QEBAIXZ
?QueryShortDateString@INTL_PROFILE@@QEBAJAEBVWIN_TIME@@PEAVNLS_STR@@@Z
?QuerySelection@FMX@@QEAAJHPEAU_FMS_GETFILESELW@@H@Z
?QuerySelCount@FMX@@QEBAIXZ
?QuerySecond@WIN_TIME@@QEBAHXZ
?QuerySearchAttr@FS_ENUM@@IEBAIXZ
?QueryRight@TREE@@QEBAPEAV1@XZ
?QueryPtr@BUFFER@@QEBAPEAEXZ
?QueryProp@TREE@@QEBAPEAXXZ
?QueryProp@ITER_SL@@QEAAPEAXXZ
?QueryPch@NLS_STR@@QEBAPEBGXZ
?QueryPch@NLS_STR@@QEBAPEBGAEBVISTR@@@Z
?QueryParent@TREE@@QEBAPEAV1@XZ
?QueryPMStr@INTL_PROFILE@@QEBAJPEAVNLS_STR@@@Z
?QueryOffset@BITFIELD@@QEBAII@Z
?QueryNumElem@TREE@@QEBAIXZ
?QueryNumElem@SLIST@@QEAAIXZ
?QueryNumElem@DLIST@@QEAAIXZ
?QueryNumChar@NLS_STR@@QEBAIXZ
?QueryNode@DFSITER_TREE@@IEBAPEBVTREE@@XZ
?QueryNls@HUATOM@@QEBAPEBVNLS_STR@@XZ
?QueryName@REG_KEY@@QEBAJPEAVNLS_STR@@H@Z
?QueryName@FS_ENUM@@QEBAJPEAVNLS_STR@@@Z
?QueryMonthPos@INTL_PROFILE@@QEBAHXZ
?QueryMonth@WIN_TIME@@QEBAHXZ
?QueryMinute@WIN_TIME@@QEBAHXZ
?QueryMaxNonAllocBitCount@BITFIELD@@IEBAIXZ
?QueryMaxDepth@FS_ENUM@@QEAAIXZ
?QueryMaxDepth@DFSITER_TREE@@IEBAIXZ
?QueryLongDateString@INTL_PROFILE@@QEBAJAEBVWIN_TIME@@PEAVNLS_STR@@@Z
?QueryLocalMachine@REG_KEY@@SAPEAV1@K@Z
?QueryLinked@UATOM_LINKAGE@@QEAAHXZ
?QueryLeft@TREE@@QEBAPEAV1@XZ
?QueryLastSubtree@TREE@@QEBAPEAV1@XZ
?QueryKeyValueString@REG_KEY@@AEAAJPEBGPEAPEAGPEAVNLS_STR@@PEAKJPEAJK@Z
?QueryKeyValueLong@REG_KEY@@AEAAJPEBGPEAJPEAK@Z
?QueryKeyValueBinary@REG_KEY@@AEAAJPEBGPEAPEAEPEAJJPEAKK@Z
?QueryKeyName@REG_KEY@@QEBAJPEAVNLS_STR@@@Z
?QueryInfo@REG_KEY@@QEAAJPEAVREG_KEY_INFO_STRUCT@@@Z
?QueryIch@ISTR@@AEBAHXZ
?QueryHoursBlock@LOGON_HOURS_SETTING@@QEBAPEAEXZ
?QueryHourInWeek@LOGON_HOURS_SETTING@@QEBAHI@Z
?QueryHourInDay@LOGON_HOURS_SETTING@@QEBAHII@Z
?QueryHour@WIN_TIME@@QEBAHXZ
?QueryFocus@FMX@@QEBAIXZ
?QueryFirstSubtree@TREE@@QEBAPEAV1@XZ
?QueryFileTimeLocal@WIN_TIME@@QEBAJPEAU_FILETIME@@@Z
?QueryFileTime@WIN_TIME@@QEBAJPEAU_FILETIME@@@Z
?QueryFileName@W32_DIR_BLOCK@@UEAAPEBGXZ
?QueryError@HUATOM@@QEBAJXZ
?QueryError@FORWARDING_BASE@@QEBAJXZ
?QueryError@BASE@@QEBAJXZ
?QueryDurationStr@INTL_PROFILE@@QEBAJHHHHPEAVNLS_STR@@@Z
?QueryDriveInfo@FMX@@QEAAJPEAU_FMS_GETDRIVEINFOW@@@Z
?QueryDirsIter@DIR_BLOCK@@QEAAPEAVITER_STRLIST@@XZ
?QueryDirs@DIR_BLOCK@@QEAAPEAVSTRLIST@@XZ
?QueryDayPos@INTL_PROFILE@@QEBAHXZ
?QueryDayOfWeek@WIN_TIME@@QEBAHXZ
?QueryDay@WIN_TIME@@QEBAHXZ
?QueryDateSeparator@INTL_PROFILE@@QEBAJPEAVNLS_STR@@@Z
?QueryData@WCHAR_STRING@@QEBAPEBGXZ
?QueryData@CHAR_STRING@@QEBAPEBDXZ
?QueryCurrentUser@REG_KEY@@SAPEAV1@K@Z
?QueryCurrentTimeStamp@@YAKXZ
?QueryCurrentDirBlock@FS_ENUM@@QEBAPEAVDIR_BLOCK@@XZ
?QueryCurrentDepth@FS_ENUM@@QEAAIXZ
?QueryCurrent@DBGSTREAM@@SAAEAV1@XZ
?QueryCurDepth@DFSITER_TREE@@IEBAIXZ
?QueryCount@BITFIELD@@QEBAIXZ
?QueryChar@NLS_STR@@QEBAGAEBVISTR@@@Z
?QueryByteCount@LOGON_HOURS_SETTING@@QEBAIXZ
?QueryByteCount@LOGON_HOURS_SETTING@@CAII@Z
?QueryBufferSize@STRLIST@@QEAAHPEAG@Z
?QueryBitPos@BITFIELD@@IEBAPEAEII@Z
?QueryAttr@W32_DIR_BLOCK@@UEAAIXZ
?QueryAnsiTextLength@NLS_STR@@QEBAIXZ
?QueryAllocSize@NLS_STR@@QEBAIXZ
?QueryAllocSize@BITFIELD@@QEBAIXZ
?QueryActualSize@BUFFER@@AEAAIXZ
?QueryAMStr@INTL_PROFILE@@QEBAJPEAVNLS_STR@@@Z
?PushDir@FS_ENUM@@IEAAJPEBG@Z
?PopDir@FS_ENUM@@IEAAJXZ
?PermitAll@LOGON_HOURS_SETTING@@QEAAJXZ
?PeekItem@HEAP_BASE@@IEBAPEAXH@Z
?ParentName@REG_KEY@@AEBAJPEAVNLS_STR@@@Z
?OpenParent@REG_KEY@@AEAAPEAV1@K@Z
?OpenChild@REG_KEY@@AEAAJPEAV1@AEBVNLS_STR@@KK@Z
?OpenByName@REG_KEY@@AEAAJAEBVNLS_STR@@K@Z
?Not@BITFIELD@@QEAAXXZ
?Normalize@WIN_TIME@@QEAAJXZ
?NextDepthFirst@FS_ENUM@@IEAAHXZ
?NextBreadthFirst@FS_ENUM@@IEAAHXZ
?Next@ITER_SL_NLS_STR@@QEAAPEAVNLS_STR@@XZ
?Next@ITER_SL_DIR_BLOCK@@QEAAPEAVDIR_BLOCK@@XZ
?Next@ITER_SL@@QEAAPEAXXZ
?Next@FS_ENUM@@QEAAHXZ
?Next@DFSITER_TREE@@QEAAPEAXXZ
?NameChild@REG_KEY@@AEBAJPEAV1@AEBVNLS_STR@@@Z
?MapNTStatus@ERRMAP@@SAJJPEAHJ@Z
?MapCopyTo@NLS_STR@@QEBAJPEAGI@Z
?MapCopyTo@NLS_STR@@QEBAJPEADI@Z
?MapCopyFrom@NLS_STR@@QEAAJPEBGI@Z
?MapCopyFrom@NLS_STR@@QEAAJPEBDI@Z
?MakeDefault@LOGON_HOURS_SETTING@@QEAAJXZ
?LoadSystem@NLS_STR@@QEAAJJ@Z
?Load@NLS_STR@@QEAAJJPEAUHINSTANCE__@@@Z
?Link@UATOM_LINKAGE@@QEAAXPEAV1@@Z
?LeafKeyName@REG_KEY@@AEBAPEBGXZ
?JoinSubtreeRight@TREE@@QEAAXPEAV1@@Z
?JoinSubtreeLeft@TREE@@QEAAXPEAV1@@Z
?JoinSiblingRight@TREE@@QEAAXPEAV1@@Z
?JoinSiblingLeft@TREE@@QEAAXPEAV1@@Z
?IsYrCentury@INTL_PROFILE@@QEBAHXZ
?IsTimePrefix@INTL_PROFILE@@QEBAHXZ
?IsOwnerAlloc@NLS_STR@@QEBAHXZ
?IsMonthLZero@INTL_PROFILE@@QEBAHXZ
?IsMember@SLIST_OF_NLS_STR@@QEAAHAEBVNLS_STR@@@Z
?IsLastPos@ISTR@@QEBAHXZ
?IsIdenticalToBits@LOGON_HOURS_SETTING@@QEBAHPEBEI@Z
?IsHourLZero@INTL_PROFILE@@QEBAHXZ
?IsHeterogeneousSelection@FMX@@QEAAHPEAH@Z
?IsDir@DIR_BLOCK@@QEAAHXZ
?IsDayLZero@INTL_PROFILE@@QEBAHXZ
?IsBitSet@BITFIELD@@QEBAHI@Z
?IsAllocated@BITFIELD@@IEBAHXZ
?Is24Hour@INTL_PROFILE@@QEBAHXZ
?InsertStr@NLS_STR@@QEAAHAEBV1@AEAVISTR@@@Z
?InsertParamsAux@NLS_STR@@AEAAJPEAPEBV1@IHPEAI@Z
?InsertParams@NLS_STR@@QEAAJPEAPEBV1@@Z
?InsertParams@NLS_STR@@QEAAJIPEBV1@ZZ
?InsertParams@NLS_STR@@QEAAJAEBV1@00@Z
?Insert@SLIST@@QEAAJPEAXAEAVITER_SL@@@Z
?Insert@DLIST@@QEAAJPEAXAEAVRITER_DL@@@Z
?Insert@DLIST@@QEAAJPEAXAEAVITER_DL@@@Z
?InitializeVers@NLS_STR@@IEAAXXZ
?Initialize@UATOM_MANAGER@@SAJXZ
?Init@UATOM_LINKAGE@@QEAAXXZ
?Init@NUM_NLS_STR@@SAXXZ
?IncVers@NLS_STR@@IEAAXXZ
?I_RemoveTopItem@HEAP_BASE@@IEAAPEAXXZ
?I_AddItem@HEAP_BASE@@IEAAJPEAX@Z
?HeapResidueIter@@YAXIH@Z
?HasFindFirstBeenCalled@DIR_BLOCK@@QEAAHXZ
?HandlePrefix@REG_KEY@@CAHAEBVNLS_STR@@PEAPEAUHKEY__@@PEAV2@2@Z
?GetSelItem@@YAJPEAUHWND__@@PEAVNLS_STR@@HPEAH@Z
?GetSelItem@@YAJPEAUHWND__@@IPEAVNLS_STR@@PEAH@Z
?GetNewStorage@BUFFER@@AEAAJI@Z
?Fwd@UATOM_LINKAGE@@QEAAPEAVUATOM@@XZ
?Flush@REG_KEY@@QEAAJXZ
?FindPrev@SLIST@@IEAAPEAVSL_NODE@@PEAV2@@Z
?FindNext@W32_FS_ENUM@@MEAAJPEAVDIR_BLOCK@@I@Z
?FindFirst@W32_FS_ENUM@@MEAAJPEAVDIR_BLOCK@@AEBVNLS_STR@@I@Z
?FillOut@BUFFER@@QEAAXXZ
?EndOfLine@OUTPUT_TO_STDOUT@@UEAAXXZ
?EndOfLine@OUTPUT_TO_STDERR@@UEAAXXZ
?EndOfLine@OUTPUT_TO_NUL@@EEAAXXZ
?EndOfLine@OUTPUT_TO_AUX@@UEAAXXZ
?DoBreadthFirstDirs@DIR_BLOCK@@QEBAHXZ
?Deregister@SLIST@@IEAAXPEAVITER_SL@@@Z
?Deregister@DLIST@@IEAAXPEAVITER_L@@@Z
?DeleteValue@REG_KEY@@QEAAJAEBVNLS_STR@@@Z
?Delete@REG_KEY@@QEAAJXZ
?DelSubStr@NLS_STR@@QEAAXAEAVISTR@@AEBV2@@Z
?DelSubStr@NLS_STR@@QEAAXAEAVISTR@@@Z
?DelSubStr@NLS_STR@@AEAAXAEAVISTR@@I@Z
?CreateList@STRLIST@@AEAAXPEBG0@Z
?CreateDirBlock@W32_FS_ENUM@@MEAAPEAVDIR_BLOCK@@XZ
?CreateChild@REG_KEY@@AEBAJPEAV1@AEBVNLS_STR@@PEAVREG_KEY_CREATE_STRUCT@@@Z
?CopyTo@NLS_STR@@QEBAJPEAGI@Z
?CopyFrom@NLS_STR@@QEAAJPEBGI@Z
?CopyFrom@NLS_STR@@QEAAJAEBV1@@Z
?ConvertToHoursPerWeek@LOGON_HOURS_SETTING@@QEAAJXZ
?ConvertToGMT@LOGON_HOURS_SETTING@@QEAAHXZ
?ConvertFromGMT@LOGON_HOURS_SETTING@@QEAAHXZ
?Compare@NLS_STR@@QEBAHPEBV1@@Z
?Command@FMX@@AEBA_KII_J@Z
?Close@REG_KEY@@AEAAJXZ
?Clear@SLIST_OF_NLS_STR@@QEAAXXZ
?Clear@SLIST_OF_DIR_BLOCK@@QEAAXXZ
?CheckUnavailDevice@@YAJPEBGPEAGPEAH@Z
?CheckLocalLpt@@YAJPEBG@Z
?CheckLocalDrive@@YAJPEBG@Z
?CheckLocalComm@@YAJPEBG@Z
?CheckIter@SLIST@@IEAAHPEAVITER_SL@@@Z
?CheckIter@DLIST@@IEAAHPEAVITER_L@@@Z
?CheckIstr@NLS_STR@@AEBAXAEBVISTR@@@Z
?BumpIters@SLIST@@IEAAXPEAVSL_NODE@@@Z
?BumpIters@DLIST@@IEAAXPEAVDL_NODE@@@Z
?BreakOut@TREE@@QEAAPEAV1@XZ
?AppendChar@NLS_STR@@QEAAJG@Z
?Append@SLIST_OF_NLS_STR@@QEAAJPEBVNLS_STR@@@Z
?Append@SLIST@@QEAAJPEAX@Z
?Append@NLS_STR@@QEAAJAEBV1@@Z
?Append@DLIST@@QEAAJPEAX@Z
?AllocBitfield@BITFIELD@@IEAAJI@Z
?Alloc@ONE_SHOT_HEAP@@QEAAPEAEI@Z
?Alloc@NLS_STR@@AEAAHI@Z
?Add@SLIST_OF_NLS_STR@@QEAAJPEBVNLS_STR@@@Z
?Add@SLIST_OF_DIR_BLOCK@@QEAAJPEBVDIR_BLOCK@@@Z
?Add@SLIST@@QEAAJPEAX@Z
?Add@DLIST@@QEAAJPEAX@Z
??_J@YAXPEAX_KHP6APEAX0@Z@Z
??_I@YAXPEAX_KHP6AX0@Z@Z
??_H@YAXPEAX_KHP6APEAX0@Z@Z
??_5BITFIELD@@QEAAXK@Z
??_5BITFIELD@@QEAAXG@Z
??_5BITFIELD@@QEAAXAEBV0@@Z
??_4BITFIELD@@QEAAXK@Z
??_4BITFIELD@@QEAAXG@Z
??_4BITFIELD@@QEAAXAEBV0@@Z
??YNLS_STR@@QEAAAEAV0@AEBV0@@Z
??YISTR@@QEAAXH@Z
??RITER_SL_NLS_STR@@QEAAPEAVNLS_STR@@XZ
??OISTR@@QEBAHAEBV0@@Z
??MISTR@@QEBAHAEBV0@@Z
??IBITFIELD@@QEAAHAEBV0@@Z
??GISTR@@QEBAHAEBV0@@Z
??EISTR@@QEAAAEAV0@XZ
??BTCHAR_STR@@QEAAAEBVALIAS_STR@@XZ
??BREG_KEY@@QEBAPEAUHKEY__@@XZ
??BNLS_STR@@QEBAPEBGXZ
??BBITFIELD@@QEAAKXZ
??BBITFIELD@@QEAAGXZ
??9NLS_STR@@QEBAHAEBV0@@Z
??8NLS_STR@@QEBAHAEBV0@@Z
??8ISTR@@QEBAHAEBV0@@Z
??8BITFIELD@@QEBAHK@Z
??8BITFIELD@@QEBAHG@Z
??8BITFIELD@@QEAAHAEAV0@@Z
??7BASE@@QEBAHXZ
??6DBGSTREAM@@QEAAAEAV0@_K@Z
??6DBGSTREAM@@QEAAAEAV0@_J@Z
??6DBGSTREAM@@QEAAAEAV0@W4DBGSTR_SPECIAL@@@Z
??6DBGSTREAM@@QEAAAEAV0@PEBG@Z
??6DBGSTREAM@@QEAAAEAV0@PEBD@Z
??6DBGSTREAM@@QEAAAEAV0@K@Z
??6DBGSTREAM@@QEAAAEAV0@J@Z
??6DBGSTREAM@@QEAAAEAV0@I@Z
??6DBGSTREAM@@QEAAAEAV0@H@Z
??6DBGSTREAM@@QEAAAEAV0@G@Z
??6DBGSTREAM@@QEAAAEAV0@F@Z
??6DBGSTREAM@@QEAAAEAV0@D@Z
??4NLS_STR@@QEAAAEAV0@PEBG@Z
??4NLS_STR@@QEAAAEAV0@AEBV0@@Z
??4ISTR@@QEAAAEAV0@AEBV0@@Z
??4BITFIELD@@QEAAAEAV0@K@Z
??4BITFIELD@@QEAAAEAV0@G@Z
??4BITFIELD@@QEAAAEAV0@AEBV0@@Z
??4ALLOC_STR@@QEAAAEAV0@PEBG@Z
??4ALIAS_STR@@QEAAAEBV0@PEBG@Z
??4ALIAS_STR@@QEAAAEBV0@AEBVNLS_STR@@@Z
??3ALLOC_BASE@@SAXPEAX@Z
??2ALLOC_BASE@@SAPEAX_KPEAX@Z
??2ALLOC_BASE@@SAPEAX_K@Z
??1WCHAR_STRING@@QEAA@XZ
??1W32_FS_ENUM@@UEAA@XZ
??1W32_DIR_BLOCK@@UEAA@XZ
??1UATOM_REGION@@QEAA@XZ
??1UATOM_MANAGER@@AEAA@XZ
??1UATOM_LINKAGE@@QEAA@XZ
??1UATOM@@QEAA@XZ
??1TREE@@QEAA@XZ
??1TCHAR_STR@@QEAA@XZ
??1STRLIST@@QEAA@XZ
??1SLIST_OF_NLS_STR@@QEAA@XZ
??1SLIST_OF_DIR_BLOCK@@QEAA@XZ
??1SLIST@@QEAA@XZ
??1RITER_DL@@QEAA@XZ
??1REG_VALUE_INFO_STRUCT@@QEAA@XZ
??1REG_KEY_INFO_STRUCT@@QEAA@XZ
??1REG_KEY@@QEAA@XZ
??1NLS_STR@@QEAA@XZ
??1LOGON_HOURS_SETTING@@QEAA@XZ
??1ITER_STRLIST@@QEAA@XZ
??1ITER_SL_NLS_STR@@QEAA@XZ
??1ITER_SL_DIR_BLOCK@@QEAA@XZ
??1ITER_SL@@QEAA@XZ
??1ITER_DL@@QEAA@XZ
??1HEAP_BASE@@IEAA@XZ
??1FS_ENUM@@UEAA@XZ
??1ELAPSED_TIME_STR@@QEAA@XZ
??1DLIST@@QEAA@XZ
??1DIR_BLOCK@@UEAA@XZ
??1DFSITER_TREE@@QEAA@XZ
??1DEC_STR@@QEAA@XZ
??1DBGSTREAM@@QEAA@XZ
??1CHAR_STRING@@QEAA@XZ
??1BUFFER@@QEAA@XZ
??1BITFIELD@@QEAA@XZ
??1ALIAS_STR@@QEAA@XZ
??0WIN_TIME@@QEAA@U_FILETIME@@H@Z
??0WIN_TIME@@QEAA@KH@Z
??0WIN_TIME@@QEAA@H@Z
??0WCHAR_STRING@@QEAA@PEBDI@Z
??0W32_FS_ENUM@@QEAA@PEBG0W4FILE_TYPE@@HI@Z
??0W32_DIR_BLOCK@@QEAA@XZ
??0UATOM_REGION@@QEAA@XZ
??0UATOM_MANAGER@@AEAA@XZ
??0UATOM_LINKAGE@@QEAA@XZ
??0UATOM@@QEAA@AEAVNLS_STR@@@Z
??0TREE@@QEAA@PEAX@Z
??0TCHAR_STR_IMPL@@QEAA@G@Z
??0TCHAR_STR@@QEAA@G@Z
??0STRLIST@@QEAA@PEBG0H@Z
??0STRLIST@@QEAA@H@Z
??0STRLIST@@QEAA@AEBVNLS_STR@@0H@Z
??0SL_NODE@@QEAA@PEAV0@PEAX@Z
??0SLIST_OF_NLS_STR@@QEAA@H@Z
??0SLIST_OF_DIR_BLOCK@@QEAA@H@Z
??0SLIST@@QEAA@XZ
??0RITER_DL@@QEAA@PEAVDLIST@@@Z
??0RITER_DL@@QEAA@AEBV0@@Z
??0RESOURCE_STR@@QEAA@JPEAUHINSTANCE__@@@Z
??0REG_VALUE_INFO_STRUCT@@QEAA@XZ
??0REG_KEY_INFO_STRUCT@@QEAA@XZ
??0REG_KEY_CREATE_STRUCT@@QEAA@XZ
??0REG_KEY@@QEAA@PEAUHKEY__@@PEBGK@Z
??0REG_KEY@@QEAA@PEAUHKEY__@@K@Z
??0REG_KEY@@QEAA@AEBVNLS_STR@@K@Z
??0REG_KEY@@QEAA@AEAV0@AEBVNLS_STR@@PEAVREG_KEY_CREATE_STRUCT@@@Z
??0REG_KEY@@QEAA@AEAV0@AEBVNLS_STR@@K@Z
??0REG_KEY@@QEAA@AEAV0@@Z
??0ONE_SHOT_HEAP@@QEAA@IH@Z
??0NUM_NLS_STR@@QEAA@K@Z
??0NLS_STR@@QEAA@XZ
??0NLS_STR@@QEAA@PEBGG@Z
??0NLS_STR@@QEAA@PEBG@Z
??0NLS_STR@@QEAA@I@Z
??0NLS_STR@@QEAA@AEBV0@@Z
??0NLS_STR@@IEAA@PEAGIH@Z
??0LOGON_HOURS_SETTING@@QEAA@PEBEI@Z
??0LOGON_HOURS_SETTING@@QEAA@AEBV0@@Z
??0ITER_STRLIST@@QEAA@AEBV0@@Z
??0ITER_STRLIST@@QEAA@AEAVSTRLIST@@@Z
??0ITER_SL_NLS_STR@@QEAA@AEBV0@@Z
??0ITER_SL_NLS_STR@@QEAA@AEAVSLIST@@@Z
??0ITER_SL_DIR_BLOCK@@QEAA@AEAVSLIST@@@Z
??0ITER_SL@@QEAA@PEAVSLIST@@@Z
??0ITER_SL@@QEAA@AEBV0@@Z
??0ITER_L@@QEAA@XZ
??0ITER_DL@@QEAA@PEAVDLIST@@@Z
??0ITER_DL@@QEAA@AEBV0@@Z
??0ISTR@@QEAA@AEBVNLS_STR@@@Z
??0ISTR@@QEAA@AEBV0@@Z
??0INTL_PROFILE@@QEAA@XZ
??0HUATOM@@QEAA@PEBGH@Z
??0HEX_STR@@QEAA@KI@Z
??0HEAP_BASE@@IEAA@HH@Z
??0FS_ENUM@@IEAA@PEBG0W4FILE_TYPE@@HI@Z
??0FORWARDING_BASE@@IEAA@PEAVBASE@@@Z
??0FMX@@QEAA@PEAUHWND__@@@Z
??0ELAPSED_TIME_STR@@QEAA@KGH@Z
??0DL_NODE@@QEAA@PEAV0@0PEAX@Z
??0DLIST@@QEAA@XZ
??0DIR_BLOCK@@QEAA@XZ
??0DFSITER_TREE@@QEAA@PEBVTREE@@I@Z
??0DFSITER_TREE@@QEAA@PEBV0@@Z
??0DEC_STR@@QEAA@KI@Z
??0DBGSTREAM@@QEAA@PEAVOUTPUTSINK@@@Z
??0CHAR_STRING@@QEAA@PEBGI@Z
??0BUFFER@@QEAA@I@Z
??0BITFIELD@@QEAA@PEBEII@Z
??0BITFIELD@@QEAA@K@Z
??0BITFIELD@@QEAA@IW4BITVALUES@@@Z
??0BITFIELD@@QEAA@G@Z
??0BITFIELD@@QEAA@AEBV0@@Z
??0BASE@@IEAA@XZ
??0ALLOC_STR@@QEAA@PEAGIPEBG@Z
??0ALIAS_STR@@QEAA@PEBG@Z
