LIBRARY QUERY.DLL
EXPORTS
SvcEntry_CiSvc
StopFWCiSvcWork
StartFWCiSvcWork
SetupCacheEx
SetupCache
SetCatalogState
LocateCatalogsW
LocateCatalogsA
LocateCatalogs
LoadTextFilter
LoadIFilterEx
LoadIFilter
LoadBinaryFilter
LoadBHIFilter
InitializeFILTERPerformanceData
InitializeCIPerformanceData
InitializeCIISAPIPerformanceData
FsCiShutdown
ForceMasterMerge
EndCacheTransaction
DoneFILTERPerformanceData
DoneCIPerformanceData
DoneCIISAPIPerformanceData
DllUnregisterServer
DllRegisterServer
DllGetClassObject
DllCanUnloadNow
CollectFILTERPerformanceData
CollectCIPerformanceData
CollectCIISAPIPerformanceData
CiSvcMain
CiCreateSecurityDescriptor
CITextToSelectTreeEx
CITextToSelectTree
CITextToFullTreeEx
CITextToFullTree
CIState
CIRestrictionToFullTree
CIMakeICommand
CIGetGlobalPropertyList
CICreateCommand
CIBuildQueryTree
CIBuildQueryNode
BindIFilterFromStream
BindIFilterFromStorage
BeginCacheTransaction
AbortMerges
?wcsipattern@@YAPEAGPEAGPEBG@Z
?fgetsw@CFileBuffer@@QEAAKAEAV?$XGrowable@G$0BAE@@@@Z
?ciNew@@YAPEAX_K@Z
?ciIsValidPointer@@YAHPEBX@Z
?ciDelete@@YAXPEAX@Z
?_wcstoui64@@YA_KPEBGPEAPEAGH@Z
?_ImpersonateIf@CImpersonateRemoteAccess@@AEAAHPEBG0K@Z
?_FindOrAddValueNode@CDbPropertyRestriction@@AEAAPEAVCDbScalarValue@@XZ
?_FindOrAddAnchor@CDbSortNode@@AEAAPEAVCDbSortListAnchor@@XZ
?_FindOrAddAnchor@CDbProjectNode@@AEAAPEAVCDbProjectListAnchor@@XZ
?_FindGroupListAnchor@CDbNestingNode@@AEAAPEAVCDbProjectListAnchor@@XZ
?WritePropertyInNewRecord@CPropStoreManager@@QEAAKKAEBVCStorageVariant@@@Z
?WriteProperty@CPropStoreManager@@QEAAJKKAEBVCStorageVariant@@@Z
?WriteProperty@CPropStoreManager@@QEAAJAEAVCCompositePropRecordForWrites@@KAEBVCStorageVariant@@@Z
?WritePrimaryProperty@CPropStoreManager@@QEAAJKKAEBVCStorageVariant@@@Z
?WritePrimaryProperty@CPropStoreManager@@QEAAJAEAVCCompositePropRecordForWrites@@KAEBVCStorageVariant@@@Z
?Write@CRcovStrmTrans@@IEAAXPEBXK@Z
?Write@CDynStream@@QEAAXPEAXK@Z
?WideCharToXArrayMultiByte@@YAKPEBGKIAEAV?$XArray@E@@@Z
?VerifyThreadHasAdminPrivilege@@YAXXZ
?VerifyConsistency@PRcovStorageObj@@QEAAXXZ
?ValidateScopeRestriction@@YAHPEAVCRestriction@@@Z
?VT_VARIANT_NE@@YAHAEBUtagPROPVARIANT@@0@Z
?VT_VARIANT_LT@@YAHAEBUtagPROPVARIANT@@0@Z
?VT_VARIANT_LE@@YAHAEBUtagPROPVARIANT@@0@Z
?VT_VARIANT_GT@@YAHAEBUtagPROPVARIANT@@0@Z
?VT_VARIANT_GE@@YAHAEBUtagPROPVARIANT@@0@Z
?VT_VARIANT_EQ@@YAHAEBUtagPROPVARIANT@@0@Z
?UpdateDiskLowInfo@CDiskFreeStatus@@QEAAXXZ
?UpdateContentIndex@@YAKPEBG00H@Z
?Unmap@CRcovStrmTrans@@IEAAXW4DataCopyNum@CRcovStorageHdr@@@Z
?UnPickle@@YAXHAEAV?$XPtr@VCColumnSet@@@@AEAV?$XPtr@VCRestriction@@@@AEAV?$XPtr@VCSortSet@@@@AEAV?$XPtr@VCCategorizationSet@@@@AEAVCRowsetProperties@@AEAV?$XPtr@VCPidMapper@@@@PEAEK@Z
?UnMarshallTree@CDbCmdTreeNode@@SAPEAV1@AEAVPDeSerStream@@@Z
?UnMarshall@CRestriction@@SAPEAV1@AEAVPDeSerStream@@@Z
?UnMarshall@CDbProperties@@QEAAHAEAVPDeSerStream@@@Z
?URLEscapeW@@YAXPEBGAEAVCVirtualString@@KH@Z
?TunePerformance@CMachineAdmin@@QEAAXHGG@Z
?TreeCount@CRestriction@@QEBAKXZ
?SystemExceptionTranslator@@YAXIPEAU_EXCEPTION_POINTERS@@@Z
?StrLen@CKeyBuf@@QEBAIXZ
?StrLen@CKey@@QEBAIXZ
?StopFiltering@CFilterDaemon@@QEAAXXZ
?StopCI@CMachineAdmin@@QEAAHXZ
?Stop@CCatalogAdmin@@QEAAHXZ
?StartCI@CMachineAdmin@@QEAAHXZ
?Start@CCatalogAdmin@@QEAAHXZ
?SkipWChar@CMemDeSerStream@@UEAAXK@Z
?SkipUShort@CMemDeSerStream@@UEAAXXZ
?SkipULong@CMemDeSerStream@@UEAAXXZ
?SkipLong@CMemDeSerStream@@UEAAXXZ
?SkipGUID@CMemDeSerStream@@UEAAXXZ
?SkipFloat@CMemDeSerStream@@UEAAXXZ
?SkipDouble@CMemDeSerStream@@UEAAXXZ
?SkipChar@CMemDeSerStream@@UEAAXK@Z
?SkipByte@CMemDeSerStream@@UEAAXXZ
?SkipBlob@CMemDeSerStream@@UEAAXK@Z
?Skip@CEnumWorkid@@UEAAJK@Z
?Skip@CEnumString@@UEAAJK@Z
?Size@CDbQueryResults@@QEAAKXZ
?Shutdown@CWorkQueue@@QEAAXXZ
?Shutdown@CPropStoreManager@@QEAAXXZ
?Shutdown@CCiOle@@SAXXZ
?ShrinkToFit@CPhysStorage@@QEAAXXZ
?ShrinkFromFront@CPhysStorage@@QEAAKKK@Z
?Shrink@CDynStream@@QEAAXAEAVPStorage@@K@Z
?Setup@CPropStoreManager@@QEAAXKKK_KHK@Z
?SetWeight@CDbCmdTreeNode@@QEAAXJ@Z
?SetValue@CPropertyRestriction@@QEAAXPEAU_GUID@@@Z
?SetValue@CPropertyRestriction@@QEAAXPEAG@Z
?SetValue@CPropertyRestriction@@QEAAXAEAUtagBLOB@@@Z
?SetUI8@CStorageVariant@@QEAAXT_ULARGE_INTEGER@@I@Z
?SetUI4@CStorageVariant@@QEAAXKI@Z
?SetUI2@CStorageVariant@@QEAAXGI@Z
?SetUI1@CStorageVariant@@QEAAXEI@Z
?SetSortProp@CCatState@@QEAAXPEBGW4SORTDIR@@I@Z
?SetSecret@@YAXPEBG00K@Z
?SetScopePropertiesNoThrow@@YAJPEAUICommand@@IPEBQEBGPEBK11@Z
?SetScopeProperties@@YAXPEAUICommand@@IPEBQEBGPEBK11@Z
?SetSZParam@CMachineAdmin@@QEAAXPEBG0K@Z
?SetRunningAsSystem@CImpersonateSystem@@SAXXZ
?SetRestriction@CDbSelectNode@@QEAAHPEAVCDbCmdTreeNode@@@Z
?SetR8@CStorageVariant@@QEAAXNI@Z
?SetR4@CStorageVariant@@QEAAXMI@Z
?SetProperty@CFullPropSpec@@QEAAXK@Z
?SetProperty@CFullPropSpec@@QEAAHPEBG@Z
?SetProperty@CDbPropBaseRestriction@@QEAAHAEBVCDbColumnNode@@@Z
?SetProperty@CDbPropBaseRestriction@@QEAAHAEBUtagDBID@@@Z
?SetProperty@CDbColId@@QEAAHPEBG@Z
?SetProperties@CDbProperties@@UEAAJKQEAUtagDBPROPSET@@@Z
?SetPriority@CGenericCiProxy@@QEAAXKK@Z
?SetPhrase@CNatLanguageRestriction@@QEAAXPEBG@Z
?SetPhrase@CContentRestriction@@QEAAXPEBG@Z
?SetPath@CScopeAdmin@@QEAAXPEBG@Z
?SetNumberOfSortProps@CCatState@@QEAAXI@Z
?SetNumberOfColumns@CCatState@@QEAAXI@Z
?SetMappedCacheSize@CPropStoreManager@@QEAAXKK@Z
?SetLogonInfo@CScopeAdmin@@QEAAXPEBG0AEAVCCatalogAdmin@@@Z
?SetLocale@CCatState@@QEAAXPEBG@Z
?SetLPWSTR@CStorageVariant@@QEAAXPEBGI@Z
?SetLPSTR@CStorageVariant@@QEAAXPEBDI@Z
?SetI8@CStorageVariant@@QEAAXT_LARGE_INTEGER@@I@Z
?SetI4@CStorageVariant@@QEAAXJI@Z
?SetI2@CStorageVariant@@QEAAXFI@Z
?SetFILETIME@CStorageVariant@@QEAAXU_FILETIME@@I@Z
?SetExclude@CScopeAdmin@@QEAAXH@Z
?SetDefaultProperty@CCatState@@QEAAXPEBG@Z
?SetDWORDParam@CMachineAdmin@@QEAAXPEBGK@Z
?SetDWORDParam@CCatalogAdmin@@QEAAXPEBGK@Z
?SetDATE@CStorageVariant@@QEAAXNI@Z
?SetCurrentProperty@CQueryParser@@AEAAXPEBGW4PropertyType@@@Z
?SetColumn@CCatState@@QEAAXPEBGI@Z
?SetCatalog@CCatState@@QEAAXPEBG@Z
?SetCY@CStorageVariant@@QEAAXTtagCY@@I@Z
?SetCLSID@CStorageVariant@@QEAAXU_GUID@@I@Z
?SetCLSID@CStorageVariant@@QEAAXPEBU_GUID@@@Z
?SetCD@CCatState@@QEAAXPEBG@Z
?SetBackupSize@CPropStoreManager@@QEAAXKK@Z
?SetBSTR@CStorageVariant@@QEAAXPEAGI@Z
?SetBSTR@CAllocStorageVariant@@QEAAXPEAGAEAVPMemoryAllocator@@@Z
?SetBOOL@CStorageVariant@@QEAAXFI@Z
?SetAlias@CScopeAdmin@@QEAAXPEBG@Z
?Set@CPidRemapper@@QEAAXAEAV?$XArray@K@@@Z
?Serialize@CDbQueryResults@@QEBAXAEAVPSerStream@@@Z
?Seek@CRcovStrmTrans@@QEAAHK@Z
?SaCreateData@@YAHAEAVPVarAllocator@@GAEAUtagSAFEARRAY@@1H@Z
?SaCreateAndCopy@@YAHAEAVPMemoryAllocator@@PEAUtagSAFEARRAY@@PEAPEAU2@@Z
?SaComputeSize@@YAKGAEAUtagSAFEARRAY@@@Z
?Rewind@CMmStreamConsecBuf@@QEAAXXZ
?ReturnBuffer@CPhysStorage@@QEAAXKHH@Z
?Resume@CProcess@@QEAAXXZ
?ResetType@CAllocStorageVariant@@IEAAXAEAVPMemoryAllocator@@@Z
?ResetBuffer@CQueryScanner@@QEAAXPEBG@Z
?Reset@CRegChangeEvent@@QEAAXXZ
?RequiresFlush@CPhysStorage@@QEAAHK@Z
?ReportEventW@CFwEventItem@@QEAAXAEAUICiCAdviseStatus@@@Z
?ReportEventW@CEventLog@@QEAAXAEAVCEventItem@@@Z
?Reopen@CPhysStorage@@QEAAXH@Z
?RemoveScope@CCatalogAdmin@@QEAAXPEBG@Z
?RemoveFirstChild@CDbCmdTreeNode@@IEAAPEAV1@XZ
?RemoveChild@CNodeRestriction@@QEAAPEAVCRestriction@@I@Z
?RemoveCatalogFiles@CMachineAdmin@@QEAAXPEBG@Z
?RemoveCatalog@CMachineAdmin@@QEAAXPEBGH@Z
?Remove@CWorkQueue@@QEAAXPEAVPWorkItem@@@Z
?Remove@CWorkQueue@@AEAAXAEAVCWorkThread@@@Z
?Remove@CSort@@QEAAXI@Z
?Remove@CDbSortSet@@QEAAXI@Z
?Remove@CColumns@@QEAAXI@Z
?ReleaseWorkThreads@CWorkQueue@@QEAAXXZ
?ReleaseRead@CPropertyStore@@AEAAXAEAVCReadWriteLockRecord@@@Z
?Release@CWorkQueue@@QEAAXPEAVCWorkThread@@@Z
?Release@CQueryUnknown@@UEAAKXZ
?Release@CImpersonateRemoteAccess@@QEAAXXZ
?Release@CFwPropertyMapper@@UEAAKXZ
?Release@CEnumWorkid@@UEAAKXZ
?Release@CEnumString@@UEAAKXZ
?Release@CEmptyPropertyList@@UEAAKXZ
?Release@CDbProperties@@UEAAKXZ
?RefreshParams@CWorkQueue@@QEAAXKK@Z
?Refresh@CDefColumnRegEntry@@QEAAXH@Z
?Refresh@CCiRegParams@@QEAAXPEAUICiAdminParams@@H@Z
?Recognize@CDFA@@QEAAEPEBG@Z
?ReadProperty@CPropertyStore@@QEAAHKKAEAUtagPROPVARIANT@@@Z
?ReadProperty@CPropertyStore@@QEAAHAEAVCPropRecordNoLock@@KPEAUtagPROPVARIANT@@PEAI@Z
?ReadProperty@CPropStoreManager@@QEAAHKKPEAUtagPROPVARIANT@@PEAI@Z
?ReadProperty@CPropStoreManager@@QEAAHKKAEAUtagPROPVARIANT@@PEAEPEAI@Z
?ReadProperty@CPropStoreManager@@QEAAHKKAEAUtagPROPVARIANT@@@Z
?ReadProperty@CPropStoreManager@@QEAAHAEAVCCompositePropRecord@@KPEAUtagPROPVARIANT@@PEAI@Z
?ReadProperty@CPropStoreManager@@QEAAHAEAVCCompositePropRecord@@KAEAUtagPROPVARIANT@@PEAEPEAI@Z
?ReadProperty@CPropStoreManager@@QEAAHAEAVCCompositePropRecord@@KAEAUtagPROPVARIANT@@@Z
?ReadProperty@COLEPropManager@@QEAAHAEBVCFullPropSpec@@AEAUtagPROPVARIANT@@@Z
?ReadPrimaryProperty@CPropStoreManager@@QEAAHKKAEAUtagPROPVARIANT@@@Z
?Read@CRegAccess@@QEAAPEAGPEBG0@Z
?Read@CRegAccess@@QEAAKPEBGK@Z
?Read@CRcovStrmTrans@@QEAAKPEAXK@Z
?Read@CDynStream@@QEAAKPEAXK@Z
?ReOpenStream@CPhysIndex@@EEAAXXZ
?ReInitializeIISScopes@CImpersonationTokenCache@@QEAAXXZ
?ReInit@CQueryUnknown@@QEAAXKPEAPEAVCRowset@@@Z
?ReBuild@CPidRemapper@@QEAAXAEBVCPidMapper@@@Z
?QueryVirtualScopeList@CiStorage@@QEAAPEAVPRcovStorageObj@@K@Z
?QuerySdidLookupTable@CiStorage@@QEAAPEAVPRcovStorageObj@@K@Z
?QueryScopeList@CiStorage@@QEAAPEAVPRcovStorageObj@@K@Z
?QueryScopeEnum@CCatalogAdmin@@QEAAPEAVCScopeEnum@@XZ
?QueryScopeAdmin@CScopeEnum@@QEAAPEAVCScopeAdmin@@XZ
?QueryScopeAdmin@CCatalogAdmin@@QEAAPEAVCScopeAdmin@@PEBG@Z
?QueryPidLookupTable@CiStorage@@QEAAPEAVPRcovStorageObj@@K@Z
?QueryInterface@CQueryUnknown@@UEAAJAEBU_GUID@@PEAPEAX@Z
?QueryInterface@CFwPropertyMapper@@UEAAJAEBU_GUID@@PEAPEAX@Z
?QueryInterface@CEnumWorkid@@UEAAJAEBU_GUID@@PEAPEAX@Z
?QueryInterface@CEnumString@@UEAAJAEBU_GUID@@PEAPEAX@Z
?QueryInterface@CEmptyPropertyList@@UEAAJAEBU_GUID@@PEAPEAX@Z
?QueryInterface@CDbProperties@@UEAAJAEBU_GUID@@PEAPEAX@Z
?QueryCatalogEnum@CMachineAdmin@@QEAAPEAVCCatalogEnum@@XZ
?QueryCatalogAdmin@CMachineAdmin@@QEAAPEAVCCatalogAdmin@@PEBG@Z
?QueryCatalogAdmin@CCatalogEnum@@QEAAPEAVCCatalogAdmin@@XZ
?Query@CQueryParser@@AEAAPEAVCDbRestriction@@PEAVCDbNodeRestriction@@@Z
?PutWString@@YAXAEAVPSerStream@@PEBG@Z
?PutValue@CValueNormalizer@@QEAAXKAEAKAEBVCStorageVariant@@@Z
?PutMinValue@CValueNormalizer@@QEAAXKAEAKW4VARENUM@@@Z
?PutMaxValue@CValueNormalizer@@QEAAXKAEAKW4VARENUM@@@Z
?PropertyToPropid@CFwPropertyMapper@@UEAAJPEBUtagFULLPROPSPEC@@HPEAK@Z
?PropertyToPropId@CStandardPropMapper@@QEAAKAEBVCFullPropSpec@@H@Z
?PidToRealPid@CPidMapper@@QEAAKK@Z
?PeekULong@CMemDeSerStream@@UEAAKXZ
?PauseCI@CMachineAdmin@@QEAAHXZ
?Pause@CCatalogAdmin@@QEAAHXZ
?ParseStringColumns@@YAPEAVCDbColumns@@PEBGPEAUIColumnMapper@@KPEAVPVariableSet@@PEAV?$CDynArray@G@@@Z
?ParseQueryPhrase@CQueryParser@@QEAAPEAVCDbRestriction@@XZ
?ParseOneLine@CPropertyList@@SAXAEAVCQueryScanner@@HAEAV?$XPtr@VCPropEntry@@@@@Z
?ParseExpression@CParseCommandTree@@QEAAPEAVCRestriction@@PEAVCDbCmdTreeNode@@@Z
?ParseCatalogURL@@YAJPEBGAEAV?$XPtrST@G@@1@Z
?OpenRecordForWrites@CPropStoreManager@@QEAAPEAVCCompositePropRecordForWrites@@KPEAE@Z
?OpenRecord@CPropStoreManager@@QEAAPEAVCCompositePropRecord@@KPEAE@Z
?OpenFileFromPath@@YAPEAU_iobuf@@PEBG@Z
?OpenExclusive@CMmStream@@QEAAXPEAGH@Z
?Open@COLEPropManager@@QEAAHAEBVCFunnyPath@@@Z
?Open@CMmStream@@QEAAXPEBGKKKKH@Z
?NumberOfSortProps@CCatState@@QEBAIXZ
?NumberOfColumns@CCatState@@QEBAIXZ
?NextWorkId@CPropertyStoreWids@@QEAAKXZ
?Next@CScopeEnum@@QEAAHXZ
?Next@CPropertyList@@UEAAPEBVCPropEntry@@XZ
?Next@CEnumWorkid@@UEAAJKPEAK0@Z
?Next@CEnumString@@UEAAJKPEAPEAGPEAK@Z
?Next@CCatalogEnum@@QEAAHXZ
?NewWordBreaker@CCiOle@@SAPEAUIWordBreaker@@AEBU_GUID@@@Z
?NewStemmer@CCiOle@@SAPEAUIStemmer@@AEBU_GUID@@@Z
?NameToReal@CPidRemapper@@QEAAKPEBVCFullPropSpec@@@Z
?My_wcstoui64@@YA_KPEBGPEAPEAGH@Z
?MultiByteToXArrayWideChar@@YAKPEBEKIAEAV?$XArray@G@@@Z
?MinPageInUse@CPhysStorage@@QEAAHAEAK@Z
?MinPageInUse@CBufferCache@@QEAAHAEAK@Z
?Marshall@CVectorRestriction@@QEBAXAEAVPSerStream@@@Z
?Marshall@CRestriction@@QEBAXAEAVPSerStream@@@Z
?Marshall@CPropertyRestriction@@QEBAXAEAVPSerStream@@@Z
?Marshall@CPropNameArray@@QEBAXAEAVPSerStream@@@Z
?Marshall@CNotRestriction@@QEBAXAEAVPSerStream@@@Z
?Marshall@CNodeRestriction@@QEBAXAEAVPSerStream@@@Z
?Marshall@CNatLanguageRestriction@@QEBAXAEAVPSerStream@@@Z
?Marshall@CFullPropSpec@@QEBAXAEAVPSerStream@@@Z
?Marshall@CDbCmdTreeNode@@QEBAXAEAVPSerStream@@@Z
?Marshall@CContentRestriction@@QEBAXAEAVPSerStream@@@Z
?Marshall@CBaseStorageVariant@@QEBAXAEAVPSerStream@@@Z
?MarkDirty@CDynStream@@QEAAHXZ
?Map@CMmStreamConsecBuf@@QEAAXK@Z
?MakePrivileged@CImpersonateSystem@@AEAAXXZ
?MakePath@CFullPath@@QEAAXPEBGI@Z
?MakePath@CFullPath@@QEAAXPEBG@Z
?MakeMetadataICommand@@YAJPEAPEAUIUnknown@@W4CiMetaData@@PEBG2PEAU1@@Z
?MakeLocalICommand@@YAJPEAPEAUIUnknown@@PEAUICiCDocStore@@PEAU1@@Z
?MakeISearch@@YAJPEAPEAUISearchQueryHits@@PEAVCDbRestriction@@PEBG@Z
?MakeICommand@@YAJPEAPEAUIUnknown@@PEBG1PEAU1@@Z
?MakeBackupCopy@CPropStoreManager@@QEAAXPEAUIProgressNotify@@AEAHAEAVCiStorage@@PEAUICiEnumWorkids@@PEAPEAUIEnumString@@@Z
?MakeBackupCopy@CPidLookupTable@@QEAAXAEAVPRcovStorageObj@@AEAVPSaveProgressTracker@@@Z
?MakeBackupCopy@CPhysStorage@@QEAAXAEAV1@AEAVPSaveProgressTracker@@@Z
?LookupSDID@CSdidLookupTable@@QEAAKPEAXK@Z
?Lookup@CPropStoreInfo@@AEAAIK@Z
?LongInit@CPropStoreManager@@QEAAXAEAHAEAKP6AXKHPEBX@Z2@Z
?LokUpdate@CCatStateInfo@@QEAAHXZ
?LokNewWorkId@CPropertyStore@@AEAAKKHH@Z
?LocaleToCodepage@@YAKK@Z
?Load@CLocalGlobalPropertyList@@QEAAXQEBG@Z
?IsWriteProtected@CDriveInfo@@QEAAHXZ
?IsWaitingForDocument@CFilterDaemon@@QEAAHXZ
?IsValid@CRestriction@@QEBAHXZ
?IsValid@COccRestriction@@QEBAHXZ
?IsValid@CNodeRestriction@@QEBAHXZ
?IsValid@CAllocStorageVariant@@QEBAHXZ
?IsStopped@CCatalogAdmin@@QEAAHXZ
?IsStarted@CCatalogAdmin@@QEAAHXZ
?IsScopeValid@@YAJPEBGIH@Z
?IsSameDrive@CDriveInfo@@QEAAHPEBG@Z
?IsRunningAsSystem@CImpersonateSystem@@SAHXZ
?IsPaused@CCatalogAdmin@@QEAAHXZ
?IsNullPointerVariant@@YAHPEAUtagPROPVARIANT@@@Z
?IsLeaf@CRestriction@@QEBAHXZ
?IsImpersonated@CImpersonateSystem@@SAHXZ
?IsIISAdminUp@CMetaDataMgr@@SAHAEAH@Z
?IsDirectoryWritable@@YAHPEBG@Z
?IsCatalogInactive@CCatalogAdmin@@QEAAHXZ
?IsCIStopped@CMachineAdmin@@QEAAHXZ
?IsCIStarted@CMachineAdmin@@QEAAHXZ
?IsCIPaused@CMachineAdmin@@QEAAHXZ
?IsCIEnabled@CMachineAdmin@@QEAAHXZ
?InsertChild@CDbCmdTreeNode@@IEAAXPEAV1@@Z
?InitializeForWrite@CDynStream@@QEAAXK@Z
?InitializeForRead@CDynStream@@QEAAXXZ
?Initialize@CImpersonationTokenCache@@QEAAXPEBGHHHKKK@Z
?InitIterator@CPropertyList@@UEAAXXZ
?Init@CSdidLookupTable@@QEAAHPEAVCiStorage@@@Z
?Init@CRegChangeEvent@@QEAAXXZ
?Init@CRcovStorageHdr@@QEAAXK@Z
?Init@CPidLookupTable@@QEAAHPEAVPRcovStorageObj@@@Z
?Init@CMmStreamConsecBuf@@QEAAXPEAVPMmStream@@@Z
?Init@CFileMapView@@QEAAXXZ
?Impersonate@CImpersonateClient@@AEAAXXZ
?HTMLEscapeW@@YAXPEBGAEAVCVirtualString@@K@Z
?GrowBuffer@CVirtualString@@AEAAXK@Z
?Grow@CDynStream@@QEAAXAEAVPStorage@@K@Z
?GetWeight@CDbCmdTreeNode@@QEBAJXZ
?GetWString@CMemDeSerStream@@UEAAPEAGXZ
?GetWChar@CMemDeSerStream@@UEAAXPEAGK@Z
?GetVolumeName@CDriveInfo@@QEAAPEBGH@Z
?GetVPathSSLAccess@CMetaDataMgr@@QEAAKPEBG@Z
?GetVPathAuthorization@CMetaDataMgr@@QEAAKPEBG@Z
?GetVPathAccess@CMetaDataMgr@@QEAAKPEBG@Z
?GetUserHdrInfo@CIndexTable@@QEAAXAEAIAEAH@Z
?GetUShort@CMemDeSerStream@@UEAAGXZ
?GetULong@CMemDeSerStream@@UEAAKXZ
?GetTotalSizeInKB@CPropertyStore@@QEAAKXZ
?GetTotalSizeInKB@CPropStoreManager@@QEAAKXZ
?GetStringFromLCID@@YAXKPEAG@Z
?GetStringDbRestriction@@YAPEAVCDbRestriction@@PEBGKPEAUIColumnMapper@@K@Z
?GetString@CMemDeSerStream@@UEAAPEADXZ
?GetStr@CKeyBuf@@QEBAPEAGXZ
?GetStr@CKey@@QEBAPEAGXZ
?GetStorage@CPropStoreManager@@QEAAAEAVPStorage@@K@Z
?GetStartupData@CGenericCiProxy@@QEAAPEBEAEAU_GUID@@AEAK@Z
?GetStackTrace@@YAXPEADK@Z
?GetSortProp@CCatState@@QEBAXIPEAPEBGPEAW4SORTDIR@@@Z
?GetSectorSize@CDriveInfo@@QEAAKXZ
?GetSecret@@YAHPEBG0PEAPEAGPEAK@Z
?GetScodeError@@YAJAEAVCException@@@Z
?GetSZParam@CMachineAdmin@@QEAAHPEBGPEAGK@Z
?GetR8@CAllocStorageVariant@@QEBANI@Z
?GetR4@CAllocStorageVariant@@QEBAMI@Z
?GetPropertyInfo@CDbProperties@@UEAAJKQEBUtagDBPROPIDSET@@PEAKPEAPEAUtagDBPROPINFOSET@@PEAPEAG@Z
?GetProperties@CGetDbProps@@QEAAXPEAUIDBProperties@@K@Z
?GetProperties@CDbProperties@@UEAAJKQEBUtagDBPROPIDSET@@PEAKPEAPEAUtagDBPROPSET@@@Z
?GetPropTypeName@CEmptyPropertyList@@SAPEBGI@Z
?GetPropTypeCount@CEmptyPropertyList@@SAIXZ
?GetPropType@CEmptyPropertyList@@SAGI@Z
?GetPropInfoFromName@CEmptyPropertyList@@UEAAJPEBGPEAPEAUtagDBID@@PEAGPEAI@Z
?GetPropInfoFromId@CEmptyPropertyList@@UEAAJPEBUtagDBID@@PEAPEAGPEAGPEAI@Z
?GetPropInfo@CEmptyPropertyList@@QEAAHPEBGPEAPEAVCDbColId@@PEAGPEAI@Z
?GetPropInfo@CEmptyPropertyList@@QEAAHAEBVCDbColId@@PEAPEBGPEAGPEAI@Z
?GetPhysicalPath@CWebServer@@QEAAKPEBGPEAGKK@Z
?GetOleError@@YAJAEAVCException@@@Z
?GetOleDBErrorInfo@@YAJPEAUIUnknown@@AEBU_GUID@@KIPEAUtagERRORINFO@@PEAPEAUIErrorInfo@@@Z
?GetOffset@CKeyDeComp@@QEAAXAEAUBitOffset@@@Z
?GetNumber@CQueryScanner@@QEAAHAEA_KAEAH@Z
?GetNumber@CQueryScanner@@QEAAHAEA_JAEAH@Z
?GetNumber@CQueryScanner@@QEAAHAEAN@Z
?GetNumber@CQueryScanner@@QEAAHAEAKAEAH@Z
?GetLong@CMemDeSerStream@@UEAAJXZ
?GetLocation@CCatalogAdmin@@QEAAPEBGXZ
?GetLPWSTR@CAllocStorageVariant@@QEBAPEAGI@Z
?GetLPSTR@CAllocStorageVariant@@QEBAPEADI@Z
?GetLCIDFromString@@YAKPEAG@Z
?GetI8@CAllocStorageVariant@@QEBA?AT_LARGE_INTEGER@@I@Z
?GetI4@CAllocStorageVariant@@QEBAJI@Z
?GetI2@CAllocStorageVariant@@QEBAFI@Z
?GetGlobalStaticPropertyList@@YAPEAVCStaticPropertyList@@XZ
?GetGlobalPropListFile@@YAPEAVCPropListFile@@XZ
?GetGUID@CMemDeSerStream@@UEAAXAEAU_GUID@@@Z
?GetFloat@CMemDeSerStream@@UEAAMXZ
?GetFileSystem@CDriveInfo@@QEAA?AW4eFileSystem@1@H@Z
?GetFileName@CPathParser@@QEBAHPEAGAEAK@Z
?GetFILETIME@CAllocStorageVariant@@QEBA?AU_FILETIME@@I@Z
?GetEntryBuffer@CGenericCiProxy@@QEAAPEAEAEAK@Z
?GetDrive@CDriveInfo@@SAXPEBGPEAG@Z
?GetDouble@CMemDeSerStream@@UEAANXZ
?GetDiskSpace@CDriveInfo@@QEAAXAEA_J0@Z
?GetDWORDParam@CMachineAdmin@@QEAAHPEBGAEAK@Z
?GetDWORDParam@CCatalogAdmin@@QEAAHPEBGAEAK@Z
?GetDATE@CAllocStorageVariant@@QEBANI@Z
?GetCommandChar@CQueryScanner@@QEAAGXZ
?GetColumn@CCatState@@QEBAPEBGI@Z
?GetChar@CMemDeSerStream@@UEAAXPEADK@Z
?GetCategory@CCatState@@QEBAPEBGI@Z
?GetCY@CAllocStorageVariant@@QEBA?ATtagCY@@I@Z
?GetCLSID@CAllocStorageVariant@@QEBA?AU_GUID@@I@Z
?GetCGIVariableW@CWebServer@@QEAAHPEBGAEAV?$XArray@G@@AEAK@Z
?GetCGIVariable@CWebServer@@QEAAHPEBDAEAV?$XArray@G@@AEAK@Z
?GetCD@CCatState@@QEAAPEBGXZ
?GetByte@CMemDeSerStream@@UEAAEXZ
?GetBrowserCodepage@@YAKAEAVCWebServer@@K@Z
?GetBlob@CMemDeSerStream@@UEAAXPEAEK@Z
?GetBackupSize@CPropStoreManager@@QEAAKK@Z
?GetBOOL@CAllocStorageVariant@@QEBAFI@Z
?GetAllEntries@CPropertyList@@UEAAJPEAPEAVCPropEntry@@K@Z
?Get@CWin32RegAccess@@QEAAHPEBGPEAGIH@Z
?Get@CWin32RegAccess@@QEAAHPEBGAEAK@Z
?Get@CRegAccess@@QEAAXPEBGPEAGI@Z
?Get@CRegAccess@@QEAAKPEBG@Z
?FormQueryTree@@YAPEAVCDbCmdTreeNode@@AEAV1@AEAVCCatState@@PEAUIColumnMapper@@HH@Z
?FormFullTree@CTextToTree@@QEAAPEAUtagDBCOMMANDTREE@@XZ
?FlushIdle@CCiOle@@SAXXZ
?Flush@CPropStoreManager@@QEAAXXZ
?Flush@CPhysStorage@@QEAAXH@Z
?Flush@CDynStream@@QEAAXXZ
?FindPropid@CPidLookupTable@@QEAAHAEBVCFullPropSpec@@AEAKH@Z
?Find@CPropertyList@@UEAAPEBVCPropEntry@@PEBG@Z
?Find@CPropertyList@@UEAAPEBVCPropEntry@@AEBVCDbColId@@@Z
?Find@CEmptyPropertyList@@QEAAPEBVCPropEntry@@AEBVCDbColId@@@Z
?FillMax@CKeyArray@@QEAAHH@Z
?FetchProperty@COLEPropManager@@QEAAXAEBU_GUID@@AEBUtagPROPSPEC@@PEAUtagPROPVARIANT@@PEAI@Z
?FastInit@CPropStoreManager@@QEAAXPEAVCiStorage@@@Z
?FPSToPROPID@CPidConverter@@UEAAJAEBVCFullPropSpec@@AEAK@Z
?ExtensionHasScriptMap@CMetaDataMgr@@QEAAHPEBG@Z
?Eof@CMmStreamConsecBuf@@QEAAHXZ
?EnumerateValues@CRegAccess@@QEAAXPEAGAEAVCRegCallBack@@@Z
?EnumerateProperty@CPidLookupTable@@QEAAHAEAVCFullPropSpec@@AEAI@Z
?EnumerateFilesInDir@CiStorage@@SAXPEBGAEAVCEnumString@@@Z
?EnumVServers@CMetaDataMgr@@QEAAXAEAVCMetaDataVirtualServerCallBack@@@Z
?EnumVPaths@CMetaDataMgr@@QEAAXAEAVCMetaDataCallBack@@@Z
?EnumPropInfo@CEmptyPropertyList@@UEAAJKPEAPEBGPEAPEAUtagDBID@@PEAGPEAI@Z
?Enum@CWin32RegAccess@@QEAAHPEAGK@Z
?EndTransaction@CPropStoreManager@@QEAAX_KHKK@Z
?EnableVPathNotify@CMetaDataMgr@@QEAAXPEAVCMetaDataVPathChangeCallBack@@@Z
?EnableCI@CMachineAdmin@@QEAAHXZ
?Empty@CSdidLookupTable@@QEAAXXZ
?Empty@CRcovStrmWriteTrans@@QEAAXXZ
?Empty@CPropStoreManager@@QEAAXXZ
?Empty@CPidLookupTable@@QEAAXXZ
?DumpWorkId@@YAJPEBGKPEAEAEAK00K@Z
?Done@CFwAsyncWorkItem@@QEAAXXZ
?DoUpdates@CFilterDaemon@@QEAAJXZ
?DoIt@CCopyRcovObject@@QEAAJXZ
?Disconnect@CRequestClient@@QEAAXXZ
?DisableVPathNotify@CMetaDataMgr@@QEAAXXZ
?DisableNotification@CRegNotify@@QEAAXXZ
?DisableCI@CMachineAdmin@@QEAAHXZ
?DetermineDriveType@CiStorage@@SAIPEBG@Z
?DeleteRegistryParamNoThrow@CCatalogAdmin@@QEAAXPEBG@Z
?DeleteRecord@CPropStoreManager@@QEAAXK@Z
?DecodeURLEscapes@@YAXPEAEAEAKPEAGK@Z
?DecodeHtmlNumeric@@YAXPEAG@Z
?DecodeEscapes@@YAXPEAGAEAK0@Z
?DataWriteRead@CRequestClient@@QEAAXPEAXK0KAEAK@Z
?CreateSubdirs@CMachineAdmin@@QEAAXPEBG@Z
?ContainsDrive@CDriveInfo@@SAHPEBG@Z
?Commit@CRcovStrmWriteTrans@@QEAAXXZ
?Commit@CRcovStrmMDTrans@@QEAAXXZ
?Commit@CRcovStrmAppendTrans@@QEAAXXZ
?CloseRecord@CPropStoreManager@@QEAAXPEAVCCompositePropRecordForWrites@@@Z
?CloseRecord@CPropStoreManager@@QEAAXPEAVCCompositePropRecord@@@Z
?Close@CPropSetMap@COLEPropManager@@QEAAXXZ
?Close@CPipeClient@@IEAAXXZ
?Close@CPhysStorage@@QEAAXXZ
?Clone@CRestriction@@QEBAPEAV1@XZ
?Clone@COccRestriction@@QEBAPEAV1@XZ
?Clone@CNodeRestriction@@QEBAPEAV1@XZ
?Clone@CEnumString@@UEAAJPEAPEAUIEnumString@@@Z
?Clone@CDbCmdTreeNode@@QEBAPEAV1@H@Z
?ClearList@CPropertyList@@QEAAXXZ
?ClearList@CCombinedPropertyList@@QEAAXXZ
?CleanupDataValue@CDbCmdTreeNode@@IEAAXXZ
?Cleanup@CDbColId@@QEAAXXZ
?CiNtOpenNoThrow@@YAJAEAPEAXPEBGKKK@Z
?CiNtOpen@@YAPEAXPEBGKKK@Z
?CiGetPassword@@YAHPEBG0PEAG@Z
?CheckHasIndexTable@CiStorage@@SAHPEBG@Z
?CheckError@CPropListFile@@QEAAJAEAKPEAPEAG@Z
?CheckError@CLocalGlobalPropertyList@@QEAAJAEAKPEAPEAG@Z
?ChangeDirty@CPropStoreInfo@@AEAAXH@Z
?ChangeCurrentScope@CCatState@@QEAAXPEBG@Z
?ChangeCurrentMachine@CCatState@@QEAAXPEBG@Z
?ChangeCurrentDepth@CCatState@@QEAAXH@Z
?ChangeCurrentCatalog@CCatState@@QEAAXPEBG@Z
?CIShutdown@@YAXXZ
?BuildRegistryScopesKey@@YAXAEAV?$XArray@G@@PEBG@Z
?BuildRegistryPropertiesKey@@YAXAEAV?$XArray@G@@PEBG@Z
?BorrowNewBuffer@CPhysStorage@@QEAAPEAKK@Z
?BorrowBuffer@CPhysStorage@@QEAAPEAKKHH@Z
?BindIFilter@CCiOle@@SAJPEBGPEAUIUnknown@@PEAPEAUIFilter@@H@Z
?BindIFilter@CCiOle@@SAJPEBGPEAUIUnknown@@AEBU_GUID@@PEAPEAUIFilter@@H@Z
?BeginTransaction@CPropStoreManager@@QEAA_KXZ
?AppendListElement@CDbProjectListAnchor@@QEAAHAEBUtagDBID@@PEAG@Z
?AppendListElement@CDbListAnchor@@IEAAHPEAVCDbCmdTreeNode@@@Z
?AppendListElement@CDbListAnchor@@IEAAHGAEBUtagDBID@@@Z
?AppendChild@CDbCmdTreeNode@@IEAAXPEAV1@@Z
?Append@CEnumWorkid@@QEAAXK@Z
?Append@CEnumString@@QEAAXPEBG@Z
?AllocHeapAndGetWString@@YAPEAGAEAVPDeSerStream@@@Z
?AllocHeapAndCopy@@YAPEAGPEBGAEAK@Z
?AllocAndCopyWString@CDbCmdTreeNode@@SAPEAGPEBG@Z
?AddToWorkQueue@CFwAsyncWorkItem@@QEAAXXZ
?AddToWorkList@CWorkManager@@QEAAXPEAVCFwAsyncWorkItem@@@Z
?AddTable@CDbNestingNode@@QEAAHPEAVCDbCmdTreeNode@@@Z
?AddSortColumn@CDbSortNode@@QEAAHAEBUtagDBID@@HK@Z
?AddScope@CCatalogAdmin@@QEAAXPEBG0H00@Z
?AddRefWorkThreads@CWorkQueue@@QEAAXXZ
?AddRef@CQueryUnknown@@UEAAKXZ
?AddRef@CFwPropertyMapper@@UEAAKXZ
?AddRef@CEnumWorkid@@UEAAKXZ
?AddRef@CEnumString@@UEAAKXZ
?AddRef@CEmptyPropertyList@@UEAAKXZ
?AddRef@CDbProperties@@UEAAKXZ
?AddMachine@CCatState@@QEAAXAEAV?$XPtrST@G@@@Z
?AddKey@CSynRestriction@@QEAAXAEBVCKeyBuf@@@Z
?AddError@CEventItem@@QEAAXK@Z
?AddEntry@CPropertyList@@UEAAXPEAVCPropEntry@@H@Z
?AddDir@CCatState@@QEAAXAEAV?$XPtrST@G@@@Z
?AddChild@CNodeRestriction@@QEAAXPEAVCRestriction@@AEAI@Z
?AddCatalog@CMachineAdmin@@QEAAXPEBG0@Z
?AddCatalog@CCatState@@QEAAXAEAV?$XPtrST@G@@@Z
?AddCachedProperty@CCatalogAdmin@@QEAAXAEBVCFullPropSpec@@KKKH@Z
?AddArg@CFwEventItem@@QEAAXPEBG@Z
?AddArg@CFwEventItem@@QEAAXK@Z
?AddArg@CEventItem@@QEAAXPEBG@Z
?AddArg@CEventItem@@QEAAXK@Z
?Add@CWorkQueue@@QEAAXPEAVPWorkItem@@@Z
?Add@CKeyArray@@QEAAHHAEBVCKeyBuf@@@Z
?Add@CKeyArray@@QEAAHHAEBVCKey@@@Z
?Add@CDbSortSet@@QEAAHAEBVCDbSortKey@@I@Z
?Add@CDbSortSet@@QEAAHAEBVCDbColId@@KI@Z
?Add@CDbQueryResults@@QEAAXPEAGK@Z
?Add@CDbColumns@@QEAAHAEBVCDbColId@@I@Z
?AcquireRead@CPropertyStore@@AEAAXAEAVCReadWriteLockRecord@@@Z
?AcqWord@CQueryScanner@@QEAAPEAGXZ
?AcqRst@CRangeKeyRepository@@QEAAPEAVCRangeRestriction@@XZ
?AcqPhrase@CQueryScanner@@QEAAPEAGXZ
?AcqPath@CQueryScanner@@QEAAPEAGXZ
?AcqLine@CQueryScanner@@QEAAPEAGH@Z
?AccessCheck@CSdidLookupTable@@QEAAHKPEAXKAEAH@Z
?AcceptWord@CQueryScanner@@QEAAXXZ
?AcceptCommand@CQueryScanner@@QEAAXXZ
?Accept@CQueryScanner@@QEAAXXZ
?AbortWorkItems@CWorkManager@@QEAAXXZ
??8CDbColId@@QEBAHAEBV0@@Z
??4CDbColId@@QEAAAEAV0@AEBV0@@Z
??1SStorageObject@@QEAA@XZ
??1CWorkQueue@@QEAA@XZ
??1CWorkManager@@QEAA@XZ
??1CWordRestriction@@QEAA@XZ
??1CWin32RegAccess@@QEAA@XZ
??1CVirtualString@@QEAA@XZ
??1CSynRestriction@@QEAA@XZ
??1CSort@@QEAA@XZ
??1CSizeSerStream@@UEAA@XZ
??1CSdidLookupTable@@QEAA@XZ
??1CScopeRestriction@@QEAA@XZ
??1CScopeEnum@@QEAA@XZ
??1CScopeAdmin@@QEAA@XZ
??1CRestriction@@QEAA@XZ
??1CRegNotify@@MEAA@XZ
??1CRegChangeEvent@@QEAA@XZ
??1CRangeKeyRepository@@UEAA@XZ
??1CQueryUnknown@@QEAA@XZ
??1CPropertyStoreWids@@QEAA@XZ
??1CPropertyStore@@QEAA@XZ
??1CPropertyRestriction@@QEAA@XZ
??1CPropertyList@@UEAA@XZ
??1CPropStoreManager@@QEAA@XZ
??1CProcess@@QEAA@XZ
??1CPidRemapper@@QEAA@XZ
??1CPidLookupTable@@QEAA@XZ
??1CPhysStorage@@UEAA@XZ
??1CPhraseRestriction@@QEAA@XZ
??1CPerfMon@@QEAA@XZ
??1CParseCommandTree@@QEAA@XZ
??1COccRestriction@@QEAA@XZ
??1CNotRestriction@@QEAA@XZ
??1CNodeRestriction@@QEAA@XZ
??1CNatLanguageRestriction@@QEAA@XZ
??1CMmStreamConsecBuf@@QEAA@XZ
??1CMmStream@@UEAA@XZ
??1CMetaDataMgr@@QEAA@XZ
??1CMemSerStream@@UEAA@XZ
??1CMachineAdmin@@QEAA@XZ
??1CLangList@@QEAA@XZ
??1CKeyArray@@QEAA@XZ
??1CInternalPropertyRestriction@@QEAA@XZ
??1CImpersonationTokenCache@@QEAA@XZ
??1CImpersonateSystem@@QEAA@XZ
??1CImpersonateClient@@QEAA@XZ
??1CGenericCiProxy@@UEAA@XZ
??1CFwEventItem@@QEAA@XZ
??1CFwAsyncWorkItem@@UEAA@XZ
??1CFilterDaemon@@QEAA@XZ
??1CFileMapView@@QEAA@XZ
??1CEventLog@@QEAA@XZ
??1CEventItem@@QEAA@XZ
??1CDynStream@@QEAA@XZ
??1CDbSortSet@@QEAA@XZ
??1CDbQueryResults@@QEAA@XZ
??1CDbPropSet@@QEAA@XZ
??1CDbColumns@@QEAA@XZ
??1CDbCmdTreeNode@@QEAA@XZ
??1CDFA@@QEAA@XZ
??1CContentRestriction@@QEAA@XZ
??1CColumns@@QEAA@XZ
??1CCatalogEnum@@QEAA@XZ
??1CCatalogAdmin@@QEAA@XZ
??1CCatState@@QEAA@XZ
??1CAllocStorageVariant@@IEAA@XZ
??0SStorageObject@@QEAA@PEAVPStorageObject@@@Z
??0CiStorage@@QEAA@PEBGAEAUICiCAdviseStatus@@KKH@Z
??0CWorkQueue@@QEAA@IW4WorkQueueType@0@@Z
??0CWordRestriction@@QEAA@AEBVCKeyBuf@@KKKH@Z
??0CWin32RegAccess@@QEAA@PEAUHKEY__@@PEBG@Z
??0CVirtualString@@QEAA@I@Z
??0CValueNormalizer@@QEAA@AEAVPKeyRepository@@@Z
??0CUnfilteredRestriction@@QEAA@XZ
??0CTransaction@@QEAA@XZ
??0CTimeLimit@@QEAA@KK@Z
??0CSynRestriction@@QEAA@AEBVCKey@@KKKH@Z
??0CSvcQuery@@QEAA@PEBGPEAUIDBProperties@@@Z
??0CStandardPropMapper@@QEAA@XZ
??0CSortSet@@QEAA@I@Z
??0CSort@@QEAA@I@Z
??0CSizeSerStream@@QEAA@XZ
??0CSdidLookupTable@@QEAA@XZ
??0CScopeRestriction@@QEAA@PEBGHH@Z
??0CRequestQueue@@QEAA@IIIHIIAEBU_GUID@@@Z
??0CRequestClient@@QEAA@PEBGPEAUIDBProperties@@@Z
??0CRegNotify@@QEAA@PEBG@Z
??0CRegChangeEvent@@QEAA@PEBGH@Z
??0CRegAccess@@QEAA@KPEBG@Z
??0CRcovStrmTrans@@IEAA@AEAVPRcovStorageObj@@W4RcovOpType@@@Z
??0CRcovStrmMDTrans@@QEAA@AEAVPRcovStorageObj@@W4MDOp@0@K@Z
??0CRcovStrmAppendTrans@@QEAA@AEAVPRcovStorageObj@@@Z
??0CRangeKeyRepository@@QEAA@XZ
??0CQueryScanner@@QEAA@PEBGHKH@Z
??0CPropertyValueParser@@QEAA@AEAVCQueryScanner@@GK@Z
??0CPropertyStoreWids@@QEAA@AEAVCPropStoreManager@@@Z
??0CPropertyRestriction@@QEAA@XZ
??0CPropertyRestriction@@QEAA@KAEBVCFullPropSpec@@AEBVCStorageVariant@@@Z
??0CPropStoreManager@@QEAA@K@Z
??0CPropNameArray@@QEAA@I@Z
??0CPropNameArray@@QEAA@AEAVPDeSerStream@@@Z
??0CPropListFile@@QEAA@PEAVCEmptyPropertyList@@HPEBGK@Z
??0CPidRemapper@@QEAA@AEBVCPidMapper@@AEAV?$XInterface@UIPropertyMapper@@@@PEAVCRestriction@@PEAVCColumnSet@@PEAVCSortSet@@@Z
??0CPidRemapper@@QEAA@AEAV?$XInterface@UIPropertyMapper@@@@@Z
??0CPidLookupTable@@QEAA@XZ
??0CPhysStorage@@IEAA@AEAVPStorage@@AEAVPStorageObject@@KPEAVPMmStream@@W4EOpenMode@1@HIH@Z
??0CPhysStorage@@IEAA@AEAVPStorage@@AEAVPStorageObject@@KIPEAVPMmStream@@HIH@Z
??0CPersDeComp@@QEAA@AEAVPDirectory@@KAEAVCPhysIndex@@KHH@Z
??0CPerfMon@@QEAA@PEBG@Z
??0CPathParser@@QEAA@PEBGK@Z
??0CNormalizer@@QEAA@AEAVPNoiseList@@@Z
??0CNodeRestriction@@QEAA@KI@Z
??0CNatLanguageRestriction@@QEAA@PEBGAEBVCFullPropSpec@@K@Z
??0CMmStreamConsecBuf@@QEAA@XZ
??0CMmStream@@QEAA@KH@Z
??0CMetaDataMgr@@QEAA@HW4CiVRootTypeEnum@@KPEBG@Z
??0CMemSerStream@@QEAA@PEAEK@Z
??0CMemSerStream@@QEAA@I@Z
??0CMachineAdmin@@QEAA@PEBGH@Z
??0CLocalGlobalPropertyList@@QEAA@PEAVCEmptyPropertyList@@HPEBGK@Z
??0CLocalGlobalPropertyList@@QEAA@K@Z
??0CLangList@@QEAA@PEAUICiCLangRes@@K@Z
??0CKeyArray@@QEAA@HH@Z
??0CInternalPropertyRestriction@@QEAA@KKAEBVCStorageVariant@@PEAVCRestriction@@@Z
??0CIndexTable@@QEAA@AEAVCiStorage@@AEAVCTransaction@@@Z
??0CImpersonationTokenCache@@QEAA@PEBG@Z
??0CImpersonateRemoteAccess@@QEAA@PEAVCImpersonationTokenCache@@@Z
??0CGetDbProps@@QEAA@XZ
??0CGenericCiProxy@@QEAA@AEAVCSharedNameGen@@KK@Z
??0CFwEventItem@@QEAA@GKGKPEAX@Z
??0CFwAsyncWorkItem@@QEAA@AEAVCWorkManager@@AEAVCWorkQueue@@@Z
??0CFullPropSpec@@QEAA@XZ
??0CFullPropSpec@@QEAA@AEBV0@@Z
??0CFullPropSpec@@QEAA@AEAVPDeSerStream@@@Z
??0CFullPath@@QEAA@PEBGI@Z
??0CFullPath@@QEAA@PEBG@Z
??0CFilterDaemon@@QEAA@AEAVCiProxy@@AEAVCCiFrameworkParams@@AEAVCLangList@@PEAEKPEAUICiCFilterClient@@@Z
??0CFileMapView@@QEAA@PEBG@Z
??0CFileBuffer@@QEAA@AEAVCFileMapView@@I@Z
??0CException@@QEAA@XZ
??0CException@@QEAA@J@Z
??0CEventLog@@QEAA@PEBG0@Z
??0CEventItem@@QEAA@GGKGKPEBX@Z
??0CDynStream@@QEAA@PEAVPMmStream@@@Z
??0CDriveInfo@@QEAA@PEBGK@Z
??0CDefColumnRegEntry@@QEAA@XZ
??0CDbSortSet@@QEAA@I@Z
??0CDbSelectNode@@QEAA@XZ
??0CDbQueryResults@@QEAA@XZ
??0CDbNatLangRestriction@@QEAA@PEBGAEBVCDbColumnNode@@K@Z
??0CDbNatLangRestriction@@QEAA@PEBGAEBUtagDBID@@K@Z
??0CDbContentRestriction@@QEAA@PEBGAEBVCDbColumnNode@@KK@Z
??0CDbContentRestriction@@QEAA@PEBGAEBUtagDBID@@KK@Z
??0CDbColumns@@QEAA@I@Z
??0CDbColId@@QEAA@XZ
??0CDbColId@@QEAA@AEBV0@@Z
??0CDbColId@@QEAA@AEBUtagDBID@@@Z
??0CDbColId@@QEAA@AEBU_GUID@@PEBG@Z
??0CDFA@@QEAA@PEBGAEAVCTimeLimit@@E@Z
??0CContentRestriction@@QEAA@PEBGAEBVCFullPropSpec@@KK@Z
??0CColumns@@QEAA@I@Z
??0CColumns@@QEAA@AEBV0@@Z
??0CColumnSet@@QEAA@I@Z
??0CCiRegParams@@QEAA@PEBG@Z
??0CCiAdminParams@@QEAA@PEAVCLangList@@@Z
??0CCategorizationSet@@QEAA@I@Z
??0CCategorizationSet@@QEAA@AEBV0@@Z
??0CCatState@@QEAA@XZ
??0CAllocStorageVariant@@QEAA@W4VARENUM@@KAEAVPMemoryAllocator@@@Z
??0CAllocStorageVariant@@QEAA@PEBU_GUID@@AEAVPMemoryAllocator@@@Z
??0CAllocStorageVariant@@QEAA@PEBGAEAVPMemoryAllocator@@@Z
??0CAllocStorageVariant@@QEAA@PEBDAEAVPMemoryAllocator@@@Z
??0CAllocStorageVariant@@QEAA@AEAVPDeSerStream@@AEAVPMemoryAllocator@@@Z
??0CAllocStorageVariant@@QEAA@AEAUtagPROPVARIANT@@AEAVPMemoryAllocator@@@Z
