LIBRARY TCPMIB.DLL
EXPORTS
Ping
GetTcpMibPtr
?UnInitSnmp@CTcpMib@@UEAAXXZ
?SupportsPrinterMib@CTcpMib@@UEAAHPEBD0KPEAH@Z
?SnmpWalk@CTcpMib@@UEAAKPEBD0KPEAUAsnObjectIdentifier@@PEAUSnmpVarBindList@@@Z
?SnmpWalk@CTcpMib@@QEAAKPEBD0KPEAUSnmpVarBindList@@@Z
?SnmpGetNext@CTcpMib@@UEAAKPEBD0KPEAUAsnObjectIdentifier@@PEAUSnmpVarBindList@@@Z
?SnmpGetNext@CTcpMib@@QEAAKPEBD0KPEAUSnmpVarBindList@@@Z
?SnmpGet@CTcpMib@@UEAAKPEBD0KPEAUAsnObjectIdentifier@@PEAUSnmpVarBindList@@@Z
?SnmpGet@CTcpMib@@QEAAKPEBD0KPEAUSnmpVarBindList@@@Z
?SnmpCallback@CTcpMib@@CAKPEAX0I_K_J0@Z
?RequestDeviceStatus@CTcpMib@@UEAAKPEAXKPEBG1K@Z
?RegisterDeviceStatusCallback@CTcpMib@@UEAAKP6AKHPEBD0KKK@ZPEAPEAX@Z
?MapAsynchToPortStatus@CTcpMib@@CAHKPEAU_PORT_INFO_3W@@@Z
?IsValid@CTcpMib@@QEBAHXZ
?InitSnmp@CTcpMib@@UEAAKXZ
?GetStatusFromVBL@CTcpMib@@CAKPEAXPEAUsmiVALUE@@11@Z
?GetNextRequestId@CTcpMib@@UEAAKPEAK@Z
?GetDeviceName@CTcpMib@@UEAAKPEBD0KKPEAG@Z
?GetDeviceHWAddress@CTcpMib@@UEAAKPEBD0KKPEAG@Z
?GetDeviceDescription@CTcpMib@@UEAAKPEBD0KPEAGK@Z
?ExitCSection@CTcpMib@@AEAAXXZ
?EnterCSection@CTcpMib@@AEAAXXZ
??_7CTcpMibABC@@6B@
??_7CTcpMib@@6B@
??4CTcpMibABC@@QEAAAEAV0@AEBV0@@Z
??4CTcpMib@@QEAAAEAV0@AEBV0@@Z
??1CTcpMibABC@@UEAA@XZ
??1CTcpMib@@UEAA@XZ
??0CTcpMibABC@@QEAA@XZ
??0CTcpMibABC@@QEAA@AEBV0@@Z
??0CTcpMib@@QEAA@XZ
??0CTcpMib@@QEAA@AEBV0@@Z
