LIBRARY UFAT.DLL
EXPORTS
Recover
FormatEx
Format
ChkdskEx
Chkdsk
?Write@CLUSTER_CHAIN@@UEAAEXZ
?Set12@FAT@@AEAAXKK@Z
?SearchForDirEntry@FATDIR@@QEAAPEAXPEBVWSTRING@@@Z
?Read@REAL_FAT_SA@@UEAAEPEAVMESSAGE@@@Z
?Read@EA_SET@@UEAAEXZ
?Read@CLUSTER_CHAIN@@UEAAEXZ
?QueryNthCluster@FAT@@QEBAKKK@Z
?QueryName@FAT_DIRENT@@QEBAEPEAVWSTRING@@@Z
?QueryLongName@FATDIR@@QEAAEJPEAVWSTRING@@@Z
?QueryLengthOfChain@FAT@@QEBAKKPEAK@Z
?QueryLastWriteTime@FAT_DIRENT@@QEBAEPEAT_LARGE_INTEGER@@@Z
?QueryLastAccessTime@FAT_DIRENT@@QEBAEPEAT_LARGE_INTEGER@@@Z
?QueryFreeSectors@REAL_FAT_SA@@QEBAKXZ
?QueryFileStartingCluster@FAT_SA@@QEAAKPEBVWSTRING@@PEAVHMEM@@PEAPEAVFATDIR@@PEAEPEAVFAT_DIRENT@@@Z
?QueryEaSetClusterNumber@EA_HEADER@@QEBAGG@Z
?QueryCreationTime@FAT_DIRENT@@QEBAEPEAT_LARGE_INTEGER@@@Z
?QueryCensusAndRelocate@FAT_SA@@QEAAEPEAU_CENSUS_REPORT@@PEAVINTSTACK@@PEAE@Z
?QueryAllocatedClusters@FAT@@QEBAKXZ
?IsValidLastWriteTime@FAT_DIRENT@@QEBAEXZ
?IsValidLastAccessTime@FAT_DIRENT@@QEBAEXZ
?IsValidCreationTime@FAT_DIRENT@@QEBAEXZ
?Initialize@ROOTDIR@@QEAAEPEAVMEM@@PEAVLOG_IO_DP_DRIVE@@KJ@Z
?Initialize@REAL_FAT_SA@@UEAAEPEAVLOG_IO_DP_DRIVE@@PEAVMESSAGE@@E@Z
?Initialize@FILEDIR@@QEAAEPEAVMEM@@PEAVLOG_IO_DP_DRIVE@@PEAVFAT_SA@@PEBVFAT@@K@Z
?Initialize@FAT_DIRENT@@QEAAEPEAXE@Z
?Initialize@FAT_DIRENT@@QEAAEPEAX@Z
?Initialize@EA_SET@@QEAAEPEAVMEM@@PEAVLOG_IO_DP_DRIVE@@PEAVFAT_SA@@PEBVFAT@@KK@Z
?Initialize@EA_HEADER@@QEAAEPEAVMEM@@PEAVLOG_IO_DP_DRIVE@@PEAVFAT_SA@@PEBVFAT@@KK@Z
?Initialize@CLUSTER_CHAIN@@QEAAEPEAVMEM@@PEAVLOG_IO_DP_DRIVE@@PEAVFAT_SA@@PEBVFAT@@KK@Z
?InitFATChkDirty@REAL_FAT_SA@@QEAAEPEAVLOG_IO_DP_DRIVE@@PEAVMESSAGE@@@Z
?Index12@FAT@@AEBAKK@Z
?GetEa@EA_SET@@QEAAPEAU_EA@@KPEAJPEAE@Z
?FreeChain@FAT@@QEAAXK@Z
?AllocChain@FAT@@QEAAKKPEAK@Z
??1ROOTDIR@@UEAA@XZ
??1REAL_FAT_SA@@UEAA@XZ
??1FILEDIR@@UEAA@XZ
??1FAT_SA@@UEAA@XZ
??1FAT_DIRENT@@UEAA@XZ
??1EA_SET@@UEAA@XZ
??1EA_HEADER@@UEAA@XZ
??1CLUSTER_CHAIN@@UEAA@XZ
??0ROOTDIR@@QEAA@XZ
??0REAL_FAT_SA@@QEAA@XZ
??0FILEDIR@@QEAA@XZ
??0FAT_SA@@QEAA@XZ
??0FAT_DIRENT@@QEAA@XZ
??0EA_SET@@QEAA@XZ
??0EA_HEADER@@QEAA@XZ
??0CLUSTER_CHAIN@@QEAA@XZ
