LIBRARY UNTFS.DLL
EXPORTS
Recover
FormatEx
Format
Extend
ChkdskEx
Chkdsk
?WriteRemainingBootCode@NTFS_SA@@QEAAEXZ
?Write@NTFS_FRS_STRUCTURE@@QEAAEXZ
?Write@NTFS_FILE_RECORD_SEGMENT@@UEAAEXZ
?Write@NTFS_BITMAP@@QEAAEPEAVNTFS_ATTRIBUTE@@PEAV1@@Z
?Write@NTFS_ATTRIBUTE@@UEAAEPEBXVBIG_INT@@KPEAKPEAVNTFS_BITMAP@@@Z
?TakeCensus@NTFS_SA@@QEAAEPEAVNTFS_MASTER_FILE_TABLE@@KPEAUNTFS_CENSUS_INFO@@@Z
?SetVolumeFlag@NTFS_SA@@QEAAEGPEAE@Z
?SetSparse@NTFS_ATTRIBUTE@@UEAAEVBIG_INT@@PEAVNTFS_BITMAP@@@Z
?Save@NTFS_INDEX_TREE@@QEAAEPEAVNTFS_FILE_RECORD_SEGMENT@@@Z
?SafeQueryAttribute@NTFS_FRS_STRUCTURE@@QEAAEKPEAVNTFS_ATTRIBUTE@@0@Z
?Resize@NTFS_ATTRIBUTE@@UEAAEVBIG_INT@@PEAVNTFS_BITMAP@@@Z
?ResetIterator@NTFS_INDEX_TREE@@QEAAXXZ
?Relocate@NTFS_CLUSTER_RUN@@QEAAXVBIG_INT@@@Z
?ReadSet@NTFS_FRS_STRUCTURE@@QEAAEPEAVTLINK@@@Z
?ReadNext@NTFS_FRS_STRUCTURE@@QEAAEVBIG_INT@@@Z
?ReadList@NTFS_ATTRIBUTE_LIST@@QEAAEXZ
?ReadAgain@NTFS_FRS_STRUCTURE@@QEAAEVBIG_INT@@@Z
?Read@NTFS_SA@@UEAAEXZ
?Read@NTFS_SA@@QEAAEPEAVMESSAGE@@@Z
?Read@NTFS_MFT_FILE@@UEAAEXZ
?Read@NTFS_FRS_STRUCTURE@@UEAAEXZ
?Read@NTFS_ATTRIBUTE@@QEAAEPEAXVBIG_INT@@KPEAK@Z
?QueryVolumeFlagsAndLabel@NTFS_SA@@QEAAGPEAE00PEAVWSTRING@@@Z
?QuerySegmentReference@NTFS_MFT_INFO@@SA?AU_MFT_SEGMENT_REFERENCE@@PEAX@Z
?QuerySectorsInElementaryStructures@NTFS_SA@@SAKPEBVDP_DRIVE@@KKKK@Z
?QueryNumberOfExtents@NTFS_EXTENT_LIST@@QEBAKXZ
?QueryNextEntry@NTFS_ATTRIBUTE_LIST@@QEBAEPEAU_ATTR_LIST_CURR_ENTRY@@PEAKPEAVBIG_INT@@PEAU_MFT_SEGMENT_REFERENCE@@PEAGPEAVWSTRING@@@Z
?QueryName@NTFS_ATTRIBUTE_RECORD@@QEBAEPEAVWSTRING@@@Z
?QueryLcnFromVcn@NTFS_EXTENT_LIST@@QEBAEVBIG_INT@@PEAV2@1@Z
?QueryFrsFromPath@NTFS_SA@@QEAAEPEBVWSTRING@@PEAVNTFS_MASTER_FILE_TABLE@@PEAVNTFS_BITMAP@@PEAVNTFS_FILE_RECORD_SEGMENT@@PEAE4@Z
?QueryFlags@NTFS_MFT_INFO@@SAEPEAXG@Z
?QueryFileSizes@NTFS_FILE_RECORD_SEGMENT@@QEAAEPEAVBIG_INT@@0PEAE@Z
?QueryFileReference@NTFS_INDEX_TREE@@QEAAEKPEAXKPEAU_MFT_SEGMENT_REFERENCE@@PEAE@Z
?QueryExtentList@NTFS_ATTRIBUTE_RECORD@@QEBAEPEAVNTFS_EXTENT_LIST@@@Z
?QueryExtent@NTFS_EXTENT_LIST@@QEBAEKPEAVBIG_INT@@00@Z
?QueryEntry@NTFS_INDEX_TREE@@QEAAEKPEAXKPEAPEAU_INDEX_ENTRY@@PEAPEAVNTFS_INDEX_BUFFER@@PEAE@Z
?QueryDefaultClustersPerIndexBuffer@NTFS_SA@@SAKPEBVDP_DRIVE@@K@Z
?QueryClusterFactor@NTFS_SA@@QEBAEXZ
?QueryAttributeListAttribute@NTFS_FILE_RECORD_SEGMENT@@QEAAEPEAVNTFS_ATTRIBUTE@@PEAE@Z
?QueryAttributeList@NTFS_FRS_STRUCTURE@@QEAAEPEAVNTFS_ATTRIBUTE_LIST@@@Z
?QueryAttributeByOrdinal@NTFS_FILE_RECORD_SEGMENT@@QEAAEPEAVNTFS_ATTRIBUTE@@PEAEKK@Z
?QueryAttribute@NTFS_FILE_RECORD_SEGMENT@@QEAAEPEAVNTFS_ATTRIBUTE@@PEAEKPEBVWSTRING@@@Z
?NtfsUpcaseCompare@@YAJPEBGK0KPEBVNTFS_UPCASE_TABLE@@E@Z
?MakeNonresident@NTFS_ATTRIBUTE@@UEAAEPEAVNTFS_BITMAP@@@Z
?IsNtfsName@NTFS_SA@@SAEPEBU_FILE_NAME@@@Z
?IsFree@NTFS_BITMAP@@QEBAEVBIG_INT@@0@Z
?IsDosName@NTFS_SA@@SAEPEBU_FILE_NAME@@@Z
?IsAttributePresent@NTFS_FILE_RECORD_SEGMENT@@QEAAEKPEBVWSTRING@@E@Z
?IsAllocated@NTFS_BITMAP@@QEBAEVBIG_INT@@0@Z
?InsertIntoFile@NTFS_ATTRIBUTE@@UEAAEPEAVNTFS_FILE_RECORD_SEGMENT@@PEAVNTFS_BITMAP@@@Z
?InsertEntry@NTFS_INDEX_TREE@@QEAAEKPEAXU_MFT_SEGMENT_REFERENCE@@E@Z
?Initialize@RA_PROCESS_SD@@SAEPEAVNTFS_SA@@VBIG_INT@@PEAV3@PEAKPEAVNTFS_FILE_RECORD_SEGMENT@@4PEAX5PEAVNTFS_MASTER_FILE_TABLE@@@Z
?Initialize@RA_PROCESS_FILE@@SAEPEAVNTFS_SA@@VBIG_INT@@PEAV3@PEAKPEAVNTFS_FRS_STRUCTURE@@4PEAVHMEM@@5PEAX6PEAVNTFS_ATTRIBUTE@@PEAVNTFS_UPCASE_TABLE@@@Z
?Initialize@NTFS_UPCASE_TABLE@@QEAAEPEAVNTFS_ATTRIBUTE@@@Z
?Initialize@NTFS_UPCASE_FILE@@QEAAEPEAVNTFS_MASTER_FILE_TABLE@@@Z
?Initialize@NTFS_SA@@QEAAEPEAVLOG_IO_DP_DRIVE@@PEAVMESSAGE@@VBIG_INT@@2@Z
?Initialize@NTFS_REFLECTED_MASTER_FILE_TABLE@@QEAAEPEAVNTFS_MASTER_FILE_TABLE@@@Z
?Initialize@NTFS_MFT_INFO@@QEAAEXZ
?Initialize@NTFS_MFT_INFO@@QEAAEVBIG_INT@@PEAVNTFS_UPCASE_TABLE@@EE_K@Z
?Initialize@NTFS_MFT_FILE@@QEAAEPEAVLOG_IO_DP_DRIVE@@VBIG_INT@@KK1PEAVNTFS_BITMAP@@PEAVNTFS_UPCASE_TABLE@@@Z
?Initialize@NTFS_LOG_FILE@@QEAAEPEAVNTFS_MASTER_FILE_TABLE@@@Z
?Initialize@NTFS_INDEX_TREE@@QEAAEPEAVLOG_IO_DP_DRIVE@@KPEAVNTFS_BITMAP@@PEAVNTFS_UPCASE_TABLE@@KPEAVNTFS_FILE_RECORD_SEGMENT@@PEBVWSTRING@@@Z
?Initialize@NTFS_INDEX_TREE@@QEAAEKPEAVLOG_IO_DP_DRIVE@@KPEAVNTFS_BITMAP@@PEAVNTFS_UPCASE_TABLE@@KKKPEBVWSTRING@@@Z
?Initialize@NTFS_FRS_STRUCTURE@@QEAAEPEAVMEM@@PEAVNTFS_ATTRIBUTE@@VBIG_INT@@KK2KPEAVNTFS_UPCASE_TABLE@@@Z
?Initialize@NTFS_FRS_STRUCTURE@@QEAAEPEAVMEM@@PEAVNTFS_ATTRIBUTE@@VBIG_INT@@K2KPEAVNTFS_UPCASE_TABLE@@@Z
?Initialize@NTFS_FRS_STRUCTURE@@QEAAEPEAVMEM@@PEAVLOG_IO_DP_DRIVE@@VBIG_INT@@K2KPEAVNTFS_UPCASE_TABLE@@K@Z
?Initialize@NTFS_FILE_RECORD_SEGMENT@@QEAAEXZ
?Initialize@NTFS_FILE_RECORD_SEGMENT@@QEAAEVBIG_INT@@PEAVNTFS_MFT_FILE@@@Z
?Initialize@NTFS_FILE_RECORD_SEGMENT@@QEAAEVBIG_INT@@PEAVNTFS_MASTER_FILE_TABLE@@@Z
?Initialize@NTFS_FILE_RECORD_SEGMENT@@QEAAEVBIG_INT@@KPEAVNTFS_MASTER_FILE_TABLE@@@Z
?Initialize@NTFS_EXTENT_LIST@@QEAAEVBIG_INT@@0@Z
?Initialize@NTFS_CLUSTER_RUN@@QEAAEPEAVMEM@@PEAVLOG_IO_DP_DRIVE@@VBIG_INT@@KK@Z
?Initialize@NTFS_BOOT_FILE@@QEAAEPEAVNTFS_MASTER_FILE_TABLE@@@Z
?Initialize@NTFS_BITMAP_FILE@@QEAAEPEAVNTFS_MASTER_FILE_TABLE@@@Z
?Initialize@NTFS_BITMAP@@QEAAEVBIG_INT@@EPEAVLOG_IO_DP_DRIVE@@K@Z
?Initialize@NTFS_BAD_CLUSTER_FILE@@QEAAEPEAVNTFS_MASTER_FILE_TABLE@@@Z
?Initialize@NTFS_ATTRIBUTE_RECORD@@QEAAEPEAVIO_DP_DRIVE@@PEAX@Z
?Initialize@NTFS_ATTRIBUTE_DEFINITION_TABLE@@QEAAEPEAVNTFS_MASTER_FILE_TABLE@@E@Z
?Initialize@NTFS_ATTRIBUTE@@QEAAEPEAVLOG_IO_DP_DRIVE@@KPEBXKKPEBVWSTRING@@G@Z
?Initialize@NTFS_ATTRIBUTE@@QEAAEPEAVLOG_IO_DP_DRIVE@@KPEBVNTFS_EXTENT_LIST@@VBIG_INT@@2KPEBVWSTRING@@G@Z
?GetNextAttributeRecord@NTFS_FRS_STRUCTURE@@QEAAPEAXPEBXPEAVMESSAGE@@PEAE@Z
?GetNextAttributeListEntry@NTFS_ATTRIBUTE_LIST@@QEBAPEBU_ATTRIBUTE_LIST_ENTRY@@PEBU2@@Z
?GetNext@NTFS_INDEX_TREE@@QEAAPEBU_INDEX_ENTRY@@PEAKPEAEE@Z
?Flush@NTFS_MFT_FILE@@QEAAEXZ
?Flush@NTFS_FILE_RECORD_SEGMENT@@QEAAEPEAVNTFS_BITMAP@@PEAVNTFS_INDEX_TREE@@E@Z
?Extend@NTFS_MASTER_FILE_TABLE@@QEAAEK@Z
?CreateElementaryStructures@NTFS_SA@@QEAAEPEAVNTFS_BITMAP@@KKKKPEBVNUMBER_SET@@EEPEAVMESSAGE@@PEAUBIOS_PARAMETER_BLOCK@@PEBVWSTRING@@@Z
?CreateDataAttribute@NTFS_LOG_FILE@@QEAAEVBIG_INT@@KPEAVNTFS_BITMAP@@@Z
?Create@NTFS_FILE_RECORD_SEGMENT@@QEAAEPEBU_STANDARD_INFORMATION@@G@Z
?CopyIterator@NTFS_INDEX_TREE@@QEAAEPEAV1@@Z
?ComputeFileNameSignature@NTFS_MFT_INFO@@CAXKPEAU_FILE_NAME@@QEAE@Z
?ComputeDupInfoSignature@NTFS_MFT_INFO@@CAXPEAU_DUPLICATED_INFORMATION@@QEAE@Z
?CompareFileName@NTFS_MFT_INFO@@SAEPEAXKPEAU_FILE_NAME@@PEAG@Z
?CompareDupInfo@NTFS_MFT_INFO@@SAEPEAXPEAU_FILE_NAME@@@Z
?AllocateFileRecordSegment@NTFS_MASTER_FILE_TABLE@@QEAAEPEAVBIG_INT@@E@Z
?AddSecurityDescriptorData@NTFS_FILE_RECORD_SEGMENT@@QEAAEPEAVNTFS_ATTRIBUTE@@PEAXPEAPEAU_SECURITY_ENTRY@@KW4_CANNED_SECURITY_TYPE@@PEAVNTFS_BITMAP@@E@Z
?AddSecurityDescriptor@NTFS_FILE_RECORD_SEGMENT@@QEAAEW4_CANNED_SECURITY_TYPE@@PEAVNTFS_BITMAP@@@Z
?AddFileNameAttribute@NTFS_FILE_RECORD_SEGMENT@@QEAAEPEAU_FILE_NAME@@@Z
?AddExtent@NTFS_EXTENT_LIST@@QEAAEVBIG_INT@@00@Z
??1RA_PROCESS_SD@@UEAA@XZ
??1RA_PROCESS_FILE@@UEAA@XZ
??1NTFS_UPCASE_TABLE@@UEAA@XZ
??1NTFS_UPCASE_FILE@@UEAA@XZ
??1NTFS_SA@@UEAA@XZ
??1NTFS_REFLECTED_MASTER_FILE_TABLE@@UEAA@XZ
??1NTFS_MFT_INFO@@UEAA@XZ
??1NTFS_MFT_FILE@@UEAA@XZ
??1NTFS_LOG_FILE@@UEAA@XZ
??1NTFS_INDEX_TREE@@UEAA@XZ
??1NTFS_FRS_STRUCTURE@@UEAA@XZ
??1NTFS_FILE_RECORD_SEGMENT@@UEAA@XZ
??1NTFS_EXTENT_LIST@@UEAA@XZ
??1NTFS_CLUSTER_RUN@@UEAA@XZ
??1NTFS_BOOT_FILE@@UEAA@XZ
??1NTFS_BITMAP_FILE@@UEAA@XZ
??1NTFS_BITMAP@@UEAA@XZ
??1NTFS_BAD_CLUSTER_FILE@@UEAA@XZ
??1NTFS_ATTRIBUTE_RECORD@@UEAA@XZ
??1NTFS_ATTRIBUTE_LIST@@UEAA@XZ
??1NTFS_ATTRIBUTE_DEFINITION_TABLE@@UEAA@XZ
??1NTFS_ATTRIBUTE@@UEAA@XZ
??0RA_PROCESS_SD@@QEAA@XZ
??0RA_PROCESS_FILE@@QEAA@XZ
??0NTFS_UPCASE_TABLE@@QEAA@XZ
??0NTFS_UPCASE_FILE@@QEAA@XZ
??0NTFS_SA@@QEAA@XZ
??0NTFS_REFLECTED_MASTER_FILE_TABLE@@QEAA@XZ
??0NTFS_MFT_INFO@@QEAA@XZ
??0NTFS_MFT_FILE@@QEAA@XZ
??0NTFS_LOG_FILE@@QEAA@XZ
??0NTFS_INDEX_TREE@@QEAA@XZ
??0NTFS_FRS_STRUCTURE@@QEAA@XZ
??0NTFS_FILE_RECORD_SEGMENT@@QEAA@XZ
??0NTFS_EXTENT_LIST@@QEAA@XZ
??0NTFS_CLUSTER_RUN@@QEAA@XZ
??0NTFS_BOOT_FILE@@QEAA@XZ
??0NTFS_BITMAP_FILE@@QEAA@XZ
??0NTFS_BITMAP@@QEAA@XZ
??0NTFS_BAD_CLUSTER_FILE@@QEAA@XZ
??0NTFS_ATTRIBUTE_RECORD@@QEAA@XZ
??0NTFS_ATTRIBUTE_LIST@@QEAA@XZ
??0NTFS_ATTRIBUTE_DEFINITION_TABLE@@QEAA@XZ
??0NTFS_ATTRIBUTE@@QEAA@XZ
