LIBRARY VDSUTIL.DLL
EXPORTS
UnregisterVdsFabric
RegisterVdsFabric
DllMain
?ZeroAsyncOut@CVdsAsyncObjectBase@@QEAAXXZ
?WindowProcEntry@CVdsPnPNotificationBase@@CA_JPEAUHWND__@@I_K_J@Z
?WaitImpl@CVdsAsyncObjectBase@@QEAAJPEAJ@Z
?VdsTraceW@@YAXKPEAGZZ
?VdsTraceExWHelper@@YAXKKPEAGPEAD@Z
?VdsTraceExW@@YAXKKPEAGZZ
?VdsTraceExHelper@@YAXKKPEAD0@Z
?VdsTraceEx@@YAXKKPEADZZ
?VdsTrace@@YAXKPEADZZ
?VdsSeTranslator@CVdsStructuredExceptionTranslator@@SAXIPEAU_EXCEPTION_POINTERS@@@Z
?VdsInitializeCriticalSection@@YAKPEAU_RTL_CRITICAL_SECTION@@@Z
?VdsHeapFree@@YAHPEAXK0@Z
?VdsHeapAlloc@@YAPEAXPEAXK_K@Z
?VdsAllocateEmptyString@@YAPEAGXZ
?UnregisterProvider@@YAJU_GUID@@@Z
?UnregisterHandle@CVdsPnPNotificationBase@@QEAAXPEAX@Z
?Unregister@CVdsPnPNotificationBase@@QEAAXPEAU_NotificationListeningRequest@@@Z
?Uninitialize@CVdsPnPNotificationBase@@QEAAXXZ
?Uninitialize@CVdsAsyncObjectBase@@SAXXZ
?TracingLogEnabled@CVdsDebugLog@@QEAAHXZ
?Skip@CPrvEnumObject@@UEAAJK@Z
?Signal@CVdsAsyncObjectBase@@QEAAXXZ
?SetPositionToLast@CPrvEnumObject@@QEAAXXZ
?SetOutputType@CVdsAsyncObjectBase@@QEAAXW4__MIDL___MIDL_itf_vdscmlyr_0000_0002@@@Z
?SetDiskLayout@@YAKPEAXPEAU_DRIVE_LAYOUT_INFORMATION_EX@@@Z
?SetCompletionStatus@CVdsAsyncObjectBase@@QEAAXJK@Z
?Reset@CPrvEnumObject@@UEAAJXZ
?RemoveTempVolumeName@@YAXPEAG0@Z
?RemoveEventSource@@YAKPEAG@Z
?RegisterProvider@@YAJU_GUID@@0PEAGW4_VDS_PROVIDER_TYPE@@110@Z
?RegisterHandle@CVdsPnPNotificationBase@@QEAAKPEAXPEAPEAX@Z
?Register@CVdsPnPNotificationBase@@QEAAKPEAU_NotificationListeningRequest@@K@Z
?QueryStatus@CVdsAsyncObjectBase@@UEAAJPEAJPEAK@Z
?QueryObjects@@YAJPEAUIUnknown@@PEAPEAUIEnumVdsObject@@AEAU_RTL_CRITICAL_SECTION@@@Z
?OpenDevice@@YAKPEAGKPEAPEAX@Z
?NotificationThreadEntry@CVdsPnPNotificationBase@@CAKPEAX@Z
?NotificationThread@CVdsPnPNotificationBase@@AEAAKPEAX@Z
?Next@CPrvEnumObject@@UEAAJKPEAPEAUIUnknown@@PEAK@Z
?MountVolume@@YAKPEAG@Z
?LogWarning@@YAXPEAGKKPEAXKK0PEAD@Z
?LogInfo@@YAXPEAGKKPEAXK0PEAD@Z
?LogEvent@@YAXPEAGKGKPEAXKQEAPEAG@Z
?LogError@@YAXPEAGKKPEAXKK0PEAD@Z
?Log@CVdsDebugLog@@QEAAXKKHPEADZZ
?Log@CVdsDebugLog@@QEAAXKKHPEAD0@Z
?LockVolume@@YAKPEAX@Z
?LockDismountVolume@@YAKPEAXH@Z
?IsWinPE@@YAHXZ
?IsNoAutoMount@@YAHXZ
?IsMediaPresent@@YAHPEAX@Z
?IsLocalComputer@@YAJPEAG@Z
?IsFinished@CVdsAsyncObjectBase@@QEAAHXZ
?IsDiskClustered@@YAHPEAX@Z
?IsDeviceFullyInstalled@@YAHPEAG@Z
?IsCancelRequested@CVdsAsyncObjectBase@@QEAAHXZ
?InitializeSecurityDescriptor@@YAKKPEAXPEAPEAU_ACL@@PEAPEAX22@Z
?Initialize@CVdsPnPNotificationBase@@QEAAKXZ
?Initialize@CVdsAsyncObjectBase@@SAKXZ
?HasMatchingNotification@CVdsPnPNotificationBase@@IEAAH_KK@Z
?GetWindowHandle@CVdsPnPNotificationBase@@QEAAPEAUHWND__@@XZ
?GetVolumeSize@@YAKPEAGPEA_K@Z
?GetVolumeName@@YAJPEAG0@Z
?GetVolumeDiskExtentInfo@@YAKPEAXPEAPEAU_VOLUME_DISK_EXTENTS@@@Z
?GetPartitionInformation@@YAKPEAXPEAU_PARTITION_INFORMATION_EX@@@Z
?GetOutputType@CVdsAsyncObjectBase@@QEAA?AW4__MIDL___MIDL_itf_vdscmlyr_0000_0002@@XZ
?GetMediaGeometry@@YAKPEAXPEAU_VDS_DISK_PROP@@@Z
?GetMediaGeometry@@YAKPEAXKPEAU_DISK_GEOMETRY@@@Z
?GetIsRemovable@@YAKPEAXPEAH@Z
?GetInterfaceDetailData@@YAKPEAXPEAU_SP_DEVICE_INTERFACE_DATA@@PEAPEAU_SP_DEVICE_INTERFACE_DETAIL_DATA_W@@@Z
?GetDiskLayout@@YAKPEAXPEAPEAU_DRIVE_LAYOUT_INFORMATION_EX@@@Z
?GetDeviceRegistryProperty@@YAKPEAXPEAU_SP_DEVINFO_DATA@@KPEAPEAEK@Z
?GetDeviceRegistryProperty@@YAKKKPEAPEAEK@Z
?GetDeviceNumber@@YAKPEAXPEAU_STORAGE_DEVICE_NUMBER@@@Z
?GetDeviceName@@YAKPEAXHQEAG@Z
?GetDeviceLocation@@YAKPEAXPEAU_VDS_DISK_PROP@@@Z
?GetDeviceAndMediaType@@YAKPEAXPEAK1@Z
?GarbageCollectDriveLetters@@YAXXZ
?DisallowCancel@CVdsAsyncObjectBase@@QEAAXXZ
?Detach@?$CVdsHandleImpl@$0?0@@QEAAPEAXXZ
?CreateListenThread@CVdsPnPNotificationBase@@AEAAKXZ
?CreateDeviceInfoSet@@YAKPEAGPEAPEAXPEAU_SP_DEVINFO_DATA@@@Z
?CoFreeStringArray@@YAXPEAPEAGJ@Z
?Clone@CPrvEnumObject@@UEAAJPEAPEAUIEnumVdsObject@@@Z
?Clear@CPrvEnumObject@@QEAAXXZ
?Cancel@CVdsAsyncObjectBase@@UEAAJXZ
?AssignTempVolumeName@@YAJPEAGQEAG@Z
?Append@CPrvEnumObject@@QEAAJPEAUIUnknown@@@Z
?AllowCancel@CVdsAsyncObjectBase@@QEAAXXZ
?AddEventSource@@YAKPEAGPEAUHINSTANCE__@@@Z
??M@YA_NAEBU_GUID@@0@Z
??I?$CVdsHandleImpl@$0?0@@QEAAPEAPEAXXZ
??C?$CVdsPtr@U_MOUNTMGR_MOUNT_POINTS@@@@QEBAPEAU_MOUNTMGR_MOUNT_POINTS@@XZ
??C?$CVdsPtr@U_MOUNTMGR_MOUNT_POINT@@@@QEBAPEAU_MOUNTMGR_MOUNT_POINT@@XZ
??B?$CVdsPtr@U_MOUNTMGR_MOUNT_POINTS@@@@QEBAPEAU_MOUNTMGR_MOUNT_POINTS@@XZ
??B?$CVdsPtr@U_MOUNTMGR_MOUNT_POINT@@@@QEBAPEAU_MOUNTMGR_MOUNT_POINT@@XZ
??B?$CVdsHandleImpl@$0?0@@QEAAPEAXXZ
??8?$CVdsPtr@U_MOUNTMGR_MOUNT_POINTS@@@@QEBA_NPEAU_MOUNTMGR_MOUNT_POINTS@@@Z
??8?$CVdsPtr@U_MOUNTMGR_MOUNT_POINT@@@@QEBA_NPEAU_MOUNTMGR_MOUNT_POINT@@@Z
??8?$CVdsHandleImpl@$0?0@@QEBA_NPEAX@Z
??4?$CVdsHeapPtr@U_MOUNTMGR_MOUNT_POINTS@@@@QEAAPEAU_MOUNTMGR_MOUNT_POINTS@@PEAU1@@Z
??4?$CVdsHeapPtr@U_MOUNTMGR_MOUNT_POINT@@@@QEAAPEAU_MOUNTMGR_MOUNT_POINT@@PEAU1@@Z
??4?$CVdsHandleImpl@$0?0@@QEAAPEAXPEAX@Z
??1CVdsUnlockIt@@QEAA@XZ
??1CVdsStructuredExceptionTranslator@@QEAA@XZ
??1CVdsPnPNotificationBase@@QEAA@XZ
??1CVdsDebugLog@@QEAA@XZ
??1CVdsCriticalSection@@QEAA@XZ
??1CVdsCallTracer@@QEAA@XZ
??1CVdsAsyncObjectBase@@QEAA@XZ
??1CPrvEnumObject@@QEAA@XZ
??1?$CVdsPtr@U_MOUNTMGR_MOUNT_POINTS@@@@QEAA@XZ
??1?$CVdsPtr@U_MOUNTMGR_MOUNT_POINT@@@@QEAA@XZ
??1?$CVdsHeapPtr@U_MOUNTMGR_MOUNT_POINTS@@@@QEAA@XZ
??1?$CVdsHeapPtr@U_MOUNTMGR_MOUNT_POINT@@@@QEAA@XZ
??1?$CVdsHandleImpl@$0?0@@QEAA@XZ
??0CVdsUnlockIt@@QEAA@AEAJ@Z
??0CVdsStructuredExceptionTranslator@@QEAA@XZ
??0CVdsPnPNotificationBase@@QEAA@XZ
??0CVdsDebugLog@@QEAA@H@Z
??0CVdsCriticalSection@@QEAA@PEAU_RTL_CRITICAL_SECTION@@@Z
??0CVdsCallTracer@@QEAA@KPEBD@Z
??0CVdsAsyncObjectBase@@QEAA@XZ
??0CPrvEnumObject@@QEAA@XZ
??0?$CVdsPtr@U_MOUNTMGR_MOUNT_POINTS@@@@QEAA@XZ
??0?$CVdsPtr@U_MOUNTMGR_MOUNT_POINT@@@@QEAA@XZ
??0?$CVdsHeapPtr@U_MOUNTMGR_MOUNT_POINTS@@@@QEAA@XZ
??0?$CVdsHeapPtr@U_MOUNTMGR_MOUNT_POINT@@@@QEAA@XZ
??0?$CVdsHandleImpl@$0?0@@QEAA@XZ
