LIBRARY WDSCORE.DLL
EXPORTS
WdsValidBlackboard
WdsUnsubscribeEx
WdsUnsubscribe
WdsUnpackCollection
WdsUnlockExecutionGroup
WdsTerminate
WdsSubscribeEx
WdsSetupLogMessageW
WdsSetupLogMessageA
WdsSetupLogInit
WdsSetupLogDestroy
WdsSetUILanguage
WdsSetNextExecutionGroup
WdsSetBlackboardValue
WdsSetAssertFlags
WdsSeqFree
WdsSeqAlloc
WdsPublishOffline
WdsPublishImmediateEx
WdsPublishImmediateAsync
WdsPublishEx
WdsPublish
WdsPackCollection
WdsLogUnRegisterProvider
WdsLogUnRegStockProviders
WdsLogStructuredException
WdsLogRegisterProvider
WdsLogRegStockProviders
WdsLogDestroy
WdsLogCreate
WdsLockExecutionGroup
WdsLockBlackboardValue
WdsIterateQueue
WdsIterateOfflineQueue
WdsIsDiagnosticModeEnabled
WdsInitializeDataUInt64
WdsInitializeDataUInt32
WdsInitializeDataStringW
WdsInitializeDataStringA
WdsInitializeDataBinary
WdsInitializeCallbackArray
WdsInitialize
WdsGetTempDir
WdsGetSetupLog
WdsGetPointer
WdsGetCurrentExecutionGroup
WdsGetBlackboardValue
WdsGetBlackboardUintPtr
WdsGetBlackboardStringW
WdsGetBlackboardStringA
WdsGetBlackboardBinaryData
WdsGetAssertFlags
WdsGenericSetupLogInit
WdsFreeData
WdsFreeCollection
WdsExitImmediatelyEx
WdsExitImmediately
WdsExecuteWorkQueueEx
WdsExecuteWorkQueue2
WdsExecuteWorkQueue
WdsEnumNextCollectionValue
WdsEnumNextBlackboardItem
WdsEnumFirstCollectionValue
WdsEnumFirstBlackboardItem
WdsEnableExitEx
WdsEnableExit
WdsEnableDiagnosticMode
WdsDuplicateData
WdsDestroyBlackboard
WdsDeleteEvent
WdsDeleteBlackboardValue
WdsCreateBlackboard
WdsCopyBlackboardItemsEx
WdsCopyBlackboardItems
WdsCollectionGetValue
WdsCollectionAddValue
WdsAllocCollection
WdsAddUsmtLogStack
WdsAddModule
WdsAbortBlackboardItemEnum
StartMinorTask
StartMajorTask
GetMinorTaskA
GetMinorTask
GetMajorTaskA
GetMajorTask
EndMinorTask
EndMajorTask
CurrentIP
ConstructPartialMsgVW
ConstructPartialMsgVA
ConstructPartialMsgIfW
ConstructPartialMsgIfA
?SetSize@?$CDynamicArray@_KPEA_K@@QEAAH_K@Z
?SetSize@?$CDynamicArray@USKeeperEntry@CBlackboardFactory@@PEAU12@@@QEAAH_K@Z
?SetSize@?$CDynamicArray@PEAUSEnumBinContext@@PEAPEAU1@@@QEAAH_K@Z
?SetSize@?$CDynamicArray@GPEAG@@QEAAH_K@Z
?SetSize@?$CDynamicArray@EPEAUSValue@@@@QEAAH_K@Z
?SetSize@?$CDynamicArray@EPEAUSKey@@@@QEAAH_K@Z
?SetSize@?$CDynamicArray@EPEAE@@QEAAH_K@Z
?RemoveItemFromTail@?$CDynamicArray@PEAUSEnumBinContext@@PEAPEAU1@@@QEAAXXZ
?RemoveAll@?$CDynamicArray@_KPEA_K@@QEAAXXZ
?RemoveAll@?$CDynamicArray@USKeeperEntry@CBlackboardFactory@@PEAU12@@@QEAAXXZ
?Init@?$CDynamicArray@_KPEA_K@@IEAAX_K@Z
?Init@?$CDynamicArray@USKeeperEntry@CBlackboardFactory@@PEAU12@@@IEAAX_K@Z
?Init@?$CDynamicArray@PEAUSEnumBinContext@@PEAPEAU1@@@IEAAX_K@Z
?Init@?$CDynamicArray@GPEAG@@IEAAX_K@Z
?Init@?$CDynamicArray@EPEAUSValue@@@@IEAAX_K@Z
?Init@?$CDynamicArray@EPEAUSKey@@@@IEAAX_K@Z
?Init@?$CDynamicArray@EPEAE@@IEAAX_K@Z
?GetSize@?$CDynamicArray@_KPEA_K@@QEBA_KXZ
?GetSize@?$CDynamicArray@USKeeperEntry@CBlackboardFactory@@PEAU12@@@QEBA_KXZ
?GetSize@?$CDynamicArray@PEAUSEnumBinContext@@PEAPEAU1@@@QEBA_KXZ
?GetSize@?$CDynamicArray@GPEAG@@QEBA_KXZ
?GetSize@?$CDynamicArray@EPEAE@@QEBA_KXZ
?GetBuffer@?$CDynamicArray@GPEAG@@QEAAPEAG_K@Z
?GetBuffer@?$CDynamicArray@EPEAUSValue@@@@QEAAPEAUSValue@@_K@Z
?GetBuffer@?$CDynamicArray@EPEAE@@QEAAPEAE_K@Z
?ElementAt@?$CDynamicArray@USKeeperEntry@CBlackboardFactory@@PEAU12@@@QEAAAEAUSKeeperEntry@CBlackboardFactory@@_K@Z
?ElementAt@?$CDynamicArray@GPEAG@@QEAAAEAG_K@Z
?Add@?$CDynamicArray@_KPEA_K@@QEAAHAEA_K@Z
?Add@?$CDynamicArray@USKeeperEntry@CBlackboardFactory@@PEAU12@@@QEAAHAEAUSKeeperEntry@CBlackboardFactory@@AEA_K@Z
?Add@?$CDynamicArray@USKeeperEntry@CBlackboardFactory@@PEAU12@@@QEAAHAEAUSKeeperEntry@CBlackboardFactory@@@Z
?Add@?$CDynamicArray@PEAUSEnumBinContext@@PEAPEAU1@@@QEAAHAEAPEAUSEnumBinContext@@@Z
??_F?$CDynamicArray@_KPEA_K@@QEAAXXZ
??_F?$CDynamicArray@USKeeperEntry@CBlackboardFactory@@PEAU12@@@QEAAXXZ
??_F?$CDynamicArray@PEAUSEnumBinContext@@PEAPEAU1@@@QEAAXXZ
??_F?$CDynamicArray@GPEAG@@QEAAXXZ
??_F?$CDynamicArray@EPEAUSValue@@@@QEAAXXZ
??_F?$CDynamicArray@EPEAUSKey@@@@QEAAXXZ
??_F?$CDynamicArray@EPEAE@@QEAAXXZ
??C?$CDynamicArray@EPEAUSValue@@@@QEBAPEAUSValue@@XZ
??C?$CDynamicArray@EPEAUSKey@@@@QEBAPEAUSKey@@XZ
??B?$CDynamicArray@GPEAG@@QEBAPEAGXZ
??B?$CDynamicArray@EPEAUSValue@@@@QEBAPEAUSValue@@XZ
??B?$CDynamicArray@EPEAUSKey@@@@QEBAPEAUSKey@@XZ
??A?$CDynamicArray@_KPEA_K@@QEAAAEA_K_K@Z
??A?$CDynamicArray@PEAUSEnumBinContext@@PEAPEAU1@@@QEAAAEAPEAUSEnumBinContext@@_K@Z
??4?$CDynamicArray@_KPEA_K@@QEAAAEAV0@AEBV0@@Z
??4?$CDynamicArray@USKeeperEntry@CBlackboardFactory@@PEAU12@@@QEAAAEAV0@AEBV0@@Z
??4?$CDynamicArray@PEAUSEnumBinContext@@PEAPEAU1@@@QEAAAEAV0@AEBV0@@Z
??4?$CDynamicArray@GPEAG@@QEAAAEAV0@AEBV0@@Z
??4?$CDynamicArray@EPEAUSValue@@@@QEAAAEAV0@AEBV0@@Z
??4?$CDynamicArray@EPEAUSKey@@@@QEAAAEAV0@AEBV0@@Z
??4?$CDynamicArray@EPEAE@@QEAAAEAV0@AEBV0@@Z
??1?$CDynamicArray@_KPEA_K@@QEAA@XZ
??1?$CDynamicArray@USKeeperEntry@CBlackboardFactory@@PEAU12@@@QEAA@XZ
??1?$CDynamicArray@PEAUSEnumBinContext@@PEAPEAU1@@@QEAA@XZ
??1?$CDynamicArray@GPEAG@@QEAA@XZ
??1?$CDynamicArray@EPEAUSValue@@@@QEAA@XZ
??1?$CDynamicArray@EPEAUSKey@@@@QEAA@XZ
??1?$CDynamicArray@EPEAE@@QEAA@XZ
??0?$CDynamicArray@_KPEA_K@@QEAA@_K@Z
??0?$CDynamicArray@USKeeperEntry@CBlackboardFactory@@PEAU12@@@QEAA@_K@Z
??0?$CDynamicArray@PEAUSEnumBinContext@@PEAPEAU1@@@QEAA@_K@Z
??0?$CDynamicArray@GPEAG@@QEAA@_K@Z
??0?$CDynamicArray@EPEAUSValue@@@@QEAA@_K@Z
??0?$CDynamicArray@EPEAUSKey@@@@QEAA@_K@Z
??0?$CDynamicArray@EPEAE@@QEAA@_K@Z
