LIBRARY WDSUTIL.DLL
EXPORTS
WdsValidateInstallDrive
WdsPickTempDriveBasedOnInstallDrive
WdsCollectionAddUInt64
WdsCollectionAddUInt32
WdsCollectionAddString
SignalSetupComplianceBlock
PublishMessage
LogDiskRegionReasons
LogDiskReasons
IsCrossArchitectureInstall
GetRegionKey
GetDiskKey
GetApplicableDiskRegionReason
GetApplicableDiskReason
FreeReason
DiskSupportsCapabilityForType
DiskRegionSupportsCapabilityForType
CallbackGetArgumentUInt64
CallbackGetArgumentString
CallbackGetArgumentInt32
?set_UInt64@CSimpleUInt64UserSetting@@UEAAJ_K@Z
?set_UInt64@CShimUInt64UserSetting@@UEAAJ_K@Z
?set_UInt32@CUpgradeUserSetting@@UEAAJI@Z
?set_UInt32@CSimpleUInt32UserSetting@@UEAAJI@Z
?set_UInt32@CShimUInt32UserSetting@@UEAAJI@Z
?set_UInt32@CDiskPartUserSetting@@UEAAJI@Z
?set_String@CSimpleStringUserSetting@@UEAAJPEBG@Z
?set_String@CShimStringUserSetting@@UEAAJPEBG@Z
?set_String@CComputerNameSetting@@UEAAJPEBG@Z
?set_Show@CUserSetting@@QEAAJH@Z
?set_Error@CUserSetting@@QEAAJJ@Z
?get_ValidateID@CProductKeyUserSetting@@EEAAHXZ
?get_ValidateID@CDiskPartUserSetting@@EEAAHXZ
?get_ValidateID@CComputerNameSetting@@EEAAHXZ
?get_UInt64@CSimpleUInt64UserSetting@@UEAAJPEA_K@Z
?get_UInt64@CShimUInt64UserSetting@@UEAAJPEA_K@Z
?get_UInt32@CSimpleUInt32UserSetting@@UEAAJPEAI@Z
?get_UInt32@CShimUInt32UserSetting@@UEAAJPEAI@Z
?get_UInt32@CDiskPartUserSetting@@UEAAJPEAI@Z
?get_String@CSimpleStringUserSetting@@UEAAJPEAPEAG@Z
?get_String@CShimStringUserSetting@@UEAAJPEAPEAG@Z
?get_Show@CSimpleUInt64UserSetting@@UEAAJPEAH@Z
?get_Show@CSimpleUInt32UserSetting@@UEAAJPEAH@Z
?get_Show@CSimpleStringUserSetting@@UEAAJPEAH@Z
?get_Show@CShowFlagUserSetting@@UEAAJPEAH@Z
?get_Show@CDiskPartUserSetting@@UEAAJPEAH@Z
?get_Show@CComputerNameSetting@@UEAAJPEAH@Z
?get_Show@?$CShimUserSetting@VCUInt64UserSetting@@@@UEAAJPEAH@Z
?get_Show@?$CShimUserSetting@VCUInt32UserSetting@@@@UEAAJPEAH@Z
?get_Show@?$CShimUserSetting@VCStringUserSetting@@@@UEAAJPEAH@Z
?get_Name@CWDSUIWelcomeSetting@@EEAAPEAGXZ
?get_Name@CWDSUIImageSelectionSetting@@EEAAPEAGXZ
?get_Name@CUpgradeUserSetting@@EEAAPEAGXZ
?get_Name@CUpgStoreUserSetting@@EEAAPEAGXZ
?get_Name@CTimezoneSetting@@EEAAPEAGXZ
?get_Name@CSetupUIWelcomeSetting@@EEAAPEAGXZ
?get_Name@CSetupUISummarySetting@@EEAAPEAGXZ
?get_Name@CProductKeyUserSetting@@EEAAPEAGXZ
?get_Name@COOBEUIWelcomeSetting@@EEAAPEAGXZ
?get_Name@COOBEUIFinishSetting@@EEAAPEAGXZ
?get_Name@CKeyboardSetting@@EEAAPEAGXZ
?get_Name@CIBSUIImageSelectionSetting@@EEAAPEAGXZ
?get_Name@CEulaSetting@@EEAAPEAGXZ
?get_Name@CDiskPartUserSetting@@EEAAPEAGXZ
?get_Name@CDiskPartFormatUserSetting@@EEAAPEAGXZ
?get_Name@CDiskPartFileSystemUserSetting@@EEAAPEAGXZ
?get_Name@CDUUIWelcomeSetting@@EEAAPEAGXZ
?get_Name@CDUUIProgressSetting@@EEAAPEAGXZ
?get_Name@CComputerNameSetting@@EEAAPEAGXZ
?get_Error@CSimpleUInt64UserSetting@@UEAAJPEAJ@Z
?get_Error@CSimpleUInt32UserSetting@@UEAAJPEAJ@Z
?get_Error@CSimpleStringUserSetting@@UEAAJPEAJ@Z
?get_Error@CShowFlagUserSetting@@UEAAJPEAJ@Z
?get_Error@?$CShimUserSetting@VCUInt64UserSetting@@@@UEAAJPEAJ@Z
?get_Error@?$CShimUserSetting@VCUInt32UserSetting@@@@UEAAJPEAJ@Z
?get_Error@?$CShimUserSetting@VCStringUserSetting@@@@UEAAJPEAJ@Z
?UnattendChecked@CUpgradeUserSetting@@SAHXZ
?Simple_set_UInt64@CUInt64UserSetting@@IEAAJ_K@Z
?Simple_set_UInt32@CUInt32UserSetting@@IEAAJI@Z
?Simple_set_String@CStringUserSetting@@IEAAJPEBG@Z
?Simple_get_UInt64@CUInt64UserSetting@@IEAAJPEA_K@Z
?Simple_get_UInt32@CUInt32UserSetting@@IEAAJPEAI@Z
?Simple_get_String@CStringUserSetting@@IEAAJPEAPEAG@Z
?SetModuleId@CUserSetting@@QEAAXPEAX@Z
?SerializeUInt64@CUInt64UserSetting@@IEAAX_K@Z
?SerializeUInt32@CUInt32UserSetting@@IEAAXI@Z
?SerializeString@CStringUserSetting@@IEAAXPEBG@Z
?SerializeField@CUserSetting@@IEAAXPEBGPEAUWDS_DATA@@@Z
?ReleaseMutex@CUserSetting@@IEAAXXZ
?ReadShow@CUserSetting@@IEAAJPEAHH@Z
?ReadError@CUserSetting@@IEAAJPEAJH@Z
?IsUpgrade@CUpgradeUserSetting@@SAHXZ
?GetModuleId@CUserSetting@@QEAAPEAXXZ
?GetKeyName@CUserSetting@@IEAAJPEAGHH@Z
?GetBlackboard@CUserSetting@@IEAAPEAU_BLACKBOARD@@XZ
?DeserializeUInt64@CUInt64UserSetting@@IEAAJPEA_KH@Z
?DeserializeUInt32@CUInt32UserSetting@@IEAAJPEAIH@Z
?DeserializeString@CStringUserSetting@@IEAAJPEAPEAGH@Z
?DeserializeField@CUserSetting@@IEAAJPEBGIPEAUWDS_DATA@@H@Z
?AcquireMutex@CUserSetting@@IEAAXXZ
??4CWDSUIWelcomeSetting@@QEAAAEAV0@AEBV0@@Z
??4CWDSUIImageSelectionSetting@@QEAAAEAV0@AEBV0@@Z
??4CUserSetting@@QEAAAEAV0@AEBV0@@Z
??4CUpgradeUserSetting@@QEAAAEAV0@AEBV0@@Z
??4CUpgStoreUserSetting@@QEAAAEAV0@AEBV0@@Z
??4CUInt64UserSetting@@QEAAAEAV0@AEBV0@@Z
??4CUInt32UserSetting@@QEAAAEAV0@AEBV0@@Z
??4CTimezoneSetting@@QEAAAEAV0@AEBV0@@Z
??4CStringUserSetting@@QEAAAEAV0@AEBV0@@Z
??4CSimpleUInt64UserSetting@@QEAAAEAV0@AEBV0@@Z
??4CSimpleUInt32UserSetting@@QEAAAEAV0@AEBV0@@Z
??4CSimpleStringUserSetting@@QEAAAEAV0@AEBV0@@Z
??4CShowFlagUserSetting@@QEAAAEAV0@AEBV0@@Z
??4CShimUInt64UserSetting@@QEAAAEAV0@AEBV0@@Z
??4CShimUInt32UserSetting@@QEAAAEAV0@AEBV0@@Z
??4CShimStringUserSetting@@QEAAAEAV0@AEBV0@@Z
??4CSetupUIWelcomeSetting@@QEAAAEAV0@AEBV0@@Z
??4CSetupUISummarySetting@@QEAAAEAV0@AEBV0@@Z
??4CProductKeyUserSetting@@QEAAAEAV0@AEBV0@@Z
??4COOBEUIWelcomeSetting@@QEAAAEAV0@AEBV0@@Z
??4COOBEUIFinishSetting@@QEAAAEAV0@AEBV0@@Z
??4CKeyboardSetting@@QEAAAEAV0@AEBV0@@Z
??4CIBSUIImageSelectionSetting@@QEAAAEAV0@AEBV0@@Z
??4CEulaSetting@@QEAAAEAV0@AEBV0@@Z
??4CDiskPartUserSetting@@QEAAAEAV0@AEBV0@@Z
??4CDiskPartFormatUserSetting@@QEAAAEAV0@AEBV0@@Z
??4CDiskPartFileSystemUserSetting@@QEAAAEAV0@AEBV0@@Z
??4CDUUIWelcomeSetting@@QEAAAEAV0@AEBV0@@Z
??4CDUUIProgressSetting@@QEAAAEAV0@AEBV0@@Z
??4CComputerNameSetting@@QEAAAEAV0@AEBV0@@Z
??4?$CShimUserSetting@VCUInt64UserSetting@@@@QEAAAEAV0@AEBV0@@Z
??4?$CShimUserSetting@VCUInt32UserSetting@@@@QEAAAEAV0@AEBV0@@Z
??4?$CShimUserSetting@VCStringUserSetting@@@@QEAAAEAV0@AEBV0@@Z
??1CWDSUIWelcomeSetting@@QEAA@XZ
??1CWDSUIImageSelectionSetting@@QEAA@XZ
??1CUserSetting@@QEAA@XZ
??1CUpgradeUserSetting@@QEAA@XZ
??1CUpgStoreUserSetting@@QEAA@XZ
??1CUInt64UserSetting@@IEAA@XZ
??1CUInt32UserSetting@@IEAA@XZ
??1CTimezoneSetting@@QEAA@XZ
??1CStringUserSetting@@IEAA@XZ
??1CSimpleUInt64UserSetting@@QEAA@XZ
??1CSimpleUInt32UserSetting@@QEAA@XZ
??1CSimpleStringUserSetting@@QEAA@XZ
??1CShowFlagUserSetting@@IEAA@XZ
??1CShimUInt64UserSetting@@QEAA@XZ
??1CShimUInt32UserSetting@@QEAA@XZ
??1CShimStringUserSetting@@QEAA@XZ
??1CSetupUIWelcomeSetting@@QEAA@XZ
??1CSetupUISummarySetting@@QEAA@XZ
??1CProductKeyUserSetting@@QEAA@XZ
??1COOBEUIWelcomeSetting@@QEAA@XZ
??1COOBEUIFinishSetting@@QEAA@XZ
??1CKeyboardSetting@@QEAA@XZ
??1CIBSUIImageSelectionSetting@@QEAA@XZ
??1CEulaSetting@@QEAA@XZ
??1CDiskPartUserSetting@@QEAA@XZ
??1CDiskPartFormatUserSetting@@QEAA@XZ
??1CDiskPartFileSystemUserSetting@@QEAA@XZ
??1CDUUIWelcomeSetting@@QEAA@XZ
??1CDUUIProgressSetting@@QEAA@XZ
??1CComputerNameSetting@@QEAA@XZ
??1?$CShimUserSetting@VCUInt64UserSetting@@@@QEAA@XZ
??1?$CShimUserSetting@VCUInt32UserSetting@@@@QEAA@XZ
??1?$CShimUserSetting@VCStringUserSetting@@@@QEAA@XZ
??0CWDSUIWelcomeSetting@@QEAA@XZ
??0CWDSUIWelcomeSetting@@QEAA@AEBV0@@Z
??0CWDSUIImageSelectionSetting@@QEAA@XZ
??0CWDSUIImageSelectionSetting@@QEAA@AEBV0@@Z
??0CUserSetting@@QEAA@XZ
??0CUserSetting@@QEAA@AEBV0@@Z
??0CUpgradeUserSetting@@QEAA@XZ
??0CUpgradeUserSetting@@QEAA@AEBV0@@Z
??0CUpgStoreUserSetting@@QEAA@XZ
??0CUpgStoreUserSetting@@QEAA@AEBV0@@Z
??0CUInt64UserSetting@@QEAA@AEBV0@@Z
??0CUInt64UserSetting@@IEAA@XZ
??0CUInt32UserSetting@@QEAA@AEBV0@@Z
??0CUInt32UserSetting@@IEAA@XZ
??0CTimezoneSetting@@QEAA@XZ
??0CTimezoneSetting@@QEAA@AEBV0@@Z
??0CStringUserSetting@@QEAA@AEBV0@@Z
??0CStringUserSetting@@IEAA@XZ
??0CSimpleUInt64UserSetting@@QEAA@XZ
??0CSimpleUInt64UserSetting@@QEAA@AEBV0@@Z
??0CSimpleUInt32UserSetting@@QEAA@XZ
??0CSimpleUInt32UserSetting@@QEAA@AEBV0@@Z
??0CSimpleStringUserSetting@@QEAA@XZ
??0CSimpleStringUserSetting@@QEAA@AEBV0@@Z
??0CShowFlagUserSetting@@QEAA@AEBV0@@Z
??0CShowFlagUserSetting@@IEAA@XZ
??0CShimUInt64UserSetting@@QEAA@XZ
??0CShimUInt64UserSetting@@QEAA@AEBV0@@Z
??0CShimUInt32UserSetting@@QEAA@XZ
??0CShimUInt32UserSetting@@QEAA@AEBV0@@Z
??0CShimStringUserSetting@@QEAA@XZ
??0CShimStringUserSetting@@QEAA@AEBV0@@Z
??0CSetupUIWelcomeSetting@@QEAA@XZ
??0CSetupUIWelcomeSetting@@QEAA@AEBV0@@Z
??0CSetupUISummarySetting@@QEAA@XZ
??0CSetupUISummarySetting@@QEAA@AEBV0@@Z
??0CProductKeyUserSetting@@QEAA@XZ
??0CProductKeyUserSetting@@QEAA@AEBV0@@Z
??0COOBEUIWelcomeSetting@@QEAA@XZ
??0COOBEUIWelcomeSetting@@QEAA@AEBV0@@Z
??0COOBEUIFinishSetting@@QEAA@XZ
??0COOBEUIFinishSetting@@QEAA@AEBV0@@Z
??0CKeyboardSetting@@QEAA@XZ
??0CKeyboardSetting@@QEAA@AEBV0@@Z
??0CIBSUIImageSelectionSetting@@QEAA@XZ
??0CIBSUIImageSelectionSetting@@QEAA@AEBV0@@Z
??0CEulaSetting@@QEAA@XZ
??0CEulaSetting@@QEAA@AEBV0@@Z
??0CDiskPartUserSetting@@QEAA@XZ
??0CDiskPartUserSetting@@QEAA@AEBV0@@Z
??0CDiskPartFormatUserSetting@@QEAA@XZ
??0CDiskPartFormatUserSetting@@QEAA@AEBV0@@Z
??0CDiskPartFileSystemUserSetting@@QEAA@XZ
??0CDiskPartFileSystemUserSetting@@QEAA@AEBV0@@Z
??0CDUUIWelcomeSetting@@QEAA@XZ
??0CDUUIWelcomeSetting@@QEAA@AEBV0@@Z
??0CDUUIProgressSetting@@QEAA@XZ
??0CDUUIProgressSetting@@QEAA@AEBV0@@Z
??0CComputerNameSetting@@QEAA@XZ
??0CComputerNameSetting@@QEAA@AEBV0@@Z
??0?$CShimUserSetting@VCUInt64UserSetting@@@@QEAA@XZ
??0?$CShimUserSetting@VCUInt64UserSetting@@@@QEAA@AEBV0@@Z
??0?$CShimUserSetting@VCUInt32UserSetting@@@@QEAA@XZ
??0?$CShimUserSetting@VCUInt32UserSetting@@@@QEAA@AEBV0@@Z
??0?$CShimUserSetting@VCStringUserSetting@@@@QEAA@XZ
??0?$CShimUserSetting@VCStringUserSetting@@@@QEAA@AEBV0@@Z
