LIBRARY WMISVC.DLL
EXPORTS
ServiceMain
MoveToShared
MoveToAlone
IsShutDown
DredgeRA
DllUnregisterServer
DllRegisterServer
?isValid@CHaltable@@QEAA_NXZ
?WbemSysFreeString@CWin32DefaultArena@@SAXPEAG@Z
?Unqueue@CFlexQueue@@QEAAPEAXXZ
?Size@CWStringArray@@QEBAHXZ
?Size@CSmallArrayBlob@@QEBAHXZ
?Size@CFlexArray@@QEBAHXZ
?SetSize@CFlexArray@@QEAAXH@Z
?SetFlags@CNtAce@@UEAAXJ@Z
?SetFlags@C9XAce@@UEAAXJ@Z
?SetAt@CFlexArray@@QEAAXHPEAX@Z
?Realloc@CWin32DefaultArena@@UEAAPEAXPEAX_K@Z
?Leave@CCritSec@@QEAAXXZ
?Leave@CCheckedInCritSec@@QEAAXXZ
?IsValid@CNtSid@@QEAAHXZ
?IsValid@CNtSecurityDescriptor@@QEAAHXZ
?IsValid@CNtAcl@@QEAAHXZ
?IsUser@CNtSid@@QEAA_NXZ
?IsEntered@CEnterWbemCriticalSection@@QEAAHXZ
?IsEntered@CCheckedInCritSec@@QEAAHXZ
?IncrementIndex@CFlexQueue@@IEAAXAEAH@Z
?GetType@C9XAce@@UEAAHXZ
?GetStatus@CNtSid@@QEAAKXZ
?GetStatus@CNtSecurityDescriptor@@QEAAKXZ
?GetStatus@CNtAcl@@QEAAKXZ
?GetStatus@CNtAce@@UEAAKXZ
?GetStatus@C9XAce@@UEAAKXZ
?GetSize@CNtAce@@QEAAKXZ
?GetRecursionCount@CWbemCriticalSection@@QEAAJXZ
?GetQueueSize@CFlexQueue@@QEBAHXZ
?GetPtr@CNtSid@@QEAAPEAXXZ
?GetPtr@CNtSecurityDescriptor@@QEAAPEAXXZ
?GetPtr@CNtAcl@@QEAAPEAU_ACL@@XZ
?GetPtr@CNtAce@@QEAAPEAU_ACCESS_ALLOWED_ACE@@XZ
?GetOwningThreadId@CWbemCriticalSection@@QEAAKXZ
?GetLockCount@CWbemCriticalSection@@QEAAJXZ
?GetLastError@Registry@@QEAAJXZ
?GetFlags@C9XAce@@UEAAHXZ
?GetAt@CWStringArray@@QEBAPEAGH@Z
?GetAt@CSmallArrayBlob@@QEBAPEAXH@Z
?GetAt@CFlexArray@@QEBAPEAXH@Z
?GetArrayPtr@CWStringArray@@QEAAPEAPEBGXZ
?GetArrayPtr@CSmallArrayBlob@@QEBAPEBQEAXXZ
?GetArrayPtr@CSmallArrayBlob@@QEAAPEAPEAXXZ
?GetArrayPtr@CFlexArray@@QEBAPEBQEAXXZ
?GetArrayPtr@CFlexArray@@QEAAPEAPEAXXZ
?GetAccessMask@C9XAce@@UEAAKXZ
?Free@CWin32DefaultArena@@UEAAHPEAX@Z
?Enter@CCritSec@@QEAAXXZ
?Enter@CCheckedInCritSec@@QEAAXXZ
?DecrementIndex@CFlexQueue@@IEAAXAEAH@Z
?Compress@CWStringArray@@QEAAXXZ
?Alloc@CWin32DefaultArena@@UEAAPEAX_K@Z
?Add@CFlexArray@@QEAAHPEAX@Z
??_FCWStringArray@@QEAAXXZ
??_FCNtAcl@@QEAAXXZ
??_FCFlexQueue@@QEAAXXZ
??_FCFlexArray@@QEAAXXZ
??_7CWin32DefaultArena@@6B@
??_7CNtAce@@6B@
??_7CHaltable@@6B@
??_7CBaseAce@@6B@
??_7CArena@@6B@
??_7C9XAce@@6B@
??ACWStringArray@@QEBAPEAGH@Z
??ACSmallArrayBlob@@QEBAPEAXH@Z
??ACFlexArray@@QEBAPEAXH@Z
??ACFlexArray@@QEAAAEAPEAXH@Z
??4Registry@@QEAAAEAV0@AEBV0@@Z
??4MD5@@QEAAAEAV0@AEBV0@@Z
??4CWin32DefaultArena@@QEAAAEAV0@AEBV0@@Z
??4CWbemCriticalSection@@QEAAAEAV0@AEBV0@@Z
??4CStaticCritSec@@QEAAAEAV0@AEBV0@@Z
??4CSmallArrayBlob@@QEAAAEAV0@AEBV0@@Z
??4CPersistentConfig@@QEAAAEAV0@AEBV0@@Z
??4CNtSecurity@@QEAAAEAV0@AEBV0@@Z
??4CInCritSec@@QEAAAEAV0@AEBV0@@Z
??4CHaltable@@QEAAAEAV0@AEBV0@@Z
??4CFlexQueue@@QEAAAEAV0@AEBV0@@Z
??4CEnterWbemCriticalSection@@QEAAAEAV0@AEBV0@@Z
??4CCritSec@@QEAAAEAV0@AEBV0@@Z
??4CCheckedInCritSec@@QEAAAEAV0@AEBV0@@Z
??4CBaseAce@@QEAAAEAV0@AEBV0@@Z
??4CArena@@QEAAAEAV0@AEBV0@@Z
??4C9XAce@@QEAAAEAV0@AEBV0@@Z
??1CWin32DefaultArena@@QEAA@XZ
??1CInCritSec@@QEAA@XZ
??1CEnterWbemCriticalSection@@QEAA@XZ
??1CCritSec@@QEAA@XZ
??1CCheckedInCritSec@@QEAA@XZ
??1CBaseAce@@UEAA@XZ
??0CWin32DefaultArena@@QEAA@XZ
??0CWin32DefaultArena@@QEAA@AEBV0@@Z
??0CNtSid@@QEAA@XZ
??0CNtAce@@QEAA@XZ
??0CInCritSec@@QEAA@PEAU_RTL_CRITICAL_SECTION@@@Z
??0CHaltable@@QEAA@AEBV0@@Z
??0CEnterWbemCriticalSection@@QEAA@PEAVCWbemCriticalSection@@K@Z
??0CCritSec@@QEAA@XZ
??0CCheckedInCritSec@@QEAA@PEAVCCritSec@@@Z
??0CBaseAce@@QEAA@XZ
??0CBaseAce@@QEAA@AEBV0@@Z
??0CArena@@QEAA@XZ
??0CArena@@QEAA@AEBV0@@Z
??0C9XAce@@QEAA@XZ
??0C9XAce@@QEAA@AEBV0@@Z
