;
; Definition file of AppxApplicabilityEngine.dll
; Automatic generated by gendef
; written by Kai Tietz 2008-2014
;
LIBRARY "AppxApplicabilityEngine.dll"
EXPORTS
??0Atom@Resources@Microsoft@@QAA@HH@Z
??0Atom@Resources@Microsoft@@QAA@T_DEF_ATOM@@@Z
??0Atom@Resources@Microsoft@@QAA@T_DEF_ATOM_SMALL@@@Z
??0Atom@Resources@Microsoft@@QAA@XZ
??0AtomIndexedDictionaryBase@Build@Resources@Microsoft@@QAA@ABV0123@@Z
??0AtomPoolGroup@Resources@Microsoft@@QAA@ABV012@@Z
??0BaseAtomLinkedFile@Resources@Microsoft@@QAA@ABV012@@Z
??0BaseFile@Resources@Microsoft@@QAA@ABV012@@Z
??0BaseFileSectionResult@Resources@Microsoft@@QAA@ABV012@@Z
??0DataBlobBuilder@Build@Resources@Microsoft@@QAA@ABV0123@@Z
??0DataItemsBuildInstanceReference@Build@Resources@Microsoft@@QAA@ABV0123@@Z
??0DataItemsSectionBuilder@Build@Resources@Microsoft@@QAA@ABV0123@@Z
??0DataSectionBuilder@Build@Resources@Microsoft@@QAA@ABV0123@@Z
??0DecisionBuilder@Build@Resources@Microsoft@@QAA@ABV0123@@Z
??0DecisionInfoBuilder@Build@Resources@Microsoft@@QAA@ABV0123@@Z
??0DecisionInfoFileSection@Resources@Microsoft@@QAA@ABV012@@Z
??0DecisionInfoQualifierSetBuilder@Build@Resources@Microsoft@@QAA@ABV0123@@Z
??0DecisionInfoSectionBuilder@Build@Resources@Microsoft@@QAA@ABV0123@@Z
??0DecisionResult@Resources@Microsoft@@QAA@ABV012@@Z
??0DefChecksum@Resources@Microsoft@@QAA@XZ
??0DefObject@Resources@Microsoft@@QAA@XZ
??0DefStatus@Resources@Microsoft@@QAA@ABV012@@Z
??0DefStatus@Resources@Microsoft@@QAA@XZ
??0DefStatusWrapper@Resources@Microsoft@@QAA@ABV012@@Z
??0DefStatusWrapper@Resources@Microsoft@@QAA@PAU_DEFSTATUS@@@Z
??0EnvironmentCollectionBase@Resources@Microsoft@@IAA@XZ
??0EnvironmentCollectionBase@Resources@Microsoft@@QAA@ABV012@@Z
??0EnvironmentReference@Resources@Microsoft@@IAA@XZ
??0EnvironmentReference@Resources@Microsoft@@QAA@ABV012@@Z
??0EnvironmentReferenceBuilder@Build@Resources@Microsoft@@IAA@XZ
??0EnvironmentReferenceBuilder@Build@Resources@Microsoft@@QAA@ABV0123@@Z
??0ExternalFileStaticDataInstanceReference@Build@Resources@Microsoft@@QAA@ABV0123@@Z
??0FileAtomPool@Resources@Microsoft@@QAA@ABV012@@Z
??0FileAtomPoolBuilder@Build@Resources@Microsoft@@QAA@ABV0123@@Z
??0FileAtoms@Resources@Microsoft@@QAA@XZ
??0FileBuilder@Build@Resources@Microsoft@@QAA@ABV0123@@Z
??0FileFileList@Resources@Microsoft@@QAA@ABV012@@Z
??0FileInfo@Build@Resources@Microsoft@@QAA@ABV0123@@Z
??0FileInfoPrivateData@Build@Resources@Microsoft@@QAA@ABV0123@@Z
??0FileListBuilder@Build@Resources@Microsoft@@QAA@ABV0123@@Z
??0FileSectionBase@Resources@Microsoft@@QAA@ABV012@@Z
??0FileSectionBuildInstanceReference@Build@Resources@Microsoft@@QAA@ABV0123@@Z
??0FolderInfo@Build@Resources@Microsoft@@QAA@ABV0123@@Z
??0HNamesNode@Build@Resources@Microsoft@@QAA@ABV0123@@Z
??0HierarchicalName@Build@Resources@Microsoft@@QAA@PBVHierarchicalNamesConfig@23@@Z
??0HierarchicalNameSegment@Build@Resources@Microsoft@@QAA@PBVHierarchicalNamesConfig@23@@Z
??0HierarchicalNames@Resources@Microsoft@@QAA@ABV012@@Z
??0HierarchicalNamesBuilder@Build@Resources@Microsoft@@QAA@ABV0123@@Z
??0HierarchicalNamesConfig@Resources@Microsoft@@IAA@XZ
??0HierarchicalNamesConfig@Resources@Microsoft@@QAA@ABV012@@Z
??0HierarchicalSchema@Resources@Microsoft@@QAA@ABV012@@Z
??0HierarchicalSchemaReference@Resources@Microsoft@@QAA@ABV012@@Z
??0HierarchicalSchemaSectionBuilder@Build@Resources@Microsoft@@QAA@ABV0123@@Z
??0HierarchicalSchemaVersionInfo@Resources@Microsoft@@QAA@ABV012@@Z
??0HierarchicalSchemaVersionInfoBuilder@Build@Resources@Microsoft@@QAA@ABV0123@@Z
??0IAtomPool@Resources@Microsoft@@QAA@ABV012@@Z
??0IAtomPool@Resources@Microsoft@@QAA@XZ
??0IAtomPoolWriter@Resources@Microsoft@@QAA@ABV012@@Z
??0IAtomPoolWriter@Resources@Microsoft@@QAA@XZ
??0IBuildInstanceReference@Build@Resources@Microsoft@@QAA@ABV0123@@Z
??0IBuildInstanceReference@Build@Resources@Microsoft@@QAA@XZ
??0ICondition@Resources@Microsoft@@QAA@ABV012@@Z
??0ICondition@Resources@Microsoft@@QAA@XZ
??0IDecision@Resources@Microsoft@@QAA@ABV012@@Z
??0IDecision@Resources@Microsoft@@QAA@XZ
??0IDecisionInfo@Resources@Microsoft@@QAA@ABV012@@Z
??0IDecisionInfo@Resources@Microsoft@@QAA@XZ
??0IDefStatus@Resources@Microsoft@@QAA@ABV012@@Z
??0IDefStatus@Resources@Microsoft@@QAA@XZ
??0IEnvironment@Resources@Microsoft@@QAA@ABV012@@Z
??0IEnvironment@Resources@Microsoft@@QAA@XZ
??0IEnvironmentCollection@Resources@Microsoft@@IAA@XZ
??0IEnvironmentCollection@Resources@Microsoft@@QAA@ABV012@@Z
??0IEnvironmentVersionInfo@Resources@Microsoft@@QAA@ABV012@@Z
??0IEnvironmentVersionInfo@Resources@Microsoft@@QAA@XZ
??0IFileList@Resources@Microsoft@@IAA@XZ
??0IFileList@Resources@Microsoft@@QAA@ABV012@@Z
??0IFileSection@Resources@Microsoft@@QAA@ABV012@@Z
??0IFileSection@Resources@Microsoft@@QAA@XZ
??0IFileSectionResolver@Resources@Microsoft@@QAA@ABV012@@Z
??0IFileSectionResolver@Resources@Microsoft@@QAA@XZ
??0IHNamesGlobalNodes@Build@Resources@Microsoft@@QAA@ABV0123@@Z
??0IHNamesGlobalNodes@Build@Resources@Microsoft@@QAA@XZ
??0IHierarchicalNames@Resources@Microsoft@@QAA@ABV012@@Z
??0IHierarchicalNames@Resources@Microsoft@@QAA@XZ
??0IHierarchicalSchema@Resources@Microsoft@@QAA@ABV012@@Z
??0IHierarchicalSchema@Resources@Microsoft@@QAA@XZ
??0IHierarchicalSchemaDescription@Resources@Microsoft@@QAA@ABV012@@Z
??0IHierarchicalSchemaDescription@Resources@Microsoft@@QAA@XZ
??0IHierarchicalSchemaVersionInfo@Resources@Microsoft@@QAA@ABV012@@Z
??0IHierarchicalSchemaVersionInfo@Resources@Microsoft@@QAA@XZ
??0IMrmFile@Resources@Microsoft@@QAA@ABV012@@Z
??0IMrmFile@Resources@Microsoft@@QAA@XZ
??0INamedResourceBase@Resources@Microsoft@@QAA@ABV012@@Z
??0INamedResourceBase@Resources@Microsoft@@QAA@XZ
??0IQualifier@Resources@Microsoft@@QAA@ABV012@@Z
??0IQualifier@Resources@Microsoft@@QAA@XZ
??0IQualifierSet@Resources@Microsoft@@QAA@ABV012@@Z
??0IQualifierSet@Resources@Microsoft@@QAA@XZ
??0IQualifierType@Resources@Microsoft@@QAA@ABV012@@Z
??0IQualifierType@Resources@Microsoft@@QAA@XZ
??0IQualifierValueProvider@Resources@Microsoft@@QAA@ABV012@@Z
??0IQualifierValueProvider@Resources@Microsoft@@QAA@XZ
??0IResourceCandidateBase@Resources@Microsoft@@QAA@ABV012@@Z
??0IResourceCandidateBase@Resources@Microsoft@@QAA@XZ
??0IResourceMapBase@Resources@Microsoft@@QAA@ABV012@@Z
??0IResourceMapBase@Resources@Microsoft@@QAA@XZ
??0IResourceMapCollection@Resources@Microsoft@@QAA@ABV012@@Z
??0IResourceMapCollection@Resources@Microsoft@@QAA@XZ
??0ISchemaCollection@Resources@Microsoft@@QAA@ABV012@@Z
??0ISchemaCollection@Resources@Microsoft@@QAA@XZ
??0ISchemaVersionInfo@Resources@Microsoft@@QAA@ABV012@@Z
??0ISchemaVersionInfo@Resources@Microsoft@@QAA@XZ
??0ISectionBuilder@Build@Resources@Microsoft@@QAA@ABV0123@@Z
??0ISectionBuilder@Build@Resources@Microsoft@@QAA@XZ
??0IStringResult@Resources@Microsoft@@QAA@ABV012@@Z
??0IStringResult@Resources@Microsoft@@QAA@XZ
??0IUnifiedResourceView@Resources@Microsoft@@QAA@ABV012@@Z
??0IUnifiedResourceView@Resources@Microsoft@@QAA@XZ
??0ItemInfo@Build@Resources@Microsoft@@QAA@ABV0123@@Z
??0MrmBuildConfiguration@Build@Resources@Microsoft@@IAA@T_DEFFILE_MAGIC@@I@Z
??0MrmBuildConfiguration@Build@Resources@Microsoft@@QAA@ABV0123@@Z
??0MrmFile@Resources@Microsoft@@QAA@ABV012@@Z
??0NamedResourceResult@Resources@Microsoft@@QAA@ABV012@@Z
??0PriDescriptor@Resources@Microsoft@@QAA@ABV012@@Z
??0PriFile@Resources@Microsoft@@QAA@ABV012@@Z
??0PriFileBuilder@Build@Resources@Microsoft@@QAA@ABV0123@@Z
??0PriFileMerger@Build@Resources@Microsoft@@QAA@ABV0123@@Z
??0PriMapMerger@Build@Resources@Microsoft@@QAA@XZ
??0PriSectionBuilder@Build@Resources@Microsoft@@QAA@ABV0123@@Z
??0QualifierResult@Resources@Microsoft@@QAA@ABV012@@Z
??0QualifierSetResult@Resources@Microsoft@@QAA@ABV012@@Z
??0RemapInfo@Resources@Microsoft@@QAA@ABV012@@Z
??0RemapUInt16@Resources@Microsoft@@QAA@ABV012@@Z
??0ResourceCandidateResult@Resources@Microsoft@@QAA@ABV012@@Z
??0ResourceMapBase@Resources@Microsoft@@QAA@ABV012@@Z
??0ResourceMapSectionBuilder@Build@Resources@Microsoft@@QAA@ABV0123@@Z
??0ResourceMapSubtree@Resources@Microsoft@@QAA@ABV012@@Z
??0ReverseFileMap@Resources@Microsoft@@QAA@ABV012@@Z
??0ReverseFileMapSectionBuilder@Build@Resources@Microsoft@@QAA@ABV0123@@Z
??0ScopeInfo@Build@Resources@Microsoft@@QAA@ABV0123@@Z
??0StandalonePriFile@Resources@Microsoft@@QAA@ABV012@@Z
??0StaticAtomPool@Resources@Microsoft@@IAA@PBQBGHPBGW4_DEFCOMPAREOPTIONS@@@Z
??0StaticAtomPool@Resources@Microsoft@@QAA@ABV012@@Z
??0StaticHierarchicalSchemaDescription@Resources@Microsoft@@QAA@ABV012@@Z
??0StringResult@Resources@Microsoft@@QAA@ABV012@@Z
??0StringResultWrapper@Resources@Microsoft@@IAA@PAU_DEFSTRINGRESULT@@@Z
??0StringResultWrapper@Resources@Microsoft@@QAA@ABV012@@Z
??0StringResultWrapper@Resources@Microsoft@@QAA@PAU_DEFSTRINGRESULT@@PAVIDefStatus@12@@Z
??0WindowsRuntimeEnvironment@Resources@Microsoft@@IAA@XZ
??0WindowsRuntimeEnvironment@Resources@Microsoft@@QAA@ABV012@@Z
??0WriteableStringPool@Build@Resources@Microsoft@@QAA@ABV0123@@Z
??1BaseFileSectionResult@Resources@Microsoft@@UAA@XZ
??1BuilderCandidateResult@Build@Resources@Microsoft@@QAA@XZ
??1DataItemsBuildInstanceReference@Build@Resources@Microsoft@@UAA@XZ
??1DecisionInfoSectionBuilder@Build@Resources@Microsoft@@UAA@XZ
??1DefObject@Resources@Microsoft@@QAA@XZ
??1DefStatus@Resources@Microsoft@@UAA@XZ
??1DefStatusWrapper@Resources@Microsoft@@UAA@XZ
??1EnvironmentCollectionBase@Resources@Microsoft@@MAA@XZ
??1EnvironmentReference@Resources@Microsoft@@QAA@XZ
??1EnvironmentReferenceBuilder@Build@Resources@Microsoft@@QAA@XZ
??1ExternalFileStaticDataInstanceReference@Build@Resources@Microsoft@@UAA@XZ
??1FileAtoms@Resources@Microsoft@@QAA@XZ
??1FileFileList@Resources@Microsoft@@UAA@XZ
??1FileSectionBuildInstanceReference@Build@Resources@Microsoft@@UAA@XZ
??1HNamesNode@Build@Resources@Microsoft@@UAA@XZ
??1HierarchicalName@Build@Resources@Microsoft@@QAA@XZ
??1HierarchicalNameSegment@Build@Resources@Microsoft@@QAA@XZ
??1HierarchicalSchemaReference@Resources@Microsoft@@UAA@XZ
??1HierarchicalSchemaVersionInfo@Resources@Microsoft@@QAA@XZ
??1HierarchicalSchemaVersionInfoBuilder@Build@Resources@Microsoft@@QAA@XZ
??1IAtomPool@Resources@Microsoft@@UAA@XZ
??1IAtomPoolWriter@Resources@Microsoft@@UAA@XZ
??1IBuildInstanceReference@Build@Resources@Microsoft@@UAA@XZ
??1ICondition@Resources@Microsoft@@QAA@XZ
??1IDecision@Resources@Microsoft@@QAA@XZ
??1IDecisionInfo@Resources@Microsoft@@QAA@XZ
??1IDefStatus@Resources@Microsoft@@UAA@XZ
??1IEnvironment@Resources@Microsoft@@UAA@XZ
??1IEnvironmentCollection@Resources@Microsoft@@MAA@XZ
??1IEnvironmentVersionInfo@Resources@Microsoft@@QAA@XZ
??1IFileSection@Resources@Microsoft@@UAA@XZ
??1IFileSectionResolver@Resources@Microsoft@@UAA@XZ
??1IHierarchicalNames@Resources@Microsoft@@QAA@XZ
??1IHierarchicalSchema@Resources@Microsoft@@UAA@XZ
??1IHierarchicalSchemaDescription@Resources@Microsoft@@UAA@XZ
??1IHierarchicalSchemaVersionInfo@Resources@Microsoft@@QAA@XZ
??1IMrmFile@Resources@Microsoft@@UAA@XZ
??1INamedResourceBase@Resources@Microsoft@@QAA@XZ
??1IQualifier@Resources@Microsoft@@QAA@XZ
??1IQualifierSet@Resources@Microsoft@@QAA@XZ
??1IQualifierType@Resources@Microsoft@@UAA@XZ
??1IQualifierValueProvider@Resources@Microsoft@@UAA@XZ
??1IResourceCandidateBase@Resources@Microsoft@@QAA@XZ
??1IResourceMapBase@Resources@Microsoft@@QAA@XZ
??1IResourceMapCollection@Resources@Microsoft@@QAA@XZ
??1ISchemaCollection@Resources@Microsoft@@QAA@XZ
??1ISchemaVersionInfo@Resources@Microsoft@@QAA@XZ
??1ISectionBuilder@Build@Resources@Microsoft@@UAA@XZ
??1IStringResult@Resources@Microsoft@@UAA@XZ
??1IUnifiedResourceView@Resources@Microsoft@@UAA@XZ
??1MrmBuildConfiguration@Build@Resources@Microsoft@@UAA@XZ
??1PriDescriptor@Resources@Microsoft@@UAA@XZ
??1PriMapMerger@Build@Resources@Microsoft@@QAA@XZ
??1ResourceCandidateResult@Resources@Microsoft@@QAA@XZ
??1StaticAtomPool@Resources@Microsoft@@UAA@XZ
??1StringResultWrapper@Resources@Microsoft@@UAA@XZ
??2Atom@Resources@Microsoft@@SAPAXI@Z
??2Atom@Resources@Microsoft@@SAPAXIABUnothrow_t@std@@@Z
??2Atom@Resources@Microsoft@@SAPAXIABUnothrow_t@std@@PAVIDefStatus@12@@Z
??2Atom@Resources@Microsoft@@SAPAXIPAX@Z
??2DefObject@Resources@Microsoft@@SAPAXI@Z
??2DefObject@Resources@Microsoft@@SAPAXIABUnothrow_t@std@@@Z
??2DefObject@Resources@Microsoft@@SAPAXIPAX@Z
??3Atom@Resources@Microsoft@@SAXPAX@Z
??3Atom@Resources@Microsoft@@SAXPAXABUnothrow_t@std@@@Z
??3Atom@Resources@Microsoft@@SAXPAXABUnothrow_t@std@@PAVIDefStatus@12@@Z
??3DefObject@Resources@Microsoft@@SAXPAX@Z
??3DefObject@Resources@Microsoft@@SAXPAXABUnothrow_t@std@@@Z
??3DefObject@Resources@Microsoft@@SAXPAXABUnothrow_t@std@@PAVIDefStatus@12@@Z
??4Atom@Resources@Microsoft@@QAAAAU012@ABU012@@Z
??4AtomIndexedDictionaryBase@Build@Resources@Microsoft@@QAAAAV0123@ABV0123@@Z
??4AtomPoolGroup@Resources@Microsoft@@QAAAAV012@ABV012@@Z
??4BaseAtomLinkedFile@Resources@Microsoft@@QAAAAV012@ABV012@@Z
??4BaseFile@Resources@Microsoft@@QAAAAV012@ABV012@@Z
??4BaseFileSectionResult@Resources@Microsoft@@QAAAAV012@ABV012@@Z
??4BuilderCandidateResult@Build@Resources@Microsoft@@QAAAAV0123@ABV0123@@Z
??4DataBlobBuilder@Build@Resources@Microsoft@@QAAAAV0123@ABV0123@@Z
??4DataItemsBuildInstanceReference@Build@Resources@Microsoft@@QAAAAV0123@ABV0123@@Z
??4DataItemsSectionBuilder@Build@Resources@Microsoft@@QAAAAV0123@ABV0123@@Z
??4DataSectionBuilder@Build@Resources@Microsoft@@QAAAAV0123@ABV0123@@Z
??4DecisionBuilder@Build@Resources@Microsoft@@QAAAAV0123@ABV0123@@Z
??4DecisionInfoBuilder@Build@Resources@Microsoft@@QAAAAV0123@ABV0123@@Z
??4DecisionInfoFileSection@Resources@Microsoft@@QAAAAV012@ABV012@@Z
??4DecisionInfoQualifierSetBuilder@Build@Resources@Microsoft@@QAAAAV0123@ABV0123@@Z
??4DecisionInfoSectionBuilder@Build@Resources@Microsoft@@QAAAAV0123@ABV0123@@Z
??4DecisionResult@Resources@Microsoft@@QAAAAV012@ABV012@@Z
??4DefChecksum@Resources@Microsoft@@QAAAAU012@ABU012@@Z
??4DefObject@Resources@Microsoft@@QAAAAV012@ABV012@@Z
??4DefStatus@Resources@Microsoft@@QAAAAV012@ABV012@@Z
??4DefStatusWrapper@Resources@Microsoft@@QAAAAV012@ABV012@@Z
??4EnvironmentCollectionBase@Resources@Microsoft@@QAAAAV012@ABV012@@Z
??4EnvironmentReference@Resources@Microsoft@@QAAAAV012@ABV012@@Z
??4EnvironmentReferenceBuilder@Build@Resources@Microsoft@@QAAAAV0123@ABV0123@@Z
??4ExternalFileStaticDataInstanceReference@Build@Resources@Microsoft@@QAAAAV0123@ABV0123@@Z
??4FileAtomPool@Resources@Microsoft@@QAAAAV012@ABV012@@Z
??4FileAtomPoolBuilder@Build@Resources@Microsoft@@QAAAAV0123@ABV0123@@Z
??4FileAtoms@Resources@Microsoft@@QAAAAV012@ABV012@@Z
??4FileBuilder@Build@Resources@Microsoft@@QAAAAV0123@ABV0123@@Z
??4FileFileList@Resources@Microsoft@@QAAAAV012@ABV012@@Z
??4FileInfo@Build@Resources@Microsoft@@QAAAAV0123@ABV0123@@Z
??4FileInfoPrivateData@Build@Resources@Microsoft@@QAAAAV0123@ABV0123@@Z
??4FileListBuilder@Build@Resources@Microsoft@@QAAAAV0123@ABV0123@@Z
??4FileSectionBase@Resources@Microsoft@@QAAAAV012@ABV012@@Z
??4FileSectionBuildInstanceReference@Build@Resources@Microsoft@@QAAAAV0123@ABV0123@@Z
??4FolderInfo@Build@Resources@Microsoft@@QAAAAV0123@ABV0123@@Z
??4HNamesNode@Build@Resources@Microsoft@@QAAAAV0123@ABV0123@@Z
??4HierarchicalName@Build@Resources@Microsoft@@QAAAAV0123@ABV0123@@Z
??4HierarchicalNameSegment@Build@Resources@Microsoft@@QAAAAV0123@ABV0123@@Z
??4HierarchicalNames@Resources@Microsoft@@QAAAAV012@ABV012@@Z
??4HierarchicalNamesBuilder@Build@Resources@Microsoft@@QAAAAV0123@ABV0123@@Z
??4HierarchicalNamesConfig@Resources@Microsoft@@QAAAAV012@ABV012@@Z
??4HierarchicalSchema@Resources@Microsoft@@QAAAAV012@ABV012@@Z
??4HierarchicalSchemaReference@Resources@Microsoft@@QAAAAV012@ABV012@@Z
??4HierarchicalSchemaSectionBuilder@Build@Resources@Microsoft@@QAAAAV0123@ABV0123@@Z
??4HierarchicalSchemaVersionInfo@Resources@Microsoft@@QAAAAV012@ABV012@@Z
??4HierarchicalSchemaVersionInfoBuilder@Build@Resources@Microsoft@@QAAAAV0123@ABV0123@@Z
??4IAtomPool@Resources@Microsoft@@QAAAAV012@ABV012@@Z
??4IAtomPoolWriter@Resources@Microsoft@@QAAAAV012@ABV012@@Z
??4IBuildInstanceReference@Build@Resources@Microsoft@@QAAAAV0123@ABV0123@@Z
??4ICondition@Resources@Microsoft@@QAAAAV012@ABV012@@Z
??4IDecision@Resources@Microsoft@@QAAAAV012@ABV012@@Z
??4IDecisionInfo@Resources@Microsoft@@QAAAAV012@ABV012@@Z
??4IDefStatus@Resources@Microsoft@@QAAAAV012@ABV012@@Z
??4IEnvironment@Resources@Microsoft@@QAAAAV012@ABV012@@Z
??4IEnvironmentCollection@Resources@Microsoft@@QAAAAV012@ABV012@@Z
??4IEnvironmentVersionInfo@Resources@Microsoft@@QAAAAV012@ABV012@@Z
??4IFileList@Resources@Microsoft@@QAAAAV012@ABV012@@Z
??4IFileSection@Resources@Microsoft@@QAAAAV012@ABV012@@Z
??4IFileSectionResolver@Resources@Microsoft@@QAAAAV012@ABV012@@Z
??4IHNamesGlobalNodes@Build@Resources@Microsoft@@QAAAAV0123@ABV0123@@Z
??4IHierarchicalNames@Resources@Microsoft@@QAAAAV012@ABV012@@Z
??4IHierarchicalSchema@Resources@Microsoft@@QAAAAV012@ABV012@@Z
??4IHierarchicalSchemaDescription@Resources@Microsoft@@QAAAAV012@ABV012@@Z
??4IHierarchicalSchemaVersionInfo@Resources@Microsoft@@QAAAAV012@ABV012@@Z
??4IMrmFile@Resources@Microsoft@@QAAAAV012@ABV012@@Z
??4INamedResourceBase@Resources@Microsoft@@QAAAAV012@ABV012@@Z
??4IQualifier@Resources@Microsoft@@QAAAAV012@ABV012@@Z
??4IQualifierSet@Resources@Microsoft@@QAAAAV012@ABV012@@Z
??4IQualifierType@Resources@Microsoft@@QAAAAV012@ABV012@@Z
??4IQualifierValueProvider@Resources@Microsoft@@QAAAAV012@ABV012@@Z
??4IResourceCandidateBase@Resources@Microsoft@@QAAAAV012@ABV012@@Z
??4IResourceMapBase@Resources@Microsoft@@QAAAAV012@ABV012@@Z
??4IResourceMapCollection@Resources@Microsoft@@QAAAAV012@ABV012@@Z
??4ISchemaCollection@Resources@Microsoft@@QAAAAV012@ABV012@@Z
??4ISchemaVersionInfo@Resources@Microsoft@@QAAAAV012@ABV012@@Z
??4ISectionBuilder@Build@Resources@Microsoft@@QAAAAV0123@ABV0123@@Z
??4IStringResult@Resources@Microsoft@@QAAAAV012@ABV012@@Z
??4IUnifiedResourceView@Resources@Microsoft@@QAAAAV012@ABV012@@Z
??4ItemInfo@Build@Resources@Microsoft@@QAAAAV0123@ABV0123@@Z
??4MrmBuildConfiguration@Build@Resources@Microsoft@@QAAAAV0123@ABV0123@@Z
??4MrmFile@Resources@Microsoft@@QAAAAV012@ABV012@@Z
??4NamedResourceResult@Resources@Microsoft@@QAAAAV012@ABV012@@Z
??4PriDescriptor@Resources@Microsoft@@QAAAAV012@ABV012@@Z
??4PriFile@Resources@Microsoft@@QAAAAV012@ABV012@@Z
??4PriFileBuilder@Build@Resources@Microsoft@@QAAAAV0123@ABV0123@@Z
??4PriFileMerger@Build@Resources@Microsoft@@QAAAAV0123@ABV0123@@Z
??4PriMapMerger@Build@Resources@Microsoft@@QAAAAV0123@ABV0123@@Z
??4PriSectionBuilder@Build@Resources@Microsoft@@QAAAAV0123@ABV0123@@Z
??4QualifierResult@Resources@Microsoft@@QAAAAV012@ABV012@@Z
??4QualifierSetResult@Resources@Microsoft@@QAAAAV012@ABV012@@Z
??4RemapInfo@Resources@Microsoft@@QAAAAV012@ABV012@@Z
??4RemapUInt16@Resources@Microsoft@@QAAAAV012@ABV012@@Z
??4ResourceCandidateResult@Resources@Microsoft@@QAAAAV012@ABV012@@Z
??4ResourceMapBase@Resources@Microsoft@@QAAAAV012@ABV012@@Z
??4ResourceMapSectionBuilder@Build@Resources@Microsoft@@QAAAAV0123@ABV0123@@Z
??4ResourceMapSubtree@Resources@Microsoft@@QAAAAV012@ABV012@@Z
??4ReverseFileMap@Resources@Microsoft@@QAAAAV012@ABV012@@Z
??4ReverseFileMapSectionBuilder@Build@Resources@Microsoft@@QAAAAV0123@ABV0123@@Z
??4ScopeInfo@Build@Resources@Microsoft@@QAAAAV0123@ABV0123@@Z
??4StandalonePriFile@Resources@Microsoft@@QAAAAV012@ABV012@@Z
??4StaticAtomPool@Resources@Microsoft@@QAAAAV012@ABV012@@Z
??4StaticHierarchicalSchemaDescription@Resources@Microsoft@@QAAAAV012@ABV012@@Z
??4StringResult@Resources@Microsoft@@QAAAAV012@ABV012@@Z
??4StringResultWrapper@Resources@Microsoft@@QAAAAV012@ABV012@@Z
??4WindowsRuntimeEnvironment@Resources@Microsoft@@QAAAAV012@ABV012@@Z
??4WriteableStringPool@Build@Resources@Microsoft@@QAAAAV0123@ABV0123@@Z
??8Atom@Resources@Microsoft@@QBA_NABU012@@Z
??9Atom@Resources@Microsoft@@QBA_NABU012@@Z
??_7AtomIndexedDictionaryBase@Build@Resources@Microsoft@@6B@ DATA
??_7AtomPoolGroup@Resources@Microsoft@@6B@ DATA
??_7BaseAtomLinkedFile@Resources@Microsoft@@6B@ DATA
??_7BaseFile@Resources@Microsoft@@6B@ DATA
??_7BaseFileSectionResult@Resources@Microsoft@@6B@ DATA
??_7DataBlobBuilder@Build@Resources@Microsoft@@6B@ DATA
??_7DataItemsBuildInstanceReference@Build@Resources@Microsoft@@6B@ DATA
??_7DataItemsSectionBuilder@Build@Resources@Microsoft@@6B@ DATA
??_7DataSectionBuilder@Build@Resources@Microsoft@@6BDataBlobBuilder@123@@ DATA
??_7DataSectionBuilder@Build@Resources@Microsoft@@6BISectionBuilder@123@@ DATA
??_7DecisionBuilder@Build@Resources@Microsoft@@6B@ DATA
??_7DecisionInfoBuilder@Build@Resources@Microsoft@@6B@ DATA
??_7DecisionInfoFileSection@Resources@Microsoft@@6BFileSectionBase@12@@ DATA
??_7DecisionInfoFileSection@Resources@Microsoft@@6BIDecisionInfo@12@@ DATA
??_7DecisionInfoQualifierSetBuilder@Build@Resources@Microsoft@@6B@ DATA
??_7DecisionInfoSectionBuilder@Build@Resources@Microsoft@@6BDecisionInfoBuilder@123@@ DATA
??_7DecisionInfoSectionBuilder@Build@Resources@Microsoft@@6BISectionBuilder@123@@ DATA
??_7DecisionResult@Resources@Microsoft@@6B@ DATA
??_7DefStatus@Resources@Microsoft@@6B@ DATA
??_7DefStatusWrapper@Resources@Microsoft@@6B@ DATA
??_7EnvironmentCollectionBase@Resources@Microsoft@@6B@ DATA
??_7EnvironmentReference@Resources@Microsoft@@6B@ DATA
??_7EnvironmentReferenceBuilder@Build@Resources@Microsoft@@6B@ DATA
??_7ExternalFileStaticDataInstanceReference@Build@Resources@Microsoft@@6B@ DATA
??_7FileAtomPool@Resources@Microsoft@@6BFileSectionBase@12@@ DATA
??_7FileAtomPool@Resources@Microsoft@@6BIAtomPool@12@@ DATA
??_7FileAtomPoolBuilder@Build@Resources@Microsoft@@6BIAtomPoolWriter@23@@ DATA
??_7FileAtomPoolBuilder@Build@Resources@Microsoft@@6BISectionBuilder@123@@ DATA
??_7FileBuilder@Build@Resources@Microsoft@@6B@ DATA
??_7FileFileList@Resources@Microsoft@@6BFileSectionBase@12@@ DATA
??_7FileFileList@Resources@Microsoft@@6BIFileList@12@@ DATA
??_7FileInfo@Build@Resources@Microsoft@@6B@ DATA
??_7FileInfoPrivateData@Build@Resources@Microsoft@@6B@ DATA
??_7FileListBuilder@Build@Resources@Microsoft@@6B@ DATA
??_7FileSectionBase@Resources@Microsoft@@6B@ DATA
??_7FileSectionBuildInstanceReference@Build@Resources@Microsoft@@6B@ DATA
??_7FolderInfo@Build@Resources@Microsoft@@6B@ DATA
??_7HNamesNode@Build@Resources@Microsoft@@6B@ DATA
??_7HierarchicalNames@Resources@Microsoft@@6BFileSectionBase@12@@ DATA
??_7HierarchicalNames@Resources@Microsoft@@6BHierarchicalNamesConfig@12@@ DATA
??_7HierarchicalNames@Resources@Microsoft@@6BIHierarchicalNames@12@@ DATA
??_7HierarchicalNamesBuilder@Build@Resources@Microsoft@@6BHierarchicalNamesConfig@23@@ DATA
??_7HierarchicalNamesBuilder@Build@Resources@Microsoft@@6BIHNamesGlobalNodes@123@@ DATA
??_7HierarchicalNamesBuilder@Build@Resources@Microsoft@@6BISectionBuilder@123@@ DATA
??_7HierarchicalNamesConfig@Resources@Microsoft@@6B@ DATA
??_7HierarchicalSchema@Resources@Microsoft@@6BFileSectionBase@12@@ DATA
??_7HierarchicalSchema@Resources@Microsoft@@6BIHierarchicalSchema@12@@ DATA
??_7HierarchicalSchemaReference@Resources@Microsoft@@6B@ DATA
??_7HierarchicalSchemaSectionBuilder@Build@Resources@Microsoft@@6BIHierarchicalSchema@23@@ DATA
??_7HierarchicalSchemaSectionBuilder@Build@Resources@Microsoft@@6BISectionBuilder@123@@ DATA
??_7HierarchicalSchemaVersionInfo@Resources@Microsoft@@6B@ DATA
??_7HierarchicalSchemaVersionInfoBuilder@Build@Resources@Microsoft@@6B@ DATA
??_7IAtomPool@Resources@Microsoft@@6B@ DATA
??_7IAtomPoolWriter@Resources@Microsoft@@6B@ DATA
??_7IBuildInstanceReference@Build@Resources@Microsoft@@6B@ DATA
??_7ICondition@Resources@Microsoft@@6B@ DATA
??_7IDecision@Resources@Microsoft@@6B@ DATA
??_7IDecisionInfo@Resources@Microsoft@@6B@ DATA
??_7IDefStatus@Resources@Microsoft@@6B@ DATA
??_7IEnvironment@Resources@Microsoft@@6B@ DATA
??_7IEnvironmentCollection@Resources@Microsoft@@6B@ DATA
??_7IEnvironmentVersionInfo@Resources@Microsoft@@6B@ DATA
??_7IFileList@Resources@Microsoft@@6B@ DATA
??_7IFileSection@Resources@Microsoft@@6B@ DATA
??_7IFileSectionResolver@Resources@Microsoft@@6B@ DATA
??_7IHNamesGlobalNodes@Build@Resources@Microsoft@@6B@ DATA
??_7IHierarchicalNames@Resources@Microsoft@@6B@ DATA
??_7IHierarchicalSchema@Resources@Microsoft@@6B@ DATA
??_7IHierarchicalSchemaDescription@Resources@Microsoft@@6B@ DATA
??_7IHierarchicalSchemaVersionInfo@Resources@Microsoft@@6B@ DATA
??_7IMrmFile@Resources@Microsoft@@6B@ DATA
??_7INamedResourceBase@Resources@Microsoft@@6B@ DATA
??_7IQualifier@Resources@Microsoft@@6B@ DATA
??_7IQualifierSet@Resources@Microsoft@@6B@ DATA
??_7IQualifierType@Resources@Microsoft@@6B@ DATA
??_7IQualifierValueProvider@Resources@Microsoft@@6B@ DATA
??_7IResourceCandidateBase@Resources@Microsoft@@6B@ DATA
??_7IResourceMapBase@Resources@Microsoft@@6B@ DATA
??_7IResourceMapCollection@Resources@Microsoft@@6B@ DATA
??_7ISchemaCollection@Resources@Microsoft@@6B@ DATA
??_7ISchemaVersionInfo@Resources@Microsoft@@6B@ DATA
??_7ISectionBuilder@Build@Resources@Microsoft@@6B@ DATA
??_7IStringResult@Resources@Microsoft@@6B@ DATA
??_7IUnifiedResourceView@Resources@Microsoft@@6BIResourceMapCollection@12@@ DATA
??_7IUnifiedResourceView@Resources@Microsoft@@6BISchemaCollection@12@@ DATA
??_7ItemInfo@Build@Resources@Microsoft@@6B@ DATA
??_7MrmBuildConfiguration@Build@Resources@Microsoft@@6B@ DATA
??_7MrmFile@Resources@Microsoft@@6B@ DATA
??_7NamedResourceResult@Resources@Microsoft@@6B@ DATA
??_7PriDescriptor@Resources@Microsoft@@6B@ DATA
??_7PriFile@Resources@Microsoft@@6BIResourceMapCollection@12@@ DATA
??_7PriFile@Resources@Microsoft@@6BISchemaCollection@12@@ DATA
??_7PriFileBuilder@Build@Resources@Microsoft@@6B@ DATA
??_7PriFileMerger@Build@Resources@Microsoft@@6B@ DATA
??_7PriSectionBuilder@Build@Resources@Microsoft@@6B@ DATA
??_7QualifierResult@Resources@Microsoft@@6B@ DATA
??_7QualifierSetResult@Resources@Microsoft@@6B@ DATA
??_7RemapInfo@Resources@Microsoft@@6B@ DATA
??_7RemapUInt16@Resources@Microsoft@@6B@ DATA
??_7ResourceCandidateResult@Resources@Microsoft@@6B@ DATA
??_7ResourceMapBase@Resources@Microsoft@@6BFileSectionBase@12@@ DATA
??_7ResourceMapBase@Resources@Microsoft@@6BIResourceMapBase@12@@ DATA
??_7ResourceMapBase@Resources@Microsoft@@6BResourceMapSubtree@12@@ DATA
??_7ResourceMapSectionBuilder@Build@Resources@Microsoft@@6B@ DATA
??_7ResourceMapSubtree@Resources@Microsoft@@6B@ DATA
??_7ReverseFileMap@Resources@Microsoft@@6B@ DATA
??_7ReverseFileMapSectionBuilder@Build@Resources@Microsoft@@6B@ DATA
??_7ScopeInfo@Build@Resources@Microsoft@@6B@ DATA
??_7StandalonePriFile@Resources@Microsoft@@6B@ DATA
??_7StandalonePriFile@Resources@Microsoft@@6BIResourceMapCollection@12@@ DATA
??_7StandalonePriFile@Resources@Microsoft@@6BISchemaCollection@12@@ DATA
??_7StaticAtomPool@Resources@Microsoft@@6B@ DATA
??_7StaticHierarchicalSchemaDescription@Resources@Microsoft@@6B@ DATA
??_7StringResult@Resources@Microsoft@@6B@ DATA
??_7StringResultWrapper@Resources@Microsoft@@6B@ DATA
??_7WindowsRuntimeEnvironment@Resources@Microsoft@@6B@ DATA
??_7WriteableStringPool@Build@Resources@Microsoft@@6B@ DATA
??_UAtom@Resources@Microsoft@@SAPAXI@Z
??_UAtom@Resources@Microsoft@@SAPAXIABUnothrow_t@std@@@Z
??_UAtom@Resources@Microsoft@@SAPAXIABUnothrow_t@std@@PAVIDefStatus@12@@Z
??_UDefObject@Resources@Microsoft@@SAPAXI@Z
??_UDefObject@Resources@Microsoft@@SAPAXIABUnothrow_t@std@@@Z
??_VAtom@Resources@Microsoft@@SAXPAX@Z
??_VAtom@Resources@Microsoft@@SAXPAXABUnothrow_t@std@@@Z
??_VAtom@Resources@Microsoft@@SAXPAXABUnothrow_t@std@@PAVIDefStatus@12@@Z
??_VDefObject@Resources@Microsoft@@SAXPAX@Z
??_VDefObject@Resources@Microsoft@@SAXPAXABUnothrow_t@std@@@Z
??_VDefObject@Resources@Microsoft@@SAXPAXABUnothrow_t@std@@PAVIDefStatus@12@@Z
?AddDataItem@DataItemsSectionBuilder@Build@Resources@Microsoft@@QAA_NPBXIPAVIDefStatus@34@PAU_PrebuildItemReference@1234@@Z
?AddQualifier@DecisionInfoQualifierSetBuilder@Build@Resources@Microsoft@@QAA_NPBG0HNPAVIDefStatus@34@PAH@Z
?AdvanceToNextSegment@HierarchicalName@Build@Resources@Microsoft@@QAA_NPAVIDefStatus@34@@Z
?Align16Bit@BaseFile@Resources@Microsoft@@2IB
?Align32Bit@BaseFile@Resources@Microsoft@@2IB
?Align64Bit@BaseFile@Resources@Microsoft@@2IB
?AllConfigurationFlags@MrmBuildConfiguration@Build@Resources@Microsoft@@2IB
?AlwaysTrueQualifierIndex@IDecisionInfo@Resources@Microsoft@@2HB
?BaseFileOwnsDataFlag@BaseFile@Resources@Microsoft@@1IB
?CheckPhase@FileBuilder@Build@Resources@Microsoft@@QBA_NW4BuildPhase@234@PAVIDefStatus@34@@Z
?CheckSetPhase@FileBuilder@Build@Resources@Microsoft@@QAA_NW4BuildPhase@234@PAVIDefStatus@34@@Z
?CompareSegments@HierarchicalNamesConfig@Resources@Microsoft@@UBAHPBG0@Z
?CompareSegments@HierarchicalNamesConfig@Resources@Microsoft@@UBAHPBGH0H@Z
?ComputeAtomChecksum@DefChecksum@Resources@Microsoft@@QAAIUAtom@23@PBVAtomPoolGroup@23@PAVIDefStatus@23@@Z
?ComputeAtomPoolChecksum@DefChecksum@Resources@Microsoft@@QAAIPBVIAtomPool@23@HPAVIDefStatus@23@@Z
?ComputeAtomPoolChecksum@DefChecksum@Resources@Microsoft@@QAAIPBVIAtomPool@23@PAVIDefStatus@23@@Z
?ComputeChecksum@DefChecksum@Resources@Microsoft@@QAAIPBEIPAVIDefStatus@23@@Z
?ComputeHash@HNamesNode@Build@Resources@Microsoft@@SAIPBGPAVIDefStatus@34@@Z
?ComputeStringChecksum@DefChecksum@Resources@Microsoft@@QAAI_NPBGPAVIDefStatus@23@@Z
?ComputeUInt32Checksum@DefChecksum@Resources@Microsoft@@QAAII@Z
?ConcatPathElement@IStringResult@Resources@Microsoft@@UAA_NPBGPAVIDefStatus@23@@Z
?ConcatPathElement@StringResultWrapper@Resources@Microsoft@@UAA_NPBGPAVIDefStatus@23@@Z
?Contains@HierarchicalSchema@Resources@Microsoft@@QBA_NPBGHPAVIDefStatus@23@PAH22@Z
?Contains@HierarchicalSchema@Resources@Microsoft@@QBA_NPBGPAVIDefStatus@23@PAH22@Z
?Contains@HierarchicalSchema@Resources@Microsoft@@UBA_NPBGHPAVIDefStatus@23@PAH2@Z
?Contains@HierarchicalSchema@Resources@Microsoft@@UBA_NPBGPAVIDefStatus@23@PAH2@Z
?Contains@IAtomPool@Resources@Microsoft@@UBA_NHPAVIDefStatus@23@@Z
?DefaultAlignment@BaseFile@Resources@Microsoft@@2IB
?DefaultAlignment@DataItemsSectionBuilder@Build@Resources@Microsoft@@2HB
?DefaultFlags@BaseFile@Resources@Microsoft@@2IB
?DefaultInitialSize@FileAtomPoolBuilder@Build@Resources@Microsoft@@1HB
?DefaultInitialSize@WriteableStringPool@Build@Resources@Microsoft@@1IB
?DescriptionLength@FileAtomPool@Resources@Microsoft@@2HB
?EmbeddedDataResourceValueTypeIndex@WindowsRuntimeEnvironment@Resources@Microsoft@@2HB
?EmptyDecisionIndex@IDecisionInfo@Resources@Microsoft@@2HB
?Failed@DefStatusWrapper@Resources@Microsoft@@UBA_NXZ
GetApplicabilityContext
?GetAtom@Atom@Resources@Microsoft@@QBA?AT_DEF_ATOM@@XZ
?GetAtomPoolGroup@FileAtomPool@Resources@Microsoft@@UBAPAVAtomPoolGroup@23@XZ
?GetAtomPoolGroup@FileAtomPoolBuilder@Build@Resources@Microsoft@@UBAPAVAtomPoolGroup@34@XZ
?GetAtomPoolMapping@RemapInfo@Resources@Microsoft@@QBAPAHPAH@Z
?GetAtomPoolSection@IMrmFile@Resources@Microsoft@@QBAPAVFileAtomPool@23@FPAVIDefStatus@23@@Z
?GetAtoms@BaseAtomLinkedFile@Resources@Microsoft@@QBAPBVAtomPoolGroup@23@XZ
?GetAtoms@PriSectionBuilder@Build@Resources@Microsoft@@QBAPAVAtomPoolGroup@34@XZ
?GetAtoms@StandalonePriFile@Resources@Microsoft@@UBAPAVAtomPoolGroup@23@XZ
?GetAtoms@WindowsRuntimeEnvironment@Resources@Microsoft@@UBAPAVAtomPoolGroup@23@XZ
?GetAttributeNames@WindowsRuntimeEnvironment@Resources@Microsoft@@UBAPBVIAtomPool@23@XZ
?GetAttributeTypeNames@WindowsRuntimeEnvironment@Resources@Microsoft@@UBAPBVIAtomPool@23@XZ
?GetAttributeTypesPoolIndex@EnvironmentReference@Resources@Microsoft@@QBAHXZ
?GetAttributesPoolIndex@EnvironmentReference@Resources@Microsoft@@QBAHXZ
?GetAutoMergeEnabled@PriDescriptor@Resources@Microsoft@@QBA_NXZ
?GetAutoMergeEnabled@PriFile@Resources@Microsoft@@QBA_NXZ
?GetAutoMergeEnabled@StandalonePriFile@Resources@Microsoft@@QBA_NXZ
?GetBaseFile@MrmFile@Resources@Microsoft@@UBAPBVBaseFile@23@PAVIDefStatus@23@@Z
?GetBaseMrmFile@PriFile@Resources@Microsoft@@QBAPBVIMrmFile@23@XZ
?GetBaseResourceView@PriFile@Resources@Microsoft@@QBAPBVIUnifiedResourceView@23@XZ
?GetBuffer@WriteableStringPool@Build@Resources@Microsoft@@QBAPBGXZ
?GetCandidateIndex@ResourceCandidateResult@Resources@Microsoft@@QBAHXZ
?GetChecksum@DefChecksum@Resources@Microsoft@@QBAIXZ
?GetConditionOperatorNames@WindowsRuntimeEnvironment@Resources@Microsoft@@UBAPBVIAtomPool@23@XZ
?GetConditionOperatorsPoolIndex@EnvironmentReference@Resources@Microsoft@@QBAHXZ
?GetConfig@HNamesNode@Build@Resources@Microsoft@@QBAPBVHierarchicalNamesConfig@34@XZ
?GetConfig@HierarchicalName@Build@Resources@Microsoft@@QBAPBVHierarchicalNamesConfig@34@XZ
?GetConfig@HierarchicalNameSegment@Build@Resources@Microsoft@@QBAPBVHierarchicalNamesConfig@34@XZ
?GetConfig@HierarchicalNamesBuilder@Build@Resources@Microsoft@@UBAPBVHierarchicalNamesConfig@34@XZ
?GetCurrentDataSize@DataBlobBuilder@Build@Resources@Microsoft@@UBAIXZ
?GetCurrentGeneration@ResourceMapBase@Resources@Microsoft@@UBA_KXZ
?GetCurrentSegment@HierarchicalName@Build@Resources@Microsoft@@QBAPBVHierarchicalNameSegment@234@XZ
?GetCurrentSegmentHash@HierarchicalName@Build@Resources@Microsoft@@QBAIPAVIDefStatus@34@@Z
?GetCurrentSegmentInitialChar@HierarchicalName@Build@Resources@Microsoft@@QBAGXZ
?GetCurrentSegmentText@HierarchicalName@Build@Resources@Microsoft@@QBAPBGXZ
?GetData@FileBuilder@Build@Resources@Microsoft@@IAAPBXXZ
?GetDataItemsSection@IMrmFile@Resources@Microsoft@@QBAPAVFileDataItemsSection@23@FPAVIDefStatus@23@@Z
?GetDataItemsSectionBuilder@DataItemsBuildInstanceReference@Build@Resources@Microsoft@@QAAPAVDataItemsSectionBuilder@234@XZ
?GetDataSection@IMrmFile@Resources@Microsoft@@QBAPAVFileDataSection@23@FPAVIDefStatus@23@@Z
?GetDataSize@FileBuilder@Build@Resources@Microsoft@@IAAIXZ
?GetDecisionInfo@ResourceMapSectionBuilder@Build@Resources@Microsoft@@QBAPAVDecisionInfoSectionBuilder@234@XZ
?GetDecisionInfoBuilder@PriSectionBuilder@Build@Resources@Microsoft@@QBAPAVDecisionInfoSectionBuilder@234@XZ
?GetDecisionInfoSection@IMrmFile@Resources@Microsoft@@QBAPAVDecisionInfoFileSection@23@FPAVIDefStatus@23@@Z
?GetDefStatus@DefStatusWrapper@Resources@Microsoft@@UAAPAU_DEFSTATUS@@XZ
?GetDefaultDecisionInfo@StandalonePriFile@Resources@Microsoft@@UBAPAVUnifiedDecisionInfo@23@XZ
?GetDefaultEnvironment@StandalonePriFile@Resources@Microsoft@@UBAPAVUnifiedEnvironment@23@XZ
?GetDefaultPathSeparator@HierarchicalNamesConfig@Resources@Microsoft@@UBAGXZ
?GetDesc@DefStatusWrapper@Resources@Microsoft@@UBAPBGXZ
?GetDescendents@HierarchicalSchema@Resources@Microsoft@@UBA_NHPAVIDefStatus@23@HPAGPAHH12@Z
?GetDescription@FileAtomPool@Resources@Microsoft@@UBAPBGXZ
?GetDescription@FileAtomPoolBuilder@Build@Resources@Microsoft@@UBAPBGXZ
?GetDescriptor@PriFileBuilder@Build@Resources@Microsoft@@QAAPAVPriSectionBuilder@234@XZ
?GetDescriptorIndex@FileBuilder@Build@Resources@Microsoft@@QAAFXZ
?GetDetails@DefStatusWrapper@Resources@Microsoft@@QBAIXZ
?GetDisplayName@WindowsRuntimeEnvironment@Resources@Microsoft@@UBAPBGXZ
?GetEnvironment@ResourceMapSectionBuilder@Build@Resources@Microsoft@@QBAPBVUnifiedEnvironment@34@XZ
?GetFileBuilder@PriSectionBuilder@Build@Resources@Microsoft@@QBAPAVFileBuilder@234@XZ
?GetFileData@BaseFile@Resources@Microsoft@@QBA_NPAVIDefStatus@23@PAVBlobResult@23@@Z
?GetFileHeader@BaseFile@Resources@Microsoft@@QBAPBU_DEFFILE_HEADER@@XZ
?GetFileListSection@IMrmFile@Resources@Microsoft@@QBAPAVFileFileList@23@FPAVIDefStatus@23@@Z
?GetFileMagicNumber@MrmBuildConfiguration@Build@Resources@Microsoft@@QBA?AT_DEFFILE_MAGIC@@XZ
?GetFileName@FileInfo@Build@Resources@Microsoft@@QBAPBGXZ
?GetFileSizeInBytes@BaseFile@Resources@Microsoft@@QBAIXZ
?GetFileTrailer@BaseFile@Resources@Microsoft@@SAPAU_DEFFILE_TRAILER@@PAU_DEFFILE_HEADER@@@Z
?GetFirstChild@ScopeInfo@Build@Resources@Microsoft@@QBAPAVHNamesNode@234@XZ
?GetFlag@FileInfo@Build@Resources@Microsoft@@QBAGXZ
?GetFlags@DataItemsSectionBuilder@Build@Resources@Microsoft@@UBAGXZ
?GetFlags@DataSectionBuilder@Build@Resources@Microsoft@@UBAGXZ
?GetFlags@DecisionInfoSectionBuilder@Build@Resources@Microsoft@@UBAGXZ
?GetFlags@FileAtomPoolBuilder@Build@Resources@Microsoft@@UBAGXZ
?GetFlags@FileListBuilder@Build@Resources@Microsoft@@UBAGXZ
?GetFlags@HierarchicalNamesBuilder@Build@Resources@Microsoft@@UBAGXZ
?GetFlags@HierarchicalSchemaSectionBuilder@Build@Resources@Microsoft@@UBAGXZ
?GetFlags@PriSectionBuilder@Build@Resources@Microsoft@@UBAGXZ
?GetFlags@ResourceMapSectionBuilder@Build@Resources@Microsoft@@UBAGXZ
?GetFlags@ReverseFileMapSectionBuilder@Build@Resources@Microsoft@@UBAGXZ
?GetFolderName@FolderInfo@Build@Resources@Microsoft@@QBAPBGXZ
?GetFullPath@HierarchicalName@Build@Resources@Microsoft@@QBAQBGXZ
?GetFullResourceMap@ResourceMapSubtree@Resources@Microsoft@@QBAPBVIResourceMapBase@23@XZ
?GetGlobalNodes@ScopeInfo@Build@Resources@Microsoft@@QAAPAVIHNamesGlobalNodes@234@XZ
?GetHash@HNamesNode@Build@Resources@Microsoft@@QBAIPAVIDefStatus@34@@Z
?GetHash@HierarchicalNameSegment@Build@Resources@Microsoft@@QBAIPAVIDefStatus@34@@Z
?GetIndex@Atom@Resources@Microsoft@@QBAHXZ
?GetIndex@DecisionBuilder@Build@Resources@Microsoft@@UBAHPAVIDefStatus@34@@Z
?GetIndex@DecisionInfoQualifierSetBuilder@Build@Resources@Microsoft@@UBAHPAVIDefStatus@34@@Z
?GetIndex@FileInfo@Build@Resources@Microsoft@@QBAHXZ
?GetIndex@FileInfoPrivateData@Build@Resources@Microsoft@@QBA?BHXZ
?GetIndex@FolderInfo@Build@Resources@Microsoft@@QBAHXZ
?GetIndex@HNamesNode@Build@Resources@Microsoft@@QBAHXZ
?GetIndex@IAtomPool@Resources@Microsoft@@QBA_NPBGPAVIDefStatus@23@PAH@Z
?GetIndex@IAtomPool@Resources@Microsoft@@QBA_NUAtom@23@PAVIDefStatus@23@PAH@Z
?GetInitialChar@HNamesNode@Build@Resources@Microsoft@@QBAGXZ
?GetInitialChar@HierarchicalNameSegment@Build@Resources@Microsoft@@QBAGXZ
?GetInstanceLocatorNames@WindowsRuntimeEnvironment@Resources@Microsoft@@UBAPBVIAtomPool@23@XZ
?GetInstanceLocatorType@DataItemsBuildInstanceReference@Build@Resources@Microsoft@@UBAPBGXZ
?GetInstanceLocatorType@ExternalFileStaticDataInstanceReference@Build@Resources@Microsoft@@UBAPBGXZ
?GetInstanceLocatorType@FileSectionBuildInstanceReference@Build@Resources@Microsoft@@UBAPBGXZ
?GetInstanceLocatorsPoolIndex@EnvironmentReference@Resources@Microsoft@@QBAHXZ
?GetInstanceTypeNames@WindowsRuntimeEnvironment@Resources@Microsoft@@UBAPBVIAtomPool@23@XZ
?GetInstanceTypesPoolIndex@EnvironmentReference@Resources@Microsoft@@QBAHXZ
?GetInt64@Atom@Resources@Microsoft@@QBA_JXZ
?GetIsAutomergeMergeResult@PriDescriptor@Resources@Microsoft@@QBA_NXZ
?GetIsCaseInsensitive@FileAtomPool@Resources@Microsoft@@UBA_NXZ
?GetIsCaseInsensitive@FileAtomPoolBuilder@Build@Resources@Microsoft@@UBA_NXZ
?GetIsCaseInsensitive@WriteableStringPool@Build@Resources@Microsoft@@QBA_NXZ
?GetIsDeploymentMergeResult@PriDescriptor@Resources@Microsoft@@QBA_NXZ
?GetIsDeploymentMergeResult@PriFile@Resources@Microsoft@@QBA_NXZ
?GetIsDeploymentMergeable@PriDescriptor@Resources@Microsoft@@QBA_NXZ
?GetIsDeploymentMergeable@PriFile@Resources@Microsoft@@UBA_NXZ
?GetIsDeploymentMergeable@StandalonePriFile@Resources@Microsoft@@UBA_NXZ
?GetItemNames@HierarchicalNames@Resources@Microsoft@@UBAPAVIAtomPool@23@XZ
?GetItemNames@HierarchicalNamesBuilder@Build@Resources@Microsoft@@QBAPAVIAtomPool@34@XZ
?GetItemNames@HierarchicalSchema@Resources@Microsoft@@UBAPAVIAtomPool@23@XZ
?GetItemNames@StaticHierarchicalSchemaDescription@Resources@Microsoft@@UBAPAVIAtomPool@23@XZ
?GetItemTypeNames@WindowsRuntimeEnvironment@Resources@Microsoft@@UBAPBVIAtomPool@23@XZ
?GetItemTypesPoolIndex@EnvironmentReference@Resources@Microsoft@@QBAHXZ
?GetItemsPoolIndex@HierarchicalSchemaReference@Resources@Microsoft@@QBAHXZ
?GetLine@DefStatusWrapper@Resources@Microsoft@@QBAIXZ
?GetLocatorType@DataItemsBuildInstanceReference@Build@Resources@Microsoft@@UBAEXZ
?GetLocatorType@ExternalFileStaticDataInstanceReference@Build@Resources@Microsoft@@UBAEXZ
?GetLocatorType@FileSectionBuildInstanceReference@Build@Resources@Microsoft@@UBAEXZ
?GetLongestPath@FileFileList@Resources@Microsoft@@UBAHXZ
?GetMagic@FileBuilder@Build@Resources@Microsoft@@QAA?AT_DEFFILE_MAGIC@@XZ
?GetMajorVersion@EnvironmentReference@Resources@Microsoft@@UBAGXZ
?GetMajorVersion@HierarchicalSchema@Resources@Microsoft@@UBAGXZ
?GetMajorVersion@HierarchicalSchemaReference@Resources@Microsoft@@QBAHXZ
?GetMajorVersion@HierarchicalSchemaSectionBuilder@Build@Resources@Microsoft@@UBAGXZ
?GetMajorVersion@HierarchicalSchemaVersionInfo@Resources@Microsoft@@UBAGXZ
?GetMajorVersion@HierarchicalSchemaVersionInfoBuilder@Build@Resources@Microsoft@@UBAGXZ
?GetMajorVersion@StaticHierarchicalSchemaDescription@Resources@Microsoft@@UBAGXZ
?GetMaxAtomIndex@AtomIndexedDictionaryBase@Build@Resources@Microsoft@@QBAHXZ
?GetMaxNameLength@HierarchicalNames@Resources@Microsoft@@UBAHXZ
?GetMaxNameLength@HierarchicalSchema@Resources@Microsoft@@QBAHXZ
?GetMaxPoolIndex@AtomPoolGroup@Resources@Microsoft@@QBAHXZ
?GetMaxSizeInBytes@EnvironmentReferenceBuilder@Build@Resources@Microsoft@@QBAIXZ
?GetMinAtomIndex@AtomIndexedDictionaryBase@Build@Resources@Microsoft@@QAAHXZ
?GetMinorVersion@EnvironmentReference@Resources@Microsoft@@UBAGXZ
?GetMinorVersion@HierarchicalSchema@Resources@Microsoft@@UBAGXZ
?GetMinorVersion@HierarchicalSchemaReference@Resources@Microsoft@@QBAHXZ
?GetMinorVersion@HierarchicalSchemaSectionBuilder@Build@Resources@Microsoft@@UBAGXZ
?GetMinorVersion@HierarchicalSchemaVersionInfo@Resources@Microsoft@@UBAGXZ
?GetMinorVersion@HierarchicalSchemaVersionInfoBuilder@Build@Resources@Microsoft@@UBAGXZ
?GetMinorVersion@StaticHierarchicalSchemaDescription@Resources@Microsoft@@UBAGXZ
?GetName@FileFileList@Resources@Microsoft@@IBAPBGHHPAVIDefStatus@23@@Z
?GetName@HNamesNode@Build@Resources@Microsoft@@QBAPBGXZ
?GetName@HierarchicalNameSegment@Build@Resources@Microsoft@@QBAPBGXZ
?GetNameIndex@HNamesNode@Build@Resources@Microsoft@@QBAHXZ
?GetNames@AtomIndexedDictionaryBase@Build@Resources@Microsoft@@QAAPBVIAtomPool@34@XZ
?GetNext@FileInfoPrivateData@Build@Resources@Microsoft@@QBAPAV1234@XZ
?GetNextItem@AtomIndexedDictionaryBase@Build@Resources@Microsoft@@QBA_NPAVIterator@1234@PAVIDefStatus@34@PAH@Z
?GetNextSibling@HNamesNode@Build@Resources@Microsoft@@QAAPAV1234@XZ
?GetNumAtomPools@RemapInfo@Resources@Microsoft@@QBAHXZ
?GetNumAtoms@FileAtomPool@Resources@Microsoft@@UBAHXZ
?GetNumAtoms@FileAtomPoolBuilder@Build@Resources@Microsoft@@UBAHXZ
?GetNumAttributeTypes@EnvironmentReference@Resources@Microsoft@@UBAHXZ
?GetNumAttributes@EnvironmentReference@Resources@Microsoft@@UBAHXZ
?GetNumCharsInPool@WriteableStringPool@Build@Resources@Microsoft@@QBAIXZ
?GetNumChildItems@ScopeInfo@Build@Resources@Microsoft@@QBAHXZ
?GetNumChildScopes@ScopeInfo@Build@Resources@Microsoft@@QBAHXZ
?GetNumChildren@ScopeInfo@Build@Resources@Microsoft@@QBAHXZ
?GetNumConditionOperators@EnvironmentReference@Resources@Microsoft@@UBAHXZ
?GetNumDataItemSections@PriDescriptor@Resources@Microsoft@@QBAHXZ
?GetNumDecisionInfos@PriDescriptor@Resources@Microsoft@@QBAHXZ
?GetNumDescendents@HierarchicalNames@Resources@Microsoft@@QBA_NHPAVIDefStatus@23@PAH1@Z
?GetNumDescendents@HierarchicalSchema@Resources@Microsoft@@UBA_NHPAVIDefStatus@23@PAH1@Z
?GetNumEntries@ReverseFileMap@Resources@Microsoft@@QBAHXZ
?GetNumFiles@FolderInfo@Build@Resources@Microsoft@@QBAHXZ
?GetNumInstanceLocators@EnvironmentReference@Resources@Microsoft@@UBAHXZ
?GetNumInstanceTypes@EnvironmentReference@Resources@Microsoft@@UBAHXZ
?GetNumItemTypes@EnvironmentReference@Resources@Microsoft@@UBAHXZ
?GetNumItems@HierarchicalNames@Resources@Microsoft@@UBAHXZ
?GetNumItems@HierarchicalSchema@Resources@Microsoft@@UBAHXZ
?GetNumItems@HierarchicalSchemaReference@Resources@Microsoft@@QBAHXZ
?GetNumItems@HierarchicalSchemaVersionInfo@Resources@Microsoft@@UBAHXZ
?GetNumItems@HierarchicalSchemaVersionInfoBuilder@Build@Resources@Microsoft@@UBAHXZ
?GetNumItems@StaticHierarchicalSchemaDescription@Resources@Microsoft@@UBAHXZ
?GetNumNames@HierarchicalNames@Resources@Microsoft@@UBAHXZ
?GetNumNames@HierarchicalSchema@Resources@Microsoft@@UBAHXZ
?GetNumPools@AtomPoolGroup@Resources@Microsoft@@QBAHXZ
?GetNumReferencedFileSections@PriDescriptor@Resources@Microsoft@@QBAHXZ
?GetNumResourceMaps@PriDescriptor@Resources@Microsoft@@QBAHXZ
?GetNumRootFolders@FileFileList@Resources@Microsoft@@UBAHXZ
?GetNumSchemas@PriDescriptor@Resources@Microsoft@@QBAHXZ
?GetNumScopes@HierarchicalNames@Resources@Microsoft@@UBAHXZ
?GetNumScopes@HierarchicalSchema@Resources@Microsoft@@UBAHXZ
?GetNumScopes@HierarchicalSchemaReference@Resources@Microsoft@@QBAHXZ
?GetNumScopes@HierarchicalSchemaVersionInfo@Resources@Microsoft@@UBAHXZ
?GetNumScopes@HierarchicalSchemaVersionInfoBuilder@Build@Resources@Microsoft@@UBAHXZ
?GetNumScopes@StaticHierarchicalSchemaDescription@Resources@Microsoft@@UBAHXZ
?GetNumSections@BaseFile@Resources@Microsoft@@QBAFXZ
?GetNumSections@FileBuilder@Build@Resources@Microsoft@@QAAIXZ
?GetNumSections@RemapInfo@Resources@Microsoft@@QBAFXZ
?GetNumSubfolders@FolderInfo@Build@Resources@Microsoft@@QBAHXZ
?GetNumVersionInfos@HierarchicalSchema@Resources@Microsoft@@UBAHXZ
?GetNumVersionInfos@HierarchicalSchemaSectionBuilder@Build@Resources@Microsoft@@UBAHXZ
?GetOperand1Qualifier@ICondition@Resources@Microsoft@@UBA_NPAVIDefStatus@23@PAUAtom@23@@Z
?GetOrAddQualifier@DecisionInfoBuilder@Build@Resources@Microsoft@@QAA_NPBG0GNPAVIDefStatus@34@PAVQualifierResult@34@@Z
?GetOwner@FileInfoPrivateData@Build@Resources@Microsoft@@QBAPBXXZ
?GetParentFolder@FileInfo@Build@Resources@Microsoft@@QBAPAVFolderInfo@234@XZ
?GetParentFolder@FolderInfo@Build@Resources@Microsoft@@QBAPAV1234@XZ
?GetParentSchema@NamedResourceResult@Resources@Microsoft@@UBAPBVIHierarchicalSchema@23@PAVIDefStatus@23@@Z
?GetParentScope@HNamesNode@Build@Resources@Microsoft@@QBAPAVScopeInfo@234@XZ
?GetPhase@FileBuilder@Build@Resources@Microsoft@@QBA?AW4BuildPhase@234@XZ
?GetPool@DecisionBuilder@Build@Resources@Microsoft@@UBAPBVIDecisionInfo@34@PAVIDefStatus@34@@Z
?GetPool@DecisionInfoQualifierSetBuilder@Build@Resources@Microsoft@@UBAPBVIDecisionInfo@34@PAVIDefStatus@34@@Z
?GetPoolIndex@Atom@Resources@Microsoft@@QBAHXZ
?GetPoolIndex@FileAtomPool@Resources@Microsoft@@UBAHXZ
?GetPoolIndex@FileAtomPoolBuilder@Build@Resources@Microsoft@@UBAHXZ
?GetPreviousSibling@HNamesNode@Build@Resources@Microsoft@@QAAPAV1234@XZ
?GetPriDescriptor@PriFile@Resources@Microsoft@@QBAPBVPriDescriptor@23@XZ
?GetPriDescriptor@StandalonePriFile@Resources@Microsoft@@QBAPBVPriDescriptor@23@XZ
?GetPriDescriptorSection@IMrmFile@Resources@Microsoft@@QBAPAVPriDescriptor@23@FPAVIDefStatus@23@@Z
?GetPrivateData@FileInfo@Build@Resources@Microsoft@@QBAPAVFileInfoPrivateData@234@XZ
?GetProfile@PriFile@Resources@Microsoft@@UBAPBVMrmProfile@23@XZ
?GetProfile@StandalonePriFile@Resources@Microsoft@@UBAPBVMrmProfile@23@XZ
?GetQualifier@IEnvironment@Resources@Microsoft@@QBA_NHPAVIDefStatus@23@PAUResourceQualifier@23@@Z
?GetQualifier@IEnvironment@Resources@Microsoft@@QBA_NPBGPAVIDefStatus@23@PAUResourceQualifier@23@@Z
?GetQualifier@IEnvironment@Resources@Microsoft@@QBA_NUAtom@23@PAVIDefStatus@23@PAUResourceQualifier@23@@Z
?GetQualifierNames@IEnvironment@Resources@Microsoft@@QBAPBVIAtomPool@23@XZ
?GetQualifierTypeNames@IEnvironment@Resources@Microsoft@@QBAPBVIAtomPool@23@XZ
?GetRawResourceMap@ResourceCandidateResult@Resources@Microsoft@@QBAPBVIRawResourceMap@23@XZ
?GetResourceIndexInSchema@NamedResourceResult@Resources@Microsoft@@UBAHPAVIDefStatus@23@@Z
?GetResourceMap@ResourceMapBase@Resources@Microsoft@@IBAPBV123@XZ
?GetResourceMapSection@IMrmFile@Resources@Microsoft@@QBAPAVResourceMapBase@23@FPAVIDefStatus@23@@Z
?GetResourceValueLocatorNames@IEnvironment@Resources@Microsoft@@QBAPBVIAtomPool@23@XZ
?GetResourceValueTypeNames@IEnvironment@Resources@Microsoft@@QBAPBVIAtomPool@23@XZ
?GetReverseFileMapSection@IMrmFile@Resources@Microsoft@@QBAPAVReverseFileMap@23@FPAVIDefStatus@23@@Z
?GetRootSubtree@ResourceMapBase@Resources@Microsoft@@UBAPBVResourceMapSubtree@23@XZ
?GetRootSubtree@ResourceMapSubtree@Resources@Microsoft@@QBAPBV123@XZ
?GetSchema@ResourceMapSectionBuilder@Build@Resources@Microsoft@@QBAPAVHierarchicalSchemaSectionBuilder@234@XZ
?GetSchemaBlobFromFileSection@IHierarchicalSchema@Resources@Microsoft@@UBA_NPAVBlobResult@23@PAVIDefStatus@23@@Z
?GetSchemaSection@IMrmFile@Resources@Microsoft@@QBAPAVHierarchicalSchema@23@FPAVIDefStatus@23@@Z
?GetScopeNames@HierarchicalNames@Resources@Microsoft@@UBAPAVIAtomPool@23@XZ
?GetScopeNames@HierarchicalNamesBuilder@Build@Resources@Microsoft@@QBAPAVIAtomPool@34@XZ
?GetScopeNames@HierarchicalSchema@Resources@Microsoft@@UBAPAVIAtomPool@23@XZ
?GetScopeNames@StaticHierarchicalSchemaDescription@Resources@Microsoft@@UBAPAVIAtomPool@23@XZ
?GetSection@IMrmFile@Resources@Microsoft@@QBAPBVIFileSection@23@FPAVIDefStatus@23@@Z
?GetSectionData@BaseFile@Resources@Microsoft@@SAPAEPBU_DEFFILE_HEADER@@H@Z
?GetSectionData@BaseFile@Resources@Microsoft@@SAPAXPBU_DEFFILE_HEADER@@PBU_DEFFILE_TOC_ENTRY@@@Z
?GetSectionDataSize@BaseFile@Resources@Microsoft@@SAIPBU_DEFFILE_TOC_ENTRY@@@Z
?GetSectionFlags@DataItemsSectionBuilder@Build@Resources@Microsoft@@UBAGXZ
?GetSectionFlags@DataSectionBuilder@Build@Resources@Microsoft@@UBAGXZ
?GetSectionFlags@DecisionInfoSectionBuilder@Build@Resources@Microsoft@@UBAGXZ
?GetSectionFlags@FileAtomPoolBuilder@Build@Resources@Microsoft@@UBAGXZ
?GetSectionFlags@FileListBuilder@Build@Resources@Microsoft@@UBAGXZ
?GetSectionFlags@HierarchicalNamesBuilder@Build@Resources@Microsoft@@UBAGXZ
?GetSectionFlags@HierarchicalSchemaSectionBuilder@Build@Resources@Microsoft@@UBAGXZ
?GetSectionFlags@PriSectionBuilder@Build@Resources@Microsoft@@UBAGXZ
?GetSectionFlags@ResourceMapSectionBuilder@Build@Resources@Microsoft@@UBAGXZ
?GetSectionFlags@ReverseFileMapSectionBuilder@Build@Resources@Microsoft@@UBAGXZ
?GetSectionHeader@BaseFile@Resources@Microsoft@@SAPAU_DEFFILE_SECTION_HEADER@@PBU_DEFFILE_HEADER@@PBU_DEFFILE_TOC_ENTRY@@@Z
?GetSectionIndex@DataItemsSectionBuilder@Build@Resources@Microsoft@@UBAFXZ
?GetSectionIndex@DataSectionBuilder@Build@Resources@Microsoft@@UBAFXZ
?GetSectionIndex@DecisionInfoSectionBuilder@Build@Resources@Microsoft@@UBAFXZ
?GetSectionIndex@FileAtomPoolBuilder@Build@Resources@Microsoft@@UBAFXZ
?GetSectionIndex@FileListBuilder@Build@Resources@Microsoft@@UBAFXZ
?GetSectionIndex@HierarchicalNamesBuilder@Build@Resources@Microsoft@@UBAFXZ
?GetSectionIndex@HierarchicalSchemaSectionBuilder@Build@Resources@Microsoft@@UBAFXZ
?GetSectionIndex@PriSectionBuilder@Build@Resources@Microsoft@@UBAFXZ
?GetSectionIndex@ResourceMapSectionBuilder@Build@Resources@Microsoft@@UBAFXZ
?GetSectionIndex@ReverseFileMapSectionBuilder@Build@Resources@Microsoft@@UBAFXZ
?GetSectionMapping@RemapInfo@Resources@Microsoft@@QBAPAFPAF@Z
?GetSectionQualifier@DataItemsSectionBuilder@Build@Resources@Microsoft@@UBAIXZ
?GetSectionQualifier@DataSectionBuilder@Build@Resources@Microsoft@@UBAIXZ
?GetSectionQualifier@DecisionInfoSectionBuilder@Build@Resources@Microsoft@@UBAIXZ
?GetSectionQualifier@FileAtomPoolBuilder@Build@Resources@Microsoft@@UBAIXZ
?GetSectionQualifier@FileListBuilder@Build@Resources@Microsoft@@UBAIXZ
?GetSectionQualifier@HierarchicalNamesBuilder@Build@Resources@Microsoft@@UBAIXZ
?GetSectionQualifier@HierarchicalSchemaSectionBuilder@Build@Resources@Microsoft@@UBAIXZ
?GetSectionQualifier@PriSectionBuilder@Build@Resources@Microsoft@@UBAIXZ
?GetSectionQualifier@ResourceMapSectionBuilder@Build@Resources@Microsoft@@UBAIXZ
?GetSectionQualifier@ReverseFileMapSectionBuilder@Build@Resources@Microsoft@@UBAIXZ
?GetSectionStructureOverhead@BaseFile@Resources@Microsoft@@SAIXZ
?GetSectionTrailer@BaseFile@Resources@Microsoft@@SAPAU_DEFFILE_SECTION_TRAILER@@PBU_DEFFILE_SECTION_HEADER@@@Z
?GetSectionType@DataItemsSectionBuilder@Build@Resources@Microsoft@@UBA?AT_DEFFILE_SECTION_TYPEID@@XZ
?GetSectionType@DataSectionBuilder@Build@Resources@Microsoft@@UBA?AT_DEFFILE_SECTION_TYPEID@@XZ
?GetSectionType@DecisionInfoSectionBuilder@Build@Resources@Microsoft@@UBA?AT_DEFFILE_SECTION_TYPEID@@XZ
?GetSectionType@FileAtomPoolBuilder@Build@Resources@Microsoft@@UBA?AT_DEFFILE_SECTION_TYPEID@@XZ
?GetSectionType@FileListBuilder@Build@Resources@Microsoft@@UBA?AT_DEFFILE_SECTION_TYPEID@@XZ
?GetSectionType@HierarchicalNamesBuilder@Build@Resources@Microsoft@@UBA?AT_DEFFILE_SECTION_TYPEID@@XZ
?GetSectionType@HierarchicalSchemaSectionBuilder@Build@Resources@Microsoft@@UBA?AT_DEFFILE_SECTION_TYPEID@@XZ
?GetSectionType@PriSectionBuilder@Build@Resources@Microsoft@@UBA?AT_DEFFILE_SECTION_TYPEID@@XZ
?GetSectionType@ResourceMapSectionBuilder@Build@Resources@Microsoft@@UBA?AT_DEFFILE_SECTION_TYPEID@@XZ
?GetSectionType@ReverseFileMapSectionBuilder@Build@Resources@Microsoft@@UBA?AT_DEFFILE_SECTION_TYPEID@@XZ
?GetSections@FileBuilder@Build@Resources@Microsoft@@IAAPAU_SectionInfo@1234@XZ
?GetSegmentInitialChar@HierarchicalNamesConfig@Resources@Microsoft@@UBAGPBG@Z
?GetSimpleId@HierarchicalSchema@Resources@Microsoft@@UBAPBGXZ
?GetSimpleId@HierarchicalSchemaSectionBuilder@Build@Resources@Microsoft@@UBAPBGXZ
?GetSimpleId@StaticHierarchicalSchemaDescription@Resources@Microsoft@@UBAPBGXZ
?GetSmallAtom@Atom@Resources@Microsoft@@QBA?AT_DEF_ATOM_SMALL@@PAVIDefStatus@23@@Z
?GetSmallAtom@Atom@Resources@Microsoft@@QBA_NPAVIDefStatus@23@PAT_DEF_ATOM_SMALL@@@Z
?GetSmallIndex@Atom@Resources@Microsoft@@QBA_NPAVIDefStatus@23@PAG@Z
?GetSmallIndex@Atom@Resources@Microsoft@@SA_NHPAVIDefStatus@23@PAG@Z
?GetSmallPoolIndex@Atom@Resources@Microsoft@@QBA_NPAVIDefStatus@23@PAG@Z
?GetSmallPoolIndex@Atom@Resources@Microsoft@@SA_NHPAVIDefStatus@23@PAG@Z
?GetSmallPoolIndex@IAtomPool@Resources@Microsoft@@QBA_NPAVIDefStatus@23@PAG@Z
?GetStringPool@FileAtomPoolBuilder@Build@Resources@Microsoft@@QAAPAVWriteableStringPool@234@XZ
?GetStringResult@StringResultWrapper@Resources@Microsoft@@UAAPAU_DEFSTRINGRESULT@@XZ
?GetStructureOverhead@BaseFile@Resources@Microsoft@@SAII@Z
?GetSubtreeRootIndex@ResourceMapSubtree@Resources@Microsoft@@UBAHXZ
?GetTargetOsVersion@PriFile@Resources@Microsoft@@UBAPBGXZ
?GetTargetOsVersion@StandalonePriFile@Resources@Microsoft@@UBAPBGXZ
?GetToc@BaseFile@Resources@Microsoft@@QBAPBU_DEFFILE_TOC_ENTRY@@PAVIDefStatus@23@@Z
?GetToc@BaseFile@Resources@Microsoft@@SAPAU_DEFFILE_TOC_ENTRY@@PBU_DEFFILE_HEADER@@@Z
?GetTotalNumFiles@FileFileList@Resources@Microsoft@@UBAHXZ
?GetTotalNumFiles@FolderInfo@Build@Resources@Microsoft@@QBAHXZ
?GetTotalNumFolders@FileFileList@Resources@Microsoft@@UBAHXZ
?GetTotalNumFolders@FolderInfo@Build@Resources@Microsoft@@QBAHXZ
?GetTotalNumItems@ScopeInfo@Build@Resources@Microsoft@@QBAHXZ
?GetTotalNumScopes@ScopeInfo@Build@Resources@Microsoft@@QBAHXZ
?GetUInt64@Atom@Resources@Microsoft@@QBA_KXZ
?GetUniqueId@HierarchicalSchema@Resources@Microsoft@@UBAPBGXZ
?GetUniqueId@HierarchicalSchemaReference@Resources@Microsoft@@QBAPBGXZ
?GetUniqueId@HierarchicalSchemaSectionBuilder@Build@Resources@Microsoft@@UBAPBGXZ
?GetUniqueId@StaticHierarchicalSchemaDescription@Resources@Microsoft@@UBAPBGXZ
?GetUniqueName@EnvironmentReference@Resources@Microsoft@@QBAPBGXZ
?GetUniqueName@WindowsRuntimeEnvironment@Resources@Microsoft@@UBAPBGXZ
?GetVersionChecksum@EnvironmentReference@Resources@Microsoft@@UBAIXZ
?GetVersionChecksum@HierarchicalSchemaVersionInfo@Resources@Microsoft@@UBAIXZ
?GetVersionInfo@HierarchicalSchemaReference@Resources@Microsoft@@QBAPBVIHierarchicalSchemaVersionInfo@23@XZ
?GetWhat@DefStatusWrapper@Resources@Microsoft@@UBA?BKXZ
?GetWhere@DefStatusWrapper@Resources@Microsoft@@UBAPBGXZ
?HashMethodCaseInsensitive@Atom@Resources@Microsoft@@2W4DEF_ATOM_HASH_METHOD@@B
?HashMethodDefault@Atom@Resources@Microsoft@@2W4DEF_ATOM_HASH_METHOD@@B
?HashString@Atom@Resources@Microsoft@@SAIPBGPAVIDefStatus@23@@Z
?HaveCurrentSegment@HierarchicalName@Build@Resources@Microsoft@@QBA_NXZ
?HaveName@HierarchicalNameSegment@Build@Resources@Microsoft@@QBA_NXZ
?HaveNextSegment@HierarchicalName@Build@Resources@Microsoft@@QBA_NXZ
?IndexNone@Atom@Resources@Microsoft@@2HB
?Init@BaseFile@Resources@Microsoft@@IAAXXZ
?InitialLargeItemDataCapacity@DataItemsSectionBuilder@Build@Resources@Microsoft@@0HB
?InitialLargeItemSize@DataItemsSectionBuilder@Build@Resources@Microsoft@@0HB
?InitialQualifierSetsSize@DecisionBuilder@Build@Resources@Microsoft@@0HB
?InitialQualifiersSize@DecisionInfoQualifierSetBuilder@Build@Resources@Microsoft@@0HB
?InitialSmallItemDataCapacity@DataItemsSectionBuilder@Build@Resources@Microsoft@@0HB
?InitialSmallItemSize@DataItemsSectionBuilder@Build@Resources@Microsoft@@0HB
?InitialSparseSize@AtomIndexedDictionaryBase@Build@Resources@Microsoft@@1HB
?IsAbsolutePath@IStringResult@Resources@Microsoft@@QBA_NPAVIDefStatus@23@@Z
?IsAbsolutePath@StringResultWrapper@Resources@Microsoft@@QBA_NPAVIDefStatus@23@@Z
?IsAligned@BaseFile@Resources@Microsoft@@SA_NHH@Z
?IsEmpty@IStringResult@Resources@Microsoft@@QAA_NXZ
?IsEqual@Atom@Resources@Microsoft@@QBA_NT_DEF_ATOM_SMALL@@@Z
?IsEqual@Atom@Resources@Microsoft@@QBA_NU123@@Z
?IsFinalized@HierarchicalNamesBuilder@Build@Resources@Microsoft@@QBA_NXZ
?IsMapGenerated@ReverseFileMapSectionBuilder@Build@Resources@Microsoft@@ABA_NXZ
?IsNull@Atom@Resources@Microsoft@@QBA_NXZ
?IsPathSeparator@HierarchicalNamesConfig@Resources@Microsoft@@UBA_NG@Z
?IsScope@ItemInfo@Build@Resources@Microsoft@@UBA_NXZ
?IsScope@ScopeInfo@Build@Resources@Microsoft@@UBA_NXZ
?IsValid@DataItemsSectionBuilder@Build@Resources@Microsoft@@UBA_NPAVIDefStatus@34@@Z
?IsValid@DataSectionBuilder@Build@Resources@Microsoft@@UBA_NPAVIDefStatus@34@@Z
?IsValid@DecisionInfoSectionBuilder@Build@Resources@Microsoft@@UBA_NPAVIDefStatus@34@@Z
?IsValid@FileListBuilder@Build@Resources@Microsoft@@UBA_NPAVIDefStatus@34@@Z
?IsValid@HierarchicalNamesBuilder@Build@Resources@Microsoft@@UBA_NPAVIDefStatus@34@@Z
?IsValidAlignment@BaseFile@Resources@Microsoft@@SA_NIPAVIDefStatus@23@@Z
?IsValidConditionOperator@ICondition@Resources@Microsoft@@SA_NW4ConditionOperator@123@@Z
?IsValidDecisionIndex@DecisionInfoBuilder@Build@Resources@Microsoft@@QBA_NH@Z
?IsValidFileRange@IFileList@Resources@Microsoft@@IBA_NHHPAVIDefStatus@23@@Z
?IsValidFolderRange@IFileList@Resources@Microsoft@@IBA_NHHPAVIDefStatus@23@@Z
?IsValidNonNull@Atom@Resources@Microsoft@@QBA_NXZ
?IsValidOrNull@Atom@Resources@Microsoft@@QBA_NXZ
?IsValidPoolIndex@Atom@Resources@Microsoft@@SA_NH@Z
?IsValidQualifierIndex@DecisionInfoBuilder@Build@Resources@Microsoft@@QBA_NH@Z
?IsValidQualifierSetIndex@DecisionInfoBuilder@Build@Resources@Microsoft@@QBA_NH@Z
?IsValidSectionCount@BaseFile@Resources@Microsoft@@SA_NH@Z
?IsValidSectionIndex@BaseFile@Resources@Microsoft@@SA_NH@Z
?IsValidSegmentChar@HierarchicalNamesConfig@Resources@Microsoft@@UBA_NG@Z
?IsValidSmallAtom@Atom@Resources@Microsoft@@QBA_NXZ
?IsValidSmallAtomCount@Atom@Resources@Microsoft@@SA_NH@Z
?IsValidSmallAtomIndex@Atom@Resources@Microsoft@@SA_NH@Z
?IsValidSmallPoolIndex@Atom@Resources@Microsoft@@SA_NH@Z
?LoadFileFlag@BaseFile@Resources@Microsoft@@2IB
?MapFileFlag@BaseFile@Resources@Microsoft@@2IB
?Matches@FileInfoPrivateData@Build@Resources@Microsoft@@QBA_NPAV1234@PAVIDefStatus@34@@Z
?Matches@FileInfoPrivateData@Build@Resources@Microsoft@@QBA_NPBXHPAVIDefStatus@34@@Z
?MaxAtomCount@Atom@Resources@Microsoft@@2HB
?MaxAtomCountSmall@Atom@Resources@Microsoft@@2HB
?MaxAtomIndex@Atom@Resources@Microsoft@@2HB
?MaxAtomIndexSmall@Atom@Resources@Microsoft@@2HB
?MaxFallbackScore@IQualifier@Resources@Microsoft@@2GB
?MaxFileIndex@IFileList@Resources@Microsoft@@2GB
?MaxInternalDataSize@ResourceMapSectionBuilder@Build@Resources@Microsoft@@2HB
?MaxPoolCount@Atom@Resources@Microsoft@@2HB
?MaxPoolCountSmall@Atom@Resources@Microsoft@@2HB
?MaxPoolIndex@Atom@Resources@Microsoft@@2HB
?MaxPoolIndexSmall@Atom@Resources@Microsoft@@2HB
?MaxSectionCount@BaseFile@Resources@Microsoft@@2FB
?MaxSectionIndex@BaseFile@Resources@Microsoft@@2FB
?MinFallbackScore@IQualifier@Resources@Microsoft@@2GB
?MoveToRoot@ResourceMapSubtree@Resources@Microsoft@@QAA_NPAVIDefStatus@23@@Z
?NeutralOnlyDecisionIndex@IDecisionInfo@Resources@Microsoft@@2HB
?New@AtomPoolGroup@Resources@Microsoft@@SAPAV123@PAVIDefStatus@23@@Z
?New@DecisionInfoBuilder@Build@Resources@Microsoft@@SAPAV1234@PBVUnifiedEnvironment@34@PAVIDefStatus@34@@Z
?New@StaticAtomPool@Resources@Microsoft@@SAPAV123@PBQBGHPBG_NPAVIDefStatus@23@@Z
?New@WriteableStringPool@Build@Resources@Microsoft@@SAPAV1234@IPAVIDefStatus@34@@Z
?New@WriteableStringPool@Build@Resources@Microsoft@@SAPAV1234@PAGIPAVIDefStatus@34@@Z
?New@WriteableStringPool@Build@Resources@Microsoft@@SAPAV1234@PAVIDefStatus@34@@Z
?NormalizePathSlashes@IStringResult@Resources@Microsoft@@UAA_NPAVIDefStatus@23@@Z
?NullAtomIndex@Atom@Resources@Microsoft@@2HB
?NullPoolIndex@Atom@Resources@Microsoft@@2HB
?OperatorIsUnary@QualifierResult@Resources@Microsoft@@UBA_NXZ
?PadData@BaseFile@Resources@Microsoft@@SAHHH@Z
?PadSectionData@BaseFile@Resources@Microsoft@@SAHH@Z
?PathResourceValueTypeIndex@WindowsRuntimeEnvironment@Resources@Microsoft@@2HB
?PoolIndexNone@Atom@Resources@Microsoft@@2HB
?PresenceMaskWidth@RemapUInt16@Resources@Microsoft@@1HB
?RemapAtom@RemapInfo@Resources@Microsoft@@SA?AUAtom@23@PAV123@U423@PAVIDefStatus@23@@Z
?Reset@DefStatusWrapper@Resources@Microsoft@@UAAXXZ
?SectionIndexNone@BaseFile@Resources@Microsoft@@2FB
?SectionIsPresent@BaseFile@Resources@Microsoft@@QAA_NF@Z
?SectionTypesEqual@BaseFile@Resources@Microsoft@@SA_NABT_DEFFILE_SECTION_TYPEID@@0@Z
?Set@Atom@Resources@Microsoft@@QAAXHH@Z
?Set@Atom@Resources@Microsoft@@QAAXT_DEF_ATOM@@@Z
?Set@Atom@Resources@Microsoft@@QAAXU123@@Z
?Set@NamedResourceResult@Resources@Microsoft@@QAA_NPBVIRawResourceMap@23@HPAVIDefStatus@23@@Z
?SetAtomPoolGroup@FileAtomPool@Resources@Microsoft@@UAAXPAVAtomPoolGroup@23@@Z
?SetAtomPoolGroup@FileAtomPoolBuilder@Build@Resources@Microsoft@@UAAXPAVAtomPoolGroup@34@@Z
?SetByRef@HierarchicalNameSegment@Build@Resources@Microsoft@@QAA_NPBGPAVIDefStatus@34@@Z
?SetByRef@HierarchicalNameSegment@Build@Resources@Microsoft@@QAA_NPBV1234@PAVIDefStatus@34@@Z
?SetCopy@HierarchicalNameSegment@Build@Resources@Microsoft@@QAA_NPBGPAVIDefStatus@34@@Z
?SetCopy@HierarchicalNameSegment@Build@Resources@Microsoft@@QAA_NPBV1234@PAVIDefStatus@34@@Z
?SetFlag@FileInfo@Build@Resources@Microsoft@@QAAXG@Z
?SetFromInt64@Atom@Resources@Microsoft@@QAAX_J@Z
?SetFromUInt64@Atom@Resources@Microsoft@@QAAX_K@Z
?SetIndex@DecisionBuilder@Build@Resources@Microsoft@@QAAXH@Z
?SetIndex@DecisionInfoQualifierSetBuilder@Build@Resources@Microsoft@@QAAXH@Z
?SetIndex@FileInfo@Build@Resources@Microsoft@@QAAXH@Z
?SetIndex@FolderInfo@Build@Resources@Microsoft@@QAAXH@Z
?SetNameIndex@HNamesNode@Build@Resources@Microsoft@@QAAXH@Z
?SetPathByRef@HierarchicalName@Build@Resources@Microsoft@@QAA_NPBGPAVIDefStatus@34@@Z
?SetPhase@FileBuilder@Build@Resources@Microsoft@@QAA_NW4BuildPhase@234@@Z
?SetPoolIndex@FileAtomPool@Resources@Microsoft@@UAAXH@Z
?SetPoolIndex@FileAtomPoolBuilder@Build@Resources@Microsoft@@UAAXH@Z
?SetRef@IStringResult@Resources@Microsoft@@SA_NPAV123@PBGPAVIDefStatus@23@@Z
?SetSectionIndex@DataItemsSectionBuilder@Build@Resources@Microsoft@@UAAXF@Z
?SetSectionIndex@DataSectionBuilder@Build@Resources@Microsoft@@UAAXF@Z
?SetSectionIndex@DecisionInfoSectionBuilder@Build@Resources@Microsoft@@UAAXF@Z
?SetSectionIndex@FileAtomPoolBuilder@Build@Resources@Microsoft@@UAAXF@Z
?SetSectionIndex@FileListBuilder@Build@Resources@Microsoft@@UAAXF@Z
?SetSectionIndex@HierarchicalNamesBuilder@Build@Resources@Microsoft@@UAAXF@Z
?SetSectionIndex@HierarchicalSchemaSectionBuilder@Build@Resources@Microsoft@@UAAXF@Z
?SetSectionIndex@PriSectionBuilder@Build@Resources@Microsoft@@UAAXF@Z
?SetSectionIndex@ResourceMapSectionBuilder@Build@Resources@Microsoft@@UAAXF@Z
?SetSectionIndex@ReverseFileMapSectionBuilder@Build@Resources@Microsoft@@UAAXF@Z
?Size@RemapUInt16@Resources@Microsoft@@QBAHXZ
?StringResourceValueTypeIndex@WindowsRuntimeEnvironment@Resources@Microsoft@@2HB
?Succeeded@DefStatusWrapper@Resources@Microsoft@@UBA_NXZ
?ToDoubleScore@IQualifier@Resources@Microsoft@@SANGPAVIDefStatus@23@@Z
?ToItem@HNamesNode@Build@Resources@Microsoft@@UAAPAVItemInfo@234@XZ
?ToItem@ItemInfo@Build@Resources@Microsoft@@UAAPAV1234@XZ
?ToItem@ScopeInfo@Build@Resources@Microsoft@@UAAPAVItemInfo@234@XZ
?ToScope@HNamesNode@Build@Resources@Microsoft@@UAAPAVScopeInfo@234@XZ
?ToScope@ScopeInfo@Build@Resources@Microsoft@@UAAPAV1234@XZ
?ToUint16Score@IQualifier@Resources@Microsoft@@SAGNPAVIDefStatus@23@@Z
?TruncData@BaseFile@Resources@Microsoft@@SAHHH@Z
?TryGetAtom@IAtomPool@Resources@Microsoft@@UBA_NHPAVIDefStatus@23@PAUAtom@23@@Z
?TryGetItemInfo@HierarchicalSchema@Resources@Microsoft@@UBA_NHPAVIDefStatus@23@PAVIStringResult@23@@Z
?TryGetItemLocalName@HierarchicalSchema@Resources@Microsoft@@UBA_NHPAVIDefStatus@23@PAVIStringResult@23@@Z
?TryGetName@HierarchicalSchema@Resources@Microsoft@@QBA_NHHPAVIDefStatus@23@PAVIStringResult@23@PAH2@Z
?TryGetName@HierarchicalSchema@Resources@Microsoft@@QBA_NHPAVIDefStatus@23@PAVIStringResult@23@PAH2@Z
?TryGetNext@FileInfoPrivateData@Build@Resources@Microsoft@@QBA_NPBXPAVIDefStatus@34@PAPAV1234@@Z
?TryGetPrivateData@FileInfo@Build@Resources@Microsoft@@QBA_NPBXPAVIDefStatus@34@PAPAVFileInfoPrivateData@234@@Z
?TryGetRelativeItemName@HierarchicalSchema@Resources@Microsoft@@UBA_NHHPAVIDefStatus@23@PAVIStringResult@23@@Z
?TryGetRelativeScopeName@HierarchicalSchema@Resources@Microsoft@@UBA_NHHPAVIDefStatus@23@PAVIStringResult@23@@Z
?TryGetScopeChild@HierarchicalSchema@Resources@Microsoft@@UBA_NHHPAVIDefStatus@23@PAH1@Z
?TryGetScopeChildName@HierarchicalSchema@Resources@Microsoft@@UBA_NHHPAVIDefStatus@23@PAVIStringResult@23@@Z
?TryGetScopeInfo@HierarchicalSchema@Resources@Microsoft@@UBA_NHPAVIDefStatus@23@PAVIStringResult@23@PAH@Z
?TryGetSmallAtom@Atom@Resources@Microsoft@@QBA_NPAT_DEF_ATOM_SMALL@@@Z
?TryRemapAtom@RemapInfo@Resources@Microsoft@@SA_NPAV123@UAtom@23@PAVIDefStatus@23@PAU423@@Z
?UnconditionalQualifierSetIndex@IDecisionInfo@Resources@Microsoft@@2HB
?UseDataItemLocator@MrmBuildConfiguration@Build@Resources@Microsoft@@QBA_NXZ
?UseDataItemLocatorFlag@MrmBuildConfiguration@Build@Resources@Microsoft@@2IB
?UseFileInfoLocator@MrmBuildConfiguration@Build@Resources@Microsoft@@QBA_NXZ
?UseFileInfoLocatorFlag@MrmBuildConfiguration@Build@Resources@Microsoft@@2IB
?UseInstanceLocator@MrmBuildConfiguration@Build@Resources@Microsoft@@QBA_NXZ
?UseInstanceLocatorFlag@MrmBuildConfiguration@Build@Resources@Microsoft@@2IB
?ValidFlags@BaseFile@Resources@Microsoft@@2IB
?fCompareCaseInsensitive@WriteableStringPool@Build@Resources@Microsoft@@2IB
?fCompareDefault@WriteableStringPool@Build@Resources@Microsoft@@2IB
?fExternalBuffer@WriteableStringPool@Build@Resources@Microsoft@@1IB
?maxListBufferSize@DataBlobBuilder@Build@Resources@Microsoft@@1IB
CreateApplicabilityContext
FreeApplicabilityContext
FreeApplicablePackages
GetApplicablePackages
GetApplicablePackagesForUser
