;
; Definition file of Bcp47Langs.dll
; Automatic generated by gendef
; written by Kai Tietz 2008-2014
;
LIBRARY "Bcp47Langs.dll"
EXPORTS
??0CLanguage@Internal@Windows@@QAA@ABV012@@Z
??0CLanguage@Internal@Windows@@QAA@PAUHKL__@@@Z
??0CLanguage@Internal@Windows@@QAA@PBG@Z
??0CLanguage@Internal@Windows@@QAA@XZ
??0CLanguage@Internal@Windows@@QAA@_K@Z
??0CLanguagesListFactory@Internal@Windows@@AAA@XZ
??0CRegion@Internal@Windows@@QAA@I@Z
??0CRegion@Internal@Windows@@QAA@PBG@Z
??1CLanguage@Internal@Windows@@UAA@XZ
??1CLanguagesListFactory@Internal@Windows@@AAA@XZ
??1CRegion@Internal@Windows@@QAA@XZ
??4CLanguage@Internal@Windows@@IAAAAV012@ABV012@@Z
??4CLanguagesListFactory@Internal@Windows@@QAAAAV012@ABV012@@Z
??4CRegion@Internal@Windows@@QAAAAV012@ABV012@@Z
??8CLanguage@Internal@Windows@@QBA_NABV012@@Z
??8CRegion@Internal@Windows@@QBA_NABV012@@Z
??8CRegion@Internal@Windows@@QBA_NI@Z
??BCLanguage@Internal@Windows@@QBA?AUBcp47TagSubtagsInfo@12@XZ
??BCLanguage@Internal@Windows@@QBA_KXZ
??_7CLanguage@Internal@Windows@@6B@ DATA
?CheckLanguageRegionAffinity@CLanguage@Internal@Windows@@QBAJABV123@PAH@Z
?CloseAppKey@CLanguagesListFactory@Internal@Windows@@CAXPBGPAUHKEY__@@PAX@Z
?Compare@CLanguage@Internal@Windows@@QBAJABV123@PAN@Z
?Compare@CLanguage@Internal@Windows@@QBAJPBGPAN@Z
?Compare@CRegion@Internal@Windows@@QBAJABV123@PAN@Z
?CompareUsingAny@CLanguage@Internal@Windows@@QBAJABV123@PAN@Z
?CompareUsingAny@CLanguage@Internal@Windows@@QBAJPBGPAN@Z
?CreateInstance@CLanguagesList@Internal@Windows@@SAJPBGPAPBV123@@Z
?FindClosestInList@CLanguage@Internal@Windows@@QBAJPBGW4BCP47_COMPARISON_ALGORITHM@23@PAPBGPAN@Z
?GetAbbreviation@CLanguage@Internal@Windows@@QBAJIPAGPAI@Z
?GetApplicationLanguageOverride@CLanguagesListFactory@Internal@Windows@@SAJPBGPAG@Z
?GetApplicationLanguages@CLanguagesListFactory@Internal@Windows@@SAJPBGPAPBVCLanguagesList@23@@Z
?GetApplicationLanguagesAsHTTPAccept@CLanguagesListFactory@Internal@Windows@@SAJPBGPAPAG@Z
?GetApplicationLanguagesAsMUI@CLanguagesListFactory@Internal@Windows@@SAJPBG_NPAPAG@Z
?GetCompositeRegionCode@CRegion@Internal@Windows@@QBAIXZ
?GetCompositeRegionCode@CRegion@Internal@Windows@@SAII@Z
?GetDirectionality@CLanguage@Internal@Windows@@QBAJPAW4BCP47_SCRIPT_DIRECTIONALITY@23@@Z
?GetIso15924Code@CLanguage@Internal@Windows@@QBAJIPAGPAI@Z
?GetIso3166Code@CLanguage@Internal@Windows@@QBAJIPAGPAI@Z
?GetIso639Code@CLanguage@Internal@Windows@@QBAJIPAGPAI@Z
?GetSubtagFields@CLanguage@Internal@Windows@@QBAJW4BCP47_SUBTAG_FLAGS@23@IPAGPAI@Z
?GetSubtagFields@CLanguage@Internal@Windows@@QBAJW4BCP47_SUBTAG_FLAGS@23@PAG@Z
?GetSubtagsMap@CLanguage@Internal@Windows@@QBA?AW4BCP47_SUBTAG_FLAGS@23@XZ
?GetUN_M49Code@CLanguage@Internal@Windows@@QBAJIPAGPAI@Z
?GetUserLanguages@CLanguagesListFactory@Internal@Windows@@SAJPAPBVCLanguagesList@23@@Z
?Initialize@CLanguage@Internal@Windows@@IAAJPBG@Z
?IsPseudoLanguage@CLanguage@Internal@Windows@@QBA_NXZ
?IsValidRegionTag@CRegion@Internal@Windows@@QAA_NXZ
?IsValidRegionTag@CRegion@Internal@Windows@@SA_NPBG@Z
?IsValidTag@CLanguage@Internal@Windows@@QBA_NXZ
?IsValidTag@CLanguage@Internal@Windows@@SA_NPBG@Z
?IsWellFormedTag@CLanguage@Internal@Windows@@QBA_NXZ
?IsWellFormedTag@CLanguage@Internal@Windows@@SA_NPBG@Z
?LanguageListToStringWrapper@CLanguagesListFactory@Internal@Windows@@CAJPBVCLanguagesList@23@W4BCP47_SUBTAG_FLAGS@23@PAIPAPAG@Z
?OpenAppKey@CLanguagesListFactory@Internal@Windows@@CAJPBGPAPAUHKEY__@@PAPAX@Z
?ParseTag@CLanguage@Internal@Windows@@IAA_NPBG@Z
?SetApplicationLanguageOverride@CLanguagesListFactory@Internal@Windows@@SAJPBGPBVCLanguage@23@@Z
?SetApplicationManifestLanguages@CLanguagesListFactory@Internal@Windows@@SAJPBGPBVCLanguagesList@23@@Z
?TryFindFirstInList@CLanguage@Internal@Windows@@QBAJPBGW4BCP47_CLOSENESS_MEASURE@23@PAPBG@Z
?TryFindRegionId@CRegion@Internal@Windows@@CAIPBG@Z
?ValidateTag@CLanguage@Internal@Windows@@IAA_NPBG@Z
?ValidateTagAndInitialize@CLanguage@Internal@Windows@@IAA_NPBG@Z
AppendUserLanguageInputMethods
AppendUserLanguageInternal
AppendUserLanguages
Bcp47BufferFromLcid
Bcp47FromCompactTagInternal
Bcp47FromHkl
Bcp47FromLcid
Bcp47GetAbbreviation
Bcp47GetDirectionality
Bcp47GetDistance
Bcp47GetExtensionSingletons
Bcp47GetExtensionSubstring
Bcp47GetIsoLanguageCode
Bcp47GetIsoScriptCode
Bcp47GetLanguageName
Bcp47GetMuiForm
Bcp47GetNeutralForm
Bcp47GetNlsForm
Bcp47GetSubtagMapInternal
Bcp47GetUnIsoRegionCode
Bcp47IsInstalledAndLicensedAsSystemLanguage
Bcp47IsValid
Bcp47IsWellFormed
Bcp47Normalize
Bcp47RequiresTransientLcid
ClearApplicationLanguageOverride
ClearApplicationManifestLanguages
ClearHttpAcceptLanguageOptOut
ClearUserDisplayLanguageOverride
ClearUserLocaleFromLanguageProfileOptOut
CompactTagFromBcp47Internal
FilterLanguageListOnInstalledMuiLanguages
GetApplicationLanguageOverride
GetApplicationLanguages
GetApplicationLayoutDirection
GetApplicationManifestLanguages
GetAppropriateUserLocaleForUserLanguages
GetAvailableTransientLcidCount
GetHttpAcceptLanguageOptOut
GetInputMethodOverrideForUser
GetPendingUserDisplayLanguage
GetSerializedUserLanguageProfile
GetUserDisplayLanguageOverride
GetUserLanguageInputMethods
GetUserLanguageInputMethodsForUser
GetUserLanguages
GetUserLanguagesForUser
GetUserLocaleFromLanguageProfileOptOut
IsTransientLcid
IsValidBcp47RegionSubtag
LanguageListAsHttpAcceptHeader
LanguageListAsMuiForm
LcidFromBcp47
RemoveInputsForAllLanguagesInternal
RemoveUserLanguageInputMethods
ResolveLanguages
SetApplicationLanguageOverride
SetApplicationManifestLanguages
SetHttpAcceptLanguageOptOut
SetInputMethodOverride
SetUserDisplayLanguageOverride
SetUserLanguageInputMethods
SetUserLanguagesInternal
SetUserLocaleFromLanguageProfileOptOut
SqmLanguageProfileData
