;
; Definition file of BDEHDCFGLIB.dll
; Automatic generated by gendef
; written by Kai Tietz 2008-2014
;
LIBRARY "BDEHDCFGLIB.dll"
EXPORTS
??0CBcdStore@@IAA@XZ
??0CBcdStore@@QAA@ABV0@@Z
??0CBcdWmiWrapper@@IAA@XZ
??0CBcdWmiWrapper@@QAA@ABV0@@Z
??0CBdeCfgLibraryLoader@@QAA@XZ
??0CDriveConfiguration@@QAA@XZ
??1CBcdStore@@UAA@XZ
??1CBcdWmiWrapper@@MAA@XZ
??1CBdeCfgLibraryLoader@@QAA@XZ
??1CDriveConfiguration@@QAA@XZ
??4CBcdStore@@QAAAAV0@ABV0@@Z
??4CBcdWmiWrapper@@QAAAAV0@ABV0@@Z
??4CBdeCfgLibraryLoader@@QAAAAV0@ABV0@@Z
??4CDriveConfiguration@@QAAAAV0@ABV0@@Z
??_7CBcdStore@@6B@ DATA
??_7CBcdWmiWrapper@@6B@ DATA
?ActionRequiresCreate@CDriveConfiguration@@QAA_NXZ
?ActionRequiresMerge@CDriveConfiguration@@QAA_NXZ
?ActionRequiresShrink@CDriveConfiguration@@QAA_NXZ
BdeCfgCalculateSizeRequirements
BdeCfgCanCreateActivePartOnDisk
BdeCfgCheckAndGetBootVolume
BdeCfgCheckGPTRecoveryPartition
BdeCfgCheckVolumeAsCandidate
BdeCfgCleanupOldBootFiles
BdeCfgCountGPTPartitions
BdeCfgCreateWinREPartitionGPT
BdeCfgDetectWinRESize
BdeCfgDetectWinREVolumeName
BdeCfgDisableWinRE
BdeCfgFindBasicVolumeExtent
BdeCfgFindCandidateVolumes
BdeCfgFindGPTRecoveryPartitionCandidate
BdeCfgFindLargestUnallocatedExtent
BdeCfgFindRecoveryPartitionGPT
BdeCfgFindVolumeWithName
BdeCfgFindVolumeWithProp
BdeCfgGetBootVolume
BdeCfgGetDeviceNameFromVolume
BdeCfgGetMaxShrinkSize
BdeCfgGetNtfsVolumeSize
BdeCfgGetVolumeDisk
BdeCfgGetVolumeDriveLetter
BdeCfgGetVolumeFromId
BdeCfgInitialize
BdeCfgIsDiskConfiguredForBitLocker
BdeCfgIsElevated
BdeCfgIsWinREOnOSVolume
BdeCfgLoadErrorString
BdeCfgLoadResourceString
BdeCfgMigrateBootHive
BdeCfgMoveWinRE
BdeCfgRestart
BdeCfgSecureFormatPartition
BdeCfgShrinkSimpleVolume
BdeCfgUninitialize
?CancelConfiguration@CDriveConfiguration@@QAAJXZ
?CancelConfigurationEntry@CDriveConfiguration@@CAXPAX@Z
?CancelConfiguration_Thread@CDriveConfiguration@@AAAJXZ
?Cleanup@CDriveConfiguration@@AAAXXZ
?ConfigureDrive@CDriveConfiguration@@QAAJXZ
?CreateClass@CBcdStore@@SAJPAPAV1@@Z
?CreateInParams@CBcdWmiWrapper@@IAAJPBGPAPAUIWbemClassObject@@@Z
?DetectTargetDrive@CDriveConfiguration@@AAAJPAUIVdsVolume@@@Z
?DriveConfigurationEntry@CDriveConfiguration@@CAXPAX@Z
?ExecuteMethod@CBcdWmiWrapper@@IAAJPBGPAUIWbemClassObject@@PAPAU2@@Z
?ExportSystemStore@CBcdStore@@QAAJPBG@Z
?GetActionType@CDriveConfiguration@@QAA?AW4BDECFG_ACTION_TYPE@@XZ
?GetConfigurationResult@CDriveConfiguration@@QAAJXZ
?GetInitializationResult@CDriveConfiguration@@QAAJXZ
?GetNamespace@CBcdWmiWrapper@@IAAPAUIWbemServices@@XZ
?GetNewDriveLetter@CDriveConfiguration@@QAAGXZ
?GetNumberOfSteps@CDriveConfiguration@@QAAKXZ
?GetShrinkSize@CDriveConfiguration@@QAA_KXZ
?GetStepExecutionOrder@CDriveConfiguration@@QAAKW4_BDECFG_STEP_ID@@@Z
?GetTargetDiskNumber@CDriveConfiguration@@QAAKXZ
?GetTargetDriveLetter@CDriveConfiguration@@QAAGXZ
?GetTargetPartitionNumber@CDriveConfiguration@@QAAKXZ
?GetTargetPartitionSize@CDriveConfiguration@@QAA_KXZ
?ImportSystemStore@CBcdStore@@QAAJPBG@Z
?Initialize@CDriveConfiguration@@QAAJPBU_BDECFG_PARAMS@@QAU_BDECFG_SIZE_REQUIREMENTS@@PAVIConfigurationProgress@@@Z
?InitializeAndHoldLibrary@CBdeCfgLibraryLoader@@AAAJXZ
?InitializeAndHoldLibraryEntry@CBdeCfgLibraryLoader@@CAXPAX@Z
?InitializeAndHoldLibrary_Thread@CBdeCfgLibraryLoader@@AAAJXZ
?InitializeClass@CBcdWmiWrapper@@IAAJPBG@Z
?InitializeEntry@CDriveConfiguration@@CAXPAX@Z
?InitializeFromParams@CDriveConfiguration@@AAAJPAUIVdsVolume@@@Z
?InitializeInstance@CBcdWmiWrapper@@IAAJPAUIWbemServices@@PAUIWbemClassObject@@@Z
?InitializeNamespace@CBcdWmiWrapper@@AAAJXZ
?Initialized@CDriveConfiguration@@QAA_NXZ
?IsMergeTargetWinRE@CDriveConfiguration@@QAAJPAH@Z
?LibraryLoaded@CBdeCfgLibraryLoader@@QAA_NXZ
?Load@CBdeCfgLibraryLoader@@QAAJXZ
?OpenStore@CBcdStore@@QAAJPBGPAPAV1@@Z
?QueryStepPercentComplete@CDriveConfiguration@@QAAJPAK@Z
?RemapObjectDevices@CBcdStore@@QAAJPBG0@Z
?SetConfigurationStep@CDriveConfiguration@@AAAJW4_BDECFG_STEP_ID@@@Z
?Thread_ConfigureDrive@CDriveConfiguration@@AAAJXZ
?Thread_Initialize@CDriveConfiguration@@AAAJXZ
?Unload@CBdeCfgLibraryLoader@@QAAXXZ
BdeCfgLogCandidateDrive
BdeCfgLogClose
BdeCfgLogCommandLineParams
BdeCfgLogDetectedWinRE
BdeCfgLogEnumExtent
BdeCfgLogError
BdeCfgLogFailedTarget
BdeCfgLogFoundUnallocatedExtent
BdeCfgLogInit
BdeCfgLogWarning
