;
; Definition file of bitsperf.dll
; Automatic generated by gendef
; written by Kai Tietz 2008-2014
;
LIBRARY "bitsperf.dll"
EXPORTS
??0CPerfMon@@QAA@PAGPAU_PERF_ITEM@0@@Z
??1CPerfMon@@QAA@XZ
??4CPerfMon@@QAAAAV0@ABV0@@Z
?CalcBytesForPerfObject@CPerfMon@@ABAKPAU__OBJECT_ORD@1@@Z
?CalcPerfMetrics@CPerfMon@@ABAXPAU__OBJECT_ORD@1@PAU__INSTANCE_ID@1@PAU_PERF_METRICS@1@PAPAU_PERF_ITEM@1@@Z
?Collect@CPerfMon@@QAAKPAGPAPAEPAK2@Z
?CollectAllObjects@CPerfMon@@ABAKPAGPAPAEPAK2@Z
?CollectAnObject@CPerfMon@@ABAKPAU__OBJECT_ORD@1@PAPAE@Z
?ConvertInstIdToInUseInstId@CPerfMon@@ABAHPAU__OBJECT_ORD@1@PAU__INSTANCE_ID@1@@Z
?CounterIdToObjectOrd@CPerfMon@@ABAPAU__OBJECT_ORD@1@PAU__COUNTER_ID@1@PAH@Z
?CounterIdToPerfItem@CPerfMon@@ABAPAU_PERF_ITEM@1@PAU__COUNTER_ID@1@@Z
?CounterIdToPerfItemIndex@CPerfMon@@ABAHPAU__COUNTER_ID@1@PAH@Z
?CounterOrdToPerfItem@CPerfMon@@ABAPAU_PERF_ITEM@1@PAU__OBJECT_ORD@1@PAU__COUNTER_ORD@1@@Z
?DetermineObjectsToCollect@CPerfMon@@ABAXPAU__OBJECT_ORD@1@@Z
?GetCounter32@CPerfMon@@QAAPAJPAU__COUNTER_ID@1@PAU__INSTANCE_ID@1@@Z
?GetCounter64@CPerfMon@@QAAPA_JPAU__COUNTER_ID@1@PAU__INSTANCE_ID@1@@Z
?GetCounter@CPerfMon@@AAAPAEPAU__COUNTER_ID@1@PAU__INSTANCE_ID@1@@Z
?HowManyInstancesAreInUse@CPerfMon@@ABAHPAU__OBJECT_ORD@1@@Z
?IdToPerfItemIndex@CPerfMon@@ABAHHK@Z
?Initialize@CPerfMon@@QAAKH@Z
?InitializePerfMon@CPerfMon@@AAAKH@Z
?IsValidInstId@CPerfMon@@ABAHPAU__OBJECT_ORD@1@PAU__INSTANCE_ID@1@@Z
?IsValidObjOrd@CPerfMon@@ABAHPAU__OBJECT_ORD@1@@Z
?ObjectIdToObjectOrd@CPerfMon@@ABAPAU__OBJECT_ORD@1@PAU__OBJECT_ID@1@@Z
?ObjectIdToPerfItem@CPerfMon@@ABAPAU_PERF_ITEM@1@PAU__OBJECT_ID@1@@Z
?ObjectIdToPerfItemIndex@CPerfMon@@ABAHPAU__OBJECT_ID@1@@Z
?ObjectOrdToPerfItem@CPerfMon@@ABAPAU_PERF_ITEM@1@PAU__OBJECT_ORD@1@@Z
?ObjectOrdToPerfItemIndex@CPerfMon@@ABAHPAU__OBJECT_ORD@1@@Z
?VerifyPerfItemTable@CPerfMon@@AAAKXZ
PerfMon_Close
PerfMon_Collect
PerfMon_Open
