;
; Definition file of DMDskMgr.dll
; Automatic generated by gendef
; written by Kai Tietz 2008-2014
;
LIBRARY "DMDskMgr.dll"
EXPORTS
??0CDataCache@@QAA@XZ
??1CDMNodeObj@@QAA@XZ
??1CDataCache@@UAA@XZ
?AddFileSystemInfoToCache@CDataCache@@QAAXKPAUfilesysteminfo@@@Z
?AddFileSystemInfoToListAndMap@CDataCache@@QAAXKPAUfilesysteminfo@@@Z
?AddLDMObjMapEntry@CDataCache@@QAAXPAU_LDM_OBJ_MAP_ENTRY@@@Z
?AddRegionToVolumeMemberList@CDataCache@@QAAXPAVCDMNodeObj@@@Z
?AddRow@CDMComponentData@@QAAXPAVCDMScopeNode@@J@Z
?AdjustRegionCountInLegendList@CDataCache@@QAAXW4_REGIONTYPE@@HPAVCTaskData@@@Z
?AdjustVolumeCountInLegendList@CDataCache@@QAAXW4_VOLUMELAYOUT@@HPAVCTaskData@@@Z
?CanHaveGPT@CDMNodeObj@@QAAHXZ
?ChangeRow@CDMComponentData@@QAAXPAVCDMScopeNode@@J@Z
?Command@CContextMenu@@QAAJJPAUIDataObject@@J@Z
?CompareDiskNames@@YAHJJ@Z
?ContainsActivePartition@CDMNodeObj@@QAAHXZ
?ContainsBootIniPartition@CDMNodeObj@@QAAHXZ
?ContainsBootIniPartitionForWolfpack@CDMNodeObj@@QAAHXZ
?ContainsBootVolumesNumberChange@CDMNodeObj@@QAAH_JPAH@Z
?ContainsESPPartition@CDMNodeObj@@QAAHXZ
?ContainsFVEPartition@CDMNodeObj@@QAAHXZ
?ContainsLogicalDrvBootPartition@CDMNodeObj@@QAAHXZ
?ContainsPageFile@CDMNodeObj@@QAAHXZ
?ContainsRealSystemPartition@CDMNodeObj@@QAAHXZ
?ContainsSubDiskNeedResync@CDMNodeObj@@QAAHXZ
?ContainsSystemInformation@CDMNodeObj@@QAAHXZ
?ContainsSystemPartition@CDMNodeObj@@QAAHXZ
?ConvertBytesToMB@@YA_J_J@Z
?ConvertMBToBytes@@YA_J_J@Z
?CookieSort@@YAXPAJIIIP6AHJJ@Z@Z
?CreateDiskList@CDataCache@@QAAXXZ
?CreateNodeObjAndAddToMap@CDataCache@@QAAPAVCDMNodeObj@@HW4_NODEOBJ_TYPES@@PAV1@PAX_J@Z
?CreateRegionNodeObj@CDataCache@@QAAPAVCDMNodeObj@@PAV2@PAUregioninfoex@@@Z
?CreateShortDiskName@CDataCache@@QAAXAAUdiskinfoex@@@Z
?CreateVolumeList@CDataCache@@QAAXXZ
?DeleteDiskGroupData@CDataCache@@QAAXPAUDISK_GROUP_DATA@@@Z
?DeleteEncapsulateData@CDataCache@@QAAXPAUENCAPSULATE_DATA@@@Z
?DeleteLists@CDataCache@@QAAXXZ
?DeleteRegionFromVolumeMemberList@CDataCache@@QAAXPAVCDMNodeObj@@@Z
?DeleteRow@CDMComponentData@@QAAXPAVCDMScopeNode@@J@Z
?DoDelete@CContextMenu@@QAAXJ@Z
?DoRevertToNT4@CContextMenu@@QAAXJH@Z
?EmptyOcxViewData@CDMComponentData@@QAAXPAVCDMScopeNode@@@Z
?EnhancedIsUpgradeable@CDMNodeObj@@QAAHPAVCTaskData@@@Z
?EnumDiskRegions@CDMNodeObj@@QAAXPAPAJAAJ@Z
?EnumDisks@CTaskData@@QAAXAAKPAPAJ@Z
?EnumFirstVolumeMember@CDMNodeObj@@QAAXAAJ0@Z
?EnumNTFSwithDriveLetter@CDataCache@@QAAXPAHPAPAG@Z
?EnumNTFSwithDriveLetter@CTaskData@@QAAXPAHPAPAG@Z
?EnumVolumeMembers@CDMNodeObj@@QAAXPAPAJAAJ@Z
?EnumVolumes@CTaskData@@QAAXAAKPAPAJ@Z
?FillDeviceInstanceId@CDataCache@@QAAXPAG0@Z
?FilterCookiesBigEnoughForFTRepair@CTaskData@@QAAXAAKPAJPAPAJ_JPAVCDMNodeObj@@@Z
?FilterCookiesBigEnoughForRAID5Repair@CTaskData@@QAAXAAKPAJPAPAJ_JPAVCDMNodeObj@@@Z
?FindCookieAndRemoveFromList@CDataCache@@QAAHJPAV?$CList@PAVCDMNodeObj@@PAV1@@@@Z
?FindDeviceInstanceId@CDataCache@@QAAPAG_J@Z
?FindDiskPtrFromDiskId@CDataCache@@QAAH_JPAPAVCDMNodeObj@@@Z
?FindDriveLetter@CDataCache@@QAAH_JAAG@Z
?FindDriveLetter@CTaskData@@QAAX_JAAG@Z
?FindDriveLetterHelper@@YAHPAUdriveletterinfo@@H_JAAG@Z
?FindFileSystem@CDataCache@@QAAH_JAAUfilesysteminfo@@@Z
?FindFileSystem@CTaskData@@QAAH_JAAUfilesysteminfo@@@Z
?FindRegionPtrFromRegionId@CDataCache@@QAAH_JPAPAVCDMNodeObj@@@Z
?FindRegionPtrFromRegionId@CTaskData@@QAAH_JPAPAVCDMNodeObj@@@Z
?FindRegionPtrOnDiskFromRegionId@CDataCache@@QAAHPAVCDMNodeObj@@_JPAPAV2@AAPAU__POSITION@@@Z
?GetAssignedDriveLetter@CTaskData@@QAAHJAAG@Z
?GetBootPort@CDataCache@@QAAHXZ
?GetBootPort@CTaskData@@QAAHXZ
?GetColorRef@CDMNodeObj@@QAAKXZ
?GetComponentData@CDataCache@@QAAPAVCDMComponentData@@XZ
?GetDMDataObjPtrFromId@CTaskData@@QAAPAVCDMNodeObj@@_J@Z
?GetDeviceAttributes@CDMNodeObj@@QAAKXZ
?GetDeviceState@CDMNodeObj@@QAAKXZ
?GetDeviceType@CDMNodeObj@@QAAKXZ
?GetDiskCookies@CDataCache@@IAAXAAKPAPAJ@Z
?GetDiskCookies@CTaskData@@QAAXAAKPAPAJHKH@Z
?GetDiskCookiesForAddMirror@CTaskData@@QAAXJAAKPAPAJ@Z
?GetDiskCookiesForCreateVolume@CTaskData@@QAAXAAKPAPAJ@Z
?GetDiskCookiesForExtendVolume@CTaskData@@QAAXJAAKPAPAJ@Z
?GetDiskCookiesForSig@CTaskData@@QAAXAAKPAPAJ@Z
?GetDiskCookiesForUpgrade@CTaskData@@QAAXAAKPAPAJ@Z
?GetDiskCookiesToEncap@CTaskData@@QAAXAAKPAPAJ@Z
?GetDiskCookiesWithFreeSpace@CTaskData@@QAAXAAKPAPAJ@Z
?GetDiskCount@CDataCache@@QAAKXZ
?GetDiskInfo@CDMNodeObj@@QAAHAAUdiskinfoex@@@Z
?GetDiskInfoFromVolCookie@CTaskData@@QAAXJAAHAAKPAPAJKH@Z
?GetDiskSpec@CDMNodeObj@@QAAHAAUdiskspec@@@Z
?GetDiskStatus@CDMNodeObj@@QAAHAAVCString@@@Z
?GetDiskStatusHelper@@YAHPAUdiskinfoex@@AAVCString@@H@Z
?GetDiskTypeName@CDMNodeObj@@QAAXAAVCString@@@Z
?GetDiskTypeNameHelper@@YAXPAUdiskinfoex@@AAVCString@@G@Z
?GetDriveLetter@CDMNodeObj@@QAAXAAG@Z
?GetDriveLetters@CDataCache@@IAAXAAFPAPAGG@Z
?GetDriveLetters@CTaskData@@QAAXAAFPAPAGG@Z
?GetExtendedRegionColor@CDMNodeObj@@QAAKXZ
?GetExtraRegionStatus@CDMNodeObj@@QAAHAAVCString@@H@Z
?GetFileSystemLabel@CDMNodeObj@@QAAXAAVCString@@@Z
?GetFileSystemName@CDMNodeObj@@QAAXAAVCString@@@Z
?GetFileSystemSize@CDMNodeObj@@QAAXAAJ@Z
?GetFileSystemType@CDMNodeObj@@QAAHXZ
?GetFileSystemTypes@CDataCache@@QAAXAAKPAPAUifilesysteminfo@@@Z
?GetFileSystemTypes@CTaskData@@QAAXAAKPAPAUifilesysteminfo@@@Z
?GetFlags@CDMNodeObj@@QAAJXZ
?GetIVolumeClientVersion@CDMNodeObj@@QAAFXZ
?GetIVolumeClientVersion@CTaskData@@QAAFXZ
?GetIconId@CDMNodeObj@@QAAIH@Z
?GetImageNum@CDMNodeObj@@QAAHXZ
?GetLastKnownState@CDataCache@@QAA_J_J@Z
?GetLayoutType@CDMNodeObj@@QAA?AW4_LAYOUT_TYPES@@XZ
?GetLdmObjectId@CDMNodeObj@@QAA_JXZ
?GetLogicalDriveCount@CDMNodeObj@@QAAKXZ
?GetLongName@CDMNodeObj@@QAAXAAVCString@@H@Z
?GetMMCWindow@CDMComponentData@@QAAPAUHWND__@@XZ
?GetMaxAdjustedFreeSize@CDMNodeObj@@QAAXAA_J@Z
?GetMaxPartitionCount@CDMNodeObj@@QAAKXZ
?GetMinMaxPartitionSizes@CDataCache@@IAAXJAA_J0@Z
?GetMinMaxPartitionSizes@CTaskData@@QAAXJAA_J0@Z
?GetName@CDMNodeObj@@QAAXAAVCString@@@Z
?GetNumMembers@CDMNodeObj@@QAAKXZ
?GetNumRegions@CDMNodeObj@@QAAKXZ
?GetObjectId@CDMNodeObj@@QAAXAA_J@Z
?GetOcxFrameCWndPtr@CTaskData@@QAAPAVCWnd@@XZ
?GetOfflineReasonText@CDMNodeObj@@QAAHAAVCString@@@Z
?GetOtherDisksFromVolCookie@CTaskData@@QAAXJAAKPAPAJ@Z
?GetParentDiskPtr@CDMNodeObj@@QAAPAV1@XZ
?GetParentVolumePtr@CDMNodeObj@@QAAPAV1@XZ
?GetPartitionStyle@CDMNodeObj@@QAA?AW4_PARTITIONSTYLE@@XZ
?GetPartitionStyleString@CDMNodeObj@@QAAXAAVCString@@H@Z
?GetPartitionStyleStringHelper@@YAXW4_PARTITIONSTYLE@@AAVCString@@HKKH@Z
?GetPatternRef@CDMNodeObj@@QAAHXZ
?GetPort@CDMNodeObj@@QAAHXZ
?GetPrimaryPartitionCount@CDMNodeObj@@QAAKXZ
GetPropertyPageData
?GetRegionByOffset@CDMNodeObj@@QAAPAV1@_J@Z
?GetRegionColorStructPtr@CTaskData@@QAAXPAPAU_REGION_COLORS@@AAH@Z
?GetRegionInfo@CDMNodeObj@@QAAHAAUregioninfoex@@@Z
?GetResultPane@CDMSnapin@@QAAHJPAPAVCDMResultPane@@@Z
?GetResultStringArray@CDMNodeObj@@QAAHAAVCStringArray@@@Z
?GetScopeNode@CDMScopeNodeCollection@@QAAHJPAPAVCDMScopeNode@@@Z
?GetScopeNodeForResultPane@CDMComponentData@@QAAHJPAPAVCDMScopeNode@@@Z
?GetServerName@CDataCache@@QAA?AVCString@@XZ
?GetServerName@CTaskData@@QAA?AVCString@@XZ
?GetShortName@CDMNodeObj@@QAAXAAVCString@@@Z
?GetShrinkableSizeInMB@CDMNodeObj@@QAA_JXZ
?GetSize@CDMNodeObj@@QAAXAA_JH@Z
?GetSizeMB@CDMNodeObj@@QAAXAA_J@Z
?GetSizeString@CDMNodeObj@@QAAXAAVCString@@@Z
?GetStartOffset@CDMNodeObj@@QAA_JXZ
?GetStatus@CDMNodeObj@@QAAHXZ
?GetStorageType@CDMNodeObj@@QAA?AW4_STORAGE_TYPES@@XZ
?GetStorageType@CDMNodeObj@@QAAXAAVCString@@H@Z
?GetStringFromRc@@YA?AVCString@@K@Z
?GetUIState@CTaskData@@QAAKXZ
?GetUnallocSpace@CDMNodeObj@@QAA_JH@Z
?GetUsableContiguousSpaceInMB@CDMNodeObj@@QAA_JXZ
?GetVolumeCookies@CDataCache@@IAAXAAKPAPAJ@Z
?GetVolumeCount@CDataCache@@QAAKXZ
?GetVolumeFileSystemTypes@CDMNodeObj@@QAAJAAKPAPAUilhfilesysteminfo@@@Z
?GetVolumeInfo@CDMNodeObj@@QAAHAAUvolumeinfo@@@Z
?GetVolumeStatus@CDMNodeObj@@QAAHAAVCString@@@Z
?GetVolumeTotalSizeMB@CDMNodeObj@@QAA_JXZ
?HasExtendedPartition@CDMNodeObj@@QAAHXZ
?HasNTFSwithDriveLetter@CDataCache@@QAAHXZ
?HasNTFSwithDriveLetter@CTaskData@@QAAHXZ
?HasVMDisk@CDataCache@@QAAHXZ
?IsActive@CDMNodeObj@@QAAHXZ
?IsAlpha@CDataCache@@QAAHXZ
?IsAlpha@CTaskData@@QAAHXZ
?IsConvertSuccess@CDMNodeObj@@QAAJH@Z
?IsCurrBootVolume@CDMNodeObj@@QAAHXZ
?IsCurrSystemVolume@CDMNodeObj@@QAAHXZ
?IsDiskEmpty@CDMNodeObj@@QAAHXZ
?IsDiskOffline@CDMNodeObj@@QAAHXZ
?IsDiskReadOnly@CDMNodeObj@@QAAHXZ
?IsDynamic1394@CDataCache@@QAAHXZ
?IsEECoveredGPTDisk@CDMNodeObj@@QAAHXZ
?IsESPPartition@CDMNodeObj@@QAAHXZ
?IsEfi@CDataCache@@QAAHXZ
?IsEfi@CTaskData@@QAAHXZ
?IsExtendedPartitionCreated@CDMNodeObj@@QAAJXZ
?IsFTVolume@CDMNodeObj@@QAAHXZ
?IsFakeVolume@CDMNodeObj@@QAAHXZ
?IsFirstFreeRegion@CDMNodeObj@@QAAHXZ
?IsFreeSpaceFollowed@CDMNodeObj@@QAAH_J@Z
?IsHiddenRegion@@YAHAAUregioninfoex@@@Z
?IsHiddenRegion@CDMNodeObj@@QAAHXZ
?IsInFlux@CDMNodeObj@@QAAHXZ
?IsLocalMachine@CTaskData@@QAAHXZ
?IsMbrEEPartition@@YAHAAUregioninfoex@@@Z
?IsMbrEEPartition@CDMNodeObj@@QAAHXZ
?IsMember@CDMNodeObj@@QAAHPAV1@@Z
?IsNEC_98Disk@CDMNodeObj@@QAAHXZ
?IsNEC_98Server@CDataCache@@QAAHXZ
?IsNEC_98Server@CTaskData@@QAAHXZ
?IsNTServer@CTaskData@@QAAHXZ
?IsOemPartition@CDMNodeObj@@QAAHXZ
?IsPersonalOrLapTopServer@CDataCache@@QAAHXZ
?IsPostLonghornVdsVersion@CDataCache@@QAAHXZ
?IsPostLonghornVdsVersion@CTaskData@@QAAHXZ
?IsPreLonghornVdsVersion@CDataCache@@QAAHXZ
?IsPreLonghornVdsVersion@CTaskData@@QAAHXZ
IsRequestPending
?IsRevertable@CDMNodeObj@@QAAHXZ
?IsSecureSystemPartition@CTaskData@@QAAHXZ
?IsSpacesProtectivePartition@CDMNodeObj@@QAAHXZ
?IsUnknownPartition@CDMNodeObj@@QAAHXZ
?IsUpgradeable@CDMNodeObj@@QAAHXZ
?IsVolumeArrived@CDMNodeObj@@QAAJ_JW4_LAYOUT_TYPES@@@Z
?IsVolumeSimple@CDMNodeObj@@QAAHXZ
?IsWolfpack@CDataCache@@QAAHXZ
?IsWolfpack@CTaskData@@QAAHXZ
?LoadData@CDMComponentData@@QAAXPAVCDMScopeNode@@J@Z
LoadPropertyPageData
?MarkDiskForLastVolume@CDMNodeObj@@QAAXPAV1@@Z
?MarkDisksForLastVolume@CDMNodeObj@@QAAXXZ
?OnlyContiguousExtendAllowed@CDMNodeObj@@QAAHXZ
?ParseDeviceName@@YAXPAH00PAG@Z
?PopUpInit@CContextMenu@@QAAXPAVCDMNodeObj@@AAH1H@Z
?PopulateDiskGroupData@CDataCache@@QAAXPAUDISK_GROUP_DATA@@@Z
?PopulateEncapsulateData@CDataCache@@QAAXPAUENCAPSULATE_DATA@@@Z
?RecalculateSpace@CDMNodeObj@@QAAXXZ
?RefreshDiskView@CDMComponentData@@QAAXPAVCDMScopeNode@@@Z
?RefreshFileSys@CContextMenu@@QAAXJ@Z
?ReloadData@CDMComponentData@@QAAXPAVCDMScopeNode@@@Z
?RoundUpToMB@@YA_J_J@Z
?SetDescriptionBarText@CDMSnapin@@QAAXJ@Z
?SetDiskList@CDataCache@@QAAXPAUdiskinfoex@@K@Z
?SetDriveLetterInUse@CDataCache@@QAAXGH@Z
?SetFSId@CDMNodeObj@@QAAX_J@Z
?SetOcxViewType@CDMComponentData@@QAAXPAVCDMScopeNode@@@Z
?SetOcxViewTypeForce@CDMComponentData@@QAAXPAVCDMScopeNode@@@Z
?SetUIState@CTaskData@@QAAXK@Z
?SetVolumeList@CDataCache@@QAAXPAUvolumeinfo@@KPAVCTaskData@@@Z
?ShowContextMenu@CContextMenu@@QAAJPAVCWnd@@JJJ@Z
?SupportGpt@CDataCache@@QAAHXZ
?SupportGpt@CTaskData@@QAAHXZ
?SupportMirror@CDataCache@@QAAHXZ
?SupportRaid5@CDataCache@@QAAHXZ
?UIStateChange@CDMComponentData@@QAAXPAVCDMScopeNode@@K@Z
?UpDateConsoleView@CDMSnapin@@QAAXJ@Z
?VolumeContainsActiveRegion@CDMNodeObj@@QAAHXZ
?namecmp@@YAHPBG0@Z
