;
; Definition file of DUI70.dll
; Automatic generated by gendef
; written by Kai Tietz 2008-2014
;
LIBRARY "DUI70.dll"
EXPORTS
??0?$PatternProvider@VExpandCollapseProvider@DirectUI@@UIExpandCollapseProvider@@$00@DirectUI@@QAA@XZ
??0?$PatternProvider@VGridItemProvider@DirectUI@@UIGridItemProvider@@$01@DirectUI@@QAA@XZ
??0?$PatternProvider@VGridProvider@DirectUI@@UIGridProvider@@$02@DirectUI@@QAA@XZ
??0?$PatternProvider@VInvokeProvider@DirectUI@@UIInvokeProvider@@$0A@@DirectUI@@QAA@XZ
??0?$PatternProvider@VRangeValueProvider@DirectUI@@UIRangeValueProvider@@$03@DirectUI@@QAA@XZ
??0?$PatternProvider@VScrollItemProvider@DirectUI@@UIScrollItemProvider@@$05@DirectUI@@QAA@XZ
??0?$PatternProvider@VScrollProvider@DirectUI@@UIScrollProvider@@$04@DirectUI@@QAA@XZ
??0?$PatternProvider@VSelectionItemProvider@DirectUI@@UISelectionItemProvider@@$06@DirectUI@@QAA@XZ
??0?$PatternProvider@VSelectionProvider@DirectUI@@UISelectionProvider@@$07@DirectUI@@QAA@XZ
??0?$PatternProvider@VTableItemProvider@DirectUI@@UITableItemProvider@@$09@DirectUI@@QAA@XZ
??0?$PatternProvider@VTableProvider@DirectUI@@UITableProvider@@$08@DirectUI@@QAA@XZ
??0?$PatternProvider@VToggleProvider@DirectUI@@UIToggleProvider@@$0L@@DirectUI@@QAA@XZ
??0?$PatternProvider@VValueProvider@DirectUI@@UIValueProvider@@$0M@@DirectUI@@QAA@XZ
??0?$SafeArrayAccessor@H@DirectUI@@QAA@XZ
??0AccessibleButton@DirectUI@@QAA@ABV01@@Z
??0AccessibleButton@DirectUI@@QAA@XZ
??0AnimationStrip@DirectUI@@QAA@ABV01@@Z
??0AnimationStrip@DirectUI@@QAA@XZ
??0AutoButton@DirectUI@@QAA@ABV01@@Z
??0AutoButton@DirectUI@@QAA@XZ
??0AutoLock@DirectUI@@QAA@PAU_RTL_CRITICAL_SECTION@@@Z
??0AutoThread@DirectUI@@QAA@XZ
??0AutoVariant@DirectUI@@QAA@XZ
??0BaseScrollBar@DirectUI@@QAA@ABV01@@Z
??0BaseScrollBar@DirectUI@@QAA@XZ
??0BaseScrollViewer@DirectUI@@QAA@ABV01@@Z
??0BaseScrollViewer@DirectUI@@QAA@XZ
??0Bind@DirectUI@@QAA@ABV01@@Z
??0Bind@DirectUI@@QAA@XZ
??0BorderLayout@DirectUI@@QAA@ABV01@@Z
??0BorderLayout@DirectUI@@QAA@XZ
??0Browser@DirectUI@@QAA@ABV01@@Z
??0Browser@DirectUI@@QAA@XZ
??0BrowserSelectionProxy@DirectUI@@QAA@ABV01@@Z
??0BrowserSelectionProxy@DirectUI@@QAA@XZ
??0Button@DirectUI@@QAA@ABV01@@Z
??0Button@DirectUI@@QAA@XZ
??0CCAVI@DirectUI@@QAA@ABV01@@Z
??0CCAVI@DirectUI@@QAA@XZ
??0CCBase@DirectUI@@QAA@ABV01@@Z
??0CCBase@DirectUI@@QAA@KPBG@Z
??0CCBaseCheckRadioButton@DirectUI@@QAA@ABV01@@Z
??0CCBaseCheckRadioButton@DirectUI@@QAA@K@Z
??0CCBaseScrollBar@DirectUI@@QAA@ABV01@@Z
??0CCBaseScrollBar@DirectUI@@QAA@K@Z
??0CCCheckBox@DirectUI@@QAA@ABV01@@Z
??0CCCheckBox@DirectUI@@QAA@K@Z
??0CCCommandLink@DirectUI@@QAA@ABV01@@Z
??0CCCommandLink@DirectUI@@QAA@K@Z
??0CCHScrollBar@DirectUI@@QAA@ABV01@@Z
??0CCHScrollBar@DirectUI@@QAA@XZ
??0CCListBox@DirectUI@@QAA@ABV01@@Z
??0CCListBox@DirectUI@@QAA@XZ
??0CCListView@DirectUI@@QAA@ABV01@@Z
??0CCListView@DirectUI@@QAA@XZ
??0CCProgressBar@DirectUI@@QAA@ABV01@@Z
??0CCProgressBar@DirectUI@@QAA@XZ
??0CCPushButton@DirectUI@@QAA@ABV01@@Z
??0CCPushButton@DirectUI@@QAA@K@Z
??0CCRadioButton@DirectUI@@QAA@ABV01@@Z
??0CCRadioButton@DirectUI@@QAA@XZ
??0CCSysLink@DirectUI@@QAA@ABV01@@Z
??0CCSysLink@DirectUI@@QAA@XZ
??0CCTrackBar@DirectUI@@QAA@ABV01@@Z
??0CCTrackBar@DirectUI@@QAA@XZ
??0CCTreeView@DirectUI@@QAA@ABV01@@Z
??0CCTreeView@DirectUI@@QAA@K@Z
??0CCVScrollBar@DirectUI@@QAA@ABV01@@Z
??0CCVScrollBar@DirectUI@@QAA@XZ
??0CallstackTracker@DirectUI@@QAA@XZ
??0CheckBoxGlyph@DirectUI@@QAA@ABV01@@Z
??0CheckBoxGlyph@DirectUI@@QAA@XZ
??0ClassInfoBase@DirectUI@@QAA@ABV01@@Z
??0ClassInfoBase@DirectUI@@QAA@XZ
??0Clipper@DirectUI@@QAA@ABV01@@Z
??0Clipper@DirectUI@@QAA@XZ
??0Combobox@DirectUI@@QAA@ABV01@@Z
??0Combobox@DirectUI@@QAA@XZ
??0CritSecLock@DirectUI@@QAA@PAU_RTL_CRITICAL_SECTION@@@Z
??0DCSurface@DirectUI@@QAA@ABV01@@Z
??0DCSurface@DirectUI@@QAA@PAUHDC__@@@Z
??0DUIFactory@DirectUI@@QAA@PAUHWND__@@@Z
??0DUIXmlParser@DirectUI@@QAA@ABV01@@Z
??0DUIXmlParser@DirectUI@@QAA@XZ
??0DialogElement@DirectUI@@QAA@ABV01@@Z
??0DialogElement@DirectUI@@QAA@XZ
??0DuiAccessible@DirectUI@@QAA@XZ
??0Edit@DirectUI@@QAA@ABV01@@Z
??0Edit@DirectUI@@QAA@XZ
??0Element@DirectUI@@QAA@ABV01@@Z
??0Element@DirectUI@@QAA@XZ
??0ElementProvider@DirectUI@@QAA@XZ
??0ElementProxy@DirectUI@@QAA@ABV01@@Z
??0ElementProxy@DirectUI@@QAA@XZ
??0ElementWithHWND@DirectUI@@QAA@ABV01@@Z
??0ElementWithHWND@DirectUI@@QAA@XZ
??0ExpandCollapseProvider@DirectUI@@QAA@XZ
??0ExpandCollapseProxy@DirectUI@@QAA@ABV01@@Z
??0ExpandCollapseProxy@DirectUI@@QAA@XZ
??0Expandable@DirectUI@@QAA@ABV01@@Z
??0Expandable@DirectUI@@QAA@XZ
??0Expando@DirectUI@@QAA@ABV01@@Z
??0Expando@DirectUI@@QAA@XZ
??0ExpandoButtonGlyph@DirectUI@@QAA@ABV01@@Z
??0ExpandoButtonGlyph@DirectUI@@QAA@XZ
??0FillLayout@DirectUI@@QAA@ABV01@@Z
??0FillLayout@DirectUI@@QAA@XZ
??0FlowLayout@DirectUI@@QAA@ABV01@@Z
??0FlowLayout@DirectUI@@QAA@XZ
??0FontCache@DirectUI@@QAA@ABV01@@Z
??0FontCache@DirectUI@@QAA@XZ
??0FontCheckOut@DirectUI@@QAA@PAVElement@1@PAUHDC__@@@Z
??0GridItemProvider@DirectUI@@QAA@XZ
??0GridItemProxy@DirectUI@@QAA@ABV01@@Z
??0GridItemProxy@DirectUI@@QAA@XZ
??0GridLayout@DirectUI@@QAA@ABV01@@Z
??0GridLayout@DirectUI@@QAA@XZ
??0GridProvider@DirectUI@@QAA@XZ
??0GridProxy@DirectUI@@QAA@ABV01@@Z
??0GridProxy@DirectUI@@QAA@XZ
??0HWNDElement@DirectUI@@QAA@ABV01@@Z
??0HWNDElement@DirectUI@@QAA@XZ
??0HWNDElementAccessible@DirectUI@@QAA@XZ
??0HWNDElementProvider@DirectUI@@QAA@XZ
??0HWNDElementProxy@DirectUI@@QAA@ABV01@@Z
??0HWNDElementProxy@DirectUI@@QAA@XZ
??0HWNDHost@DirectUI@@QAA@ABV01@@Z
??0HWNDHost@DirectUI@@QAA@XZ
??0HWNDHostAccessible@DirectUI@@QAA@XZ
??0HWNDHostClientAccessible@DirectUI@@QAA@XZ
??0IDataEngine@DirectUI@@QAA@ABU01@@Z
??0IDataEngine@DirectUI@@QAA@XZ
??0IDataEntry@DirectUI@@QAA@ABU01@@Z
??0IDataEntry@DirectUI@@QAA@XZ
??0IProvider@DirectUI@@QAA@ABV01@@Z
??0IProvider@DirectUI@@QAA@XZ
??0ISBLeak@DirectUI@@QAA@ABU01@@Z
??0ISBLeak@DirectUI@@QAA@XZ
??0IXElementCP@DirectUI@@QAA@ABV01@@Z
??0IXElementCP@DirectUI@@QAA@XZ
??0IXProviderCP@DirectUI@@QAA@ABV01@@Z
??0IXProviderCP@DirectUI@@QAA@XZ
??0InvokeHelper@DirectUI@@QAA@XZ
??0InvokeProvider@DirectUI@@QAA@XZ
??0InvokeProxy@DirectUI@@QAA@ABV01@@Z
??0InvokeProxy@DirectUI@@QAA@XZ
??0ItemList@DirectUI@@QAA@XZ
??0Layout@DirectUI@@QAA@ABV01@@Z
??0Layout@DirectUI@@QAA@XZ
??0LinkedList@DirectUI@@QAA@XZ
??0Macro@DirectUI@@QAA@ABV01@@Z
??0Macro@DirectUI@@QAA@XZ
??0ModernProgressBar@DirectUI@@QAA@XZ
??0ModernProgressBarRangeValueProxy@DirectUI@@QAA@ABV01@@Z
??0ModernProgressBarRangeValueProxy@DirectUI@@QAA@XZ
??0ModernProgressRing@DirectUI@@QAA@XZ
??0Movie@DirectUI@@QAA@ABV01@@Z
??0Movie@DirectUI@@QAA@XZ
??0NativeHWNDHost@DirectUI@@QAA@ABV01@@Z
??0NativeHWNDHost@DirectUI@@QAA@XZ
??0Navigator@DirectUI@@QAA@ABV01@@Z
??0Navigator@DirectUI@@QAA@XZ
??0NavigatorSelectionItemProxy@DirectUI@@QAA@ABV01@@Z
??0NavigatorSelectionItemProxy@DirectUI@@QAA@XZ
??0NineGridLayout@DirectUI@@QAA@ABV01@@Z
??0NineGridLayout@DirectUI@@QAA@XZ
??0PText@DirectUI@@QAA@ABV01@@Z
??0PText@DirectUI@@QAA@XZ
??0Page@DirectUI@@QAA@ABV01@@Z
??0Page@DirectUI@@QAA@XZ
??0Pages@DirectUI@@QAA@ABV01@@Z
??0Pages@DirectUI@@QAA@XZ
??0Progress@DirectUI@@QAA@ABV01@@Z
??0Progress@DirectUI@@QAA@XZ
??0ProgressRangeValueProxy@DirectUI@@QAA@ABV01@@Z
??0ProgressRangeValueProxy@DirectUI@@QAA@XZ
??0ProviderProxy@DirectUI@@IAA@XZ
??0ProviderProxy@DirectUI@@QAA@ABV01@@Z
??0Proxy@DirectUI@@QAA@ABV01@@Z
??0Proxy@DirectUI@@QAA@XZ
??0PushButton@DirectUI@@QAA@ABV01@@Z
??0PushButton@DirectUI@@QAA@XZ
??0RadioButtonGlyph@DirectUI@@QAA@ABV01@@Z
??0RadioButtonGlyph@DirectUI@@QAA@XZ
??0RangeValueProvider@DirectUI@@QAA@XZ
??0RangeValueProxy@DirectUI@@IAA@XZ
??0RangeValueProxy@DirectUI@@QAA@ABV01@@Z
??0RefPointElement@DirectUI@@QAA@ABV01@@Z
??0RefPointElement@DirectUI@@QAA@XZ
??0RefcountBase@DirectUI@@QAA@XZ
??0RepeatButton@DirectUI@@QAA@ABV01@@Z
??0RepeatButton@DirectUI@@QAA@XZ
??0Repeater@DirectUI@@QAA@ABV01@@Z
??0Repeater@DirectUI@@QAA@XZ
??0ResourceModuleHandles@DirectUI@@QAA@XZ
??0RichText@DirectUI@@QAA@XZ
??0RowLayout@DirectUI@@QAA@ABV01@@Z
??0RowLayout@DirectUI@@QAA@XZ
??0ScrollBar@DirectUI@@QAA@ABV01@@Z
??0ScrollBar@DirectUI@@QAA@XZ
??0ScrollBarRangeValueProxy@DirectUI@@QAA@ABV01@@Z
??0ScrollBarRangeValueProxy@DirectUI@@QAA@XZ
??0ScrollItemProvider@DirectUI@@QAA@XZ
??0ScrollItemProxy@DirectUI@@QAA@ABV01@@Z
??0ScrollItemProxy@DirectUI@@QAA@XZ
??0ScrollProvider@DirectUI@@QAA@XZ
??0ScrollProxy@DirectUI@@QAA@ABV01@@Z
??0ScrollProxy@DirectUI@@QAA@XZ
??0ScrollViewer@DirectUI@@QAA@ABV01@@Z
??0ScrollViewer@DirectUI@@QAA@XZ
??0SelectionItemProvider@DirectUI@@QAA@XZ
??0SelectionItemProxy@DirectUI@@IAA@XZ
??0SelectionItemProxy@DirectUI@@QAA@ABV01@@Z
??0SelectionProvider@DirectUI@@QAA@XZ
??0SelectionProxy@DirectUI@@IAA@XZ
??0SelectionProxy@DirectUI@@QAA@ABV01@@Z
??0Selector@DirectUI@@QAA@ABV01@@Z
??0Selector@DirectUI@@QAA@XZ
??0SelectorNoDefault@DirectUI@@QAA@ABV01@@Z
??0SelectorNoDefault@DirectUI@@QAA@XZ
??0SelectorSelectionItemProxy@DirectUI@@QAA@ABV01@@Z
??0SelectorSelectionItemProxy@DirectUI@@QAA@XZ
??0SelectorSelectionProxy@DirectUI@@QAA@ABV01@@Z
??0SelectorSelectionProxy@DirectUI@@QAA@XZ
??0ShellBorderLayout@DirectUI@@QAA@ABV01@@Z
??0ShellBorderLayout@DirectUI@@QAA@XZ
??0StyleSheet@DirectUI@@QAA@ABV01@@Z
??0StyleSheet@DirectUI@@QAA@XZ
??0StyledScrollViewer@DirectUI@@QAA@ABV01@@Z
??0StyledScrollViewer@DirectUI@@QAA@XZ
??0Surface@DirectUI@@QAA@ABV01@@Z
??0Surface@DirectUI@@QAA@XZ
??0TableItemProvider@DirectUI@@QAA@XZ
??0TableItemProxy@DirectUI@@QAA@ABV01@@Z
??0TableItemProxy@DirectUI@@QAA@XZ
??0TableLayout@DirectUI@@QAA@ABV01@@Z
??0TableLayout@DirectUI@@QAA@XZ
??0TableProvider@DirectUI@@QAA@XZ
??0TableProxy@DirectUI@@QAA@ABV01@@Z
??0TableProxy@DirectUI@@QAA@XZ
??0TaskPage@DirectUI@@QAA@ABV01@@Z
??0TaskPage@DirectUI@@QAA@XZ
??0TextGraphic@DirectUI@@QAA@ABV01@@Z
??0TextGraphic@DirectUI@@QAA@XZ
??0Thumb@DirectUI@@QAA@ABV01@@Z
??0Thumb@DirectUI@@QAA@XZ
??0ToggleProvider@DirectUI@@QAA@XZ
??0ToggleProxy@DirectUI@@QAA@ABV01@@Z
??0ToggleProxy@DirectUI@@QAA@XZ
??0TouchButton@DirectUI@@QAA@XZ
??0TouchCheckBox@DirectUI@@QAA@XZ
??0TouchCheckBoxGlyph@DirectUI@@QAA@XZ
??0TouchCommandButton@DirectUI@@QAA@XZ
??0TouchEdit2@DirectUI@@QAA@XZ
??0TouchHWNDElement@DirectUI@@QAA@XZ
??0TouchHyperLink@DirectUI@@QAA@XZ
??0TouchRepeatButton@DirectUI@@QAA@XZ
??0TouchScrollBar@DirectUI@@QAA@XZ
??0TouchSelect@DirectUI@@QAA@XZ
??0TouchSelectItem@DirectUI@@QAA@XZ
??0UnknownElement@DirectUI@@QAA@ABV01@@Z
??0UnknownElement@DirectUI@@QAA@XZ
??0ValueProvider@DirectUI@@QAA@XZ
??0ValueProxy@DirectUI@@QAA@ABV01@@Z
??0ValueProxy@DirectUI@@QAA@XZ
??0VerticalFlowLayout@DirectUI@@QAA@ABV01@@Z
??0VerticalFlowLayout@DirectUI@@QAA@XZ
??0Viewer@DirectUI@@QAA@ABV01@@Z
??0Viewer@DirectUI@@QAA@XZ
??0XBaby@DirectUI@@QAA@ABV01@@Z
??0XBaby@DirectUI@@QAA@XZ
??0XElement@DirectUI@@QAA@ABV01@@Z
??0XElement@DirectUI@@QAA@XZ
??0XHost@DirectUI@@QAA@XZ
??0XProvider@DirectUI@@QAA@ABV01@@Z
??0XProvider@DirectUI@@QAA@XZ
??0XResourceProvider@DirectUI@@QAA@ABV01@@Z
??0XResourceProvider@DirectUI@@QAA@XZ
??1?$PatternProvider@VExpandCollapseProvider@DirectUI@@UIExpandCollapseProvider@@$00@DirectUI@@UAA@XZ
??1?$PatternProvider@VGridItemProvider@DirectUI@@UIGridItemProvider@@$01@DirectUI@@UAA@XZ
??1?$PatternProvider@VGridProvider@DirectUI@@UIGridProvider@@$02@DirectUI@@UAA@XZ
??1?$PatternProvider@VInvokeProvider@DirectUI@@UIInvokeProvider@@$0A@@DirectUI@@UAA@XZ
??1?$PatternProvider@VRangeValueProvider@DirectUI@@UIRangeValueProvider@@$03@DirectUI@@UAA@XZ
??1?$PatternProvider@VScrollItemProvider@DirectUI@@UIScrollItemProvider@@$05@DirectUI@@UAA@XZ
??1?$PatternProvider@VScrollProvider@DirectUI@@UIScrollProvider@@$04@DirectUI@@UAA@XZ
??1?$PatternProvider@VSelectionItemProvider@DirectUI@@UISelectionItemProvider@@$06@DirectUI@@UAA@XZ
??1?$PatternProvider@VSelectionProvider@DirectUI@@UISelectionProvider@@$07@DirectUI@@UAA@XZ
??1?$PatternProvider@VTableItemProvider@DirectUI@@UITableItemProvider@@$09@DirectUI@@UAA@XZ
??1?$PatternProvider@VTableProvider@DirectUI@@UITableProvider@@$08@DirectUI@@UAA@XZ
??1?$PatternProvider@VToggleProvider@DirectUI@@UIToggleProvider@@$0L@@DirectUI@@UAA@XZ
??1?$PatternProvider@VValueProvider@DirectUI@@UIValueProvider@@$0M@@DirectUI@@UAA@XZ
??1?$SafeArrayAccessor@H@DirectUI@@QAA@XZ
??1AccessibleButton@DirectUI@@UAA@XZ
??1AnimationStrip@DirectUI@@UAA@XZ
??1AutoButton@DirectUI@@UAA@XZ
??1AutoLock@DirectUI@@QAA@XZ
??1AutoThread@DirectUI@@QAA@XZ
??1AutoVariant@DirectUI@@QAA@XZ
??1BaseScrollViewer@DirectUI@@UAA@XZ
??1Bind@DirectUI@@UAA@XZ
??1BorderLayout@DirectUI@@UAA@XZ
??1Browser@DirectUI@@UAA@XZ
??1Button@DirectUI@@UAA@XZ
??1CCAVI@DirectUI@@UAA@XZ
??1CCBase@DirectUI@@UAA@XZ
??1CCBaseCheckRadioButton@DirectUI@@UAA@XZ
??1CCBaseScrollBar@DirectUI@@UAA@XZ
??1CCCheckBox@DirectUI@@UAA@XZ
??1CCCommandLink@DirectUI@@UAA@XZ
??1CCHScrollBar@DirectUI@@UAA@XZ
??1CCListBox@DirectUI@@UAA@XZ
??1CCListView@DirectUI@@UAA@XZ
??1CCProgressBar@DirectUI@@UAA@XZ
??1CCPushButton@DirectUI@@UAA@XZ
??1CCRadioButton@DirectUI@@UAA@XZ
??1CCSysLink@DirectUI@@UAA@XZ
??1CCTrackBar@DirectUI@@UAA@XZ
??1CCTreeView@DirectUI@@UAA@XZ
??1CCVScrollBar@DirectUI@@UAA@XZ
??1CallstackTracker@DirectUI@@QAA@XZ
??1CheckBoxGlyph@DirectUI@@UAA@XZ
??1ClassInfoBase@DirectUI@@UAA@XZ
??1Clipper@DirectUI@@UAA@XZ
??1Combobox@DirectUI@@UAA@XZ
??1CritSecLock@DirectUI@@QAA@XZ
??1DCSurface@DirectUI@@UAA@XZ
??1DUIFactory@DirectUI@@QAA@XZ
??1DUIXmlParser@DirectUI@@UAA@XZ
??1DialogElement@DirectUI@@UAA@XZ
??1DuiAccessible@DirectUI@@UAA@XZ
??1Edit@DirectUI@@UAA@XZ
??1Element@DirectUI@@UAA@XZ
??1ElementProvider@DirectUI@@UAA@XZ
??1ElementWithHWND@DirectUI@@UAA@XZ
??1ExpandCollapseProvider@DirectUI@@UAA@XZ
??1Expandable@DirectUI@@UAA@XZ
??1Expando@DirectUI@@UAA@XZ
??1ExpandoButtonGlyph@DirectUI@@UAA@XZ
??1FillLayout@DirectUI@@UAA@XZ
??1FlowLayout@DirectUI@@UAA@XZ
??1FontCheckOut@DirectUI@@QAA@XZ
??1GridItemProvider@DirectUI@@UAA@XZ
??1GridLayout@DirectUI@@UAA@XZ
??1GridProvider@DirectUI@@UAA@XZ
??1HWNDElement@DirectUI@@UAA@XZ
??1HWNDElementAccessible@DirectUI@@UAA@XZ
??1HWNDElementProvider@DirectUI@@UAA@XZ
??1HWNDHost@DirectUI@@UAA@XZ
??1HWNDHostAccessible@DirectUI@@UAA@XZ
??1HWNDHostClientAccessible@DirectUI@@UAA@XZ
??1IDataEngine@DirectUI@@UAA@XZ
??1IDataEntry@DirectUI@@UAA@XZ
??1InvokeHelper@DirectUI@@UAA@XZ
??1InvokeProvider@DirectUI@@UAA@XZ
??1ItemList@DirectUI@@UAA@XZ
??1Layout@DirectUI@@UAA@XZ
??1LinkedList@DirectUI@@QAA@XZ
??1Macro@DirectUI@@UAA@XZ
??1ModernProgressBar@DirectUI@@UAA@XZ
??1ModernProgressRing@DirectUI@@UAA@XZ
??1Movie@DirectUI@@UAA@XZ
??1NativeHWNDHost@DirectUI@@UAA@XZ
??1Navigator@DirectUI@@UAA@XZ
??1NineGridLayout@DirectUI@@UAA@XZ
??1PText@DirectUI@@UAA@XZ
??1Page@DirectUI@@UAA@XZ
??1Pages@DirectUI@@UAA@XZ
??1Progress@DirectUI@@UAA@XZ
??1Proxy@DirectUI@@UAA@XZ
??1PushButton@DirectUI@@UAA@XZ
??1RadioButtonGlyph@DirectUI@@UAA@XZ
??1RangeValueProvider@DirectUI@@UAA@XZ
??1RefPointElement@DirectUI@@UAA@XZ
??1RefcountBase@DirectUI@@UAA@XZ
??1RepeatButton@DirectUI@@UAA@XZ
??1Repeater@DirectUI@@UAA@XZ
??1ResourceModuleHandles@DirectUI@@QAA@XZ
??1RichText@DirectUI@@UAA@XZ
??1RowLayout@DirectUI@@UAA@XZ
??1ScrollBar@DirectUI@@UAA@XZ
??1ScrollItemProvider@DirectUI@@UAA@XZ
??1ScrollProvider@DirectUI@@UAA@XZ
??1ScrollViewer@DirectUI@@UAA@XZ
??1SelectionItemProvider@DirectUI@@UAA@XZ
??1SelectionProvider@DirectUI@@UAA@XZ
??1Selector@DirectUI@@UAA@XZ
??1SelectorNoDefault@DirectUI@@UAA@XZ
??1ShellBorderLayout@DirectUI@@UAA@XZ
??1StyledScrollViewer@DirectUI@@UAA@XZ
??1Surface@DirectUI@@UAA@XZ
??1TableItemProvider@DirectUI@@UAA@XZ
??1TableLayout@DirectUI@@UAA@XZ
??1TableProvider@DirectUI@@UAA@XZ
??1TaskPage@DirectUI@@UAA@XZ
??1TextGraphic@DirectUI@@UAA@XZ
??1Thumb@DirectUI@@UAA@XZ
??1ToggleProvider@DirectUI@@UAA@XZ
??1TouchButton@DirectUI@@UAA@XZ
??1TouchCheckBox@DirectUI@@UAA@XZ
??1TouchCheckBoxGlyph@DirectUI@@UAA@XZ
??1TouchHWNDElement@DirectUI@@UAA@XZ
??1TouchHyperLink@DirectUI@@UAA@XZ
??1TouchScrollBar@DirectUI@@UAA@XZ
??1TouchSelect@DirectUI@@UAA@XZ
??1TouchSelectItem@DirectUI@@UAA@XZ
??1UnknownElement@DirectUI@@UAA@XZ
??1ValueProvider@DirectUI@@UAA@XZ
??1VerticalFlowLayout@DirectUI@@UAA@XZ
??1Viewer@DirectUI@@UAA@XZ
??1XBaby@DirectUI@@UAA@XZ
??1XElement@DirectUI@@UAA@XZ
??1XHost@DirectUI@@QAA@XZ
??1XProvider@DirectUI@@UAA@XZ
??4?$FunctionDefinition@H@DUIXmlParser@DirectUI@@QAAAAU012@ABU012@@Z
??4?$FunctionDefinition@K@DUIXmlParser@DirectUI@@QAAAAU012@ABU012@@Z
??4?$FunctionDefinition@PAVValue@DirectUI@@@DUIXmlParser@DirectUI@@QAAAAU012@ABU012@@Z
??4?$FunctionDefinition@UScaledRECT@DirectUI@@@DUIXmlParser@DirectUI@@QAAAAU012@ABU012@@Z
??4ACCESSIBLEROLE@AccessibleButton@DirectUI@@QAAAAU012@ABU012@@Z
??4AccessibleButton@DirectUI@@QAAAAV01@ABV01@@Z
??4AnimationStrip@DirectUI@@QAAAAV01@ABV01@@Z
??4AutoButton@DirectUI@@QAAAAV01@ABV01@@Z
??4AutoLock@DirectUI@@QAAAAV01@ABV01@@Z
??4AutoThread@DirectUI@@QAAAAV01@ABV01@@Z
??4AutoVariant@DirectUI@@QAAAAV01@ABV01@@Z
??4BaseScrollBar@DirectUI@@QAAAAV01@ABV01@@Z
??4BaseScrollViewer@DirectUI@@QAAAAV01@ABV01@@Z
??4Bind@DirectUI@@QAAAAV01@ABV01@@Z
??4BorderLayout@DirectUI@@QAAAAV01@ABV01@@Z
??4Browser@DirectUI@@QAAAAV01@ABV01@@Z
??4BrowserSelectionProxy@DirectUI@@QAAAAV01@ABV01@@Z
??4Button@DirectUI@@QAAAAV01@ABV01@@Z
??4CCAVI@DirectUI@@QAAAAV01@ABV01@@Z
??4CCBase@DirectUI@@QAAAAV01@ABV01@@Z
??4CCBaseCheckRadioButton@DirectUI@@QAAAAV01@ABV01@@Z
??4CCBaseScrollBar@DirectUI@@QAAAAV01@ABV01@@Z
??4CCCheckBox@DirectUI@@QAAAAV01@ABV01@@Z
??4CCCommandLink@DirectUI@@QAAAAV01@ABV01@@Z
??4CCHScrollBar@DirectUI@@QAAAAV01@ABV01@@Z
??4CCListBox@DirectUI@@QAAAAV01@ABV01@@Z
??4CCListView@DirectUI@@QAAAAV01@ABV01@@Z
??4CCProgressBar@DirectUI@@QAAAAV01@ABV01@@Z
??4CCPushButton@DirectUI@@QAAAAV01@ABV01@@Z
??4CCRadioButton@DirectUI@@QAAAAV01@ABV01@@Z
??4CCSysLink@DirectUI@@QAAAAV01@ABV01@@Z
??4CCTrackBar@DirectUI@@QAAAAV01@ABV01@@Z
??4CCTreeView@DirectUI@@QAAAAV01@ABV01@@Z
??4CCVScrollBar@DirectUI@@QAAAAV01@ABV01@@Z
??4CallstackTracker@DirectUI@@QAAAAV01@ABV01@@Z
??4CheckBoxGlyph@DirectUI@@QAAAAV01@ABV01@@Z
??4ClassInfoBase@DirectUI@@QAAAAV01@ABV01@@Z
??4Clipper@DirectUI@@QAAAAV01@ABV01@@Z
??4Combobox@DirectUI@@QAAAAV01@ABV01@@Z
??4CritSecLock@DirectUI@@QAAAAV01@ABV01@@Z
??4DCSurface@DirectUI@@QAAAAV01@ABV01@@Z
??4DUIFactory@DirectUI@@QAAAAV01@ABV01@@Z
??4DUIXmlParser@DirectUI@@QAAAAV01@ABV01@@Z
??4DialogElement@DirectUI@@QAAAAV01@ABV01@@Z
??4DialogElementCore@DirectUI@@QAAAAV01@ABV01@@Z
??4DuiNavigate@DirectUI@@QAAAAV01@ABV01@@Z
??4Edit@DirectUI@@QAAAAV01@ABV01@@Z
??4Element@DirectUI@@QAAAAV01@ABV01@@Z
??4ElementProviderManager@DirectUI@@QAAAAV01@ABV01@@Z
??4ElementProxy@DirectUI@@QAAAAV01@ABV01@@Z
??4ElementWithHWND@DirectUI@@QAAAAV01@ABV01@@Z
??4EventManager@DirectUI@@QAAAAV01@ABV01@@Z
??4ExpandCollapseProxy@DirectUI@@QAAAAV01@ABV01@@Z
??4Expandable@DirectUI@@QAAAAV01@ABV01@@Z
??4Expando@DirectUI@@QAAAAV01@ABV01@@Z
??4ExpandoButtonGlyph@DirectUI@@QAAAAV01@ABV01@@Z
??4Expression@DirectUI@@QAAAAV01@ABV01@@Z
??4FillLayout@DirectUI@@QAAAAV01@ABV01@@Z
??4FlowLayout@DirectUI@@QAAAAV01@ABV01@@Z
??4FontCache@DirectUI@@QAAAAV01@ABV01@@Z
??4FontCheckOut@DirectUI@@QAAAAV01@ABV01@@Z
??4GridItemProxy@DirectUI@@QAAAAV01@ABV01@@Z
??4GridLayout@DirectUI@@QAAAAV01@ABV01@@Z
??4GridProxy@DirectUI@@QAAAAV01@ABV01@@Z
??4HWNDElement@DirectUI@@QAAAAV01@ABV01@@Z
??4HWNDElementProxy@DirectUI@@QAAAAV01@ABV01@@Z
??4HWNDHost@DirectUI@@QAAAAV01@ABV01@@Z
??4IDataEngine@DirectUI@@QAAAAU01@ABU01@@Z
??4IDataEntry@DirectUI@@QAAAAU01@ABU01@@Z
??4IProvider@DirectUI@@QAAAAV01@ABV01@@Z
??4ISBLeak@DirectUI@@QAAAAU01@ABU01@@Z
??4IXElementCP@DirectUI@@QAAAAV01@ABV01@@Z
??4IXProviderCP@DirectUI@@QAAAAV01@ABV01@@Z
??4InvokeManager@DirectUI@@QAAAAV01@ABV01@@Z
??4InvokeProxy@DirectUI@@QAAAAV01@ABV01@@Z
??4Layout@DirectUI@@QAAAAV01@ABV01@@Z
??4LinkedList@DirectUI@@QAAAAV01@ABV01@@Z
??4LinkedListNode@DirectUI@@QAAAAV01@ABV01@@Z
??4Macro@DirectUI@@QAAAAV01@ABV01@@Z
??4ModernProgressBarRangeValueProxy@DirectUI@@QAAAAV01@ABV01@@Z
??4Movie@DirectUI@@QAAAAV01@ABV01@@Z
??4NativeHWNDHost@DirectUI@@QAAAAV01@ABV01@@Z
??4NavReference@DirectUI@@QAAAAU01@ABU01@@Z
??4NavScoring@DirectUI@@QAAAAU01@ABU01@@Z
??4Navigator@DirectUI@@QAAAAV01@ABV01@@Z
??4NavigatorSelectionItemProxy@DirectUI@@QAAAAV01@ABV01@@Z
??4NineGridLayout@DirectUI@@QAAAAV01@ABV01@@Z
??4PText@DirectUI@@QAAAAV01@ABV01@@Z
??4PVLAnimation@DirectUI@@QAAAAV01@ABV01@@Z
??4Page@DirectUI@@QAAAAV01@ABV01@@Z
??4Pages@DirectUI@@QAAAAV01@ABV01@@Z
??4Progress@DirectUI@@QAAAAV01@ABV01@@Z
??4ProgressRangeValueProxy@DirectUI@@QAAAAV01@ABV01@@Z
??4ProviderProxy@DirectUI@@QAAAAV01@ABV01@@Z
??4Proxy@DirectUI@@QAAAAV01@ABV01@@Z
??4PushButton@DirectUI@@QAAAAV01@ABV01@@Z
??4RadioButtonGlyph@DirectUI@@QAAAAV01@ABV01@@Z
??4RangeValueProxy@DirectUI@@QAAAAV01@ABV01@@Z
??4RefPointElement@DirectUI@@QAAAAV01@ABV01@@Z
??4RepeatButton@DirectUI@@QAAAAV01@ABV01@@Z
??4Repeater@DirectUI@@QAAAAV01@ABV01@@Z
??4ResourceModuleHandles@DirectUI@@QAAAAV01@ABV01@@Z
??4RowLayout@DirectUI@@QAAAAV01@ABV01@@Z
??4Schema@DirectUI@@QAAAAV01@ABV01@@Z
??4ScrollBar@DirectUI@@QAAAAV01@ABV01@@Z
??4ScrollBarRangeValueProxy@DirectUI@@QAAAAV01@ABV01@@Z
??4ScrollItemProxy@DirectUI@@QAAAAV01@ABV01@@Z
??4ScrollProxy@DirectUI@@QAAAAV01@ABV01@@Z
??4ScrollViewer@DirectUI@@QAAAAV01@ABV01@@Z
??4SelectionItemProxy@DirectUI@@QAAAAV01@ABV01@@Z
??4SelectionProxy@DirectUI@@QAAAAV01@ABV01@@Z
??4Selector@DirectUI@@QAAAAV01@ABV01@@Z
??4SelectorNoDefault@DirectUI@@QAAAAV01@ABV01@@Z
??4SelectorSelectionItemProxy@DirectUI@@QAAAAV01@ABV01@@Z
??4SelectorSelectionProxy@DirectUI@@QAAAAV01@ABV01@@Z
??4ShellBorderLayout@DirectUI@@QAAAAV01@ABV01@@Z
??4StyleSheet@DirectUI@@QAAAAV01@ABV01@@Z
??4StyledScrollViewer@DirectUI@@QAAAAV01@ABV01@@Z
??4Surface@DirectUI@@QAAAAV01@ABV01@@Z
??4TableItemProxy@DirectUI@@QAAAAV01@ABV01@@Z
??4TableLayout@DirectUI@@QAAAAV01@ABV01@@Z
??4TableProxy@DirectUI@@QAAAAV01@ABV01@@Z
??4TaskPage@DirectUI@@QAAAAV01@ABV01@@Z
??4TextGraphic@DirectUI@@QAAAAV01@ABV01@@Z
??4Thumb@DirectUI@@QAAAAV01@ABV01@@Z
??4ToggleProxy@DirectUI@@QAAAAV01@ABV01@@Z
??4UnknownElement@DirectUI@@QAAAAV01@ABV01@@Z
??4Value@DirectUI@@QAAAAV01@ABV01@@Z
??4ValueProxy@DirectUI@@QAAAAV01@ABV01@@Z
??4VerticalFlowLayout@DirectUI@@QAAAAV01@ABV01@@Z
??4Viewer@DirectUI@@QAAAAV01@ABV01@@Z
??4XBaby@DirectUI@@QAAAAV01@ABV01@@Z
??4XElement@DirectUI@@QAAAAV01@ABV01@@Z
??4XHost@DirectUI@@QAAAAV01@ABV01@@Z
??4XProvider@DirectUI@@QAAAAV01@ABV01@@Z
??4XResourceProvider@DirectUI@@QAAAAV01@ABV01@@Z
??B?$SafeArrayAccessor@H@DirectUI@@QAAPAHXZ
??BTaskPage@DirectUI@@QAAPAU_PSP@@XZ
??_7?$PatternProvider@VExpandCollapseProvider@DirectUI@@UIExpandCollapseProvider@@$00@DirectUI@@6BIProvider@1@@ DATA
??_7?$PatternProvider@VExpandCollapseProvider@DirectUI@@UIExpandCollapseProvider@@$00@DirectUI@@6BRefcountBase@1@@ DATA
??_7?$PatternProvider@VGridItemProvider@DirectUI@@UIGridItemProvider@@$01@DirectUI@@6BIProvider@1@@ DATA
??_7?$PatternProvider@VGridItemProvider@DirectUI@@UIGridItemProvider@@$01@DirectUI@@6BRefcountBase@1@@ DATA
??_7?$PatternProvider@VGridProvider@DirectUI@@UIGridProvider@@$02@DirectUI@@6BIProvider@1@@ DATA
??_7?$PatternProvider@VGridProvider@DirectUI@@UIGridProvider@@$02@DirectUI@@6BRefcountBase@1@@ DATA
??_7?$PatternProvider@VInvokeProvider@DirectUI@@UIInvokeProvider@@$0A@@DirectUI@@6BIProvider@1@@ DATA
??_7?$PatternProvider@VInvokeProvider@DirectUI@@UIInvokeProvider@@$0A@@DirectUI@@6BRefcountBase@1@@ DATA
??_7?$PatternProvider@VRangeValueProvider@DirectUI@@UIRangeValueProvider@@$03@DirectUI@@6BIProvider@1@@ DATA
??_7?$PatternProvider@VRangeValueProvider@DirectUI@@UIRangeValueProvider@@$03@DirectUI@@6BRefcountBase@1@@ DATA
??_7?$PatternProvider@VScrollItemProvider@DirectUI@@UIScrollItemProvider@@$05@DirectUI@@6BIProvider@1@@ DATA
??_7?$PatternProvider@VScrollItemProvider@DirectUI@@UIScrollItemProvider@@$05@DirectUI@@6BRefcountBase@1@@ DATA
??_7?$PatternProvider@VScrollProvider@DirectUI@@UIScrollProvider@@$04@DirectUI@@6BIProvider@1@@ DATA
??_7?$PatternProvider@VScrollProvider@DirectUI@@UIScrollProvider@@$04@DirectUI@@6BRefcountBase@1@@ DATA
??_7?$PatternProvider@VSelectionItemProvider@DirectUI@@UISelectionItemProvider@@$06@DirectUI@@6BIProvider@1@@ DATA
??_7?$PatternProvider@VSelectionItemProvider@DirectUI@@UISelectionItemProvider@@$06@DirectUI@@6BRefcountBase@1@@ DATA
??_7?$PatternProvider@VSelectionProvider@DirectUI@@UISelectionProvider@@$07@DirectUI@@6BIProvider@1@@ DATA
??_7?$PatternProvider@VSelectionProvider@DirectUI@@UISelectionProvider@@$07@DirectUI@@6BRefcountBase@1@@ DATA
??_7?$PatternProvider@VTableItemProvider@DirectUI@@UITableItemProvider@@$09@DirectUI@@6BIProvider@1@@ DATA
??_7?$PatternProvider@VTableItemProvider@DirectUI@@UITableItemProvider@@$09@DirectUI@@6BRefcountBase@1@@ DATA
??_7?$PatternProvider@VTableProvider@DirectUI@@UITableProvider@@$08@DirectUI@@6BIProvider@1@@ DATA
??_7?$PatternProvider@VTableProvider@DirectUI@@UITableProvider@@$08@DirectUI@@6BRefcountBase@1@@ DATA
??_7?$PatternProvider@VToggleProvider@DirectUI@@UIToggleProvider@@$0L@@DirectUI@@6BIProvider@1@@ DATA
??_7?$PatternProvider@VToggleProvider@DirectUI@@UIToggleProvider@@$0L@@DirectUI@@6BRefcountBase@1@@ DATA
??_7?$PatternProvider@VValueProvider@DirectUI@@UIValueProvider@@$0M@@DirectUI@@6BIProvider@1@@ DATA
??_7?$PatternProvider@VValueProvider@DirectUI@@UIValueProvider@@$0M@@DirectUI@@6BRefcountBase@1@@ DATA
??_7AccessibleButton@DirectUI@@6B@ DATA
??_7AnimationStrip@DirectUI@@6B@ DATA
??_7AutoButton@DirectUI@@6B@ DATA
??_7BaseScrollBar@DirectUI@@6B@ DATA
??_7BaseScrollViewer@DirectUI@@6BElement@1@@ DATA
??_7BaseScrollViewer@DirectUI@@6BIElementListener@1@@ DATA
??_7Bind@DirectUI@@6B@ DATA
??_7BorderLayout@DirectUI@@6B@ DATA
??_7Browser@DirectUI@@6B@ DATA
??_7BrowserSelectionProxy@DirectUI@@6B@ DATA
??_7Button@DirectUI@@6B@ DATA
??_7CCAVI@DirectUI@@6B@ DATA
??_7CCBase@DirectUI@@6B@ DATA
??_7CCBaseCheckRadioButton@DirectUI@@6B@ DATA
??_7CCBaseScrollBar@DirectUI@@6BBaseScrollBar@1@@ DATA
??_7CCBaseScrollBar@DirectUI@@6BCCBase@1@@ DATA
??_7CCCheckBox@DirectUI@@6B@ DATA
??_7CCCommandLink@DirectUI@@6B@ DATA
??_7CCHScrollBar@DirectUI@@6BBaseScrollBar@1@@ DATA
??_7CCHScrollBar@DirectUI@@6BCCBase@1@@ DATA
??_7CCListBox@DirectUI@@6B@ DATA
??_7CCListView@DirectUI@@6B@ DATA
??_7CCProgressBar@DirectUI@@6B@ DATA
??_7CCPushButton@DirectUI@@6B@ DATA
??_7CCRadioButton@DirectUI@@6B@ DATA
??_7CCSysLink@DirectUI@@6B@ DATA
??_7CCTrackBar@DirectUI@@6B@ DATA
??_7CCTreeView@DirectUI@@6B@ DATA
??_7CCVScrollBar@DirectUI@@6BBaseScrollBar@1@@ DATA
??_7CCVScrollBar@DirectUI@@6BCCBase@1@@ DATA
??_7CheckBoxGlyph@DirectUI@@6B@ DATA
??_7ClassInfoBase@DirectUI@@6B@ DATA
??_7Clipper@DirectUI@@6B@ DATA
??_7Combobox@DirectUI@@6B@ DATA
??_7DCSurface@DirectUI@@6B@ DATA
??_7DUIXmlParser@DirectUI@@6B@ DATA
??_7DialogElement@DirectUI@@6BHWNDElement@1@@ DATA
??_7DialogElement@DirectUI@@6BIDialogElement@1@@ DATA
??_7DialogElement@DirectUI@@6BIElementListener@1@@ DATA
??_7DuiAccessible@DirectUI@@6BIAccIdentity@@@ DATA
??_7DuiAccessible@DirectUI@@6BIAccessible@@@ DATA
??_7DuiAccessible@DirectUI@@6BIEnumVARIANT@@@ DATA
??_7DuiAccessible@DirectUI@@6BIOleWindow@@@ DATA
??_7DuiAccessible@DirectUI@@6BIServiceProvider@@@ DATA
??_7Edit@DirectUI@@6B@ DATA
??_7Element@DirectUI@@6B@ DATA
??_7ElementProvider@DirectUI@@6BIRawElementProviderAdviseEvents@@@ DATA
??_7ElementProvider@DirectUI@@6BIRawElementProviderFragment@@@ DATA
??_7ElementProvider@DirectUI@@6BIRawElementProviderSimple@@@ DATA
??_7ElementProvider@DirectUI@@6BRefcountBase@1@@ DATA
??_7ElementProxy@DirectUI@@6B@ DATA
??_7ElementWithHWND@DirectUI@@6B@ DATA
??_7ExpandCollapseProvider@DirectUI@@6B@ DATA
??_7ExpandCollapseProvider@DirectUI@@6BIProvider@1@@ DATA
??_7ExpandCollapseProvider@DirectUI@@6BRefcountBase@1@@ DATA
??_7ExpandCollapseProxy@DirectUI@@6B@ DATA
??_7Expandable@DirectUI@@6B@ DATA
??_7Expando@DirectUI@@6B@ DATA
??_7ExpandoButtonGlyph@DirectUI@@6B@ DATA
??_7FillLayout@DirectUI@@6B@ DATA
??_7FlowLayout@DirectUI@@6B@ DATA
??_7FontCache@DirectUI@@6B@ DATA
??_7GridItemProvider@DirectUI@@6B@ DATA
??_7GridItemProvider@DirectUI@@6BIProvider@1@@ DATA
??_7GridItemProvider@DirectUI@@6BRefcountBase@1@@ DATA
??_7GridItemProxy@DirectUI@@6B@ DATA
??_7GridLayout@DirectUI@@6B@ DATA
??_7GridProvider@DirectUI@@6B@ DATA
??_7GridProvider@DirectUI@@6BIProvider@1@@ DATA
??_7GridProvider@DirectUI@@6BRefcountBase@1@@ DATA
??_7GridProxy@DirectUI@@6B@ DATA
??_7HWNDElement@DirectUI@@6B@ DATA
??_7HWNDElementAccessible@DirectUI@@6BIAccIdentity@@@ DATA
??_7HWNDElementAccessible@DirectUI@@6BIAccessible@@@ DATA
??_7HWNDElementAccessible@DirectUI@@6BIEnumVARIANT@@@ DATA
??_7HWNDElementAccessible@DirectUI@@6BIOleWindow@@@ DATA
??_7HWNDElementAccessible@DirectUI@@6BIServiceProvider@@@ DATA
??_7HWNDElementProvider@DirectUI@@6B@ DATA
??_7HWNDElementProvider@DirectUI@@6BIRawElementProviderAdviseEvents@@@ DATA
??_7HWNDElementProvider@DirectUI@@6BIRawElementProviderFragment@@@ DATA
??_7HWNDElementProvider@DirectUI@@6BIRawElementProviderSimple@@@ DATA
??_7HWNDElementProvider@DirectUI@@6BRefcountBase@1@@ DATA
??_7HWNDElementProxy@DirectUI@@6B@ DATA
??_7HWNDHost@DirectUI@@6B@ DATA
??_7HWNDHostAccessible@DirectUI@@6BIAccIdentity@@@ DATA
??_7HWNDHostAccessible@DirectUI@@6BIAccessible@@@ DATA
??_7HWNDHostAccessible@DirectUI@@6BIEnumVARIANT@@@ DATA
??_7HWNDHostAccessible@DirectUI@@6BIOleWindow@@@ DATA
??_7HWNDHostAccessible@DirectUI@@6BIServiceProvider@@@ DATA
??_7HWNDHostClientAccessible@DirectUI@@6BIAccIdentity@@@ DATA
??_7HWNDHostClientAccessible@DirectUI@@6BIAccessible@@@ DATA
??_7HWNDHostClientAccessible@DirectUI@@6BIEnumVARIANT@@@ DATA
??_7HWNDHostClientAccessible@DirectUI@@6BIOleWindow@@@ DATA
??_7HWNDHostClientAccessible@DirectUI@@6BIServiceProvider@@@ DATA
??_7IDataEngine@DirectUI@@6B@ DATA
??_7IDataEntry@DirectUI@@6B@ DATA
??_7IProvider@DirectUI@@6B@ DATA
??_7ISBLeak@DirectUI@@6B@ DATA
??_7IXElementCP@DirectUI@@6B@ DATA
??_7IXProviderCP@DirectUI@@6B@ DATA
??_7InvokeHelper@DirectUI@@6B@ DATA
??_7InvokeProvider@DirectUI@@6B@ DATA
??_7InvokeProvider@DirectUI@@6BIProvider@1@@ DATA
??_7InvokeProvider@DirectUI@@6BRefcountBase@1@@ DATA
??_7InvokeProxy@DirectUI@@6B@ DATA
??_7Layout@DirectUI@@6B@ DATA
??_7Macro@DirectUI@@6B@ DATA
??_7ModernProgressBarRangeValueProxy@DirectUI@@6B@ DATA
??_7Movie@DirectUI@@6B@ DATA
??_7NativeHWNDHost@DirectUI@@6B@ DATA
??_7Navigator@DirectUI@@6B@ DATA
??_7NavigatorSelectionItemProxy@DirectUI@@6B@ DATA
??_7NineGridLayout@DirectUI@@6B@ DATA
??_7PText@DirectUI@@6B@ DATA
??_7Page@DirectUI@@6B@ DATA
??_7Pages@DirectUI@@6B@ DATA
??_7Progress@DirectUI@@6B@ DATA
??_7ProgressRangeValueProxy@DirectUI@@6B@ DATA
??_7ProviderProxy@DirectUI@@6B@ DATA
??_7Proxy@DirectUI@@6B@ DATA
??_7PushButton@DirectUI@@6B@ DATA
??_7RadioButtonGlyph@DirectUI@@6B@ DATA
??_7RangeValueProvider@DirectUI@@6B@ DATA
??_7RangeValueProvider@DirectUI@@6BIProvider@1@@ DATA
??_7RangeValueProvider@DirectUI@@6BRefcountBase@1@@ DATA
??_7RangeValueProxy@DirectUI@@6B@ DATA
??_7RefPointElement@DirectUI@@6B@ DATA
??_7RefcountBase@DirectUI@@6B@ DATA
??_7RepeatButton@DirectUI@@6B@ DATA
??_7Repeater@DirectUI@@6B@ DATA
??_7RowLayout@DirectUI@@6B@ DATA
??_7ScrollBar@DirectUI@@6BBaseScrollBar@1@@ DATA
??_7ScrollBar@DirectUI@@6BElement@1@@ DATA
??_7ScrollBarRangeValueProxy@DirectUI@@6B@ DATA
??_7ScrollItemProvider@DirectUI@@6B@ DATA
??_7ScrollItemProvider@DirectUI@@6BIProvider@1@@ DATA
??_7ScrollItemProvider@DirectUI@@6BRefcountBase@1@@ DATA
??_7ScrollItemProxy@DirectUI@@6B@ DATA
??_7ScrollProvider@DirectUI@@6B@ DATA
??_7ScrollProvider@DirectUI@@6BIProvider@1@@ DATA
??_7ScrollProvider@DirectUI@@6BRefcountBase@1@@ DATA
??_7ScrollProxy@DirectUI@@6B@ DATA
??_7ScrollViewer@DirectUI@@6BElement@1@@ DATA
??_7ScrollViewer@DirectUI@@6BIElementListener@1@@ DATA
??_7SelectionItemProvider@DirectUI@@6B@ DATA
??_7SelectionItemProvider@DirectUI@@6BIProvider@1@@ DATA
??_7SelectionItemProvider@DirectUI@@6BRefcountBase@1@@ DATA
??_7SelectionItemProxy@DirectUI@@6B@ DATA
??_7SelectionProvider@DirectUI@@6B@ DATA
??_7SelectionProvider@DirectUI@@6BIProvider@1@@ DATA
??_7SelectionProvider@DirectUI@@6BRefcountBase@1@@ DATA
??_7SelectionProxy@DirectUI@@6B@ DATA
??_7Selector@DirectUI@@6B@ DATA
??_7SelectorNoDefault@DirectUI@@6B@ DATA
??_7SelectorSelectionItemProxy@DirectUI@@6B@ DATA
??_7SelectorSelectionProxy@DirectUI@@6B@ DATA
??_7ShellBorderLayout@DirectUI@@6B@ DATA
??_7StyleSheet@DirectUI@@6B@ DATA
??_7StyledScrollViewer@DirectUI@@6BElement@1@@ DATA
??_7StyledScrollViewer@DirectUI@@6BIElementListener@1@@ DATA
??_7Surface@DirectUI@@6B@ DATA
??_7TableItemProvider@DirectUI@@6B@ DATA
??_7TableItemProvider@DirectUI@@6BIProvider@1@@ DATA
??_7TableItemProvider@DirectUI@@6BRefcountBase@1@@ DATA
??_7TableItemProxy@DirectUI@@6B@ DATA
??_7TableLayout@DirectUI@@6B@ DATA
??_7TableProvider@DirectUI@@6B@ DATA
??_7TableProvider@DirectUI@@6BIProvider@1@@ DATA
??_7TableProvider@DirectUI@@6BRefcountBase@1@@ DATA
??_7TableProxy@DirectUI@@6B@ DATA
??_7TaskPage@DirectUI@@6BIElementListener@1@@ DATA
??_7TaskPage@DirectUI@@6BIXProviderCP@1@@ DATA
??_7TextGraphic@DirectUI@@6B@ DATA
??_7Thumb@DirectUI@@6B@ DATA
??_7ToggleProvider@DirectUI@@6B@ DATA
??_7ToggleProvider@DirectUI@@6BIProvider@1@@ DATA
??_7ToggleProvider@DirectUI@@6BRefcountBase@1@@ DATA
??_7ToggleProxy@DirectUI@@6B@ DATA
??_7UnknownElement@DirectUI@@6B@ DATA
??_7ValueProvider@DirectUI@@6B@ DATA
??_7ValueProvider@DirectUI@@6BIProvider@1@@ DATA
??_7ValueProvider@DirectUI@@6BRefcountBase@1@@ DATA
??_7ValueProxy@DirectUI@@6B@ DATA
??_7VerticalFlowLayout@DirectUI@@6B@ DATA
??_7Viewer@DirectUI@@6B@ DATA
??_7XBaby@DirectUI@@6B@ DATA
??_7XBaby@DirectUI@@6BHWNDElement@1@@ DATA
??_7XBaby@DirectUI@@6BIDialogElement@1@@ DATA
??_7XBaby@DirectUI@@6BIElementListener@1@@ DATA
??_7XElement@DirectUI@@6BHWNDHost@1@@ DATA
??_7XElement@DirectUI@@6BIXElementCP@1@@ DATA
??_7XProvider@DirectUI@@6B@ DATA
??_7XResourceProvider@DirectUI@@6B@ DATA
??_FCCBase@DirectUI@@QAAXXZ
??_FCCBaseScrollBar@DirectUI@@QAAXXZ
??_FCCCheckBox@DirectUI@@QAAXXZ
??_FCCCommandLink@DirectUI@@QAAXXZ
??_FCCPushButton@DirectUI@@QAAXXZ
??_FCCTreeView@DirectUI@@QAAXXZ
?AbsorbsShortcutProp@Element@DirectUI@@SAPBUPropertyInfo@2@XZ
?AccDefActionProp@Element@DirectUI@@SAPBUPropertyInfo@2@XZ
?AccDescProp@Element@DirectUI@@SAPBUPropertyInfo@2@XZ
?AccHelpProp@Element@DirectUI@@SAPBUPropertyInfo@2@XZ
?AccItemStatusProp@Element@DirectUI@@SAPBUPropertyInfo@2@XZ
?AccItemTypeProp@Element@DirectUI@@SAPBUPropertyInfo@2@XZ
?AccNameProp@Element@DirectUI@@SAPBUPropertyInfo@2@XZ
?AccNavigate@DuiAccessible@DirectUI@@SAJPAVElement@2@JPAPAV32@@Z
?AccRoleProp@Element@DirectUI@@SAPBUPropertyInfo@2@XZ
?AccStateProp@Element@DirectUI@@SAPBUPropertyInfo@2@XZ
?AccValueProp@Element@DirectUI@@SAPBUPropertyInfo@2@XZ
?AcceleratorKeyProperty@Schema@DirectUI@@2HA DATA
?Access@?$SafeArrayAccessor@H@DirectUI@@QAAJPAUtagSAFEARRAY@@G@Z
?AccessKeyProperty@Schema@DirectUI@@2HA DATA
?AccessibleProp@Element@DirectUI@@SAPBUPropertyInfo@2@XZ
?ActionInitiated@Navigator@DirectUI@@SA?AVUID@@XZ
?ActivateTooltip@Element@DirectUI@@MAAXPAV12@K@Z
?ActivateTooltip@HWNDElement@DirectUI@@UAAXPAVElement@2@K@Z
?ActivateTooltip@TouchHWNDElement@DirectUI@@UAAXPAVElement@2@K@Z
?ActiveProp@Element@DirectUI@@SAPBUPropertyInfo@2@XZ
?ActiveStateChanged@TouchScrollBar@DirectUI@@SA?AVUID@@XZ
?ActualReferencePointProp@RefPointElement@DirectUI@@SAPBUPropertyInfo@2@XZ
?Add@BaseScrollViewer@DirectUI@@UAAJPAPAVElement@2@I@Z
?Add@Element@DirectUI@@QAAJPAV12@@Z
?Add@Element@DirectUI@@QAAJPAV12@P6AHPBX1@Z@Z
?Add@Element@DirectUI@@UAAJPAPAV12@I@Z
?Add@ElementProviderManager@DirectUI@@SAJPAVElementProvider@2@@Z
?Add@Expando@DirectUI@@UAAJPAPAVElement@2@I@Z
?Add@LinkedList@DirectUI@@QAAXPAVLinkedListNode@2@@Z
?Add@Macro@DirectUI@@UAAJPAPAVElement@2@I@Z
?Add@Pages@DirectUI@@UAAJPAPAVElement@2@I@Z
?Add@TouchEdit2@DirectUI@@UAAJPAPAVElement@2@I@Z
?Add@TouchSelect@DirectUI@@UAAJPAPAVElement@2@I@Z
?AddBehavior@Element@DirectUI@@UAAJPAUIDuiBehavior@@@Z
?AddChild@ClassInfoBase@DirectUI@@UAAXXZ
?AddChildren@ScrollViewer@DirectUI@@MAAJXZ
?AddChildren@StyledScrollViewer@DirectUI@@MAAJXZ
?AddElement@TouchSelect@DirectUI@@QAAJPAVElement@2@PBG@Z
?AddListener@Element@DirectUI@@QAAJPAUIElementListener@2@@Z
?AddRectangleChange@EventManager@DirectUI@@CAJPAVElement@2@_N1@Z
?AddRef@ClassInfoBase@DirectUI@@UAAXXZ
?AddRef@DuiAccessible@DirectUI@@UAAKXZ
?AddRef@Element@DirectUI@@QAAKXZ
?AddRef@ElementProvider@DirectUI@@UAAKXZ
?AddRef@ExpandCollapseProvider@DirectUI@@UAAKXZ
?AddRef@GridItemProvider@DirectUI@@UAAKXZ
?AddRef@GridProvider@DirectUI@@UAAKXZ
?AddRef@HWNDElementProvider@DirectUI@@UAAKXZ
?AddRef@InvokeProvider@DirectUI@@UAAKXZ
?AddRef@RangeValueProvider@DirectUI@@UAAKXZ
?AddRef@RefcountBase@DirectUI@@QAAJXZ
?AddRef@ScrollItemProvider@DirectUI@@UAAKXZ
?AddRef@ScrollProvider@DirectUI@@UAAKXZ
?AddRef@SelectionItemProvider@DirectUI@@UAAKXZ
?AddRef@SelectionProvider@DirectUI@@UAAKXZ
?AddRef@TableItemProvider@DirectUI@@UAAKXZ
?AddRef@TableProvider@DirectUI@@UAAKXZ
?AddRef@ToggleProvider@DirectUI@@UAAKXZ
?AddRef@Value@DirectUI@@QAAXXZ
?AddRef@ValueProvider@DirectUI@@UAAKXZ
?AddRef@XProvider@DirectUI@@UAAKXZ
?AddRulesToStyleSheet@DUIXmlParser@DirectUI@@IAAJPAUIXmlReader@@PAVStyleSheet@2@PBGPAV?$DynamicArray@UXMLParserCond@DirectUI@@$0A@@2@PAV?$DynamicArray@PAG$0A@@2@@Z
?AddString@CCListBox@DirectUI@@QAAHPBG@Z
?AddString@Combobox@DirectUI@@QAAHPBG@Z
?AddString@TouchSelect@DirectUI@@QAAJPBG@Z
?AddString@TouchSelect@DirectUI@@QAAJPBGPAPAVElement@2@@Z
?AddStringWithLabelOverride@TouchSelect@DirectUI@@QAAJPBG0PAPAVElement@2@@Z
?AddToSelection@NavigatorSelectionItemProxy@DirectUI@@AAAJPAVBrowser@2@@Z
?AddToSelection@SelectionItemProvider@DirectUI@@UAAJXZ
?AddToSelection@SelectorSelectionItemProxy@DirectUI@@AAAJXZ
?AdvanceFrame@AnimationStrip@DirectUI@@IAAXXZ
?AdvanceFrame@Movie@DirectUI@@SA?AVUID@@XZ
?AdviseEventAdded@ElementProvider@DirectUI@@UAAJHPAUtagSAFEARRAY@@@Z
?AdviseEventAdded@EventManager@DirectUI@@SAJHPAUtagSAFEARRAY@@@Z
?AdviseEventRemoved@ElementProvider@DirectUI@@UAAJHPAUtagSAFEARRAY@@@Z
?AdviseEventRemoved@EventManager@DirectUI@@SAJHPAUtagSAFEARRAY@@@Z
?AliasedRenderingProp@RichText@DirectUI@@SAPBUPropertyInfo@2@XZ
?AlphaProp@Element@DirectUI@@SAPBUPropertyInfo@2@XZ
?AnimatePopupOnDismissProp@TouchSelect@DirectUI@@SAPBUPropertyInfo@2@XZ
?AnimateScroll@TouchScrollBar@DirectUI@@SA?AVUID@@XZ
?AnimationChange@Element@DirectUI@@SA?AVUID@@XZ
?AnimationProp@Element@DirectUI@@SAPBUPropertyInfo@2@XZ
?AnimationStatusChange@PVLAnimation@DirectUI@@SA?AVUID@@XZ
?ApplySinkRegion@HWNDHost@DirectUI@@AAAXPBUtagRECT@@_N@Z
?Arrow@Expando@DirectUI@@KAGXZ
?AssertPIZeroRef@ClassInfoBase@DirectUI@@UBAXXZ
?AsyncContentLoadedEvent@Schema@DirectUI@@2HA DATA
?Attach@Layout@DirectUI@@UAAXPAVElement@2@@Z
?AttachCtrlSubclassProc@HWNDHost@DirectUI@@KAXPAUHWND__@@@Z
?AutoGroupingProp@CCRadioButton@DirectUI@@SAPBUPropertyInfo@2@XZ
?AutoStartProp@Movie@DirectUI@@SAPBUPropertyInfo@2@XZ
?AutoStopProp@Movie@DirectUI@@SAPBUPropertyInfo@2@XZ
?AutomationFocusChangedEvent@Schema@DirectUI@@2HA DATA
?AutomationIdProperty@Schema@DirectUI@@2HA DATA
?AutomationPropertyChangedEvent@Schema@DirectUI@@2HA DATA
?BackgroundOwnerIDProp@HWNDHost@DirectUI@@SAPBUPropertyInfo@2@XZ
?BackgroundProp@Element@DirectUI@@SAPBUPropertyInfo@2@XZ
?BaselineProp@RichText@DirectUI@@SAPBUPropertyInfo@2@XZ
?BorderColorProp@Element@DirectUI@@SAPBUPropertyInfo@2@XZ
?BorderStyleProp@Element@DirectUI@@SAPBUPropertyInfo@2@XZ
?BorderThicknessProp@Element@DirectUI@@SAPBUPropertyInfo@2@XZ
?BoundingRectangleProperty@Schema@DirectUI@@2HA DATA
?BroadcastEvent@Element@DirectUI@@QAAXPAUEvent@2@@Z
?BufferingProp@TouchSlider@DirectUI@@SAPBUPropertyInfo@2@XZ
?BuildCacheInfo@FlowLayout@DirectUI@@IAA?AUtagSIZE@@PAVElement@2@HHPAVSurface@2@_N@Z
?BuildCacheInfo@VerticalFlowLayout@DirectUI@@IAA?AUtagSIZE@@PAVElement@2@HHPAVSurface@2@_N@Z
?BuildElement@Macro@DirectUI@@MAAJXZ
?BuildElement@Repeater@DirectUI@@MAAJXZ
?ButtonClassAcceptsEnterKeyProp@DialogElement@DirectUI@@SAPBUPropertyInfo@2@XZ
?ButtonControlType@Schema@DirectUI@@2HA DATA
?CacheParser@XBaby@DirectUI@@UAAXPAVDUIXmlParser@2@@Z
?CalendarControlType@Schema@DirectUI@@2HA DATA
?CanPerformManualVisualSwap@TouchScrollViewer@DirectUI@@QAA_NXZ
?CanSetFocus@HWNDElement@DirectUI@@UAA_NXZ
?CanSetFocus@XBaby@DirectUI@@UAA_NXZ
?CanSetFocus@XProvider@DirectUI@@UAAJPA_N@Z
?CancelClick@TouchButton@DirectUI@@QAA_NW4ClickDevice@12@@Z
?CancelCurrentDrag@TouchSlider@DirectUI@@QAAXXZ
?CaptureCallstackFrames@CallstackTracker@DirectUI@@QAAHXZ
?CapturedProp@Button@DirectUI@@SAPBUPropertyInfo@2@XZ
?CapturedProp@TouchButton@DirectUI@@SAPBUPropertyInfo@2@XZ
?CaretMoved@TouchEditBase@DirectUI@@SA?AVUID@@XZ
?CheckBoxControlType@Schema@DirectUI@@2HA DATA
?CheckScroll@BaseScrollViewer@DirectUI@@AAAXPAVBaseScrollBar@2@HHH@Z
?CheckedStateProp@TouchCheckBox@DirectUI@@SAPBUPropertyInfo@2@XZ
?ChildrenProp@Element@DirectUI@@SAPBUPropertyInfo@2@XZ
?ClassExist@ClassInfoBase@DirectUI@@SA_NPAPAUIClassInfo@2@PBQBUPropertyInfo@2@IPAU32@PAUHINSTANCE__@@PBG_N@Z
?ClassNameProperty@Schema@DirectUI@@2HA DATA
?ClassProp@Element@DirectUI@@SAPBUPropertyInfo@2@XZ
?ClearButtonClicked@TouchEdit2@DirectUI@@SA?AVUID@@XZ
?ClearCacheDirty@Layout@DirectUI@@IAAXXZ
?ClearParser@DUIFactory@DirectUI@@AAAXXZ
?Click@Button@DirectUI@@SA?AVUID@@XZ
?Click@TouchButton@DirectUI@@SA?AVUID@@XZ
?ClickDefaultButton@DialogElement@DirectUI@@UAA_NXZ
?ClickDefaultButton@DialogElementCore@DirectUI@@QAA_NXZ
?ClickDefaultButton@XBaby@DirectUI@@UAA_NXZ
?ClickDefaultButton@XProvider@DirectUI@@UAAHXZ
?ClickablePointProperty@Schema@DirectUI@@2HA DATA
?Clipper@Expando@DirectUI@@KAGXZ
?Clone@DuiAccessible@DirectUI@@UAAJPAPAUIEnumVARIANT@@@Z
?Clone@HWNDHostAccessible@DirectUI@@UAAJPAPAUIEnumVARIANT@@@Z
?Close@ElementProviderManager@DirectUI@@SAXXZ
?Close@EventManager@DirectUI@@SAXXZ
?Close@InvokeManager@DirectUI@@SAXXZ
?ClosePopup@TouchSelect@DirectUI@@QAAXXZ
?CloseThread@InvokeManager@DirectUI@@SAXXZ
?Collapse@ExpandCollapseProvider@DirectUI@@UAAJXZ
?ColorFontPaletteIndexProp@RichText@DirectUI@@SAPBUPropertyInfo@2@XZ
?ComboBoxControlType@Schema@DirectUI@@2HA DATA
?CompositedTextProp@Element@DirectUI@@SAPBUPropertyInfo@2@XZ
?CompositingQualityProp@Movie@DirectUI@@SAPBUPropertyInfo@2@XZ
?CompositionChange@HWNDElement@DirectUI@@SA?AVUID@@XZ
?ConnectProp@Bind@DirectUI@@SAPBUPropertyInfo@2@XZ
?ConstrainLayoutProp@RichText@DirectUI@@SAPBUPropertyInfo@2@XZ
?ContentAlignProp@Element@DirectUI@@SAPBUPropertyInfo@2@XZ
?ContentProp@Element@DirectUI@@SAPBUPropertyInfo@2@XZ
?Context@Button@DirectUI@@SA?AVUID@@XZ
?ContextMenuHintShowing@ContextMenuBehavior@DirectUI@@SA?AVUID@@XZ
?ContextMenuRequested@ContextMenuBehavior@DirectUI@@SA?AVUID@@XZ
?ContextMenuRequested@TouchEdit2@DirectUI@@SA?AVUID@@XZ
?ContextSensitiveHelp@DuiAccessible@DirectUI@@UAAJH@Z
?ContextSensitiveHelp@HWNDHostAccessible@DirectUI@@UAAJH@Z
?ControlTypeProperty@Schema@DirectUI@@2HA DATA
?CopySheets@DUIXmlParser@DirectUI@@QAAJPAPAV?$DynamicArray@PAVValue@DirectUI@@$0A@@2@@Z
?Count@?$SafeArrayAccessor@H@DirectUI@@QAAHXZ
?Create@?$PatternProvider@VExpandCollapseProvider@DirectUI@@UIExpandCollapseProvider@@$00@DirectUI@@SAJPAVElementProvider@2@PAPAUIUnknown@@@Z
?Create@?$PatternProvider@VGridItemProvider@DirectUI@@UIGridItemProvider@@$01@DirectUI@@SAJPAVElementProvider@2@PAPAUIUnknown@@@Z
?Create@?$PatternProvider@VGridProvider@DirectUI@@UIGridProvider@@$02@DirectUI@@SAJPAVElementProvider@2@PAPAUIUnknown@@@Z
?Create@?$PatternProvider@VInvokeProvider@DirectUI@@UIInvokeProvider@@$0A@@DirectUI@@SAJPAVElementProvider@2@PAPAUIUnknown@@@Z
?Create@?$PatternProvider@VRangeValueProvider@DirectUI@@UIRangeValueProvider@@$03@DirectUI@@SAJPAVElementProvider@2@PAPAUIUnknown@@@Z
?Create@?$PatternProvider@VScrollItemProvider@DirectUI@@UIScrollItemProvider@@$05@DirectUI@@SAJPAVElementProvider@2@PAPAUIUnknown@@@Z
?Create@?$PatternProvider@VScrollProvider@DirectUI@@UIScrollProvider@@$04@DirectUI@@SAJPAVElementProvider@2@PAPAUIUnknown@@@Z
?Create@?$PatternProvider@VSelectionItemProvider@DirectUI@@UISelectionItemProvider@@$06@DirectUI@@SAJPAVElementProvider@2@PAPAUIUnknown@@@Z
?Create@?$PatternProvider@VSelectionProvider@DirectUI@@UISelectionProvider@@$07@DirectUI@@SAJPAVElementProvider@2@PAPAUIUnknown@@@Z
?Create@?$PatternProvider@VTableItemProvider@DirectUI@@UITableItemProvider@@$09@DirectUI@@SAJPAVElementProvider@2@PAPAUIUnknown@@@Z
?Create@?$PatternProvider@VTableProvider@DirectUI@@UITableProvider@@$08@DirectUI@@SAJPAVElementProvider@2@PAPAUIUnknown@@@Z
?Create@?$PatternProvider@VToggleProvider@DirectUI@@UIToggleProvider@@$0L@@DirectUI@@SAJPAVElementProvider@2@PAPAUIUnknown@@@Z
?Create@?$PatternProvider@VValueProvider@DirectUI@@UIValueProvider@@$0M@@DirectUI@@SAJPAVElementProvider@2@PAPAUIUnknown@@@Z
?Create@AcceleratorBehavior@@SAJPAPAUIDuiBehavior@@@Z
?Create@AccessibleButton@DirectUI@@SAJPAVElement@2@PAKPAPAV32@@Z
?Create@AnimationStrip@DirectUI@@SAJPAVElement@2@PAKPAPAV32@@Z
?Create@AutoButton@DirectUI@@SAJPAVElement@2@PAKPAPAV32@@Z
?Create@Bind@DirectUI@@SAJPAVElement@2@PAKPAPAV32@@Z
?Create@BorderLayout@DirectUI@@SAJHPAHPAPAVValue@2@@Z
?Create@BorderLayout@DirectUI@@SAJPAPAVLayout@2@@Z
?Create@Browser@DirectUI@@SAJPAVElement@2@PAKPAPAV32@@Z
?Create@Button@DirectUI@@SAJIPAVElement@2@PAKPAPAV32@@Z
?Create@Button@DirectUI@@SAJPAVElement@2@PAKPAPAV32@@Z
?Create@CCAVI@DirectUI@@SAJIPAVElement@2@PAKPAPAV32@@Z
?Create@CCAVI@DirectUI@@SAJPAVElement@2@PAKPAPAV32@@Z
?Create@CCBase@DirectUI@@SAJIPAVElement@2@PAKPAPAV32@@Z
?Create@CCBase@DirectUI@@SAJPAVElement@2@PAKPAPAV32@@Z
?Create@CCCheckBox@DirectUI@@SAJIPAVElement@2@PAKPAPAV32@@Z
?Create@CCCheckBox@DirectUI@@SAJPAVElement@2@PAKPAPAV32@@Z
?Create@CCCommandLink@DirectUI@@SAJIPAVElement@2@PAKPAPAV32@@Z
?Create@CCCommandLink@DirectUI@@SAJPAVElement@2@PAKPAPAV32@@Z
?Create@CCHScrollBar@DirectUI@@SAJIPAVElement@2@PAKPAPAV32@@Z
?Create@CCHScrollBar@DirectUI@@SAJPAVElement@2@PAKPAPAV32@@Z
?Create@CCListBox@DirectUI@@SAJIPAVElement@2@PAKPAPAV32@@Z
?Create@CCListBox@DirectUI@@SAJPAVElement@2@PAKPAPAV32@@Z
?Create@CCListView@DirectUI@@SAJIPAVElement@2@PAKPAPAV32@@Z
?Create@CCListView@DirectUI@@SAJPAVElement@2@PAKPAPAV32@@Z
?Create@CCProgressBar@DirectUI@@SAJIPAVElement@2@PAKPAPAV32@@Z
?Create@CCProgressBar@DirectUI@@SAJPAVElement@2@PAKPAPAV32@@Z
?Create@CCPushButton@DirectUI@@SAJIPAVElement@2@PAKPAPAV32@@Z
?Create@CCPushButton@DirectUI@@SAJPAVElement@2@PAKPAPAV32@@Z
?Create@CCRadioButton@DirectUI@@SAJIPAVElement@2@PAKPAPAV32@@Z
?Create@CCRadioButton@DirectUI@@SAJPAVElement@2@PAKPAPAV32@@Z
?Create@CCSysLink@DirectUI@@SAJIPAVElement@2@PAKPAPAV32@@Z
?Create@CCSysLink@DirectUI@@SAJPAVElement@2@PAKPAPAV32@@Z
?Create@CCTrackBar@DirectUI@@SAJIPAVElement@2@PAKPAPAV32@@Z
?Create@CCTrackBar@DirectUI@@SAJPAVElement@2@PAKPAPAV32@@Z
?Create@CCTreeView@DirectUI@@SAJIPAVElement@2@PAKPAPAV32@@Z
?Create@CCTreeView@DirectUI@@SAJPAVElement@2@PAKPAPAV32@@Z
?Create@CCVScrollBar@DirectUI@@SAJIPAVElement@2@PAKPAPAV32@@Z
?Create@CCVScrollBar@DirectUI@@SAJPAVElement@2@PAKPAPAV32@@Z
?Create@CheckBoxGlyph@DirectUI@@SAJIPAVElement@2@PAKPAPAV32@@Z
?Create@CheckBoxGlyph@DirectUI@@SAJPAVElement@2@PAKPAPAV32@@Z
?Create@Clipper@DirectUI@@SAJPAVElement@2@PAKPAPAV32@@Z
?Create@Combobox@DirectUI@@SAJIPAVElement@2@PAKPAPAV32@@Z
?Create@Combobox@DirectUI@@SAJPAVElement@2@PAKPAPAV32@@Z
?Create@ContextMenuBehavior@DirectUI@@SAJPAPAUIDuiBehavior@@@Z
?Create@DUIXmlParser@DirectUI@@SAJPAPAV12@P6APAVValue@2@PBGPAX@Z2P6AX11H2@Z2@Z
?Create@DialogElement@DirectUI@@SAJPAUHWND__@@_NIPAVElement@2@PAKPAPAV42@@Z
?Create@DuiAccessible@DirectUI@@SAJPAVElement@2@PAPAV12@@Z
?Create@Edit@DirectUI@@SAJIPAVElement@2@PAKPAPAV32@@Z
?Create@Edit@DirectUI@@SAJPAVElement@2@PAKPAPAV32@@Z
?Create@Element@DirectUI@@SAJIPAV12@PAKPAPAV12@@Z
?Create@ElementProvider@DirectUI@@SAJPAVElement@2@PAVInvokeHelper@2@PAPAV12@@Z
?Create@ElementProxy@DirectUI@@SAPAV12@PAVElement@2@@Z
?Create@ElementWithHWND@DirectUI@@SAJPAVElement@2@PAKPAPAV32@@Z
?Create@ExpandCollapseProxy@DirectUI@@SAPAV12@PAVElement@2@@Z
?Create@Expandable@DirectUI@@SAJPAVElement@2@PAKPAPAV32@@Z
?Create@Expando@DirectUI@@SAJPAVElement@2@PAKPAPAV32@@Z
?Create@ExpandoButtonGlyph@DirectUI@@SAJIPAVElement@2@PAKPAPAV32@@Z
?Create@ExpandoButtonGlyph@DirectUI@@SAJPAVElement@2@PAKPAPAV32@@Z
?Create@FillLayout@DirectUI@@SAJHPAHPAPAVValue@2@@Z
?Create@FillLayout@DirectUI@@SAJPAPAVLayout@2@@Z
?Create@FlowLayout@DirectUI@@SAJHPAHPAPAVValue@2@@Z
?Create@FlowLayout@DirectUI@@SAJ_NIIIPAPAVLayout@2@@Z
?Create@GridItemProxy@DirectUI@@SAPAV12@PAVElement@2@@Z
?Create@GridLayout@DirectUI@@SAJHHPAPAVLayout@2@@Z
?Create@GridLayout@DirectUI@@SAJHPAHPAPAVValue@2@@Z
?Create@GridProxy@DirectUI@@SAPAV12@PAVElement@2@@Z
?Create@HWNDElement@DirectUI@@SAJPAUHWND__@@_NIPAVElement@2@PAKPAPAV42@@Z
?Create@HWNDElementAccessible@DirectUI@@SAJPAVHWNDElement@2@PAPAVDuiAccessible@2@@Z
?Create@HWNDElementProvider@DirectUI@@SAJPAVHWNDElement@2@PAVInvokeHelper@2@PAPAV12@@Z
?Create@HWNDElementProxy@DirectUI@@SAPAV12@PAVHWNDElement@2@@Z
?Create@HWNDHost@DirectUI@@SAJIIPAVElement@2@PAKPAPAV32@@Z
?Create@HWNDHost@DirectUI@@SAJPAVElement@2@PAKPAPAV32@@Z
?Create@HWNDHostAccessible@DirectUI@@SAJPAVElement@2@PAUIAccessible@@PAPAVDuiAccessible@2@@Z
?Create@HWNDHostClientAccessible@DirectUI@@SAJPAVElement@2@PAUIAccessible@@PAPAVDuiAccessible@2@@Z
?Create@InvokeProxy@DirectUI@@SAPAV12@PAVElement@2@@Z
?Create@ItemList@DirectUI@@SAJPAVElement@2@PAKPAPAV32@@Z
?Create@Layout@DirectUI@@SAJPAPAV12@@Z
?Create@Macro@DirectUI@@SAJPAVElement@2@PAKPAPAV32@@Z
?Create@ModernProgressBar@DirectUI@@SAJPAVElement@2@PAKPAPAV32@@Z
?Create@ModernProgressRing@DirectUI@@SAJPAVElement@2@PAKPAPAV32@@Z
?Create@Movie@DirectUI@@SAJIPAVElement@2@PAKPAPAV32@@Z
?Create@Movie@DirectUI@@SAJPAVElement@2@PAKPAPAV32@@Z
?Create@NativeHWNDHost@DirectUI@@SAJPBG0PAUHWND__@@PAUHICON__@@HHHHHHPAUHINSTANCE__@@IPAPAV12@@Z
?Create@NativeHWNDHost@DirectUI@@SAJPBGPAUHWND__@@PAUHICON__@@HHHHHHIPAPAV12@@Z
?Create@Navigator@DirectUI@@SAJPAVElement@2@PAKPAPAV32@@Z
?Create@NineGridLayout@DirectUI@@SAJHPAHPAPAVValue@2@@Z
?Create@NineGridLayout@DirectUI@@SAJPAPAVLayout@2@@Z
?Create@PText@DirectUI@@SAJPAVElement@2@PAKPAPAV32@@Z
?Create@Page@DirectUI@@SAJPAVElement@2@PAKPAPAV32@@Z
?Create@Pages@DirectUI@@SAJPAVElement@2@PAKPAPAV32@@Z
?Create@Progress@DirectUI@@SAJPAVElement@2@PAKPAPAV32@@Z
?Create@PushButton@DirectUI@@SAJPAVElement@2@PAKPAPAV32@@Z
?Create@RadioButtonGlyph@DirectUI@@SAJIPAVElement@2@PAKPAPAV32@@Z
?Create@RadioButtonGlyph@DirectUI@@SAJPAVElement@2@PAKPAPAV32@@Z
?Create@RangeValueProxy@DirectUI@@SAPAV12@PAVElement@2@@Z
?Create@RefPointElement@DirectUI@@SAJIPAVElement@2@PAKPAPAV32@@Z
?Create@RefPointElement@DirectUI@@SAJPAVElement@2@PAKPAPAV32@@Z
?Create@RepeatButton@DirectUI@@SAJIPAVElement@2@PAKPAPAV32@@Z
?Create@RepeatButton@DirectUI@@SAJPAVElement@2@PAKPAPAV32@@Z
?Create@Repeater@DirectUI@@SAJPAVElement@2@PAKPAPAV32@@Z
?Create@RichText@DirectUI@@SAJPAVElement@2@PAKPAPAV32@@Z
?Create@RowLayout@DirectUI@@SAJHIIPAPAVLayout@2@@Z
?Create@RowLayout@DirectUI@@SAJHPAHPAPAVValue@2@@Z
?Create@RowLayout@DirectUI@@SAJIIPAPAVLayout@2@@Z
?Create@ScrollBar@DirectUI@@SAJPAVElement@2@PAKPAPAV32@@Z
?Create@ScrollBar@DirectUI@@SAJ_NPAVElement@2@PAKPAPAV32@@Z
?Create@ScrollItemProxy@DirectUI@@SAPAV12@PAVElement@2@@Z
?Create@ScrollProxy@DirectUI@@SAPAV12@PAVElement@2@@Z
?Create@ScrollViewer@DirectUI@@SAJPAVElement@2@PAKPAPAV32@@Z
?Create@ScrubBehavior@@SAJPAPAUIDuiBehavior@@@Z
?Create@SelectionItemProxy@DirectUI@@SAPAV12@PAVElement@2@@Z
?Create@SelectionProxy@DirectUI@@SAPAV12@PAVElement@2@@Z
?Create@Selector@DirectUI@@SAJPAVElement@2@PAKPAPAV32@@Z
?Create@SelectorNoDefault@DirectUI@@SAJPAVElement@2@PAKPAPAV32@@Z
?Create@SemanticZoomToggle@DirectUI@@SAJPAVElement@2@PAKPAPAV32@@Z
?Create@ShellBorderLayout@DirectUI@@SAJHPAHPAPAVValue@2@@Z
?Create@ShellBorderLayout@DirectUI@@SAJPAPAVLayout@2@@Z
?Create@StyleSheet@DirectUI@@SAJPAPAV12@@Z
?Create@StyledScrollViewer@DirectUI@@SAJPAVElement@2@PAKPAPAV32@@Z
?Create@TableItemProxy@DirectUI@@SAPAV12@PAVElement@2@@Z
?Create@TableLayout@DirectUI@@SAJHPAHPAPAVValue@2@@Z
?Create@TableProxy@DirectUI@@SAPAV12@PAVElement@2@@Z
?Create@TextGraphic@DirectUI@@SAJPAVElement@2@PAKPAPAV32@@Z
?Create@Thumb@DirectUI@@SAJIPAVElement@2@PAKPAPAV32@@Z
?Create@Thumb@DirectUI@@SAJPAVElement@2@PAKPAPAV32@@Z
?Create@ToggleProxy@DirectUI@@SAPAV12@PAVElement@2@@Z
?Create@TouchButton@DirectUI@@SAJIPAVElement@2@PAKPAPAV32@@Z
?Create@TouchButton@DirectUI@@SAJPAVElement@2@PAKPAPAV32@@Z
?Create@TouchCheckBox@DirectUI@@SAJIPAVElement@2@PAKPAPAV32@@Z
?Create@TouchCheckBox@DirectUI@@SAJPAVElement@2@PAKPAPAV32@@Z
?Create@TouchCheckBoxGlyph@DirectUI@@SAJPAVElement@2@PAKPAPAV32@@Z
?Create@TouchCommandButton@DirectUI@@SAJIPAVElement@2@PAKPAPAV32@@Z
?Create@TouchCommandButton@DirectUI@@SAJPAVElement@2@PAKPAPAV32@@Z
?Create@TouchEdit2@DirectUI@@SAJPAVElement@2@PAKPAPAV32@@Z
?Create@TouchEditBase@DirectUI@@SAJPAVElement@2@PAKPAPAV32@@Z
?Create@TouchHWNDElement@DirectUI@@SAJPAUHWND__@@_NIPAVElement@2@PAKPAPAV42@@Z
?Create@TouchHyperLink@DirectUI@@SAJIPAVElement@2@PAKPAPAV32@@Z
?Create@TouchHyperLink@DirectUI@@SAJPAVElement@2@PAKPAPAV32@@Z
?Create@TouchRepeatButton@DirectUI@@SAJIPAVElement@2@PAKPAPAV32@@Z
?Create@TouchRepeatButton@DirectUI@@SAJPAVElement@2@PAKPAPAV32@@Z
?Create@TouchScrollBar@DirectUI@@SAJPAVElement@2@PAKPAPAV32@@Z
?Create@TouchScrollViewer@DirectUI@@SAJPAVElement@2@PAKPAPAV32@@Z
?Create@TouchSelect@DirectUI@@SAJPAVElement@2@PAKPAPAV32@@Z
?Create@TouchSelectItem@DirectUI@@SAJPAVElement@2@PAKPAPAV32@@Z
?Create@TouchSlider@DirectUI@@SAJPAVElement@2@PAKPAPAV32@@Z
?Create@TouchSwitch@DirectUI@@SAJPAVElement@2@PAKPAPAV32@@Z
?Create@UnknownElement@DirectUI@@SAJIPAVElement@2@PAKPAPAV32@@Z
?Create@UnknownElement@DirectUI@@SAJPAVElement@2@PAKPAPAV32@@Z
?Create@ValueProxy@DirectUI@@SAPAV12@PAVElement@2@@Z
?Create@VerticalFlowLayout@DirectUI@@SAJHPAHPAPAVValue@2@@Z
?Create@VerticalFlowLayout@DirectUI@@SAJ_NIIIPAPAVLayout@2@@Z
?Create@Viewer@DirectUI@@SAJPAVElement@2@PAKPAPAV32@@Z
?Create@XBaby@DirectUI@@SAJPAVElement@2@PAKPAPAV32@@Z
?Create@XBaby@DirectUI@@SAJPAVIXElementCP@2@PAVXProvider@2@PAUHWND__@@PAVElement@2@PAKPAPAV62@@Z
?Create@XElement@DirectUI@@SAJIPAVElement@2@PAKPAPAV32@@Z
?Create@XElement@DirectUI@@SAJPAVElement@2@PAKPAPAV32@@Z
?Create@XHost@DirectUI@@SAJPAVIXElementCP@2@PAPAV12@@Z
?Create@XProvider@DirectUI@@SAJPAVElement@2@PAVIXProviderCP@2@PAPAV12@@Z
?Create@XResourceProvider@DirectUI@@SAJPAPAV12@@Z
?Create@XResourceProvider@DirectUI@@SAJPAUHINSTANCE__@@PBG11PAPAV12@@Z
?CreateAccNameLabel@HWNDHost@DirectUI@@IAAPAUHWND__@@PAU3@@Z
?CreateAtom@Value@DirectUI@@SAPAV12@G@Z
?CreateAtom@Value@DirectUI@@SAPAV12@PBG@Z
?CreateBool@Value@DirectUI@@SAPAV12@_N@Z
?CreateButtons@ScrollBar@DirectUI@@MAAJXZ
?CreateButtons@TouchScrollBar@DirectUI@@UAAJXZ
?CreateCache@RichText@DirectUI@@SAJIPAPAUIDUIRichTextCache@@@Z
?CreateColor@Value@DirectUI@@SAPAV12@K@Z
?CreateColor@Value@DirectUI@@SAPAV12@KKE@Z
?CreateColor@Value@DirectUI@@SAPAV12@KKKE@Z
?CreateCursor@Value@DirectUI@@SAPAV12@PAUHICON__@@@Z
?CreateCursor@Value@DirectUI@@SAPAV12@PBG@Z
?CreateDFCFill@Value@DirectUI@@SAPAV12@II@Z
?CreateDTBFill@Value@DirectUI@@SAPAV12@PBGHH@Z
?CreateDUI@XProvider@DirectUI@@UAAJPAVIXElementCP@2@PAPAUHWND__@@@Z
?CreateDUICP@TaskPage@DirectUI@@EAAJPAVHWNDElement@2@PAUHWND__@@1PAPAVElement@2@PAPAVDUIXmlParser@2@@Z
?CreateDUICP@XResourceProvider@DirectUI@@UAAJPAVHWNDElement@2@PAUHWND__@@1PAPAVElement@2@PAPAVDUIXmlParser@2@@Z
CreateDUIWrapperTouchEx
?CreateDoubleList@Value@DirectUI@@SAPAV12@PAV?$DynamicArray@N$0A@@2@@Z
?CreateDoubleList@Value@DirectUI@@SAPAV12@PBNH@Z
?CreateElement@DUIXmlParser@DirectUI@@QAAJPBGPAVElement@2@1PAKPAPAV32@@Z
?CreateElementList@Value@DirectUI@@SAPAV12@PAV?$DynamicArray@PAVElement@DirectUI@@$0A@@2@@Z
?CreateElementRef@Value@DirectUI@@SAPAV12@PAVElement@2@@Z
?CreateElementScaledValue@Value@DirectUI@@SAPAV12@PAVElement@2@PAV12@@Z
?CreateEncodedString@Value@DirectUI@@SAPAV12@PBG@Z
?CreateExpression@Value@DirectUI@@SAPAV12@PAVExpression@2@@Z
?CreateFill@Value@DirectUI@@SAPAV12@ABUFill@2@@Z
?CreateFloat@Value@DirectUI@@SAPAV12@MW4DynamicScaleValue@@@Z
?CreateGraphic@Value@DirectUI@@SAPAV12@PAUHBITMAP__@@EI_N11@Z
?CreateGraphic@Value@DirectUI@@SAPAV12@PAUHENHMETAFILE__@@0@Z
?CreateGraphic@Value@DirectUI@@SAPAV12@PAUHICON__@@_N11@Z
?CreateGraphic@Value@DirectUI@@SAPAV12@PAUISharedBitmap@@EI@Z
?CreateGraphic@Value@DirectUI@@SAPAV12@PBGEIGGPAUHINSTANCE__@@_N2@Z
?CreateGraphic@Value@DirectUI@@SAPAV12@PBGGGPAUHINSTANCE__@@_N2@Z
?CreateHWND@CCBase@DirectUI@@UAAPAUHWND__@@PAU3@@Z
?CreateHWND@CCBaseScrollBar@DirectUI@@UAAPAUHWND__@@PAU3@@Z
?CreateHWND@Combobox@DirectUI@@UAAPAUHWND__@@PAU3@@Z
?CreateHWND@Edit@DirectUI@@MAAPAUHWND__@@PAU3@@Z
?CreateHWND@Edit@DirectUI@@MAAPAUHWND__@@PAU3@_N@Z
?CreateHWND@HWNDHost@DirectUI@@MAAPAUHWND__@@PAU3@@Z
?CreateHWND@XElement@DirectUI@@UAAPAUHWND__@@PAU3@@Z
?CreateHostWindow@NativeHWNDHost@DirectUI@@UAAPAUHWND__@@KPBG0KHHHHPAU3@PAUHMENU__@@PAUHINSTANCE__@@PAX@Z
?CreateInstance@CSafeElementProxy@@SAJPAVElement@DirectUI@@PAPAV1@@Z
?CreateInt@Value@DirectUI@@SAPAV12@HW4DynamicScaleValue@@@Z
?CreateLayout@DUIXmlParser@DirectUI@@IAAJPBUExprNode@ParserTools@2@P6AJHPAHPAPAVValue@2@@Z@Z
?CreateLayout@Value@DirectUI@@SAPAV12@PAVLayout@2@@Z
?CreateParser@DUIFactory@DirectUI@@QAAJXZ
?CreateParser@XProvider@DirectUI@@QAAJPAPAVDUIXmlParser@2@@Z
?CreateParserCP@TaskPage@DirectUI@@EAAJPAPAVDUIXmlParser@2@@Z
?CreateParserCP@XResourceProvider@DirectUI@@UAAJPAPAVDUIXmlParser@2@@Z
?CreatePatternProvider@Schema@DirectUI@@SAJW4Pattern@12@PAVElementProvider@2@PAPAUIUnknown@@@Z
?CreatePoint@Value@DirectUI@@SAPAV12@HHW4DynamicScaleValue@@@Z
?CreateRect@Value@DirectUI@@SAPAV12@HHHHW4DynamicScaleValue@@@Z
?CreateScaledValue@Value@DirectUI@@SAPAV12@MPAV12@@Z
?CreateScrollBars@ScrollViewer@DirectUI@@MAAJXZ
?CreateScrollBars@StyledScrollViewer@DirectUI@@MAAJXZ
?CreateSize@Value@DirectUI@@SAPAV12@HHW4DynamicScaleValue@@@Z
?CreateString@Value@DirectUI@@SAPAV12@PBGPAUHINSTANCE__@@@Z
?CreateStringRP@Value@DirectUI@@SAPAV12@PBGPAUHINSTANCE__@@@Z
?CreateStyleParser@HWNDElement@DirectUI@@UAAJPAPAVDUIXmlParser@2@@Z
?CreateStyleParser@XBaby@DirectUI@@UAAJPAPAVDUIXmlParser@2@@Z
?CreateStyleSheet@DUIXmlParser@DirectUI@@IAAJPAUIXmlReader@@PBGPAPAVStyleSheet@2@@Z
?CreateStyleSheet@Value@DirectUI@@SAPAV12@PAVStyleSheet@2@@Z
?CreateValueList@Value@DirectUI@@SAPAV12@PAV12@@Z
?CreateValueList@Value@DirectUI@@SAPAV12@PAV?$DynamicArray@PAVValue@DirectUI@@$0A@@2@@Z
?CreateXBaby@XProvider@DirectUI@@UAAJPAVIXElementCP@2@PAUHWND__@@PAVElement@2@PAKPAPAUIXBaby@2@@Z
?CreateXmlReader@DUIXmlParser@DirectUI@@IAAJPAPAUIXmlReader@@@Z
?CreateXmlReaderFromHGLOBAL@DUIXmlParser@DirectUI@@IAAJPAXPAPAUIXmlReader@@@Z
?CreateXmlReaderInputWithEncodingName@DUIXmlParser@DirectUI@@IAAJPAUIStream@@PBGPAPAUIUnknown@@@Z
?CtrlSubclassProc@HWNDHost@DirectUI@@KAJPAUHWND__@@IIJ@Z
?CultureProperty@Schema@DirectUI@@2HA DATA
?CursorProp@Element@DirectUI@@SAPBUPropertyInfo@2@XZ
?CustomControlType@Schema@DirectUI@@2HA DATA
?CustomDragDropScalingHint@PVLAnimation@DirectUI@@SA?AVUID@@XZ
?CustomProp@Element@DirectUI@@SAPBUPropertyInfo@2@XZ
?CustomReflowHint@PVLAnimation@DirectUI@@SA?AVUID@@XZ
?CustomTapHint@PVLAnimation@DirectUI@@SA?AVUID@@XZ
?Cut@TouchEditBase@DirectUI@@SA?AVUID@@XZ
?DCompDeviceRebuilt@Element@DirectUI@@SA?AVUID@@XZ
?DPIProp@Element@DirectUI@@SAPBUPropertyInfo@2@XZ
?DUICreatePropertySheetPage@TaskPage@DirectUI@@QAAJPAUHINSTANCE__@@@Z
DUIStopPVLAnimation
?DataGridControlType@Schema@DirectUI@@2HA DATA
?DataItemControlType@Schema@DirectUI@@2HA DATA
?DefaultAction@Button@DirectUI@@UAAJXZ
?DefaultAction@CCBase@DirectUI@@UAAJXZ
?DefaultAction@CCPushButton@DirectUI@@UAAJXZ
?DefaultAction@Element@DirectUI@@UAAJXZ
?DefaultAction@SemanticZoomToggle@DirectUI@@UAAJXZ
?DefaultAction@TouchButton@DirectUI@@UAAJXZ
?DefaultAction@TouchRepeatButton@DirectUI@@UAAJXZ
?DefaultButtonTrackingProp@DialogElement@DirectUI@@SAPBUPropertyInfo@2@XZ
?DelayActivateTooltip@HWNDElement@DirectUI@@QAAXXZ
?DeleteString@CCListBox@DirectUI@@QAAHH@Z
?DesiredSizeProp@Element@DirectUI@@SAPBUPropertyInfo@2@XZ
?Destroy@ClassInfoBase@DirectUI@@UAAXXZ
?Destroy@DUIXmlParser@DirectUI@@QAAXXZ
?Destroy@Element@DirectUI@@QAAJ_N@Z
?Destroy@Expression@DirectUI@@QAAXXZ
?Destroy@Layout@DirectUI@@QAAXXZ
?Destroy@NativeHWNDHost@DirectUI@@QAAXXZ
?Destroy@XHost@DirectUI@@QAAXXZ
?DestroyAll@Element@DirectUI@@QAAJ_N@Z
?DestroyCP@TaskPage@DirectUI@@EAAXXZ
?DestroyCP@XResourceProvider@DirectUI@@UAAXXZ
?DestroyListener@EventManager@DirectUI@@SAXPAVElement@2@@Z
?DestroyMsg@NativeHWNDHost@DirectUI@@SAIXZ
?DestroyWindow@NativeHWNDHost@DirectUI@@QAAXXZ
?DestroyWindow@XHost@DirectUI@@QAAXXZ
?Detach@CSafeElementProxy@@QAAXXZ
?Detach@Element@DirectUI@@QAAXPAVDeferCycle@2@@Z
?Detach@HWNDHost@DirectUI@@QAAXXZ
?Detach@Layout@DirectUI@@UAAXPAVElement@2@@Z
?DetachParser@DUIFactory@DirectUI@@QAAPAVDUIXmlParser@2@XZ
?DeterminateProp@ModernProgressBar@DirectUI@@SAPBUPropertyInfo@2@XZ
?DirectionProp@Element@DirectUI@@SAPBUPropertyInfo@2@XZ
?DirtyProp@Edit@DirectUI@@SAPBUPropertyInfo@2@XZ
?DisableAccTextExtendProp@RichText@DirectUI@@SAPBUPropertyInfo@2@XZ
?DisableMouseInRectCheckProp@TouchRepeatButton@DirectUI@@SAPBUPropertyInfo@2@XZ
?DisableSelectionHandlesOnEmptyContent@TouchEdit2@DirectUI@@QAAXXZ
?Disconnect@DuiAccessible@DirectUI@@UAAJXZ
?Disconnect@HWNDElementAccessible@DirectUI@@UAAJXZ
?Disconnect@HWNDHostAccessible@DirectUI@@UAAJXZ
?DismissIHMAsync@TouchHWNDElement@DirectUI@@QAAJXZ
?DllsLoaded@CallstackTracker@DirectUI@@CAHXZ
?DoInvoke@?$PatternProvider@VExpandCollapseProvider@DirectUI@@UIExpandCollapseProvider@@$00@DirectUI@@IAAJHZZ
?DoInvoke@?$PatternProvider@VGridItemProvider@DirectUI@@UIGridItemProvider@@$01@DirectUI@@IAAJHZZ
?DoInvoke@?$PatternProvider@VGridProvider@DirectUI@@UIGridProvider@@$02@DirectUI@@IAAJHZZ
?DoInvoke@?$PatternProvider@VInvokeProvider@DirectUI@@UIInvokeProvider@@$0A@@DirectUI@@IAAJHZZ
?DoInvoke@?$PatternProvider@VRangeValueProvider@DirectUI@@UIRangeValueProvider@@$03@DirectUI@@IAAJHZZ
?DoInvoke@?$PatternProvider@VScrollItemProvider@DirectUI@@UIScrollItemProvider@@$05@DirectUI@@IAAJHZZ
?DoInvoke@?$PatternProvider@VScrollProvider@DirectUI@@UIScrollProvider@@$04@DirectUI@@IAAJHZZ
?DoInvoke@?$PatternProvider@VSelectionItemProvider@DirectUI@@UISelectionItemProvider@@$06@DirectUI@@IAAJHZZ
?DoInvoke@?$PatternProvider@VSelectionProvider@DirectUI@@UISelectionProvider@@$07@DirectUI@@IAAJHZZ
?DoInvoke@?$PatternProvider@VTableItemProvider@DirectUI@@UITableItemProvider@@$09@DirectUI@@IAAJHZZ
?DoInvoke@?$PatternProvider@VTableProvider@DirectUI@@UITableProvider@@$08@DirectUI@@IAAJHZZ
?DoInvoke@?$PatternProvider@VToggleProvider@DirectUI@@UIToggleProvider@@$0L@@DirectUI@@IAAJHZZ
?DoInvoke@?$PatternProvider@VValueProvider@DirectUI@@UIValueProvider@@$0M@@DirectUI@@IAAJHZZ
?DoInvoke@ElementProvider@DirectUI@@IAAJHZZ
?DoInvoke@InvokeHelper@DirectUI@@QAAJHPAVElementProvider@2@P6APAVProviderProxy@2@PAVElement@2@@ZPAD@Z
?DoInvokeArgs@ElementProvider@DirectUI@@QAAJHP6APAVProviderProxy@2@PAVElement@2@@ZPAD@Z
?DoLayout@BorderLayout@DirectUI@@UAAXPAVElement@2@HH@Z
?DoLayout@FillLayout@DirectUI@@UAAXPAVElement@2@HH@Z
?DoLayout@FlowLayout@DirectUI@@UAAXPAVElement@2@HH@Z
?DoLayout@GridLayout@DirectUI@@UAAXPAVElement@2@HH@Z
?DoLayout@Layout@DirectUI@@UAAXPAVElement@2@HH@Z
?DoLayout@NineGridLayout@DirectUI@@UAAXPAVElement@2@HH@Z
?DoLayout@RowLayout@DirectUI@@UAAXPAVElement@2@HH@Z
?DoLayout@TableLayout@DirectUI@@UAAXPAVElement@2@HH@Z
?DoLayout@VerticalFlowLayout@DirectUI@@UAAXPAVElement@2@HH@Z
?DoMethod@BrowserSelectionProxy@DirectUI@@UAAJHPAD@Z
?DoMethod@ElementProxy@DirectUI@@UAAJHPAD@Z
?DoMethod@ExpandCollapseProxy@DirectUI@@UAAJHPAD@Z
?DoMethod@GridItemProxy@DirectUI@@UAAJHPAD@Z
?DoMethod@GridProxy@DirectUI@@UAAJHPAD@Z
?DoMethod@HWNDElementProxy@DirectUI@@UAAJHPAD@Z
?DoMethod@InvokeProxy@DirectUI@@UAAJHPAD@Z
?DoMethod@ModernProgressBarRangeValueProxy@DirectUI@@UAAJHPAD@Z
?DoMethod@NavigatorSelectionItemProxy@DirectUI@@UAAJHPAD@Z
?DoMethod@ProgressRangeValueProxy@DirectUI@@UAAJHPAD@Z
?DoMethod@RangeValueProxy@DirectUI@@UAAJHPAD@Z
?DoMethod@ScrollBarRangeValueProxy@DirectUI@@UAAJHPAD@Z
?DoMethod@ScrollItemProxy@DirectUI@@UAAJHPAD@Z
?DoMethod@ScrollProxy@DirectUI@@UAAJHPAD@Z
?DoMethod@SelectionItemProxy@DirectUI@@UAAJHPAD@Z
?DoMethod@SelectionProxy@DirectUI@@UAAJHPAD@Z
?DoMethod@SelectorSelectionItemProxy@DirectUI@@UAAJHPAD@Z
?DoMethod@SelectorSelectionProxy@DirectUI@@UAAJHPAD@Z
?DoMethod@TableItemProxy@DirectUI@@UAAJHPAD@Z
?DoMethod@TableProxy@DirectUI@@UAAJHPAD@Z
?DoMethod@ToggleProxy@DirectUI@@UAAJHPAD@Z
?DoMethod@ValueProxy@DirectUI@@UAAJHPAD@Z
?DockPattern@Schema@DirectUI@@2HA DATA
?DocumentControlType@Schema@DirectUI@@2HA DATA
?DoubleBuffered@Element@DirectUI@@QAAX_N@Z
?Drag@Thumb@DirectUI@@SA?AVUID@@XZ
?DragDragCancelEvent@Schema@DirectUI@@2HA DATA
?DragDragCompleteEvent@Schema@DirectUI@@2HA DATA
?DragDragStartEvent@Schema@DirectUI@@2HA DATA
?DragPattern@Schema@DirectUI@@2HA DATA
?Drag_DropEffect_Property@Schema@DirectUI@@2HA DATA
?Drag_DropEffects_Property@Schema@DirectUI@@2HA DATA
?Drag_IsGrabbed_Property@Schema@DirectUI@@2HA DATA
?DrawOutlinesProp@Movie@DirectUI@@SAPBUPropertyInfo@2@XZ
DuiCreateObject
?DumpDuiProperties@@YAXPAVElement@DirectUI@@@Z
?DumpDuiTree@@YAXPAVElement@DirectUI@@H@Z
?EdgeHighlightColorProp@Element@DirectUI@@SAPBUPropertyInfo@2@XZ
?EdgeHighlightThicknessProp@Element@DirectUI@@SAPBUPropertyInfo@2@XZ
?EditControlType@Schema@DirectUI@@2HA DATA
?ElementFromPoint@HWNDElement@DirectUI@@QAAPAVElement@2@PAUtagPOINT@@@Z
?ElementFromPoint@HWNDElementProxy@DirectUI@@IAAJNNPAPAUIRawElementProviderFragment@@@Z
?ElementMovesOnIHMNotifyProp@TouchEditBase@DirectUI@@SAPBUPropertyInfo@2@XZ
?ElementProviderFromPoint@HWNDElementProvider@DirectUI@@UAAJNNPAPAUIRawElementProviderFragment@@@Z
?EnableDesignMode@DUIXmlParser@DirectUI@@QAAXXZ
?EnableUiaEvents@Element@DirectUI@@QAAX_N@Z
?EnabledProp@Element@DirectUI@@SAPBUPropertyInfo@2@XZ
?End@BaseScrollBar@DirectUI@@UAAXXZ
?EndDefer@Element@DirectUI@@QAAXK@Z
?EndDefer@EventManager@DirectUI@@SAJPAVElement@2@@Z
?EnforceSizeProp@PushButton@DirectUI@@SAPBUPropertyInfo@2@XZ
?EnsureVisible@Element@DirectUI@@QAA_NI@Z
?EnsureVisible@Element@DirectUI@@QAA_NXZ
?EnsureVisible@Element@DirectUI@@UAA_NHHHH@Z
?EnsureVisible@Viewer@DirectUI@@UAA_NHHHH@Z
?Enter@Edit@DirectUI@@SA?AVUID@@XZ
?Enter@TouchEditBase@DirectUI@@SA?AVUID@@XZ
?Entered@Browser@DirectUI@@SA?AVUID@@XZ
?EnumCallstackFrames@CallstackTracker@DirectUI@@QAAHP6AXPBD0KK@Z@Z
?EnumPropertyInfo@ClassInfoBase@DirectUI@@UAAPBUPropertyInfo@2@I@Z
?EraseBkgnd@HWNDHost@DirectUI@@MAA_NPAUHDC__@@PAJ@Z
?EraseFeedback@TouchSlider@DirectUI@@QAAXXZ
?EstimateContentSize@CCPushButton@DirectUI@@UAA?AUtagSIZE@@HHPAVSurface@2@@Z
?EventFromEventId@Schema@DirectUI@@SA?AW4Event@12@H@Z
?EventListener@EventManager@DirectUI@@SAJPAVElement@2@PAUEvent@2@@Z
?ExecuteManualSwapDeferredZoomToRect@TouchScrollViewer@DirectUI@@QAAJ_N@Z
?Expand@ExpandCollapseProvider@DirectUI@@UAAJXZ
?ExpandCollapsePattern@Schema@DirectUI@@2HA DATA
?ExpandCollapse_ExpandCollapseState_Property@Schema@DirectUI@@2HA DATA
?ExpandProp@Macro@DirectUI@@SAPBUPropertyInfo@2@XZ
?ExpandedProp@Expandable@DirectUI@@SAPBUPropertyInfo@2@XZ
?ExtentProp@Element@DirectUI@@SAPBUPropertyInfo@2@XZ
?FWantAnyEvent@EventManager@DirectUI@@SA_NPAVElement@2@@Z
?FillSymbolInfo@CallstackTracker@DirectUI@@AAAXPAUSTACK_SYMBOL_INFO@12@_K@Z
?FilterOnPasteProp@TouchEditBase@DirectUI@@SAPBUPropertyInfo@2@XZ
?FinalizeCurrentIMEComposition@TouchEdit2@DirectUI@@UAAJXZ
?FinalizeCurrentIMEComposition@TouchEditBase@DirectUI@@UAAJXZ
?Find@ElementProviderManager@DirectUI@@SAPAVElementProvider@2@PAVElement@2@@Z
?FindAccessibleRole@AccessibleButton@DirectUI@@CAPBUACCESSIBLEROLE@12@H@Z
?FindDescendent@Element@DirectUI@@QAAPAV12@G@Z
?FindDescendentWorker@Element@DirectUI@@AAAPAV12@G@Z
?FindElementWithShortcutAndDoDefaultAction@XProvider@DirectUI@@UAAHGH@Z
?FindInvokeHelper@InvokeManager@DirectUI@@CAPAVInvokeHelper@2@PAI@Z
?FindProviderCallback@ElementProviderManager@DirectUI@@CA_NPAVElementProvider@2@PAX@Z
?FindRefPoint@RefPointElement@DirectUI@@SAPAVElement@2@PAV32@PAUtagPOINT@@@Z
?FindShortcut@HWNDElement@DirectUI@@SA_NGPAVElement@2@PAPAV32@PAH2H@Z
?FindShortcutRecursive@HWNDElement@DirectUI@@KA_NGPAVElement@2@PAPAV32@PAH2H@Z
?FireAnimationChangeEvent@BaseScrollViewer@DirectUI@@IAAX_N@Z
?FireClickEvent@TouchButton@DirectUI@@UAAXIIW4ClickDevice@12@PAUtagPOINT@@@Z
?FireClickEvent@TouchRepeatButton@DirectUI@@UAAXIIW4ClickDevice@TouchButton@2@PAUtagPOINT@@@Z
?FireEvent@Element@DirectUI@@QAAXPAUEvent@2@_N1@Z
?FireEventOnMouseOrPointerRelease@TouchSlider@DirectUI@@QAAXXZ
?FireHostEvent@PushButton@DirectUI@@AAAXPAVElement@2@_N@Z
?FireNavigate@Browser@DirectUI@@AAAHG@Z
?FireNavigationEvent@Navigator@DirectUI@@AAAXXZ
?FireRightClickEvent@TouchButton@DirectUI@@UAAXIPAUtagPOINT@@@Z
?FireRightClickEvent@TouchRepeatButton@DirectUI@@UAAXIPAUtagPOINT@@@Z
?FireStructureChangedEvent@EventManager@DirectUI@@SAJPAVElement@2@W4StructureChangeType@@@Z
?FlagsProp@TouchHWNDElement@DirectUI@@SAPBUPropertyInfo@2@XZ
?FlushWorkingSet@HWNDElement@DirectUI@@QAAXXZ
?FontColorRunsProp@RichText@DirectUI@@SAPBUPropertyInfo@2@XZ
?FontFaceProp@Element@DirectUI@@SAPBUPropertyInfo@2@XZ
?FontProp@Element@DirectUI@@SAPBUPropertyInfo@2@XZ
?FontQualityProp@Element@DirectUI@@SAPBUPropertyInfo@2@XZ
?FontSizeProp@Element@DirectUI@@SAPBUPropertyInfo@2@XZ
?FontSizeRunsProp@RichText@DirectUI@@SAPBUPropertyInfo@2@XZ
?FontStyleProp@Element@DirectUI@@SAPBUPropertyInfo@2@XZ
?FontWeightProp@Element@DirectUI@@SAPBUPropertyInfo@2@XZ
?FontWeightRunsProp@RichText@DirectUI@@SAPBUPropertyInfo@2@XZ
?ForceEditTextToLTRProp@TouchEditBase@DirectUI@@SAPBUPropertyInfo@2@XZ
?ForceThemeChange@XBaby@DirectUI@@UAAXIJ@Z
?ForceThemeChange@XProvider@DirectUI@@UAAJIJ@Z
?ForegroundProp@Element@DirectUI@@SAPBUPropertyInfo@2@XZ
?Forward@Movie@DirectUI@@QAAXXZ
?ForwardingWindowMessage@TouchHWNDElement@DirectUI@@SA?AVUID@@XZ
?FrameDurationProp@AnimationStrip@DirectUI@@SAPBUPropertyInfo@2@XZ
?FrameIndexProp@AnimationStrip@DirectUI@@SAPBUPropertyInfo@2@XZ
?FrameWidthProp@AnimationStrip@DirectUI@@SAPBUPropertyInfo@2@XZ
?FrameworkId@Schema@DirectUI@@2HA DATA
?FreeComCtl32@TaskPage@DirectUI@@AAAXXZ
?FreeProvider@XElement@DirectUI@@QAAXXZ
?GetAbsorbsShortcut@Element@DirectUI@@QAA_NXZ
?GetAccDefAction@Element@DirectUI@@QAAPBGPAPAVValue@2@@Z
?GetAccDesc@Element@DirectUI@@QAAPBGPAPAVValue@2@@Z
?GetAccHelp@Element@DirectUI@@QAAPBGPAPAVValue@2@@Z
?GetAccItemStatus@Element@DirectUI@@QAAPBGPAPAVValue@2@@Z
?GetAccItemType@Element@DirectUI@@QAAPBGPAPAVValue@2@@Z
?GetAccName@DuiAccessible@DirectUI@@IAAJUtagVARIANT@@HPAPAG@Z
?GetAccName@Element@DirectUI@@QAAPBGPAPAVValue@2@@Z
?GetAccNameAsDisplayed@Element@DirectUI@@QAAPBGPAPAVValue@2@@Z
?GetAccNameFromContent@DuiAccessible@DirectUI@@IAAJPAPAG@Z
?GetAccRole@Element@DirectUI@@QAAHXZ
?GetAccState@Element@DirectUI@@QAAHXZ
?GetAccValue@Element@DirectUI@@QAAPBGPAPAVValue@2@@Z
?GetAccessible@Element@DirectUI@@QAA_NXZ
?GetAccessibleImpl@Element@DirectUI@@UAAJPAPAUIAccessible@@@Z
?GetAccessibleImpl@HWNDElement@DirectUI@@UAAJPAPAUIAccessible@@@Z
?GetAccessibleImpl@HWNDHost@DirectUI@@AAAJPAPAUIAccessible@@_N@Z
?GetAccessibleImpl@HWNDHost@DirectUI@@UAAJPAPAUIAccessible@@@Z
?GetAccessibleImpl@TouchEdit2@DirectUI@@UAAJPAPAUIAccessible@@@Z
?GetAccessibleParent@DuiAccessible@DirectUI@@SAPAVElement@2@PAV32@@Z
?GetActive@Element@DirectUI@@QAAHXZ
?GetActiveState@TouchScrollBar@DirectUI@@QAA?AW4ActiveState@2@XZ
?GetActualReferencePoint@RefPointElement@DirectUI@@QAAPBUtagPOINT@@PAPAVValue@2@@Z
?GetAdjacent@BorderLayout@DirectUI@@UAAPAVElement@2@PAV32@0HPBUNavReference@2@K@Z
?GetAdjacent@Element@DirectUI@@UAAPAV12@PAV12@HPBUNavReference@2@K@Z
?GetAdjacent@FillLayout@DirectUI@@UAAPAVElement@2@PAV32@0HPBUNavReference@2@K@Z
?GetAdjacent@FlowLayout@DirectUI@@UAAPAVElement@2@PAV32@0HPBUNavReference@2@K@Z
?GetAdjacent@GridLayout@DirectUI@@UAAPAVElement@2@PAV32@0HPBUNavReference@2@K@Z
?GetAdjacent@ItemList@DirectUI@@UAAPAVElement@2@PAV32@HPBUNavReference@2@K@Z
?GetAdjacent@Layout@DirectUI@@UAAPAVElement@2@PAV32@0HPBUNavReference@2@K@Z
?GetAdjacent@NineGridLayout@DirectUI@@UAAPAVElement@2@PAV32@0HPBUNavReference@2@K@Z
?GetAdjacent@RowLayout@DirectUI@@UAAPAVElement@2@PAV32@0HPBUNavReference@2@K@Z
?GetAdjacent@Selector@DirectUI@@UAAPAVElement@2@PAV32@HPBUNavReference@2@K@Z
?GetAdjacent@ShellBorderLayout@DirectUI@@UAAPAVElement@2@PAV32@0HPBUNavReference@2@K@Z
?GetAdjacent@TableLayout@DirectUI@@UAAPAVElement@2@PAV32@0HPBUNavReference@2@K@Z
?GetAdjacent@VerticalFlowLayout@DirectUI@@UAAPAVElement@2@PAV32@0HPBUNavReference@2@K@Z
?GetAdjacent@XBaby@DirectUI@@UAAPAVElement@2@PAV32@HPBUNavReference@2@K@Z
?GetAllowArrowOut@TouchScrollViewer@DirectUI@@QAA_NXZ
?GetAlpha@Element@DirectUI@@QAAHXZ
?GetAnimatePopupOnDismiss@TouchSelect@DirectUI@@QAA_NXZ
?GetAnimation@Element@DirectUI@@QAAHXZ
?GetAtom@Value@DirectUI@@QAAGXZ
?GetAtomZero@Value@DirectUI@@SAPAV12@XZ
?GetAutoGrouping@CCRadioButton@DirectUI@@QAA_NXZ
?GetAutoStart@Movie@DirectUI@@QAA_NXZ
?GetAutoStop@Movie@DirectUI@@QAA_NXZ
?GetAutomationId@ElementProxy@DirectUI@@IAAJPAUtagVARIANT@@@Z
?GetBackgroundColor@Element@DirectUI@@QAAPBUFill@2@PAPAVValue@2@@Z
?GetBackgroundOwner@HWNDHost@DirectUI@@IAAPAVElement@2@XZ
?GetBackgroundOwnerID@HWNDHost@DirectUI@@QAAGXZ
?GetBackgroundStdColor@Element@DirectUI@@QAAHXZ
?GetBool@EventManager@DirectUI@@CAJPAUtagVARIANT@@PAVValue@2@@Z
?GetBool@Value@DirectUI@@QAA_NXZ
?GetBoolFalse@Value@DirectUI@@SAPAV12@XZ
?GetBoolTrue@Value@DirectUI@@SAPAV12@XZ
?GetBorderColor@Element@DirectUI@@QAAPBUFill@2@PAPAVValue@2@@Z
?GetBorderStdColor@Element@DirectUI@@QAAHXZ
?GetBorderStyle@Element@DirectUI@@QAAHXZ
?GetBorderThickness@Element@DirectUI@@QAAPBUtagRECT@@PAPAVValue@2@@Z
?GetBoundingRect@ElementProxy@DirectUI@@IAAJPAUUiaRect@@@Z
?GetBrowser@Navigator@DirectUI@@QAAPAVBrowser@2@XZ
?GetBuffering@TouchSlider@DirectUI@@QAAHXZ
?GetButtonClassAcceptsEnterKey@DialogElement@DirectUI@@UAA_NXZ
?GetButtonColor@CCPushButton@DirectUI@@UAA_NPAUHDC__@@PAPAUHBRUSH__@@@Z
?GetByClassIndex@ClassInfoBase@DirectUI@@UAAPBUPropertyInfo@2@I@Z
?GetCaptured@Button@DirectUI@@QAA_NXZ
?GetCaptured@TouchButton@DirectUI@@QAA_NXZ
?GetCellInfo@TableLayout@DirectUI@@QAAPAUCellInfo@2@H@Z
?GetCheckedState@TouchCheckBox@DirectUI@@QAA?AW4CheckedStateFlags@2@XZ
?GetChildFromLayoutIndex@Layout@DirectUI@@QAAPAVElement@2@PAV32@HPAV?$DynamicArray@PAVElement@DirectUI@@$0A@@2@@Z
?GetChildren@ClassInfoBase@DirectUI@@UBAHXZ
?GetChildren@Element@DirectUI@@QAAPAV?$DynamicArray@PAVElement@DirectUI@@$0A@@2@PAPAVValue@2@@Z
?GetClass@Element@DirectUI@@QAAPBGPAPAVValue@2@@Z
?GetClassInfoPtr@AccessibleButton@DirectUI@@SAPAUIClassInfo@2@XZ
?GetClassInfoPtr@AnimationStrip@DirectUI@@SAPAUIClassInfo@2@XZ
?GetClassInfoPtr@AutoButton@DirectUI@@SAPAUIClassInfo@2@XZ
?GetClassInfoPtr@BaseScrollViewer@DirectUI@@SAPAUIClassInfo@2@XZ
?GetClassInfoPtr@Bind@DirectUI@@SAPAUIClassInfo@2@XZ
?GetClassInfoPtr@Browser@DirectUI@@SAPAUIClassInfo@2@XZ
?GetClassInfoPtr@Button@DirectUI@@SAPAUIClassInfo@2@XZ
?GetClassInfoPtr@CCAVI@DirectUI@@SAPAUIClassInfo@2@XZ
?GetClassInfoPtr@CCBase@DirectUI@@SAPAUIClassInfo@2@XZ
?GetClassInfoPtr@CCBaseCheckRadioButton@DirectUI@@SAPAUIClassInfo@2@XZ
?GetClassInfoPtr@CCBaseScrollBar@DirectUI@@SAPAUIClassInfo@2@XZ
?GetClassInfoPtr@CCCheckBox@DirectUI@@SAPAUIClassInfo@2@XZ
?GetClassInfoPtr@CCCommandLink@DirectUI@@SAPAUIClassInfo@2@XZ
?GetClassInfoPtr@CCHScrollBar@DirectUI@@SAPAUIClassInfo@2@XZ
?GetClassInfoPtr@CCListBox@DirectUI@@SAPAUIClassInfo@2@XZ
?GetClassInfoPtr@CCListView@DirectUI@@SAPAUIClassInfo@2@XZ
?GetClassInfoPtr@CCProgressBar@DirectUI@@SAPAUIClassInfo@2@XZ
?GetClassInfoPtr@CCPushButton@DirectUI@@SAPAUIClassInfo@2@XZ
?GetClassInfoPtr@CCRadioButton@DirectUI@@SAPAUIClassInfo@2@XZ
?GetClassInfoPtr@CCSysLink@DirectUI@@SAPAUIClassInfo@2@XZ
?GetClassInfoPtr@CCTrackBar@DirectUI@@SAPAUIClassInfo@2@XZ
?GetClassInfoPtr@CCTreeView@DirectUI@@SAPAUIClassInfo@2@XZ
?GetClassInfoPtr@CCVScrollBar@DirectUI@@SAPAUIClassInfo@2@XZ
?GetClassInfoPtr@CheckBoxGlyph@DirectUI@@SAPAUIClassInfo@2@XZ
?GetClassInfoPtr@Clipper@DirectUI@@SAPAUIClassInfo@2@XZ
?GetClassInfoPtr@Combobox@DirectUI@@SAPAUIClassInfo@2@XZ
?GetClassInfoPtr@DialogElement@DirectUI@@SAPAUIClassInfo@2@XZ
?GetClassInfoPtr@Edit@DirectUI@@SAPAUIClassInfo@2@XZ
?GetClassInfoPtr@Element@DirectUI@@SAPAUIClassInfo@2@XZ
?GetClassInfoPtr@ElementWithHWND@DirectUI@@SAPAUIClassInfo@2@XZ
?GetClassInfoPtr@Expandable@DirectUI@@SAPAUIClassInfo@2@XZ
?GetClassInfoPtr@Expando@DirectUI@@SAPAUIClassInfo@2@XZ
?GetClassInfoPtr@ExpandoButtonGlyph@DirectUI@@SAPAUIClassInfo@2@XZ
?GetClassInfoPtr@HWNDElement@DirectUI@@SAPAUIClassInfo@2@XZ
?GetClassInfoPtr@HWNDHost@DirectUI@@SAPAUIClassInfo@2@XZ
?GetClassInfoPtr@ItemList@DirectUI@@SAPAUIClassInfo@2@XZ
?GetClassInfoPtr@Macro@DirectUI@@SAPAUIClassInfo@2@XZ
?GetClassInfoPtr@ModernProgressBar@DirectUI@@SAPAUIClassInfo@2@XZ
?GetClassInfoPtr@ModernProgressRing@DirectUI@@SAPAUIClassInfo@2@XZ
?GetClassInfoPtr@Movie@DirectUI@@SAPAUIClassInfo@2@XZ
?GetClassInfoPtr@Navigator@DirectUI@@SAPAUIClassInfo@2@XZ
?GetClassInfoPtr@PText@DirectUI@@SAPAUIClassInfo@2@XZ
?GetClassInfoPtr@Page@DirectUI@@SAPAUIClassInfo@2@XZ
?GetClassInfoPtr@Pages@DirectUI@@SAPAUIClassInfo@2@XZ
?GetClassInfoPtr@Progress@DirectUI@@SAPAUIClassInfo@2@XZ
?GetClassInfoPtr@PushButton@DirectUI@@SAPAUIClassInfo@2@XZ
?GetClassInfoPtr@RadioButtonGlyph@DirectUI@@SAPAUIClassInfo@2@XZ
?GetClassInfoPtr@RefPointElement@DirectUI@@SAPAUIClassInfo@2@XZ
?GetClassInfoPtr@RepeatButton@DirectUI@@SAPAUIClassInfo@2@XZ
?GetClassInfoPtr@Repeater@DirectUI@@SAPAUIClassInfo@2@XZ
?GetClassInfoPtr@RichText@DirectUI@@SAPAUIClassInfo@2@XZ
?GetClassInfoPtr@ScrollBar@DirectUI@@SAPAUIClassInfo@2@XZ
?GetClassInfoPtr@ScrollViewer@DirectUI@@SAPAUIClassInfo@2@XZ
?GetClassInfoPtr@Selector@DirectUI@@SAPAUIClassInfo@2@XZ
?GetClassInfoPtr@SelectorNoDefault@DirectUI@@SAPAUIClassInfo@2@XZ
?GetClassInfoPtr@SemanticZoomToggle@DirectUI@@SAPAUIClassInfo@2@XZ
?GetClassInfoPtr@StyledScrollViewer@DirectUI@@SAPAUIClassInfo@2@XZ
?GetClassInfoPtr@TextGraphic@DirectUI@@SAPAUIClassInfo@2@XZ
?GetClassInfoPtr@Thumb@DirectUI@@SAPAUIClassInfo@2@XZ
?GetClassInfoPtr@TouchButton@DirectUI@@SAPAUIClassInfo@2@XZ
?GetClassInfoPtr@TouchCheckBox@DirectUI@@SAPAUIClassInfo@2@XZ
?GetClassInfoPtr@TouchCheckBoxGlyph@DirectUI@@SAPAUIClassInfo@2@XZ
?GetClassInfoPtr@TouchCommandButton@DirectUI@@SAPAUIClassInfo@2@XZ
?GetClassInfoPtr@TouchEdit2@DirectUI@@SAPAUIClassInfo@2@XZ
?GetClassInfoPtr@TouchEditBase@DirectUI@@SAPAUIClassInfo@2@XZ
?GetClassInfoPtr@TouchHWNDElement@DirectUI@@SAPAUIClassInfo@2@XZ
?GetClassInfoPtr@TouchHyperLink@DirectUI@@SAPAUIClassInfo@2@XZ
?GetClassInfoPtr@TouchRepeatButton@DirectUI@@SAPAUIClassInfo@2@XZ
?GetClassInfoPtr@TouchScrollBar@DirectUI@@SAPAUIClassInfo@2@XZ
?GetClassInfoPtr@TouchScrollViewer@DirectUI@@SAPAUIClassInfo@2@XZ
?GetClassInfoPtr@TouchSelect@DirectUI@@SAPAUIClassInfo@2@XZ
?GetClassInfoPtr@TouchSelectItem@DirectUI@@SAPAUIClassInfo@2@XZ
?GetClassInfoPtr@TouchSlider@DirectUI@@SAPAUIClassInfo@2@XZ
?GetClassInfoPtr@TouchSwitch@DirectUI@@SAPAUIClassInfo@2@XZ
?GetClassInfoPtr@UnknownElement@DirectUI@@SAPAUIClassInfo@2@XZ
?GetClassInfoPtr@Viewer@DirectUI@@SAPAUIClassInfo@2@XZ
?GetClassInfoPtr@XBaby@DirectUI@@SAPAUIClassInfo@2@XZ
?GetClassInfoPtr@XElement@DirectUI@@SAPAUIClassInfo@2@XZ
?GetClassInfoW@AccessibleButton@DirectUI@@UAAPAUIClassInfo@2@XZ
?GetClassInfoW@AnimationStrip@DirectUI@@UAAPAUIClassInfo@2@XZ
?GetClassInfoW@AutoButton@DirectUI@@UAAPAUIClassInfo@2@XZ
?GetClassInfoW@BaseScrollViewer@DirectUI@@UAAPAUIClassInfo@2@XZ
?GetClassInfoW@Bind@DirectUI@@UAAPAUIClassInfo@2@XZ
?GetClassInfoW@Browser@DirectUI@@UAAPAUIClassInfo@2@XZ
?GetClassInfoW@Button@DirectUI@@UAAPAUIClassInfo@2@XZ
?GetClassInfoW@CCAVI@DirectUI@@UAAPAUIClassInfo@2@XZ
?GetClassInfoW@CCBase@DirectUI@@UAAPAUIClassInfo@2@XZ
?GetClassInfoW@CCBaseCheckRadioButton@DirectUI@@UAAPAUIClassInfo@2@XZ
?GetClassInfoW@CCBaseScrollBar@DirectUI@@UAAPAUIClassInfo@2@XZ
?GetClassInfoW@CCCheckBox@DirectUI@@UAAPAUIClassInfo@2@XZ
?GetClassInfoW@CCCommandLink@DirectUI@@UAAPAUIClassInfo@2@XZ
?GetClassInfoW@CCHScrollBar@DirectUI@@UAAPAUIClassInfo@2@XZ
?GetClassInfoW@CCListBox@DirectUI@@UAAPAUIClassInfo@2@XZ
?GetClassInfoW@CCListView@DirectUI@@UAAPAUIClassInfo@2@XZ
?GetClassInfoW@CCProgressBar@DirectUI@@UAAPAUIClassInfo@2@XZ
?GetClassInfoW@CCPushButton@DirectUI@@UAAPAUIClassInfo@2@XZ
?GetClassInfoW@CCRadioButton@DirectUI@@UAAPAUIClassInfo@2@XZ
?GetClassInfoW@CCSysLink@DirectUI@@UAAPAUIClassInfo@2@XZ
?GetClassInfoW@CCTrackBar@DirectUI@@UAAPAUIClassInfo@2@XZ
?GetClassInfoW@CCTreeView@DirectUI@@UAAPAUIClassInfo@2@XZ
?GetClassInfoW@CCVScrollBar@DirectUI@@UAAPAUIClassInfo@2@XZ
?GetClassInfoW@CheckBoxGlyph@DirectUI@@UAAPAUIClassInfo@2@XZ
?GetClassInfoW@Clipper@DirectUI@@UAAPAUIClassInfo@2@XZ
?GetClassInfoW@Combobox@DirectUI@@UAAPAUIClassInfo@2@XZ
?GetClassInfoW@DialogElement@DirectUI@@UAAPAUIClassInfo@2@XZ
?GetClassInfoW@Edit@DirectUI@@UAAPAUIClassInfo@2@XZ
?GetClassInfoW@Element@DirectUI@@UAAPAUIClassInfo@2@XZ
?GetClassInfoW@ElementWithHWND@DirectUI@@UAAPAUIClassInfo@2@XZ
?GetClassInfoW@Expandable@DirectUI@@UAAPAUIClassInfo@2@XZ
?GetClassInfoW@Expando@DirectUI@@UAAPAUIClassInfo@2@XZ
?GetClassInfoW@ExpandoButtonGlyph@DirectUI@@UAAPAUIClassInfo@2@XZ
?GetClassInfoW@HWNDElement@DirectUI@@UAAPAUIClassInfo@2@XZ
?GetClassInfoW@HWNDHost@DirectUI@@UAAPAUIClassInfo@2@XZ
?GetClassInfoW@ItemList@DirectUI@@UAAPAUIClassInfo@2@XZ
?GetClassInfoW@Macro@DirectUI@@UAAPAUIClassInfo@2@XZ
?GetClassInfoW@ModernProgressBar@DirectUI@@UAAPAUIClassInfo@2@XZ
?GetClassInfoW@ModernProgressRing@DirectUI@@UAAPAUIClassInfo@2@XZ
?GetClassInfoW@Movie@DirectUI@@UAAPAUIClassInfo@2@XZ
?GetClassInfoW@Navigator@DirectUI@@UAAPAUIClassInfo@2@XZ
?GetClassInfoW@PText@DirectUI@@UAAPAUIClassInfo@2@XZ
?GetClassInfoW@Page@DirectUI@@UAAPAUIClassInfo@2@XZ
?GetClassInfoW@Pages@DirectUI@@UAAPAUIClassInfo@2@XZ
?GetClassInfoW@Progress@DirectUI@@UAAPAUIClassInfo@2@XZ
?GetClassInfoW@PushButton@DirectUI@@UAAPAUIClassInfo@2@XZ
?GetClassInfoW@RadioButtonGlyph@DirectUI@@UAAPAUIClassInfo@2@XZ
?GetClassInfoW@RefPointElement@DirectUI@@UAAPAUIClassInfo@2@XZ
?GetClassInfoW@RepeatButton@DirectUI@@UAAPAUIClassInfo@2@XZ
?GetClassInfoW@Repeater@DirectUI@@UAAPAUIClassInfo@2@XZ
?GetClassInfoW@RichText@DirectUI@@UAAPAUIClassInfo@2@XZ
?GetClassInfoW@ScrollBar@DirectUI@@UAAPAUIClassInfo@2@XZ
?GetClassInfoW@ScrollViewer@DirectUI@@UAAPAUIClassInfo@2@XZ
?GetClassInfoW@Selector@DirectUI@@UAAPAUIClassInfo@2@XZ
?GetClassInfoW@SelectorNoDefault@DirectUI@@UAAPAUIClassInfo@2@XZ
?GetClassInfoW@SemanticZoomToggle@DirectUI@@UAAPAUIClassInfo@2@XZ
?GetClassInfoW@StyledScrollViewer@DirectUI@@UAAPAUIClassInfo@2@XZ
?GetClassInfoW@TextGraphic@DirectUI@@UAAPAUIClassInfo@2@XZ
?GetClassInfoW@Thumb@DirectUI@@UAAPAUIClassInfo@2@XZ
?GetClassInfoW@TouchButton@DirectUI@@UAAPAUIClassInfo@2@XZ
?GetClassInfoW@TouchCheckBox@DirectUI@@UAAPAUIClassInfo@2@XZ
?GetClassInfoW@TouchCheckBoxGlyph@DirectUI@@UAAPAUIClassInfo@2@XZ
?GetClassInfoW@TouchCommandButton@DirectUI@@UAAPAUIClassInfo@2@XZ
?GetClassInfoW@TouchEdit2@DirectUI@@UAAPAUIClassInfo@2@XZ
?GetClassInfoW@TouchEditBase@DirectUI@@UAAPAUIClassInfo@2@XZ
?GetClassInfoW@TouchHWNDElement@DirectUI@@UAAPAUIClassInfo@2@XZ
?GetClassInfoW@TouchHyperLink@DirectUI@@UAAPAUIClassInfo@2@XZ
?GetClassInfoW@TouchRepeatButton@DirectUI@@UAAPAUIClassInfo@2@XZ
?GetClassInfoW@TouchScrollBar@DirectUI@@UAAPAUIClassInfo@2@XZ
?GetClassInfoW@TouchScrollViewer@DirectUI@@UAAPAUIClassInfo@2@XZ
?GetClassInfoW@TouchSelect@DirectUI@@UAAPAUIClassInfo@2@XZ
?GetClassInfoW@TouchSelectItem@DirectUI@@UAAPAUIClassInfo@2@XZ
?GetClassInfoW@TouchSlider@DirectUI@@UAAPAUIClassInfo@2@XZ
?GetClassInfoW@TouchSwitch@DirectUI@@UAAPAUIClassInfo@2@XZ
?GetClassInfoW@UnknownElement@DirectUI@@UAAPAUIClassInfo@2@XZ
?GetClassInfoW@Viewer@DirectUI@@UAAPAUIClassInfo@2@XZ
?GetClassInfoW@XBaby@DirectUI@@UAAPAUIClassInfo@2@XZ
?GetClassInfoW@XElement@DirectUI@@UAAPAUIClassInfo@2@XZ
?GetClickDevice@TouchButton@DirectUI@@QAA?AW4ClickDevice@12@XZ
?GetClickablePoint@Element@DirectUI@@QAA_NPAUtagPOINT@@@Z
?GetClientAccessibleImpl@HWNDHost@DirectUI@@QAAJPAPAUIAccessible@@@Z
?GetColorFromProperty@DirectUI@@YAJPAVElement@1@PBUPropertyInfo@1@HPAK@Z
?GetColorFromValue@DirectUI@@YAJPAVElement@1@PAVValue@1@PAK@Z
?GetColorTrans@Value@DirectUI@@SAPAV12@XZ
?GetColorize@Element@DirectUI@@QAAHXZ
?GetColumn@GridItemProxy@DirectUI@@AAAJPAH@Z
?GetColumnCount@GridProxy@DirectUI@@AAAJPAH@Z
?GetColumnHeaderItems@TableItemProvider@DirectUI@@UAAJPAPAUtagSAFEARRAY@@@Z
?GetColumnHeaders@TableProvider@DirectUI@@UAAJPAPAUtagSAFEARRAY@@@Z
?GetCommonDrawTextFlags@Element@DirectUI@@AAAIH@Z
?GetCompositingQuality@Movie@DirectUI@@QAAHXZ
?GetConnect@Bind@DirectUI@@QAAPBGPAPAVValue@2@@Z
?GetContainingGrid@GridItemProxy@DirectUI@@AAAJPAPAUIRawElementProviderSimple@@@Z
?GetContent@ElementProxy@DirectUI@@IAAJPAUtagVARIANT@@PAUIAccessible@@@Z
?GetContentAlign@Element@DirectUI@@QAAHXZ
?GetContentCrossfadeOpacity@TouchScrollViewer@DirectUI@@QAAMXZ
?GetContentDesiredSize@XBaby@DirectUI@@UAA?AUtagSIZE@@HH@Z
?GetContentSize@CCBase@DirectUI@@UAA?AUtagSIZE@@HHPAVSurface@2@@Z
?GetContentSize@CCBaseCheckRadioButton@DirectUI@@UAA?AUtagSIZE@@HHPAVSurface@2@@Z
?GetContentSize@CCCommandLink@DirectUI@@UAA?AUtagSIZE@@HHPAVSurface@2@@Z
?GetContentSize@CCHScrollBar@DirectUI@@UAA?AUtagSIZE@@HHPAVSurface@2@@Z
?GetContentSize@CCListBox@DirectUI@@UAA?AUtagSIZE@@HHPAVSurface@2@@Z
?GetContentSize@CCListView@DirectUI@@UAA?AUtagSIZE@@HHPAVSurface@2@@Z
?GetContentSize@CCPushButton@DirectUI@@UAA?AUtagSIZE@@HHPAVSurface@2@@Z
?GetContentSize@CCSysLink@DirectUI@@UAA?AUtagSIZE@@HHPAVSurface@2@@Z
?GetContentSize@CCTreeView@DirectUI@@UAA?AUtagSIZE@@HHPAVSurface@2@@Z
?GetContentSize@CCVScrollBar@DirectUI@@UAA?AUtagSIZE@@HHPAVSurface@2@@Z
?GetContentSize@Combobox@DirectUI@@UAA?AUtagSIZE@@HHPAVSurface@2@@Z
?GetContentSize@Edit@DirectUI@@UAA?AUtagSIZE@@HHPAVSurface@2@@Z
?GetContentSize@Element@DirectUI@@UAA?AUtagSIZE@@HHPAVSurface@2@@Z
?GetContentSize@Progress@DirectUI@@UAA?AUtagSIZE@@HHPAVSurface@2@@Z
?GetContentSize@PushButton@DirectUI@@UAA?AUtagSIZE@@HHPAVSurface@2@@Z
?GetContentSize@RichText@DirectUI@@UAA?AUtagSIZE@@HHPAVSurface@2@@Z
?GetContentString@Element@DirectUI@@QAAPBGPAPAVValue@2@@Z
?GetContentStringAsDisplayed@Edit@DirectUI@@UAAPBGPAPAVValue@2@@Z
?GetContentStringAsDisplayed@Element@DirectUI@@UAAPBGPAPAVValue@2@@Z
?GetContentStringAsDisplayed@TextGraphic@DirectUI@@UAAPBGPAPAVValue@2@@Z
?GetContentStringAsDisplayed@TouchEditBase@DirectUI@@UAAPBGPAPAVValue@2@@Z
?GetControlType@ElementProxy@DirectUI@@IAAXPAUtagVARIANT@@PAUIAccessible@@@Z
?GetControllerFor@TouchEditBase@DirectUI@@UAAJPAPAUIUnknown@@@Z
?GetCount@CCListBox@DirectUI@@QAAHXZ
?GetCount@Pages@DirectUI@@QAAIXZ
?GetCreationFlags@XElement@DirectUI@@UAAIXZ
?GetCurrentCols@GridLayout@DirectUI@@IAAIH@Z
?GetCurrentCols@GridLayout@DirectUI@@IAAIPAVElement@2@@Z
?GetCurrentPage@Browser@DirectUI@@QAAPAVElement@2@XZ
?GetCurrentPageID@Browser@DirectUI@@QAAGXZ
?GetCurrentRows@GridLayout@DirectUI@@IAAIH@Z
?GetCurrentRows@GridLayout@DirectUI@@IAAIPAVElement@2@@Z
?GetCursor@Value@DirectUI@@QAAPAUCursor@2@XZ
?GetCursorNull@Value@DirectUI@@SAPAV12@XZ
?GetDPI@Element@DirectUI@@QAAHXZ
?GetDataEntry@Macro@DirectUI@@QAAPAUIDataEntry@2@XZ
?GetDblListEmpty@Value@DirectUI@@SAPAV12@XZ
?GetDefaultButton@DialogElement@DirectUI@@UAAPAVElement@2@XZ
?GetDefaultButton@DialogElementCore@DirectUI@@QAAPAVElement@2@XZ
?GetDefaultButtonTracking@DialogElement@DirectUI@@UAA_NXZ
?GetDefaultButtonTracking@XBaby@DirectUI@@UAA_NXZ
?GetDeferObject@Element@DirectUI@@QAAPAVDeferCycle@2@XZ
?GetDesiredSize@Element@DirectUI@@QAAPBUtagSIZE@@XZ
?GetDesiredSize@XProvider@DirectUI@@UAAJHHPAUtagSIZE@@@Z
?GetDirection@Element@DirectUI@@QAAHXZ
?GetDirty@Edit@DirectUI@@QAA_NXZ
?GetDisableMouseInRectCheck@TouchRepeatButton@DirectUI@@QAA_NXZ
?GetDispatchFromElement@DuiAccessible@DirectUI@@IAAJPAVElement@2@PAPAUIDispatch@@@Z
?GetDisplayNode@Element@DirectUI@@QAAPAUHGADGET__@@XZ
?GetDoubleList@Value@DirectUI@@QAAPAV?$DynamicArray@N$0A@@2@XZ
?GetDrawOutlines@Movie@DirectUI@@QAA_NXZ
?GetEdgeHighlightColor@Element@DirectUI@@QAAPBUFill@2@PAPAVValue@2@@Z
?GetEdgeHighlightThickness@Element@DirectUI@@QAAPBUtagRECT@@PAPAVValue@2@@Z
?GetElListNull@Value@DirectUI@@SAPAV12@XZ
?GetElement@CCBaseScrollBar@DirectUI@@UAAPAVElement@2@XZ
?GetElement@ElementProvider@DirectUI@@UAAPDVElement@2@XZ
?GetElement@NativeHWNDHost@DirectUI@@QAAPAVElement@2@XZ
?GetElement@ScrollBar@DirectUI@@UAAPAVElement@2@XZ
?GetElement@TaskPage@DirectUI@@IAAPAVElement@2@XZ
?GetElement@Value@DirectUI@@QAAPAVElement@2@XZ
?GetElement@XHost@DirectUI@@QAAPAVElement@2@XZ
?GetElementKey@ElementProvider@DirectUI@@QAAPBVElement@2@XZ
?GetElementList@Value@DirectUI@@QAAPAV?$DynamicArray@PAVElement@DirectUI@@$0A@@2@XZ
?GetElementMovesOnIHMNotify@TouchEditBase@DirectUI@@QAA_NXZ
?GetElementNull@Value@DirectUI@@SAPAV12@XZ
?GetElementProviderImpl@Element@DirectUI@@UAAJPAVInvokeHelper@2@PAPAVElementProvider@2@@Z
?GetElementProviderImpl@TouchSelect@DirectUI@@UAAJPAVInvokeHelper@2@PAPAVElementProvider@2@@Z
?GetElementProviderImpl@XBaby@DirectUI@@UAAJPAVInvokeHelper@2@PAPAVElementProvider@2@@Z
?GetElementScaleFactor@Element@DirectUI@@QAAMXZ
?GetElementScaledFloat@Value@DirectUI@@QAAMPAVElement@2@@Z
?GetElementScaledInt@Value@DirectUI@@QAAHPAVElement@2@@Z
?GetElementScaledPoint@Value@DirectUI@@QAAXPAVElement@2@PAUtagPOINT@@@Z
?GetElementScaledRect@Value@DirectUI@@QAAXPAVElement@2@PAUtagRECT@@@Z
?GetElementScaledSize@Value@DirectUI@@QAAXPAVElement@2@PAUtagSIZE@@@Z
?GetEmbeddedFragmentRoots@ElementProvider@DirectUI@@UAAJPAPAUtagSAFEARRAY@@@Z
?GetEnabled@Element@DirectUI@@QAA_NXZ
?GetEncodedContentString@Element@DirectUI@@QAAJPAGI@Z
?GetEncodedContentStringLength@Element@DirectUI@@QAAIXZ
?GetEncodedString@Value@DirectUI@@QAAJPAGI@Z
?GetEncodedStringLength@Value@DirectUI@@QAAIXZ
?GetEnforceSize@PushButton@DirectUI@@QAA_NXZ
?GetExpand@Macro@DirectUI@@QAAPBGPAPAVValue@2@@Z
?GetExpandCollapseState@EventManager@DirectUI@@CAXPAUtagVARIANT@@@Z
?GetExpanded@Expandable@DirectUI@@QAA_NXZ
?GetExprNull@Value@DirectUI@@SAPAV12@XZ
?GetExpression@Value@DirectUI@@QAAPAVExpression@2@XZ
?GetExtent@Element@DirectUI@@QAAPBUtagSIZE@@PAPAVValue@2@@Z
?GetFactory@RichText@DirectUI@@QAAPAUIDWriteFactory@@XZ
?GetFactoryLock@Element@DirectUI@@SAPAU_RTL_CRITICAL_SECTION@@XZ
?GetFill@Value@DirectUI@@QAAPBUFill@2@XZ
?GetFillpartElement@TouchSlider@DirectUI@@QAAPAVElement@2@XZ
?GetFilterOnPaste@TouchEditBase@DirectUI@@QAA_NXZ
?GetFlags@TouchHWNDElement@DirectUI@@QAA?AW4TouchHWNDElementFlags@2@XZ
?GetFloat@Value@DirectUI@@QAAMXZ
?GetFloatOne@Value@DirectUI@@SAPAV12@XZ
?GetFloatZero@Value@DirectUI@@SAPAV12@XZ
?GetFocus@HWNDElementProvider@DirectUI@@UAAJPAPAUIRawElementProviderFragment@@@Z
?GetFocus@HWNDElementProxy@DirectUI@@IAAJPAPAUIRawElementProviderFragment@@@Z
?GetFocusableElement@XBaby@DirectUI@@UAAPAVElement@2@XZ
?GetFocusedHWNDElement@HWNDElement@DirectUI@@SAPAV12@XZ
?GetFont@Element@DirectUI@@QAAPBGPAPAVValue@2@@Z
?GetFont@HWNDHost@DirectUI@@IAAPAUHFONT__@@XZ
?GetFontFace@Element@DirectUI@@QAAPBGPAPAVValue@2@@Z
?GetFontQuality@Element@DirectUI@@QAAHXZ
?GetFontSize@Element@DirectUI@@QAAHXZ
?GetFontStyle@Element@DirectUI@@QAAHXZ
?GetFontWeight@Element@DirectUI@@QAAHXZ
?GetForceEditTextToLTR@TouchEditBase@DirectUI@@QAA_NXZ
?GetForegroundColor@Element@DirectUI@@QAAPBUFill@2@PAPAVValue@2@@Z
?GetForegroundColorRef@RichText@DirectUI@@UAAJPAK@Z
?GetForegroundColorRef@TouchButton@DirectUI@@UAAJPAK@Z
?GetForegroundStdColor@Element@DirectUI@@QAAHXZ
?GetFragmentRoot@ElementProxy@DirectUI@@IAAJPAPAUIRawElementProviderFragmentRoot@@@Z
?GetFrameDuration@AnimationStrip@DirectUI@@QAAHXZ
?GetFrameIndex@AnimationStrip@DirectUI@@QAAHXZ
?GetFrameWidth@AnimationStrip@DirectUI@@QAAHXZ
?GetGetSheetCallback@DUIXmlParser@DirectUI@@QAAP6APAVValue@2@PBGPAX@ZXZ
?GetGlobalIndex@ClassInfoBase@DirectUI@@UBAIXZ
?GetGraphic@Value@DirectUI@@QAAPAUGraphic@2@XZ
?GetHDC@DCSurface@DirectUI@@QAAPAUHDC__@@XZ
?GetHInstance@DUIXmlParser@DirectUI@@QAAPAUHINSTANCE__@@XZ
?GetHScroll@ScrollViewer@DirectUI@@MAAPAVBaseScrollBar@2@XZ
?GetHScroll@StyledScrollViewer@DirectUI@@MAAPAVBaseScrollBar@2@XZ
?GetHScrollbar@TouchScrollViewer@DirectUI@@QAAJPAPAVElement@2@@Z
?GetHWND@HWNDElement@DirectUI@@UAAPAUHWND__@@XZ
?GetHWND@HWNDHost@DirectUI@@UAAPAUHWND__@@XZ
?GetHWND@NativeHWNDHost@DirectUI@@QAAPAUHWND__@@XZ
?GetHWND@XHost@DirectUI@@QAAPAUHWND__@@XZ
?GetHWNDParent@HWNDHost@DirectUI@@QAAPAUHWND__@@XZ
?GetHandle@ResourceModuleHandles@DirectUI@@QAAJPBGPAPAUHINSTANCE__@@@Z
?GetHandleEnter@TouchButton@DirectUI@@QAA_NXZ
?GetHandleEnterKey@DialogElement@DirectUI@@UAA_NXZ
?GetHandleGlobalEnter@TouchButton@DirectUI@@QAA_NXZ
?GetHasShield@CCPushButton@DirectUI@@QAA_NXZ
?GetHeight@Element@DirectUI@@QAAHXZ
?GetHighDPI@Element@DirectUI@@QAA_NXZ
?GetHostedElementID@XBaby@DirectUI@@UAAJPAG@Z
?GetHostedElementID@XProvider@DirectUI@@UAAJPAG@Z
?GetHwnd@ElementProxy@DirectUI@@IAAJPAPAUHWND__@@@Z
?GetID@Element@DirectUI@@QAAGXZ
?GetIDsOfNames@DuiAccessible@DirectUI@@UAAJABU_GUID@@PAPAGIKPAJ@Z
?GetIHMRect@TouchHWNDElement@DirectUI@@QAAJPAUtagRECT@@@Z
?GetIHMState@TouchHWNDElement@DirectUI@@QAA?AW4IHMState@2@XZ
?GetIMEComposing@TouchEditBase@DirectUI@@QAA_NXZ
?GetIdentityString@DuiAccessible@DirectUI@@UAAJKPAPAEPAK@Z
?GetIdentityString@HWNDHostAccessible@DirectUI@@UAAJKPAPAEPAK@Z
?GetIgnoredKeyCombos@TouchEditBase@DirectUI@@QAA?AW4TouchEditFilteredKeyComboFlags@2@XZ
?GetImage@Value@DirectUI@@QAAPAX_N@Z
?GetImmediateChild@Element@DirectUI@@QAAPAV12@PAV12@@Z
?GetImmersiveFocusRectOffsets@Element@DirectUI@@UAAXPAUtagRECT@@@Z
?GetImmersiveFocusRectOffsets@TouchButton@DirectUI@@UAAXPAUtagRECT@@@Z
?GetImmersiveFocusRectOffsets@TouchCheckBox@DirectUI@@UAAXPAUtagRECT@@@Z
?GetImmersiveFocusRectOffsets@TouchHyperLink@DirectUI@@UAAXPAUtagRECT@@@Z
?GetIndex@Element@DirectUI@@QAAHXZ
?GetInertiaEndpointVisibleRect@TouchScrollViewer@DirectUI@@QAAXPAUtagRECT@@@Z
?GetInertiaEndpointZoomLevel@TouchScrollViewer@DirectUI@@QAAMM@Z
?GetInnerBorderThickness@TouchEdit2@DirectUI@@QAAPBUtagRECT@@PAPAVValue@2@@Z
?GetInnerHWND@XElement@DirectUI@@QAAPAUHWND__@@XZ
?GetInputScope@TouchEdit2@DirectUI@@QAA?AW4__MIDL___MIDL_itf_inputscope_0000_0000_0001@@XZ
?GetInt@EventManager@DirectUI@@CAJPAUtagVARIANT@@PAVValue@2@@Z
?GetInt@Value@DirectUI@@QAAHXZ
?GetIntMinusOne@Value@DirectUI@@SAPAV12@XZ
?GetIntZero@Value@DirectUI@@SAPAV12@XZ
?GetIntegrateIMECandidateList@TouchEditBase@DirectUI@@QAA_NXZ
?GetInteractionMode@TouchScrollViewer@DirectUI@@QAAHXZ
?GetInterpolationMode@Movie@DirectUI@@QAAHXZ
?GetInvokeHelper@InvokeManager@DirectUI@@SAJPAPAVInvokeHelper@2@@Z
?GetIsContinuous@TouchSlider@DirectUI@@QAA_NXZ
?GetIsPressed@TouchSlider@DirectUI@@QAA_NXZ
?GetIsReadOnly@ValueProxy@DirectUI@@AAAJPAH@Z
?GetIsSelected@NavigatorSelectionItemProxy@DirectUI@@AAAJPAVBrowser@2@PAH@Z
?GetIsSelectionRequired@BrowserSelectionProxy@DirectUI@@AAAJPAH@Z
?GetIsSelectionRequired@SelectorSelectionProxy@DirectUI@@AAAJPAH@Z
?GetIsShowOnOffFeedback@TouchSlider@DirectUI@@QAA_NXZ
?GetIsVertical@TouchSlider@DirectUI@@QAA_NXZ
?GetItem@GridProvider@DirectUI@@UAAJHHPAPAUIRawElementProviderSimple@@@Z
?GetItem@GridProxy@DirectUI@@AAAJIIPAPAUIRawElementProviderSimple@@@Z
?GetItemCount@TouchSelect@DirectUI@@QAAKXZ
?GetItemData@TouchSelect@DirectUI@@QAAJHPAPAUIUnknown@@@Z
?GetItemData@TouchSelectItem@DirectUI@@QAAJPAPAUIUnknown@@@Z
?GetItemHeightInPopup@TouchSelect@DirectUI@@QAAHXZ
?GetItemState@CCTreeView@DirectUI@@QAAIQAU_TREEITEM@@@Z
?GetKeyFocused@Element@DirectUI@@UAA_NXZ
?GetKeyFocused@HWNDHost@DirectUI@@UAA_NXZ
?GetKeyFocusedElement@DialogElement@DirectUI@@UAAPAVElement@2@XZ
?GetKeyFocusedElement@HWNDElement@DirectUI@@SAPAVElement@2@XZ
?GetKeyWithin@Element@DirectUI@@QAA_NXZ
?GetKeyWithinChild@Element@DirectUI@@QAAPAV12@XZ
?GetKeyboardNavigationCapture@TouchEditBase@DirectUI@@QAA?AW4TouchEditKeyboardNavigationCapture@2@XZ
?GetLabel@ElementProxy@DirectUI@@IAAJPAUtagVARIANT@@@Z
?GetLayout@Element@DirectUI@@QAAPAVLayout@2@PAPAVValue@2@@Z
?GetLayout@Value@DirectUI@@QAAPAVLayout@2@XZ
?GetLayoutChildCount@Layout@DirectUI@@QAAIPAVElement@2@@Z
?GetLayoutIndexFromChild@Layout@DirectUI@@QAAHPAVElement@2@0@Z
?GetLayoutNull@Value@DirectUI@@SAPAV12@XZ
?GetLayoutPos@Element@DirectUI@@QAAHXZ
?GetLightDismissIHM@TouchHWNDElement@DirectUI@@QAA_NXZ
?GetLine@CCBaseScrollBar@DirectUI@@UAAHXZ
?GetLine@FlowLayout@DirectUI@@QAAHPAVElement@2@0@Z
?GetLine@ScrollBar@DirectUI@@UAAHXZ
?GetLine@VerticalFlowLayout@DirectUI@@QAAHPAVElement@2@0@Z
?GetLineCount@RichText@DirectUI@@QAAKXZ
?GetLineSize@CCTrackBar@DirectUI@@QAAHXZ
?GetLinkIndicatorsToContent@TouchScrollViewer@DirectUI@@QAA_NXZ
?GetLocation@Element@DirectUI@@QAAPBUtagPOINT@@PAPAVValue@2@@Z
?GetManipulationCompositor@TouchScrollViewer@DirectUI@@QAAPAUIDirectManipulationCompositor@@XZ
?GetManipulationHorizontalAlignment@TouchScrollViewer@DirectUI@@QAAHXZ
?GetManipulationManager@TouchScrollViewer@DirectUI@@QAAPAUIDirectManipulationManager@@XZ
?GetManipulationVerticalAlignment@TouchScrollViewer@DirectUI@@QAAHXZ
?GetManipulationViewport@TouchScrollViewer@DirectUI@@QAAPAUIDirectManipulationViewport@@_N@Z
?GetMargin@Element@DirectUI@@QAAPBUtagRECT@@PAPAVValue@2@@Z
?GetMaxLength@Edit@DirectUI@@QAAHXZ
?GetMaxLength@TouchEditBase@DirectUI@@QAAHXZ
?GetMaximum@CCBaseScrollBar@DirectUI@@UAAHXZ
?GetMaximum@ModernProgressBar@DirectUI@@QAAHXZ
?GetMaximum@Progress@DirectUI@@QAAHXZ
?GetMaximum@ScrollBar@DirectUI@@UAAHXZ
?GetMetering@TouchSlider@DirectUI@@QAAHXZ
?GetMinSize@Element@DirectUI@@QAAPBUtagSIZE@@PAPAVValue@2@@Z
?GetMinimum@CCBaseScrollBar@DirectUI@@UAAHXZ
?GetMinimum@ModernProgressBar@DirectUI@@QAAHXZ
?GetMinimum@Progress@DirectUI@@QAAHXZ
?GetMinimum@ScrollBar@DirectUI@@UAAHXZ
?GetModule@ClassInfoBase@DirectUI@@UBAPAUHINSTANCE__@@XZ
?GetModuleBase@CallstackTracker@DirectUI@@AAA_KPAX_K@Z
?GetMouseFocused@Element@DirectUI@@QAA_NXZ
?GetMouseWithin@Element@DirectUI@@QAA_NXZ
?GetMouseWithinChild@Element@DirectUI@@QAAPAV12@XZ
?GetMouseWithinHorizontalScrollRegion@TouchScrollViewer@DirectUI@@QAA_NXZ
?GetMoveCaretToEndOnSyncContent@TouchEditBase@DirectUI@@QAA_NXZ
?GetMultiline@Edit@DirectUI@@QAA_NXZ
?GetMultiline@TouchEditBase@DirectUI@@QAA_NXZ
?GetName@ClassInfoBase@DirectUI@@UBAPBGXZ
?GetNote@CCCommandLink@DirectUI@@QAAPBGPAPAVValue@2@@Z
?GetNotificationSinkHWND@XElement@DirectUI@@UAAPAUHWND__@@XZ
?GetNull@Value@DirectUI@@SAPAV12@XZ
?GetOffText@TouchSwitch@DirectUI@@QAAPBGPAPAVValue@2@@Z
?GetOnText@TouchSwitch@DirectUI@@QAAPBGPAPAVValue@2@@Z
?GetOptimizeMove@HWNDHost@DirectUI@@QAA_NXZ
?GetOrder@ScrollBar@DirectUI@@QAAHXZ
?GetOverhang@Element@DirectUI@@QAA_NXZ
?GetOverrideButtonBackground@CCPushButton@DirectUI@@QAA_NXZ
?GetOverrideScaleFactor@DUIXmlParser@DirectUI@@QBA_NPAM@Z
?GetPICount@ClassInfoBase@DirectUI@@UBAIXZ
?GetPVLAnimationState@Element@DirectUI@@QAAHXZ
?GetPadding@Element@DirectUI@@QAAPBUtagRECT@@PAPAVValue@2@@Z
?GetPage@CCBaseScrollBar@DirectUI@@UAAHXZ
?GetPage@Pages@DirectUI@@QAAPAVElement@2@I@Z
?GetPage@Pages@DirectUI@@QAAPAVElement@2@PBG@Z
?GetPage@ScrollBar@DirectUI@@UAAHXZ
?GetPageInc@BaseScrollBar@DirectUI@@QAAHXZ
?GetPageRCID@TaskPage@DirectUI@@MAAIXZ
?GetPageResID@TaskPage@DirectUI@@MAAPBGXZ
?GetPages@Browser@DirectUI@@QAAPAVPages@2@XZ
?GetParent@Element@DirectUI@@QAAPAV12@XZ
?GetParentHWND@TaskPage@DirectUI@@QAAPAUHWND__@@XZ
?GetParser@DUIFactory@DirectUI@@QAAPAVDUIXmlParser@2@XZ
?GetParserCommon@DUIXmlParser@DirectUI@@IAAJPAPAV12@@Z
?GetPasswordCharacter@Edit@DirectUI@@QAAHXZ
?GetPasswordCharacter@TouchEditBase@DirectUI@@QAAHXZ
?GetPasswordRevealMode@TouchEdit2@DirectUI@@QAA?AW4TouchEditPasswordRevealMode@2@XZ
?GetPath@Movie@DirectUI@@QAAPBGPAPAVValue@2@@Z
?GetPatternProvider@ElementProvider@DirectUI@@UAAJHPAPAUIUnknown@@@Z
?GetPinning@BaseScrollViewer@DirectUI@@QAAHXZ
?GetPixelOffsetMode@Movie@DirectUI@@QAAHXZ
?GetPlay@AnimationStrip@DirectUI@@QAA_NXZ
?GetPlayAllFramesMode@Movie@DirectUI@@QAA_NXZ
?GetPoint@Value@DirectUI@@QAAPBUtagPOINT@@XZ
?GetPointZero@Value@DirectUI@@SAPAV12@XZ
?GetPopupBounds@TouchSelect@DirectUI@@QAAPBUtagRECT@@PAPAVValue@2@@Z
?GetPosition@CCBaseScrollBar@DirectUI@@UAAHXZ
?GetPosition@ModernProgressBar@DirectUI@@QAAHXZ
?GetPosition@Progress@DirectUI@@QAAHXZ
?GetPosition@ScrollBar@DirectUI@@UAAHXZ
?GetPredictedVisibleRect@TouchScrollViewer@DirectUI@@QAAXPAUtagRECT@@@Z
?GetPreserveAlphaChannel@Element@DirectUI@@QBA_NXZ
?GetPressed@Button@DirectUI@@QAA_NXZ
?GetPressed@TouchButton@DirectUI@@QAA_NXZ
?GetPreventFormatChangeUpdatingModifiedState@TouchEditBase@DirectUI@@QAA_NXZ
?GetProcs@Schema@DirectUI@@CAJXZ
?GetPromptText@TouchEdit2@DirectUI@@QAAPBGPAPAVValue@2@@Z
?GetPromptWithCaret@TouchEdit2@DirectUI@@QAA_NXZ
?GetPropValPairInfo@DUIXmlParser@DirectUI@@IAAJPAUIXmlReader@@PAUIClassInfo@2@PBG2PAPBUPropertyInfo@2@PAPAVValue@2@@Z
?GetPropValPairInfo@DUIXmlParser@DirectUI@@IAAJULINEINFO@2@PAUIClassInfo@2@PBG2PAPBUPropertyInfo@2@PAPAVValue@2@@Z
?GetProperty@Bind@DirectUI@@QAAPBGPAPAVValue@2@@Z
?GetProperty@ElementProxy@DirectUI@@IAAJPAUtagVARIANT@@H@Z
?GetPropertyValue@ElementProvider@DirectUI@@UAAJHPAUtagVARIANT@@@Z
?GetProportional@CCBaseScrollBar@DirectUI@@UAA_NXZ
?GetProportional@ScrollBar@DirectUI@@UAA_NXZ
?GetProvider@XElement@DirectUI@@QAAPAUIXProvider@2@XZ
?GetProviderOptions@ElementProxy@DirectUI@@IAAJPAW4ProviderOptions@@@Z
?GetProxyCreator@?$PatternProvider@VExpandCollapseProvider@DirectUI@@UIExpandCollapseProvider@@$00@DirectUI@@UAAP6APAVProviderProxy@2@PAVElement@2@@ZXZ
?GetProxyCreator@?$PatternProvider@VGridItemProvider@DirectUI@@UIGridItemProvider@@$01@DirectUI@@UAAP6APAVProviderProxy@2@PAVElement@2@@ZXZ
?GetProxyCreator@?$PatternProvider@VGridProvider@DirectUI@@UIGridProvider@@$02@DirectUI@@UAAP6APAVProviderProxy@2@PAVElement@2@@ZXZ
?GetProxyCreator@?$PatternProvider@VInvokeProvider@DirectUI@@UIInvokeProvider@@$0A@@DirectUI@@UAAP6APAVProviderProxy@2@PAVElement@2@@ZXZ
?GetProxyCreator@?$PatternProvider@VRangeValueProvider@DirectUI@@UIRangeValueProvider@@$03@DirectUI@@UAAP6APAVProviderProxy@2@PAVElement@2@@ZXZ
?GetProxyCreator@?$PatternProvider@VScrollItemProvider@DirectUI@@UIScrollItemProvider@@$05@DirectUI@@UAAP6APAVProviderProxy@2@PAVElement@2@@ZXZ
?GetProxyCreator@?$PatternProvider@VScrollProvider@DirectUI@@UIScrollProvider@@$04@DirectUI@@UAAP6APAVProviderProxy@2@PAVElement@2@@ZXZ
?GetProxyCreator@?$PatternProvider@VSelectionItemProvider@DirectUI@@UISelectionItemProvider@@$06@DirectUI@@UAAP6APAVProviderProxy@2@PAVElement@2@@ZXZ
?GetProxyCreator@?$PatternProvider@VSelectionProvider@DirectUI@@UISelectionProvider@@$07@DirectUI@@UAAP6APAVProviderProxy@2@PAVElement@2@@ZXZ
?GetProxyCreator@?$PatternProvider@VTableItemProvider@DirectUI@@UITableItemProvider@@$09@DirectUI@@UAAP6APAVProviderProxy@2@PAVElement@2@@ZXZ
?GetProxyCreator@?$PatternProvider@VTableProvider@DirectUI@@UITableProvider@@$08@DirectUI@@UAAP6APAVProviderProxy@2@PAVElement@2@@ZXZ
?GetProxyCreator@?$PatternProvider@VToggleProvider@DirectUI@@UIToggleProvider@@$0L@@DirectUI@@UAAP6APAVProviderProxy@2@PAVElement@2@@ZXZ
?GetProxyCreator@?$PatternProvider@VValueProvider@DirectUI@@UIValueProvider@@$0M@@DirectUI@@UAAP6APAVProviderProxy@2@PAVElement@2@@ZXZ
?GetProxyCreator@ElementProvider@DirectUI@@UAAP6APAVProviderProxy@2@PAVElement@2@@ZXZ
?GetProxyCreator@ExpandCollapseProvider@DirectUI@@UAAP6APAVProviderProxy@2@PAVElement@2@@ZXZ
?GetProxyCreator@GridItemProvider@DirectUI@@UAAP6APAVProviderProxy@2@PAVElement@2@@ZXZ
?GetProxyCreator@GridProvider@DirectUI@@UAAP6APAVProviderProxy@2@PAVElement@2@@ZXZ
?GetProxyCreator@HWNDElementProvider@DirectUI@@UAAP6APAVProviderProxy@2@PAVElement@2@@ZXZ
?GetProxyCreator@InvokeProvider@DirectUI@@UAAP6APAVProviderProxy@2@PAVElement@2@@ZXZ
?GetProxyCreator@RangeValueProvider@DirectUI@@UAAP6APAVProviderProxy@2@PAVElement@2@@ZXZ
?GetProxyCreator@ScrollItemProvider@DirectUI@@UAAP6APAVProviderProxy@2@PAVElement@2@@ZXZ
?GetProxyCreator@ScrollProvider@DirectUI@@UAAP6APAVProviderProxy@2@PAVElement@2@@ZXZ
?GetProxyCreator@SelectionItemProvider@DirectUI@@UAAP6APAVProviderProxy@2@PAVElement@2@@ZXZ
?GetProxyCreator@SelectionProvider@DirectUI@@UAAP6APAVProviderProxy@2@PAVElement@2@@ZXZ
?GetProxyCreator@TableItemProvider@DirectUI@@UAAP6APAVProviderProxy@2@PAVElement@2@@ZXZ
?GetProxyCreator@TableProvider@DirectUI@@UAAP6APAVProviderProxy@2@PAVElement@2@@ZXZ
?GetProxyCreator@ToggleProvider@DirectUI@@UAAP6APAVProviderProxy@2@PAVElement@2@@ZXZ
?GetProxyCreator@ValueProvider@DirectUI@@UAAP6APAVProviderProxy@2@PAVElement@2@@ZXZ
?GetRangeMax@CCTrackBar@DirectUI@@QAAHXZ
?GetRangeMax@TouchSlider@DirectUI@@QAAHXZ
?GetRangeMin@CCTrackBar@DirectUI@@QAAHXZ
?GetRangeMin@TouchSlider@DirectUI@@QAAHXZ
?GetRawValue@Element@DirectUI@@QAAPAVValue@2@PBUPropertyInfo@2@HPAUUpdateCache@2@@Z
?GetReadOnly@TouchEditBase@DirectUI@@QAA_NXZ
?GetRect@Value@DirectUI@@QAAPBUtagRECT@@XZ
?GetRectZero@Value@DirectUI@@SAPAV12@XZ
?GetRefCount@Value@DirectUI@@QBAHXZ
?GetReferencePoint@RefPointElement@DirectUI@@QAAPBUtagPOINT@@PAPAVValue@2@@Z
?GetRegisteredDefaultButton@DialogElement@DirectUI@@UAAPAVElement@2@XZ
?GetRenderBorderThickness@Element@DirectUI@@QAAXPAUtagRECT@@@Z
?GetRenderEdgeHighlightThickness@Element@DirectUI@@QAAXPAUtagRECT@@@Z
?GetRenderMargin@Element@DirectUI@@QAAXPAUtagRECT@@@Z
?GetRenderMinSize@Element@DirectUI@@QAAXPAUtagSIZE@@@Z
?GetRenderPadding@Element@DirectUI@@QAAXPAUtagRECT@@@Z
?GetRepeat@Movie@DirectUI@@QAA_NXZ
?GetResourceHInstance@DUIXmlParser@DirectUI@@QAAPAUHINSTANCE__@@XZ
?GetRoot@Element@DirectUI@@QAAPAV12@XZ
?GetRoot@XProvider@DirectUI@@IAAPAVElement@2@XZ
?GetRootRelativeBounds@Element@DirectUI@@QAAJPAUtagRECT@@@Z
?GetRow@GridItemProxy@DirectUI@@AAAJPAH@Z
?GetRowCount@GridProxy@DirectUI@@AAAJPAH@Z
?GetRowHeaderItems@TableItemProvider@DirectUI@@UAAJPAPAUtagSAFEARRAY@@@Z
?GetRowHeaders@TableProvider@DirectUI@@UAAJPAPAUtagSAFEARRAY@@@Z
?GetRuntimeId@ElementProvider@DirectUI@@UAAJPAPAUtagSAFEARRAY@@@Z
?GetRuntimeId@ElementProxy@DirectUI@@IAAJPAPAUtagSAFEARRAY@@@Z
?GetScaledFloat@Value@DirectUI@@QAAMM@Z
?GetScaledInt@Value@DirectUI@@QAAHM@Z
?GetScaledInt@Value@DirectUI@@QAAPBUScaledInt@2@XZ
?GetScaledPoint@Value@DirectUI@@QAAXMPAUtagPOINT@@@Z
?GetScaledRect@Value@DirectUI@@QAAXMPAUtagRECT@@@Z
?GetScaledSize@Value@DirectUI@@QAAXMPAUtagSIZE@@@Z
?GetScrollBar@ScrollProxy@DirectUI@@AAAPAVBaseScrollBar@2@_N@Z
?GetScrollBarHelper@ScrollProxy@DirectUI@@AAAPAVBaseScrollBar@2@PAVElement@2@_N@Z
?GetScrollPadding@TouchScrollViewer@DirectUI@@QAAPBUtagRECT@@PAPAVValue@2@@Z
?GetScrollPercent@ScrollProxy@DirectUI@@AAAJ_NPAN@Z
?GetScrollable@ScrollProxy@DirectUI@@AAAJ_NPAH@Z
?GetSelected@Element@DirectUI@@QAA_NXZ
?GetSelection@BrowserSelectionProxy@DirectUI@@AAAJPAPAUtagSAFEARRAY@@@Z
?GetSelection@Combobox@DirectUI@@QAAHXZ
?GetSelection@SelectionProvider@DirectUI@@UAAJPAPAUtagSAFEARRAY@@@Z
?GetSelection@Selector@DirectUI@@QAAPAVElement@2@XZ
?GetSelection@TouchEdit2@DirectUI@@QAAJPAJ0@Z
?GetSelection@TouchSelect@DirectUI@@QAAPAVElement@2@XZ
?GetSelectionBackgroundColor@TouchEditBase@DirectUI@@QAAPAVValue@2@XZ
?GetSelectionContainer@SelectorSelectionItemProxy@DirectUI@@AAAJPAPAUIRawElementProviderSimple@@@Z
?GetSelectionForegroundColor@TouchEditBase@DirectUI@@QAAPAVValue@2@XZ
?GetSelectionIndex@TouchSelect@DirectUI@@QAAHXZ
?GetShadowIntensity@Element@DirectUI@@QAAHXZ
?GetSheet@DUIXmlParser@DirectUI@@QAAJPBGPAPAVValue@2@@Z
?GetSheet@Element@DirectUI@@QAAPAVStyleSheet@2@XZ
?GetSheetContext@DUIXmlParser@DirectUI@@QAAPAXXZ
?GetSheetNull@Value@DirectUI@@SAPAV12@XZ
?GetShortcut@Element@DirectUI@@QAAHXZ
?GetShortcutChar@Element@DirectUI@@QAAGXZ
?GetShortcutChar@RichText@DirectUI@@QAAGXZ
?GetShowClearButtonMinWidth@TouchEdit2@DirectUI@@QAAHXZ
?GetShowKeyFocus@TouchButton@DirectUI@@QAA_NXZ
?GetShowTick@TouchSlider@DirectUI@@QAA_NXZ
?GetSinkRect@HWNDHost@DirectUI@@AAAXPBUtagRECT@@PAU3@@Z
?GetSize@Value@DirectUI@@QAAPBUtagSIZE@@XZ
?GetSizeZero@Value@DirectUI@@SAPAV12@XZ
?GetSmoothingMode@Movie@DirectUI@@QAAHXZ
?GetSnapIntervalX@TouchScrollViewer@DirectUI@@QAAMXZ
?GetSnapIntervalY@TouchScrollViewer@DirectUI@@QAAMXZ
?GetSnapMode@TouchScrollViewer@DirectUI@@QAAHXZ
?GetSnapOffsetX@TouchScrollViewer@DirectUI@@QAAMXZ
?GetSnapOffsetY@TouchScrollViewer@DirectUI@@QAAMXZ
?GetSnapPointCollectionX@TouchScrollViewer@DirectUI@@QAAPAV?$DynamicArray@N$0A@@2@PAPAVValue@2@@Z
?GetSnapPointCollectionY@TouchScrollViewer@DirectUI@@QAAPAV?$DynamicArray@N$0A@@2@PAPAVValue@2@@Z
?GetState@ModernProgressBar@DirectUI@@QAAHXZ
?GetStaticColor@HWNDHost@DirectUI@@IAA_NPAUHDC__@@PAPAUHBRUSH__@@@Z
?GetStepCount@TouchSlider@DirectUI@@QAAHXZ
?GetString@EventManager@DirectUI@@CAJPAUtagVARIANT@@PAVValue@2@@Z
?GetString@Value@DirectUI@@QAAPBGXZ
?GetStringDynamicScaling@Value@DirectUI@@QAAPBGXZ
?GetStringNull@Value@DirectUI@@SAPAV12@XZ
?GetStringRPNull@Value@DirectUI@@SAPAV12@XZ
?GetStyle@CCTreeView@DirectUI@@QAAKXZ
?GetStyleSheet@Value@DirectUI@@QAAPAVStyleSheet@2@XZ
?GetSubContent@TouchCommandButton@DirectUI@@QAAPBGPAPAVValue@2@@Z
?GetSuppressClearButton@TouchEdit2@DirectUI@@QAA_NXZ
?GetSurfaceType@Surface@DirectUI@@SA?AW4EType@12@I@Z
?GetSurfaceType@Surface@DirectUI@@SAIW4EType@12@@Z
?GetSyncContentWhileIMEComposing@TouchEditBase@DirectUI@@QAA_NXZ
?GetTargetPage@Navigator@DirectUI@@QAAPBGPAPAVValue@2@@Z
?GetTextContentOverride@TouchSelectItem@DirectUI@@QAAPBGPAPAVValue@2@@Z
?GetTextDocument@TouchEdit2@DirectUI@@UAAJPAPAUITextDocument@@@Z
?GetTextDocument@TouchEditBase@DirectUI@@UAAJPAPAUITextDocument@@@Z
?GetTextGlowSize@Element@DirectUI@@QAAHXZ
?GetTextHeight@Edit@DirectUI@@AAAIXZ
?GetTextHost@TouchEdit2@DirectUI@@QAAJPAPAVITextHost@@@Z
?GetTextMode@TouchEditBase@DirectUI@@QAA?AW4TouchEditTextMode@2@XZ
?GetTextSelection@TouchEdit2@DirectUI@@QAAJPAPAUITextSelection@@@Z
?GetTextServices@TouchEdit2@DirectUI@@UAAJPAPAVITextServices@@@Z
?GetTextServices@TouchEditBase@DirectUI@@UAAJPAPAVITextServices@@@Z
?GetThemeChanged@HWNDHost@DirectUI@@IAAHXZ
?GetThemedBorder@Edit@DirectUI@@QAA_NXZ
?GetThumb@TouchScrollBar@DirectUI@@QAAPAVElement@2@XZ
?GetThumbElement@TouchSlider@DirectUI@@QAAPAVButton@2@XZ
?GetThumbPosition@CCTrackBar@DirectUI@@QAAHXZ
?GetThumbValue@TouchSlider@DirectUI@@QAAHXZ
?GetTickCount@TouchSlider@DirectUI@@QAAHXZ
?GetTitleText@TouchSwitch@DirectUI@@QAAPBGPAPAVValue@2@@Z
?GetToggleOnClick@TouchCheckBox@DirectUI@@QAA_NXZ
?GetToggleState@EventManager@DirectUI@@CAXPAUtagVARIANT@@@Z
?GetToggleState@ToggleProxy@DirectUI@@AAAJPAW4ToggleState@@@Z
?GetToggleValue@TouchSwitch@DirectUI@@QAAHXZ
?GetTooltip@Element@DirectUI@@QAA_NXZ
?GetTooltipMaxWidth@Element@DirectUI@@QAAHXZ
?GetTooltipMaximumLineCount@TouchHWNDElement@DirectUI@@QAAHXZ
?GetTopLevel@Element@DirectUI@@QAAPAV12@XZ
?GetTrackElement@TouchSlider@DirectUI@@QAAPAVElement@2@XZ
?GetTracking@CCBaseScrollBar@DirectUI@@QAA_NXZ
?GetTranslatedTileRects@TouchScrollViewer@DirectUI@@QAAXPAUtagRECT@@PAII@Z
?GetTransparent@HWNDHost@DirectUI@@QAA_NXZ
?GetTreatRightMouseButtonAsLeft@TouchButton@DirectUI@@QAA_NXZ
?GetTreeAlphaLevel@Element@DirectUI@@QAAMXZ
?GetTrimmedLineCount@RichText@DirectUI@@QAAKXZ
?GetType@DCSurface@DirectUI@@UBA?AW4EType@Surface@2@XZ
?GetType@Value@DirectUI@@QBAHXZ
?GetTypeInfo@DuiAccessible@DirectUI@@UAAJIKPAPAUITypeInfo@@@Z
?GetTypeInfoCount@DuiAccessible@DirectUI@@UAAJPAI@Z
?GetUIAElementProvider@Element@DirectUI@@UAAJABU_GUID@@PAPAX@Z
?GetUIState@HWNDElement@DirectUI@@QAAGXZ
?GetUiaFocusDelegate@Element@DirectUI@@UAAPAV12@XZ
?GetUiaFocusDelegate@TouchEdit2@DirectUI@@UAAPAVElement@2@XZ
?GetUnavailable@Value@DirectUI@@SAPAV12@XZ
?GetUnset@Value@DirectUI@@SAPAV12@XZ
?GetVScroll@ScrollViewer@DirectUI@@MAAPAVBaseScrollBar@2@XZ
?GetVScroll@StyledScrollViewer@DirectUI@@MAAPAVBaseScrollBar@2@XZ
?GetVScrollbar@TouchScrollViewer@DirectUI@@QAAJPAPAVElement@2@@Z
?GetValue@Element@DirectUI@@QAAPAVValue@2@P6APBUPropertyInfo@2@XZHPAUUpdateCache@2@@Z
?GetValue@Element@DirectUI@@QAAPAVValue@2@PBUPropertyInfo@2@HPAUUpdateCache@2@@Z
?GetValue@ValueProxy@DirectUI@@AAAJPAPAG@Z
?GetValueList@Value@DirectUI@@QAAPAV?$DynamicArray@PAVValue@DirectUI@@$0A@@2@XZ
?GetValueParser@DUIXmlParser@DirectUI@@IAAJPAPAVValueParser@ParserTools@2@@Z
?GetVertical@ScrollBar@DirectUI@@QAA_NXZ
?GetViewSize@ScrollProxy@DirectUI@@AAAJ_NPAN@Z
?GetViewer@ScrollProxy@DirectUI@@AAAJPAPAVViewer@2@@Z
?GetVisible@Element@DirectUI@@QAA_NXZ
?GetVisibleRect@TouchScrollViewer@DirectUI@@QAAXPAUtagRECT@@@Z
?GetVisited@TouchHyperLink@DirectUI@@QAA_NXZ
?GetVisualState@TouchSlider@DirectUI@@QAAHXZ
?GetWantTabs@Edit@DirectUI@@QAA_NXZ
?GetWidth@Element@DirectUI@@QAAHXZ
?GetWinStyle@CCBase@DirectUI@@QAAHXZ
?GetWindow@DuiAccessible@DirectUI@@UAAJPAPAUHWND__@@@Z
?GetWindow@HWNDHostAccessible@DirectUI@@UAAJPAPAUHWND__@@@Z
?GetWindowAccessGradientColor@TouchHWNDElement@DirectUI@@QAAPAVValue@2@XZ
?GetWindowActive@Element@DirectUI@@QAA_NXZ
?GetWindowClassNameAndStyle@HWNDElement@DirectUI@@UAAXPAPBGPAI@Z
?GetWrapKeyboardNavigate@HWNDElement@DirectUI@@QAA_NXZ
?GetX@Element@DirectUI@@QAAHXZ
?GetXBabyElement@XBaby@DirectUI@@UAAPAVHWNDElement@2@XZ
?GetXBarVisibility@BaseScrollViewer@DirectUI@@QAAHXZ
?GetXOffset@BaseScrollViewer@DirectUI@@QAAHXZ
?GetXOffset@Viewer@DirectUI@@QAAHXZ
?GetXScrollHeight@BaseScrollViewer@DirectUI@@QAAHXZ
?GetXScrollable@BaseScrollViewer@DirectUI@@QAA_NXZ
?GetXScrollable@Viewer@DirectUI@@QAA_NXZ
?GetXmlLiteDll@DUIXmlParser@DirectUI@@KAJPAPAUHINSTANCE__@@@Z
?GetY@Element@DirectUI@@QAAHXZ
?GetYBarVisibility@BaseScrollViewer@DirectUI@@QAAHXZ
?GetYOffset@BaseScrollViewer@DirectUI@@QAAHXZ
?GetYOffset@Viewer@DirectUI@@QAAHXZ
?GetYScrollWidth@BaseScrollViewer@DirectUI@@QAAHXZ
?GetYScrollable@BaseScrollViewer@DirectUI@@QAA_NXZ
?GetYScrollable@Viewer@DirectUI@@QAA_NXZ
?GetZoomMaximum@TouchScrollViewer@DirectUI@@QAAMXZ
?GetZoomMinimum@TouchScrollViewer@DirectUI@@QAAMXZ
?GridItemPattern@Schema@DirectUI@@2HA DATA
?GridItem_ColumnSpan_Property@Schema@DirectUI@@2HA DATA
?GridItem_Column_Property@Schema@DirectUI@@2HA DATA
?GridItem_Parent_Property@Schema@DirectUI@@2HA DATA
?GridItem_RowSpan_Property@Schema@DirectUI@@2HA DATA
?GridItem_Row_Property@Schema@DirectUI@@2HA DATA
?GridPattern@Schema@DirectUI@@2HA DATA
?Grid_ColumnCount_Property@Schema@DirectUI@@2HA DATA
?Grid_RowCount_Property@Schema@DirectUI@@2HA DATA
?GroupControlType@Schema@DirectUI@@2HA DATA
?HandleAccChange@EventManager@DirectUI@@CAJPAVElement@2@PAUIRawElementProviderSimple@@PAVValue@2@2@Z
?HandleAccDesc@EventManager@DirectUI@@CAJPAVElement@2@PAUIRawElementProviderSimple@@PAVValue@2@2@Z
?HandleAccPatternChange@EventManager@DirectUI@@CAJPAVElement@2@PAUIRawElementProviderSimple@@IIHPAUtagVARIANT@@2P6AX2@Z@Z
?HandleAccRoleEvent@EventManager@DirectUI@@CAJPAUIRawElementProviderSimple@@PAVValue@2@1@Z
?HandleAccStateChange@EventManager@DirectUI@@CAJPAUIRawElementProviderSimple@@IIHPAUtagVARIANT@@1_N@Z
?HandleBoolProp@EventManager@DirectUI@@CAJPAVElement@2@P6A_N0@ZPAUIRawElementProviderSimple@@HPAVValue@2@3@Z
?HandleChildrenEvent@EventManager@DirectUI@@CAJPAVElement@2@PAVValue@2@1@Z
?HandleEnterKeyProp@DialogElement@DirectUI@@SAPBUPropertyInfo@2@XZ
?HandleEnterProp@TouchButton@DirectUI@@SAPBUPropertyInfo@2@XZ
?HandleGlobalEnterProp@TouchButton@DirectUI@@SAPBUPropertyInfo@2@XZ
?HandleRangeValue@EventManager@DirectUI@@CAJPAVElement@2@PAUIRawElementProviderSimple@@PAVValue@2@2@Z
?HandleScrollPos@EventManager@DirectUI@@CAJPAVElement@2@PAUIRawElementProviderSimple@@PAVValue@2@2@Z
?HandleSelectedChange@EventManager@DirectUI@@CAJPAUIRawElementProviderSimple@@PAVValue@2@@Z
?HandleStringProp@EventManager@DirectUI@@CAJPAUIRawElementProviderSimple@@HPAVValue@2@1@Z
?HandleToggleValue@EventManager@DirectUI@@CAJPAVElement@2@PAUIRawElementProviderSimple@@PAVValue@2@2@Z
?HandleUiaDestroyListener@Element@DirectUI@@UAAXXZ
?HandleUiaEventListener@Element@DirectUI@@UAAXPAUEvent@2@@Z
?HandleUiaPropertyChangingListener@Element@DirectUI@@UAAXPBUPropertyInfo@2@@Z
?HandleUiaPropertyListener@Element@DirectUI@@UAAXPBUPropertyInfo@2@HPAVValue@2@1@Z
?HandleVisibilityChange@EventManager@DirectUI@@CAJPAVElement@2@I@Z
?HasAnimation@Element@DirectUI@@QAA_NXZ
?HasBorder@Element@DirectUI@@QAA_NXZ
?HasChildren@Element@DirectUI@@QAA_NXZ
?HasContent@Element@DirectUI@@QAA_NXZ
?HasEdgeHighlight@Element@DirectUI@@QAA_NXZ
?HasKeyboardFocusProperty@Schema@DirectUI@@2HA DATA
?HasLayout@Element@DirectUI@@QAA_NXZ
?HasMargin@Element@DirectUI@@QAA_NXZ
?HasPVLAnimationState@Element@DirectUI@@QAA_NI@Z
?HasPadding@Element@DirectUI@@QAA_NXZ
?HasSelection@TouchEdit2@DirectUI@@QAA_NXZ
?HasShieldProp@CCPushButton@DirectUI@@SAPBUPropertyInfo@2@XZ
?HaveWin32Focus@HWNDHost@DirectUI@@AAA_NXZ
?HeaderControlType@Schema@DirectUI@@2HA DATA
?HeaderItemControlType@Schema@DirectUI@@2HA DATA
?HeightProp@Element@DirectUI@@SAPBUPropertyInfo@2@XZ
?HelpTextProperty@Schema@DirectUI@@2HA DATA
?HideTouchTooltip@TouchHWNDElement@DirectUI@@QAAJXZ
?HideWindow@NativeHWNDHost@DirectUI@@QAAXXZ
?HideWindow@XHost@DirectUI@@QAAXXZ
?HighDPIProp@Element@DirectUI@@SAPBUPropertyInfo@2@XZ
?Home@BaseScrollBar@DirectUI@@UAAXXZ
?Host@NativeHWNDHost@DirectUI@@QAAXPAVElement@2@@Z
?Host@XHost@DirectUI@@QAAXPAVElement@2@@Z
?Hosted@PushButton@DirectUI@@SA?AVUID@@XZ
?HyperlinkControlType@Schema@DirectUI@@2HA DATA
?IDProp@Element@DirectUI@@SAPBUPropertyInfo@2@XZ
?IHMNotify@TouchHWNDElement@DirectUI@@SA?AVUID@@XZ
?IMEComposingProp@TouchEditBase@DirectUI@@SAPBUPropertyInfo@2@XZ
?INITIALSTACKSKIP@CallstackTracker@DirectUI@@0HB
?IgnoredKeyCombosProp@TouchEditBase@DirectUI@@SAPBUPropertyInfo@2@XZ
?ImageControlType@Schema@DirectUI@@2HA DATA
?ImmersiveColorSchemeChange@HWNDElement@DirectUI@@SA?AVUID@@XZ
?Init@?$PatternProvider@VExpandCollapseProvider@DirectUI@@UIExpandCollapseProvider@@$00@DirectUI@@UAAXPAVElementProvider@2@@Z
?Init@?$PatternProvider@VGridItemProvider@DirectUI@@UIGridItemProvider@@$01@DirectUI@@UAAXPAVElementProvider@2@@Z
?Init@?$PatternProvider@VGridProvider@DirectUI@@UIGridProvider@@$02@DirectUI@@UAAXPAVElementProvider@2@@Z
?Init@?$PatternProvider@VInvokeProvider@DirectUI@@UIInvokeProvider@@$0A@@DirectUI@@UAAXPAVElementProvider@2@@Z
?Init@?$PatternProvider@VRangeValueProvider@DirectUI@@UIRangeValueProvider@@$03@DirectUI@@UAAXPAVElementProvider@2@@Z
?Init@?$PatternProvider@VScrollItemProvider@DirectUI@@UIScrollItemProvider@@$05@DirectUI@@UAAXPAVElementProvider@2@@Z
?Init@?$PatternProvider@VScrollProvider@DirectUI@@UIScrollProvider@@$04@DirectUI@@UAAXPAVElementProvider@2@@Z
?Init@?$PatternProvider@VSelectionItemProvider@DirectUI@@UISelectionItemProvider@@$06@DirectUI@@UAAXPAVElementProvider@2@@Z
?Init@?$PatternProvider@VSelectionProvider@DirectUI@@UISelectionProvider@@$07@DirectUI@@UAAXPAVElementProvider@2@@Z
?Init@?$PatternProvider@VTableItemProvider@DirectUI@@UITableItemProvider@@$09@DirectUI@@UAAXPAVElementProvider@2@@Z
?Init@?$PatternProvider@VTableProvider@DirectUI@@UITableProvider@@$08@DirectUI@@UAAXPAVElementProvider@2@@Z
?Init@?$PatternProvider@VToggleProvider@DirectUI@@UIToggleProvider@@$0L@@DirectUI@@UAAXPAVElementProvider@2@@Z
?Init@?$PatternProvider@VValueProvider@DirectUI@@UIValueProvider@@$0M@@DirectUI@@UAAXPAVElementProvider@2@@Z
?Init@AutoThread@DirectUI@@QAAJXZ
?Init@BrowserSelectionProxy@DirectUI@@MAAXPAVElement@2@@Z
?Init@CallstackTracker@DirectUI@@SAHXZ
?Init@ElementProvider@DirectUI@@MAAJPAVElement@2@PAVInvokeHelper@2@@Z
?Init@ElementProviderManager@DirectUI@@SAJXZ
?Init@ElementProxy@DirectUI@@MAAXPAVElement@2@@Z
?Init@EventManager@DirectUI@@SAJXZ
?Init@ExpandCollapseProxy@DirectUI@@MAAXPAVElement@2@@Z
?Init@GridItemProxy@DirectUI@@MAAXPAVElement@2@@Z
?Init@GridProxy@DirectUI@@MAAXPAVElement@2@@Z
?Init@HWNDElementProvider@DirectUI@@MAAJPAVHWNDElement@2@PAVInvokeHelper@2@@Z
?Init@HWNDElementProxy@DirectUI@@UAAXPAVHWNDElement@2@@Z
?Init@InvokeHelper@DirectUI@@QAAHK@Z
?Init@InvokeManager@DirectUI@@SAJXZ
?Init@InvokeProxy@DirectUI@@MAAXPAVElement@2@@Z
?Init@ModernProgressBarRangeValueProxy@DirectUI@@MAAXPAVElement@2@@Z
?Init@NavReference@DirectUI@@QAAXPAVElement@2@PAUtagRECT@@@Z
?Init@NavScoring@DirectUI@@QAAXPAVElement@2@HPBUNavReference@2@@Z
?Init@NavigatorSelectionItemProxy@DirectUI@@MAAXPAVElement@2@@Z
?Init@ProgressRangeValueProxy@DirectUI@@MAAXPAVElement@2@@Z
?Init@ProviderProxy@DirectUI@@MAAXPAVElement@2@@Z
?Init@RangeValueProxy@DirectUI@@MAAXPAVElement@2@@Z
?Init@Schema@DirectUI@@SAJXZ
?Init@ScrollBarRangeValueProxy@DirectUI@@MAAXPAVElement@2@@Z
?Init@ScrollItemProxy@DirectUI@@MAAXPAVElement@2@@Z
?Init@ScrollProxy@DirectUI@@MAAXPAVElement@2@@Z
?Init@SelectionItemProxy@DirectUI@@MAAXPAVElement@2@@Z
?Init@SelectionProxy@DirectUI@@MAAXPAVElement@2@@Z
?Init@SelectorSelectionItemProxy@DirectUI@@MAAXPAVElement@2@@Z
?Init@SelectorSelectionProxy@DirectUI@@MAAXPAVElement@2@@Z
?Init@TableItemProxy@DirectUI@@MAAXPAVElement@2@@Z
?Init@TableProxy@DirectUI@@MAAXPAVElement@2@@Z
?Init@ToggleProxy@DirectUI@@MAAXPAVElement@2@@Z
?Init@ValueProxy@DirectUI@@MAAXPAVElement@2@@Z
?InitOnceCallback@CallstackTracker@DirectUI@@CAHPAT_RTL_RUN_ONCE@@PAXPAPAX@Z
?InitProcess@FontCache@DirectUI@@SAJXZ
?InitPropSheetPage@TaskPage@DirectUI@@MAAXPAU_PROPSHEETPAGEW@@@Z
?InitThread@FontCache@DirectUI@@SAJXZ
?Initialize@AccessibleButton@DirectUI@@QAAJPAVElement@2@PAK@Z
?Initialize@AnimationStrip@DirectUI@@QAAJIPAVElement@2@PAK@Z
?Initialize@AutoButton@DirectUI@@QAAJPAVElement@2@PAK@Z
?Initialize@BaseScrollViewer@DirectUI@@QAAJPAVElement@2@PAK@Z
?Initialize@Bind@DirectUI@@QAAJPAVElement@2@PAK@Z
?Initialize@BorderLayout@DirectUI@@QAAXXZ
?Initialize@Browser@DirectUI@@QAAJPAVElement@2@PAK@Z
?Initialize@Button@DirectUI@@QAAJIPAVElement@2@PAK@Z
?Initialize@CCBase@DirectUI@@QAAJIPAVElement@2@PAK@Z
?Initialize@CCBaseScrollBar@DirectUI@@QAAJIPAVElement@2@PAK@Z
?Initialize@CCListView@DirectUI@@QAAJIPAVElement@2@PAK@Z
?Initialize@CCProgressBar@DirectUI@@QAAJIPAVElement@2@PAK@Z
?Initialize@CSafeElementProxy@@IAAJPAVElement@DirectUI@@@Z
?Initialize@CheckBoxGlyph@DirectUI@@QAAJIPAVElement@2@PAK@Z
?Initialize@ClassInfoBase@DirectUI@@QAAJPAUHINSTANCE__@@PBG_NPBQBUPropertyInfo@2@I@Z
?Initialize@Clipper@DirectUI@@QAAJPAVElement@2@PAK@Z
?Initialize@Combobox@DirectUI@@QAAJIPAVElement@2@PAK@Z
?Initialize@DUIXmlParser@DirectUI@@IAAJXZ
?Initialize@DialogElementCore@DirectUI@@QAAXPAUIDialogElement@2@PAUIElementListener@2@@Z
?Initialize@DuiAccessible@DirectUI@@QAAXPAVElement@2@@Z
?Initialize@Edit@DirectUI@@QAAJIPAVElement@2@PAK@Z
?Initialize@Element@DirectUI@@QAAJIPAV12@PAK@Z
?Initialize@Expando@DirectUI@@QAAJPAVElement@2@PAK@Z
?Initialize@ExpandoButtonGlyph@DirectUI@@QAAJIPAVElement@2@PAK@Z
?Initialize@FillLayout@DirectUI@@QAAXXZ
?Initialize@FlowLayout@DirectUI@@QAAX_NIII@Z
?Initialize@GridLayout@DirectUI@@QAAXHH@Z
?Initialize@HWNDElement@DirectUI@@QAAJPAUHWND__@@_NIPAVElement@2@PAK@Z
?Initialize@HWNDElementAccessible@DirectUI@@QAAJPAVHWNDElement@2@@Z
?Initialize@HWNDHost@DirectUI@@QAAJIIPAVElement@2@PAK@Z
?Initialize@HWNDHostAccessible@DirectUI@@QAAJPAVElement@2@PAUIAccessible@@@Z
?Initialize@Layout@DirectUI@@QAAXXZ
?Initialize@Macro@DirectUI@@QAAJPAVElement@2@PAK@Z
?Initialize@NativeHWNDHost@DirectUI@@QAAJPBG0PAUHWND__@@PAUHICON__@@HHHHHHPAUHINSTANCE__@@I@Z
?Initialize@NativeHWNDHost@DirectUI@@QAAJPBGPAUHWND__@@PAUHICON__@@HHHHHHI@Z
?Initialize@Navigator@DirectUI@@QAAJPAVElement@2@PAK@Z
?Initialize@NineGridLayout@DirectUI@@QAAXXZ
?Initialize@PText@DirectUI@@QAAJPAVElement@2@PAK@Z
?Initialize@Page@DirectUI@@QAAJPAVElement@2@PAK@Z
?Initialize@Pages@DirectUI@@QAAJPAVElement@2@PAK@Z
?Initialize@Progress@DirectUI@@QAAJPAVElement@2@PAK@Z
?Initialize@RadioButtonGlyph@DirectUI@@QAAJIPAVElement@2@PAK@Z
?Initialize@RefPointElement@DirectUI@@QAAJIPAVElement@2@PAK@Z
?Initialize@RepeatButton@DirectUI@@QAAJIPAVElement@2@PAK@Z
?Initialize@Repeater@DirectUI@@QAAJPAVElement@2@PAK@Z
?Initialize@RichText@DirectUI@@QAAJPAVElement@2@PAK@Z
?Initialize@RowLayout@DirectUI@@QAAJHII@Z
?Initialize@ScrollBar@DirectUI@@QAAJ_NPAVElement@2@PAK@Z
?Initialize@Selector@DirectUI@@QAAJPAVElement@2@PAK@Z
?Initialize@SelectorNoDefault@DirectUI@@QAAJPAVElement@2@PAK@Z
?Initialize@SemanticZoomToggle@DirectUI@@QAAJPAVElement@2@PAK@Z
?Initialize@TableLayout@DirectUI@@QAAXHHHPAH@Z
?Initialize@TextGraphic@DirectUI@@QAAJPAVElement@2@PAK@Z
?Initialize@Thumb@DirectUI@@QAAJIPAVElement@2@PAK@Z
?Initialize@TouchButton@DirectUI@@QAAJIPAVElement@2@PAK@Z
?Initialize@TouchCheckBox@DirectUI@@QAAJIPAVElement@2@PAK@Z
?Initialize@TouchCheckBoxGlyph@DirectUI@@QAAJPAVElement@2@PAK@Z
?Initialize@TouchCommandButton@DirectUI@@QAAJIPAVElement@2@PAK@Z
?Initialize@TouchEdit2@DirectUI@@QAAJPAVElement@2@PAK@Z
?Initialize@TouchHWNDElement@DirectUI@@QAAJPAUHWND__@@_NIPAVElement@2@PAK@Z
?Initialize@TouchRepeatButton@DirectUI@@QAAJIPAVElement@2@PAK@Z
?Initialize@TouchScrollBar@DirectUI@@QAAJ_NPAVElement@2@PAK@Z
?Initialize@TouchSelect@DirectUI@@QAAJPAVElement@2@PAK@Z
?Initialize@TouchSlider@DirectUI@@QAAJPAVElement@2@PAK@Z
?Initialize@TouchSwitch@DirectUI@@QAAJPAVElement@2@PAK@Z
?Initialize@UnknownElement@DirectUI@@QAAJIPAVElement@2@PAK@Z
?Initialize@VerticalFlowLayout@DirectUI@@QAAX_NIII@Z
?Initialize@Viewer@DirectUI@@QAAJPAVElement@2@PAK@Z
?Initialize@XBaby@DirectUI@@IAAJPAVIXElementCP@2@PAVXProvider@2@PAUHWND__@@PAVElement@2@PAK@Z
?Initialize@XElement@DirectUI@@QAAJIPAVElement@2@PAK@Z
?Initialize@XHost@DirectUI@@QAAJPAVIXElementCP@2@@Z
?Initialize@XProvider@DirectUI@@QAAJPAVElement@2@PAVIXProviderCP@2@@Z
?Initialize@XResourceProvider@DirectUI@@QAAJPAUHINSTANCE__@@PBG11@Z
?InitializeDllInfo@CallstackTracker@DirectUI@@CAHXZ
?InitializeParserFromXmlReader@DUIXmlParser@DirectUI@@IAAJPAUIXmlReader@@PAUHINSTANCE__@@1@Z
?InitializeSymbols@CallstackTracker@DirectUI@@CAHXZ
?InnerBorderThicknessProp@TouchEdit2@DirectUI@@SAPBUPropertyInfo@2@XZ
?Insert@Element@DirectUI@@QAAJPAV12@I@Z
?Insert@Element@DirectUI@@UAAJPAPAV12@II@Z
?Insert@TouchCheckBox@DirectUI@@UAAJPAPAVElement@2@II@Z
?Insert@TouchCheckBoxGlyph@DirectUI@@UAAJPAPAVElement@2@II@Z
?Insert@TouchCommandButton@DirectUI@@UAAJPAPAVElement@2@II@Z
?Insert@TouchEditBase@DirectUI@@UAAJPAPAVElement@2@II@Z
?Insert@TouchSelect@DirectUI@@UAAJPAPAVElement@2@II@Z
?InsertItem@CCTreeView@DirectUI@@QAAPAU_TREEITEM@@PAGIQAU3@1@Z
?InsertItem@CCTreeView@DirectUI@@QAAPAU_TREEITEM@@PBUtagTVINSERTSTRUCTW@@@Z
?IntegrateIMECandidateListProp@TouchEditBase@DirectUI@@SAPBUPropertyInfo@2@XZ
?InteractionEnd@TouchScrollBar@DirectUI@@SA?AVUID@@XZ
?InteractionStart@TouchScrollBar@DirectUI@@SA?AVUID@@XZ
?InternalCreate@TableLayout@DirectUI@@SAJHHHPAHPAPAVLayout@2@@Z
?InterpolationModeProp@Movie@DirectUI@@SAPBUPropertyInfo@2@XZ
?Invoke@DuiAccessible@DirectUI@@UAAJJABU_GUID@@KGPAUtagDISPPARAMS@@PAUtagVARIANT@@PAUtagEXCEPINFO@@PAI@Z
?Invoke@InvokeProvider@DirectUI@@UAAJXZ
?Invoke@Proxy@DirectUI@@IAAXIPAX@Z
?InvokeAnimation@Element@DirectUI@@QAAXHI@Z
?InvokeAnimation@Element@DirectUI@@QAAXIIMM_N@Z
?InvokeInvokedEvent@Schema@DirectUI@@2HA DATA
?InvokePattern@Schema@DirectUI@@2HA DATA
?IsActivityOccuring@ModernProgressBar@DirectUI@@QAA_NXZ
?IsActivityOccuring@ModernProgressRing@DirectUI@@QAA_NXZ
?IsAddLayeredRef@ModernProgressBar@DirectUI@@QAA_NXZ
?IsAddLayeredRef@ModernProgressRing@DirectUI@@QAA_NXZ
?IsAutoHeight@ModernProgressBar@DirectUI@@QAA_NXZ
?IsBehaviorLayout@Element@DirectUI@@QBA_NXZ
?IsButtonEnabledAndVisible@DialogElementCore@DirectUI@@KA_NPAVElement@2@@Z
?IsCacheDirty@Layout@DirectUI@@IAA_NXZ
?IsCompositedText@Element@DirectUI@@QAA_NXZ
?IsContentElementProperty@Schema@DirectUI@@2HA DATA
?IsContentProtected@Edit@DirectUI@@UAA_NXZ
?IsContentProtected@Element@DirectUI@@UAA_NXZ
?IsContentProtected@TouchEditBase@DirectUI@@UAA_NXZ
?IsContinuousProp@TouchSlider@DirectUI@@SAPBUPropertyInfo@2@XZ
?IsControlElementProperty@Schema@DirectUI@@2HA DATA
?IsCorrectImageHlpVersion@CallstackTracker@DirectUI@@CAHXZ
?IsCrossfadeInProgress@TouchScrollViewer@DirectUI@@QAA_NXZ
?IsDefaultCAlign@Element@DirectUI@@QAA_NXZ
?IsDefaultCursor@Element@DirectUI@@QAA_NXZ
?IsDescendent@Element@DirectUI@@QAA_NPAV12@@Z
?IsDescendent@XElement@DirectUI@@QAA_NPAVElement@2@@Z
?IsDescendent@XProvider@DirectUI@@UAAJPAVElement@2@PA_N@Z
?IsDestroyed@Element@DirectUI@@QAA_NXZ
?IsDeterminate@ModernProgressBar@DirectUI@@QAA_NXZ
?IsDynamicScaled@Value@DirectUI@@QAA_NXZ
?IsDynamicScaling@DUIXmlParser@DirectUI@@QAA_NXZ
?IsEnabledProperty@Schema@DirectUI@@2HA DATA
?IsEqual@Value@DirectUI@@QAA_NPAV12@@Z
?IsFirstElement@HWNDElement@DirectUI@@QAA_NPAVElement@2@@Z
?IsGlobal@ClassInfoBase@DirectUI@@UBA_NXZ
?IsHosted@Element@DirectUI@@QAA_NXZ
?IsIndependentAnimations@ModernProgressBar@DirectUI@@QAA_NXZ
?IsKeyboardFocusableProperty@Schema@DirectUI@@2HA DATA
?IsLastElement@HWNDElement@DirectUI@@QAA_NPAVElement@2@@Z
?IsMSAAEnabled@HWNDElement@DirectUI@@UAA_NXZ
?IsMSAAEnabled@TouchHWNDElement@DirectUI@@UAA_NXZ
?IsManualVisualSwapInProgress@TouchScrollViewer@DirectUI@@QAA_NXZ
?IsMoveDeferred@HWNDHost@DirectUI@@IAA_NXZ
?IsOffscreen@Schema@DirectUI@@2HA DATA
?IsPasswordProperty@Schema@DirectUI@@2HA DATA
?IsPatternSupported@ElementProxy@DirectUI@@IAAJW4Pattern@Schema@2@PA_N@Z
?IsPatternSupported@ExpandCollapseProxy@DirectUI@@SA_NPAVElement@2@@Z
?IsPatternSupported@GridItemProxy@DirectUI@@SA_NPAVElement@2@@Z
?IsPatternSupported@GridProxy@DirectUI@@SA_NPAVElement@2@@Z
?IsPatternSupported@InvokeProxy@DirectUI@@SA_NPAVElement@2@@Z
?IsPatternSupported@RangeValueProxy@DirectUI@@SA_NPAVElement@2@@Z
?IsPatternSupported@ScrollItemProxy@DirectUI@@SA_NPAVElement@2@@Z
?IsPatternSupported@ScrollProxy@DirectUI@@SA_NPAVElement@2@@Z
?IsPatternSupported@SelectionItemProxy@DirectUI@@SA_NPAVElement@2@@Z
?IsPatternSupported@SelectionProxy@DirectUI@@SA_NPAVElement@2@@Z
?IsPatternSupported@TableItemProxy@DirectUI@@SA_NPAVElement@2@@Z
?IsPatternSupported@TableProxy@DirectUI@@SA_NPAVElement@2@@Z
?IsPatternSupported@ToggleProxy@DirectUI@@SA_NPAVElement@2@@Z
?IsPatternSupported@ValueProxy@DirectUI@@SA_NPAVElement@2@@Z
?IsPeripheral@Schema@DirectUI@@2HA DATA
?IsPinned@BaseScrollBar@DirectUI@@QAA_NXZ
?IsPointValid@Element@DirectUI@@AAA_NNN@Z
?IsPopupOpen@TouchSelect@DirectUI@@QAA_NXZ
?IsPressedProp@TouchSlider@DirectUI@@SAPBUPropertyInfo@2@XZ
?IsRTL@Element@DirectUI@@QAA_NXZ
?IsRTLReading@Element@DirectUI@@UAA_NXZ
?IsRegisteredForAnimationStatusChanges@TouchHWNDElement@DirectUI@@QAA_NXZ
?IsReorderable@ItemList@DirectUI@@QAA_NXZ
?IsRoot@Element@DirectUI@@QAAHXZ
?IsScrollable@BaseScrollBar@DirectUI@@QAA_NXZ
?IsSelfLayout@Element@DirectUI@@QAA_NXZ
?IsShowOnOffFeedbackProp@TouchSlider@DirectUI@@SAPBUPropertyInfo@2@XZ
?IsSmoothFillAnimation@ModernProgressBar@DirectUI@@QAA_NXZ
?IsSubclassOf@ClassInfoBase@DirectUI@@UBA_NPAUIClassInfo@2@@Z
?IsThemeClassName@DUIXmlParser@DirectUI@@KA_NPBUExprNode@ParserTools@2@@Z
?IsThumbActive@TouchScrollBar@DirectUI@@QAA_NXZ
?IsTileMember@TouchScrollViewer@DirectUI@@QAA_NIPAVElement@2@@Z
?IsValidAccessor@Element@DirectUI@@QAA_NPBUPropertyInfo@2@H_N@Z
?IsValidProperty@ClassInfoBase@DirectUI@@UBA_NPBUPropertyInfo@2@@Z
?IsValidValue@Element@DirectUI@@SA_NPBUPropertyInfo@2@PAVValue@2@@Z
?IsVerticalProp@TouchSlider@DirectUI@@SAPBUPropertyInfo@2@XZ
?IsWordWrap@Element@DirectUI@@QAA_NXZ
?ItemContainerPattern@Schema@DirectUI@@2HA DATA
?ItemHeightInPopupProp@TouchSelect@DirectUI@@SAPBUPropertyInfo@2@XZ
?ItemStatusProperty@Schema@DirectUI@@2HA DATA
?ItemTypeProperty@Schema@DirectUI@@2HA DATA
?KeyFocusedProp@Element@DirectUI@@SAPBUPropertyInfo@2@XZ
?KeyWithinProp@Element@DirectUI@@SAPBUPropertyInfo@2@XZ
?KeyboardNavigate@Element@DirectUI@@SA?AVUID@@XZ
?KeyboardNavigationCaptureProp@TouchEditBase@DirectUI@@SAPBUPropertyInfo@2@XZ
?LabeledByProperty@Schema@DirectUI@@2HA DATA
?LastDSConstProp@Element@DirectUI@@SAPBUPropertyInfo@2@XZ
?LayoutInvalidatedEvent@Schema@DirectUI@@2HA DATA
?LayoutPosProp@Element@DirectUI@@SAPBUPropertyInfo@2@XZ
?LayoutProp@Element@DirectUI@@SAPBUPropertyInfo@2@XZ
?Leaving@Browser@DirectUI@@SA?AVUID@@XZ
?LightDismissIHMProp@TouchHWNDElement@DirectUI@@SAPBUPropertyInfo@2@XZ
?LineDown@BaseScrollBar@DirectUI@@UAAXI@Z
?LineDown@TouchScrollBar@DirectUI@@UAAXI@Z
?LineProp@CCBaseScrollBar@DirectUI@@SAPBUPropertyInfo@2@XZ
?LineProp@ScrollBar@DirectUI@@SAPBUPropertyInfo@2@XZ
?LineSizeProp@CCTrackBar@DirectUI@@SAPBUPropertyInfo@2@XZ
?LineSpacingProp@RichText@DirectUI@@SAPBUPropertyInfo@2@XZ
?LineUp@BaseScrollBar@DirectUI@@UAAXI@Z
?LineUp@TouchScrollBar@DirectUI@@UAAXI@Z
?ListControlType@Schema@DirectUI@@2HA DATA
?ListItemControlType@Schema@DirectUI@@2HA DATA
?LoadComCtl32@TaskPage@DirectUI@@AAAJXZ
?LoadCommonControlExports@AnimationStrip@DirectUI@@AAAJXZ
?LoadFromBuffer@DUIFactory@DirectUI@@QAAJPBGI0PAVElement@2@PAKPAPAV32@@Z
?LoadFromFile@DUIFactory@DirectUI@@QAAJPBG0PAVElement@2@PAKPAPAV32@@Z
?LoadFromPath@Movie@DirectUI@@QAAJPBG@Z
?LoadFromResource@DUIFactory@DirectUI@@QAAJPAUHINSTANCE__@@PBG1PAVElement@2@PAKPAPAV42@1@Z
?LoadFromResource@Movie@DirectUI@@QAAJPAUHINSTANCE__@@H@Z
?LoadImagesIntoAnimationStrip@AnimationStrip@DirectUI@@IAAJXZ
?LoadPage@TaskPage@DirectUI@@AAAJPAPAVElement@2@PAV32@PAPAVDUIXmlParser@2@@Z
?LoadPage@TaskPage@DirectUI@@MAAJPAVHWNDElement@2@PAUHINSTANCE__@@PAPAVElement@2@PAPAVDUIXmlParser@2@@Z
?LoadParser@TaskPage@DirectUI@@MAAJPAPAVDUIXmlParser@2@@Z
?LocaleProp@RichText@DirectUI@@SAPBUPropertyInfo@2@XZ
?LocalizedControlTypeProperty@Schema@DirectUI@@2HA DATA
?Locate@RefPointElement@DirectUI@@SAPAV12@PAVElement@2@@Z
?LocationProp@Element@DirectUI@@SAPBUPropertyInfo@2@XZ
?LookupAccessibleRole@Schema@DirectUI@@SAHHPA_N@Z
?LookupControlInfos@Schema@DirectUI@@CAJXZ
?LookupElement@DUIXmlParser@DirectUI@@QAAJPAUIXmlReader@@PBGPAUHINSTANCE__@@PAPAUIClassInfo@2@@Z
?LookupElement@DUIXmlParser@DirectUI@@QAAJULINEINFO@2@PBGPAUHINSTANCE__@@PAPAUIClassInfo@2@@Z
?LookupEventInfos@Schema@DirectUI@@CAJXZ
?LookupPatternInfos@Schema@DirectUI@@CAJXZ
?LookupPropertyInfos@Schema@DirectUI@@CAJXZ
?ManipulationCompleted@TouchScrollViewer@DirectUI@@SA?AVUID@@XZ
?ManipulationDelta@TouchScrollViewer@DirectUI@@SA?AVUID@@XZ
?ManipulationHorizontalAlignmentProp@TouchScrollViewer@DirectUI@@SAPBUPropertyInfo@2@XZ
?ManipulationStarted@TouchScrollViewer@DirectUI@@SA?AVUID@@XZ
?ManipulationStarting@TouchScrollViewer@DirectUI@@SA?AVUID@@XZ
?ManipulationVerticalAlignmentProp@TouchScrollViewer@DirectUI@@SAPBUPropertyInfo@2@XZ
?ManualStoryboardVerify@PVLAnimation@DirectUI@@SA?AVUID@@XZ
?MapContentVisuals@TouchScrollViewer@DirectUI@@SA?AVUID@@XZ
?MapElementPoint@Element@DirectUI@@QAAXPAV12@PBUtagPOINT@@PAU3@@Z
?MapPropertyEnumValue@DUIXmlParser@DirectUI@@IAAJPBUEnumMap@2@PBGPAH@Z
?MapPropertyNameToPropertyInfo@DUIXmlParser@DirectUI@@IAAJULINEINFO@2@PAUIClassInfo@2@PBGPAPBUPropertyInfo@2@@Z
?MapRunsToClustersProp@RichText@DirectUI@@SAPBUPropertyInfo@2@XZ
?MarginProp@Element@DirectUI@@SAPBUPropertyInfo@2@XZ
?MarkHosted@Element@DirectUI@@IAAXXZ
?MarkNeedsDSUpdate@Element@DirectUI@@QAAXXZ
?MarkSelfLayout@Element@DirectUI@@IAAXXZ
?MaxLengthProp@Edit@DirectUI@@SAPBUPropertyInfo@2@XZ
?MaxLengthProp@TouchEditBase@DirectUI@@SAPBUPropertyInfo@2@XZ
?MaximumProp@CCBaseScrollBar@DirectUI@@SAPBUPropertyInfo@2@XZ
?MaximumProp@ModernProgressBar@DirectUI@@SAPBUPropertyInfo@2@XZ
?MaximumProp@Progress@DirectUI@@SAPBUPropertyInfo@2@XZ
?MaximumProp@ScrollBar@DirectUI@@SAPBUPropertyInfo@2@XZ
?MenuBarControlType@Schema@DirectUI@@2HA DATA
?MenuClosedEvent@Schema@DirectUI@@2HA DATA
?MenuControlType@Schema@DirectUI@@2HA DATA
?MenuItemControlType@Schema@DirectUI@@2HA DATA
?MenuOpenedEvent@Schema@DirectUI@@2HA DATA
?MessageCallback@Edit@DirectUI@@UAAIPAUtagGMSG@@@Z
?MessageCallback@Element@DirectUI@@UAAIPAUtagGMSG@@@Z
?MessageCallback@HWNDHost@DirectUI@@UAAIPAUtagGMSG@@@Z
?MessageCallback@TouchHWNDElement@DirectUI@@UAAIPAUtagGMSG@@@Z
?MeteringProp@TouchSlider@DirectUI@@SAPBUPropertyInfo@2@XZ
?MinSizeProp@Element@DirectUI@@SAPBUPropertyInfo@2@XZ
?MinimumProp@CCBaseScrollBar@DirectUI@@SAPBUPropertyInfo@2@XZ
?MinimumProp@ModernProgressBar@DirectUI@@SAPBUPropertyInfo@2@XZ
?MinimumProp@Progress@DirectUI@@SAPBUPropertyInfo@2@XZ
?MinimumProp@ScrollBar@DirectUI@@SAPBUPropertyInfo@2@XZ
?MonitorPowerSettingsChange@TouchHWNDElement@DirectUI@@SA?AVUID@@XZ
?MouseFocusedProp@Element@DirectUI@@SAPBUPropertyInfo@2@XZ
?MouseOrPointerReleased@TouchSlider@DirectUI@@SA?AVUID@@XZ
?MouseWithinProp@Element@DirectUI@@SAPBUPropertyInfo@2@XZ
?MoveCaretToEndOnSyncContentProp@TouchEditBase@DirectUI@@SAPBUPropertyInfo@2@XZ
?MultilineProp@Edit@DirectUI@@SAPBUPropertyInfo@2@XZ
?MultilineProp@TouchEditBase@DirectUI@@SAPBUPropertyInfo@2@XZ
?MultipleClick@TouchButton@DirectUI@@SA?AVUID@@XZ
?MultipleViewPattern@Schema@DirectUI@@2HA DATA
?NameProperty@Schema@DirectUI@@2HA DATA
?Navigate@DuiNavigate@DirectUI@@SAPAVElement@2@PAV32@PAV?$DynamicArray@PAVElement@DirectUI@@$0A@@2@H@Z
?Navigate@ElementProvider@DirectUI@@UAAJW4NavigateDirection@@PAPAUIRawElementProviderFragment@@@Z
?Navigate@ElementProxy@DirectUI@@IAAJW4NavigateDirection@@PAPAUIRawElementProviderFragment@@@Z
?Navigate@XProvider@DirectUI@@UAAJHPA_N@Z
?NeedsDSUpdate@Element@DirectUI@@QAA_NXZ
?NewChildElementsAdded@TouchScrollViewer@DirectUI@@QAAXXZ
?NewNativeWindowHandleProperty@Schema@DirectUI@@2HA DATA
?Next@DuiAccessible@DirectUI@@UAAJKPAUtagVARIANT@@PAK@Z
?Next@HWNDHostAccessible@DirectUI@@UAAJKPAUtagVARIANT@@PAK@Z
?NoteProp@CCCommandLink@DirectUI@@SAPBUPropertyInfo@2@XZ
?NotifyComplete@PVLAnimation@DirectUI@@SA?AVUID@@XZ
?NotifyImplicit@PVLAnimation@DirectUI@@SA?AVUID@@XZ
?NotifyStart@PVLAnimation@DirectUI@@SA?AVUID@@XZ
?NotifyStoryboardComplete@PVLAnimation@DirectUI@@SA?AVUID@@XZ
?NullControlType@Schema@DirectUI@@2HA DATA
?OffTextProp@TouchSwitch@DirectUI@@SAPBUPropertyInfo@2@XZ
?OnAction@AnimationStrip@DirectUI@@IAAXPAUGMA_ACTIONINFO@@@Z
?OnAdd@BorderLayout@DirectUI@@UAAXPAVElement@2@PAPAV32@I@Z
?OnAdd@Layout@DirectUI@@UAAXPAVElement@2@PAPAV32@I@Z
?OnAdd@NineGridLayout@DirectUI@@UAAXPAVElement@2@PAPAV32@I@Z
?OnAdd@ShellBorderLayout@DirectUI@@UAAXPAVElement@2@PAPAV32@I@Z
?OnAdjustWindowSize@Combobox@DirectUI@@UAAHHHI@Z
?OnAdjustWindowSize@HWNDHost@DirectUI@@UAAHHHI@Z
?OnChildLostFocus@DialogElement@DirectUI@@UAA_NPAVElement@2@@Z
?OnChildLostFocus@DialogElementCore@DirectUI@@QAA_NPAVElement@2@@Z
?OnChildLostFocus@XBaby@DirectUI@@UAA_NPAVElement@2@@Z
?OnChildReceivedFocus@DialogElement@DirectUI@@UAA_NPAVElement@2@@Z
?OnChildReceivedFocus@DialogElementCore@DirectUI@@QAA_NPAVElement@2@@Z
?OnChildReceivedFocus@XBaby@DirectUI@@UAA_NPAVElement@2@@Z
?OnCompositionChanged@HWNDElement@DirectUI@@UAAXXZ
?OnCtrlThemeChanged@HWNDHost@DirectUI@@UAA_NIIJPAJ@Z
?OnCustomDraw@CCBase@DirectUI@@UAA_NPAUtagNMCUSTOMDRAWINFO@@PAJ@Z
?OnDefaultButtonTrackingChanged@DialogElementCore@DirectUI@@QAAXPAVValue@2@@Z
?OnDestroy@AnimationStrip@DirectUI@@MAAXXZ
?OnDestroy@DialogElement@DirectUI@@UAAXXZ
?OnDestroy@DialogElementCore@DirectUI@@QAAXXZ
?OnDestroy@Element@DirectUI@@UAAXXZ
?OnDestroy@HWNDElement@DirectUI@@UAAXXZ
?OnDestroy@HWNDHost@DirectUI@@UAAXXZ
?OnDestroy@ModernProgressBar@DirectUI@@MAAXXZ
?OnDestroy@ModernProgressRing@DirectUI@@MAAXXZ
?OnDestroy@Movie@DirectUI@@UAAXXZ
?OnDestroy@TouchHWNDElement@DirectUI@@UAAXXZ
?OnEvent@AutoButton@DirectUI@@UAAXPAUEvent@2@@Z
?OnEvent@BaseScrollViewer@DirectUI@@UAAXPAUEvent@2@@Z
?OnEvent@Browser@DirectUI@@UAAXPAUEvent@2@@Z
?OnEvent@Element@DirectUI@@UAAXPAUEvent@2@@Z
?OnEvent@Expando@DirectUI@@UAAXPAUEvent@2@@Z
?OnEvent@HWNDElement@DirectUI@@UAAXPAUEvent@2@@Z
?OnEvent@HWNDHost@DirectUI@@UAAXPAUEvent@2@@Z
?OnEvent@Movie@DirectUI@@UAAXPAUEvent@2@@Z
?OnEvent@Navigator@DirectUI@@UAAXPAUEvent@2@@Z
?OnEvent@RichText@DirectUI@@UAAXPAUEvent@2@@Z
?OnEvent@ScrollBar@DirectUI@@UAAXPAUEvent@2@@Z
?OnEvent@Selector@DirectUI@@UAAXPAUEvent@2@@Z
?OnEvent@SelectorNoDefault@DirectUI@@UAAXPAUEvent@2@@Z
?OnEvent@TouchButton@DirectUI@@UAAXPAUEvent@2@@Z
?OnEvent@TouchCheckBox@DirectUI@@UAAXPAUEvent@2@@Z
?OnEvent@TouchEdit2@DirectUI@@UAAXPAUEvent@2@@Z
?OnEvent@TouchHWNDElement@DirectUI@@UAAXPAUEvent@2@@Z
?OnEvent@TouchScrollBar@DirectUI@@UAAXPAUEvent@2@@Z
?OnEvent@TouchSelect@DirectUI@@UAAXPAUEvent@2@@Z
?OnEvent@Viewer@DirectUI@@UAAXPAUEvent@2@@Z
?OnEvent@XBaby@DirectUI@@UAAXPAUEvent@2@@Z
?OnEvent@XElement@DirectUI@@UAAXPAUEvent@2@@Z
?OnGetDlgCode@DialogElement@DirectUI@@UAAXPAUtagMSG@@PAJ@Z
?OnGetDlgCode@DialogElementCore@DirectUI@@QAAXPAUtagMSG@@PAJ@Z
?OnGetDlgCode@HWNDElement@DirectUI@@UAAXPAUtagMSG@@PAJ@Z
?OnGroupChanged@Element@DirectUI@@UAAXH_N@Z
?OnGroupChanged@HWNDElement@DirectUI@@UAAXH_N@Z
?OnHosted@Combobox@DirectUI@@UAAXPAVElement@2@@Z
?OnHosted@Element@DirectUI@@MAAXPAV12@@Z
?OnHosted@HWNDHost@DirectUI@@MAAXPAVElement@2@@Z
?OnHosted@ModernProgressBar@DirectUI@@MAAXPAVElement@2@@Z
?OnHosted@ModernProgressRing@DirectUI@@MAAXPAVElement@2@@Z
?OnHosted@Movie@DirectUI@@UAAXPAVElement@2@@Z
?OnHosted@PushButton@DirectUI@@UAAXPAVElement@2@@Z
?OnHosted@RichText@DirectUI@@UAAXPAVElement@2@@Z
?OnHosted@TouchButton@DirectUI@@UAAXPAVElement@2@@Z
?OnHosted@TouchEdit2@DirectUI@@UAAXPAVElement@2@@Z
?OnHosted@TouchScrollBar@DirectUI@@UAAXPAVElement@2@@Z
?OnHosted@TouchSelect@DirectUI@@UAAXPAVElement@2@@Z
?OnImmersiveColorSchemeChanged@HWNDElement@DirectUI@@UAAXXZ
?OnInput@BaseScrollViewer@DirectUI@@UAAXPAUInputEvent@2@@Z
?OnInput@Button@DirectUI@@UAAXPAUInputEvent@2@@Z
?OnInput@CCBase@DirectUI@@UAAXPAUInputEvent@2@@Z
?OnInput@CCCheckBox@DirectUI@@UAAXPAUInputEvent@2@@Z
?OnInput@CCProgressBar@DirectUI@@UAAXPAUInputEvent@2@@Z
?OnInput@CCPushButton@DirectUI@@UAAXPAUInputEvent@2@@Z
?OnInput@CCRadioButton@DirectUI@@UAAXPAUInputEvent@2@@Z
?OnInput@CCSysLink@DirectUI@@UAAXPAUInputEvent@2@@Z
?OnInput@Combobox@DirectUI@@UAAXPAUInputEvent@2@@Z
?OnInput@DialogElement@DirectUI@@UAAXPAUInputEvent@2@@Z
?OnInput@DialogElementCore@DirectUI@@QAAXPAUInputEvent@2@@Z
?OnInput@Edit@DirectUI@@UAAXPAUInputEvent@2@@Z
?OnInput@Element@DirectUI@@UAAXPAUInputEvent@2@@Z
?OnInput@HWNDElement@DirectUI@@UAAXPAUInputEvent@2@@Z
?OnInput@HWNDHost@DirectUI@@UAAXPAUInputEvent@2@@Z
?OnInput@RepeatButton@DirectUI@@UAAXPAUInputEvent@2@@Z
?OnInput@Selector@DirectUI@@UAAXPAUInputEvent@2@@Z
?OnInput@Thumb@DirectUI@@UAAXPAUInputEvent@2@@Z
?OnInput@TouchButton@DirectUI@@UAAXPAUInputEvent@2@@Z
?OnInput@TouchEdit2@DirectUI@@UAAXPAUInputEvent@2@@Z
?OnInput@TouchHWNDElement@DirectUI@@UAAXPAUInputEvent@2@@Z
?OnInput@TouchScrollBar@DirectUI@@UAAXPAUInputEvent@2@@Z
?OnInput@TouchSelect@DirectUI@@UAAXPAUInputEvent@2@@Z
?OnInput@Viewer@DirectUI@@UAAXPAUInputEvent@2@@Z
?OnInput@XElement@DirectUI@@UAAXPAUInputEvent@2@@Z
?OnInvoke@InvokeHelper@DirectUI@@AAAXPAUInvokeArgs@12@@Z
?OnInvoke@Proxy@DirectUI@@MAAXIPAX@Z
?OnKeyFocusMoved@DialogElement@DirectUI@@UAAXPAVElement@2@0@Z
?OnKeyFocusMoved@DialogElementCore@DirectUI@@QAAXPAVElement@2@0@Z
?OnKeyFocusMoved@Element@DirectUI@@UAAXPAV12@0@Z
?OnKeyFocusMoved@Selector@DirectUI@@UAAXPAVElement@2@0@Z
?OnKeyFocusMoved@SelectorNoDefault@DirectUI@@UAAXPAVElement@2@0@Z
?OnKeyFocusMoved@TouchHWNDElement@DirectUI@@UAAXPAVElement@2@0@Z
?OnKillActive@TaskPage@DirectUI@@MAAJXZ
?OnLayoutPosChanged@BorderLayout@DirectUI@@UAAXPAVElement@2@0HH@Z
?OnLayoutPosChanged@Layout@DirectUI@@UAAXPAVElement@2@0HH@Z
?OnLayoutPosChanged@NineGridLayout@DirectUI@@UAAXPAVElement@2@0HH@Z
?OnLayoutPosChanged@ShellBorderLayout@DirectUI@@UAAXPAVElement@2@0HH@Z
?OnListenedEvent@BaseScrollViewer@DirectUI@@UAAXPAVElement@2@PAUEvent@2@@Z
?OnListenedEvent@DialogElement@DirectUI@@UAAXPAVElement@2@PAUEvent@2@@Z
?OnListenedEvent@TaskPage@DirectUI@@MAAXPAVElement@2@PAUEvent@2@@Z
?OnListenedInput@BaseScrollViewer@DirectUI@@UAAXPAVElement@2@PAUInputEvent@2@@Z
?OnListenedInput@DialogElement@DirectUI@@UAAXPAVElement@2@PAUInputEvent@2@@Z
?OnListenedInput@TaskPage@DirectUI@@MAAXPAVElement@2@PAUInputEvent@2@@Z
?OnListenedPropertyChanged@BaseScrollViewer@DirectUI@@UAAXPAVElement@2@PBUPropertyInfo@2@HPAVValue@2@2@Z
?OnListenedPropertyChanged@DialogElement@DirectUI@@UAAXPAVElement@2@PBUPropertyInfo@2@HPAVValue@2@2@Z
?OnListenedPropertyChanged@ScrollViewer@DirectUI@@UAAXPAVElement@2@PBUPropertyInfo@2@HPAVValue@2@2@Z
?OnListenedPropertyChanged@StyledScrollViewer@DirectUI@@UAAXPAVElement@2@PBUPropertyInfo@2@HPAVValue@2@2@Z
?OnListenedPropertyChanged@TaskPage@DirectUI@@MAAXPAVElement@2@PBUPropertyInfo@2@HPAVValue@2@2@Z
?OnListenedPropertyChanged@TouchEdit2@DirectUI@@EAAXPAVElement@2@PBUPropertyInfo@2@HPAVValue@2@2@Z
?OnListenedPropertyChanging@BaseScrollViewer@DirectUI@@UAA_NPAVElement@2@PBUPropertyInfo@2@HPAVValue@2@2@Z
?OnListenedPropertyChanging@DialogElement@DirectUI@@UAA_NPAVElement@2@PBUPropertyInfo@2@HPAVValue@2@2@Z
?OnListenedPropertyChanging@TaskPage@DirectUI@@MAA_NPAVElement@2@PBUPropertyInfo@2@HPAVValue@2@2@Z
?OnListenerAttach@BaseScrollViewer@DirectUI@@UAAXPAVElement@2@@Z
?OnListenerAttach@DialogElement@DirectUI@@UAAXPAVElement@2@@Z
?OnListenerAttach@TaskPage@DirectUI@@MAAXPAVElement@2@@Z
?OnListenerDetach@BaseScrollViewer@DirectUI@@UAAXPAVElement@2@@Z
?OnListenerDetach@DialogElement@DirectUI@@UAAXPAVElement@2@@Z
?OnListenerDetach@DialogElementCore@DirectUI@@QAAXPAVElement@2@@Z
?OnListenerDetach@TaskPage@DirectUI@@MAAXPAVElement@2@@Z
?OnListenerDetach@TouchEdit2@DirectUI@@EAAXPAVElement@2@@Z
?OnLostDialogFocus@Button@DirectUI@@UAA_NPAUIDialogElement@2@@Z
?OnLostDialogFocus@CCBase@DirectUI@@UAA_NPAUIDialogElement@2@@Z
?OnLostDialogFocus@CCBaseCheckRadioButton@DirectUI@@UAA_NPAUIDialogElement@2@@Z
?OnLostDialogFocus@CCPushButton@DirectUI@@UAA_NPAUIDialogElement@2@@Z
?OnLostDialogFocus@CCSysLink@DirectUI@@UAA_NPAUIDialogElement@2@@Z
?OnLostDialogFocus@CheckBoxGlyph@DirectUI@@UAA_NPAUIDialogElement@2@@Z
?OnLostDialogFocus@ExpandoButtonGlyph@DirectUI@@UAA_NPAUIDialogElement@2@@Z
?OnLostDialogFocus@RadioButtonGlyph@DirectUI@@UAA_NPAUIDialogElement@2@@Z
?OnMaximumChanged@BaseScrollBar@DirectUI@@QAAXPAVValue@2@@Z
?OnMessage@CCBaseScrollBar@DirectUI@@UAA_NIIJPAJ@Z
?OnMessage@CCPushButton@DirectUI@@UAA_NIIJPAJ@Z
?OnMessage@CCTrackBar@DirectUI@@UAA_NIIJPAJ@Z
?OnMessage@HWNDHost@DirectUI@@UAA_NIIJPAJ@Z
?OnMessage@NativeHWNDHost@DirectUI@@UAAJIIJPAJ@Z
?OnMessage@TaskPage@DirectUI@@MAA_NIIJPAJ@Z
?OnMessage@XElement@DirectUI@@UAA_NIIJPAJ@Z
?OnMinimumChanged@BaseScrollBar@DirectUI@@QAAXPAVValue@2@@Z
?OnMouseFocusMoved@Element@DirectUI@@UAAXPAV12@0@Z
?OnNoChildWithShortcutFound@HWNDElement@DirectUI@@UAAXPAUKeyboardEvent@2@@Z
?OnNoChildWithShortcutFound@XBaby@DirectUI@@UAAXPAUKeyboardEvent@2@@Z
?OnNotify@CCBase@DirectUI@@UAA_NIIJPAJ@Z
?OnNotify@CCCheckBox@DirectUI@@UAA_NIIJPAJ@Z
?OnNotify@CCPushButton@DirectUI@@UAA_NIIJPAJ@Z
?OnNotify@CCRadioButton@DirectUI@@UAA_NIIJPAJ@Z
?OnNotify@CCTreeView@DirectUI@@UAA_NIIJPAJ@Z
?OnNotify@Combobox@DirectUI@@UAA_NIIJPAJ@Z
?OnNotify@Edit@DirectUI@@UAA_NIIJPAJ@Z
?OnNotify@HWNDHost@DirectUI@@UAA_NIIJPAJ@Z
?OnPageChanged@BaseScrollBar@DirectUI@@QAAXPAVValue@2@@Z
?OnPageChanging@BaseScrollBar@DirectUI@@QAA_NPAVValue@2@@Z
?OnPositionChanged@BaseScrollBar@DirectUI@@QAAXPAVValue@2@@Z
?OnPositionChanging@BaseScrollBar@DirectUI@@QAA_NPAVValue@2@@Z
?OnPropertyChanged@AccessibleButton@DirectUI@@UAAXPBUPropertyInfo@2@HPAVValue@2@1@Z
?OnPropertyChanged@AnimationStrip@DirectUI@@MAAXPBUPropertyInfo@2@HPAVValue@2@1@Z
?OnPropertyChanged@BaseScrollViewer@DirectUI@@UAAXPBUPropertyInfo@2@HPAVValue@2@1@Z
?OnPropertyChanged@Browser@DirectUI@@UAAXPBUPropertyInfo@2@HPAVValue@2@1@Z
?OnPropertyChanged@Button@DirectUI@@UAAXPBUPropertyInfo@2@HPAVValue@2@1@Z
?OnPropertyChanged@CCBase@DirectUI@@UAAXPBUPropertyInfo@2@HPAVValue@2@1@Z
?OnPropertyChanged@CCBaseCheckRadioButton@DirectUI@@UAAXPBUPropertyInfo@2@HPAVValue@2@1@Z
?OnPropertyChanged@CCBaseScrollBar@DirectUI@@UAAXPBUPropertyInfo@2@HPAVValue@2@1@Z
?OnPropertyChanged@CCCommandLink@DirectUI@@UAAXPBUPropertyInfo@2@HPAVValue@2@1@Z
?OnPropertyChanged@CCPushButton@DirectUI@@UAAXPBUPropertyInfo@2@HPAVValue@2@1@Z
?OnPropertyChanged@CCTrackBar@DirectUI@@UAAXPBUPropertyInfo@2@HPAVValue@2@1@Z
?OnPropertyChanged@Combobox@DirectUI@@UAAXPBUPropertyInfo@2@HPAVValue@2@1@Z
?OnPropertyChanged@DialogElement@DirectUI@@UAAXPBUPropertyInfo@2@HPAVValue@2@1@Z
?OnPropertyChanged@Edit@DirectUI@@UAAXPBUPropertyInfo@2@HPAVValue@2@1@Z
?OnPropertyChanged@Element@DirectUI@@UAAXPAUPropertyInfo@2@HPAVValue@2@1@Z
?OnPropertyChanged@Element@DirectUI@@UAAXPBUPropertyInfo@2@HPAVValue@2@1@Z
?OnPropertyChanged@Expando@DirectUI@@UAAXPBUPropertyInfo@2@HPAVValue@2@1@Z
?OnPropertyChanged@HWNDElement@DirectUI@@UAAXPBUPropertyInfo@2@HPAVValue@2@1@Z
?OnPropertyChanged@HWNDHost@DirectUI@@UAAXPBUPropertyInfo@2@HPAVValue@2@1@Z
?OnPropertyChanged@ItemList@DirectUI@@UAAXPBUPropertyInfo@2@HPAVValue@2@1@Z
?OnPropertyChanged@Macro@DirectUI@@UAAXPBUPropertyInfo@2@HPAVValue@2@1@Z
?OnPropertyChanged@ModernProgressBar@DirectUI@@MAAXPBUPropertyInfo@2@HPAVValue@2@1@Z
?OnPropertyChanged@ModernProgressRing@DirectUI@@MAAXPBUPropertyInfo@2@HPAVValue@2@1@Z
?OnPropertyChanged@RefPointElement@DirectUI@@UAAXPBUPropertyInfo@2@HPAVValue@2@1@Z
?OnPropertyChanged@RichText@DirectUI@@UAAXPBUPropertyInfo@2@HPAVValue@2@1@Z
?OnPropertyChanged@ScrollBar@DirectUI@@UAAXPBUPropertyInfo@2@HPAVValue@2@1@Z
?OnPropertyChanged@ScrollViewer@DirectUI@@UAAXPBUPropertyInfo@2@HPAVValue@2@1@Z
?OnPropertyChanged@Selector@DirectUI@@UAAXPBUPropertyInfo@2@HPAVValue@2@1@Z
?OnPropertyChanged@TextGraphic@DirectUI@@UAAXPBUPropertyInfo@2@HPAVValue@2@1@Z
?OnPropertyChanged@TouchButton@DirectUI@@UAAXPBUPropertyInfo@2@HPAVValue@2@1@Z
?OnPropertyChanged@TouchCheckBox@DirectUI@@UAAXPBUPropertyInfo@2@HPAVValue@2@1@Z
?OnPropertyChanged@TouchCommandButton@DirectUI@@UAAXPBUPropertyInfo@2@HPAVValue@2@1@Z
?OnPropertyChanged@TouchEdit2@DirectUI@@UAAXPBUPropertyInfo@2@HPAVValue@2@1@Z
?OnPropertyChanged@TouchEditBase@DirectUI@@UAAXPBUPropertyInfo@2@HPAVValue@2@1@Z
?OnPropertyChanged@TouchHWNDElement@DirectUI@@UAAXPBUPropertyInfo@2@HPAVValue@2@1@Z
?OnPropertyChanged@TouchHyperLink@DirectUI@@UAAXPBUPropertyInfo@2@HPAVValue@2@1@Z
?OnPropertyChanged@TouchRepeatButton@DirectUI@@UAAXPBUPropertyInfo@2@HPAVValue@2@1@Z
?OnPropertyChanged@TouchScrollBar@DirectUI@@UAAXPBUPropertyInfo@2@HPAVValue@2@1@Z
?OnPropertyChanged@TouchSelect@DirectUI@@UAAXPBUPropertyInfo@2@HPAVValue@2@1@Z
?OnPropertyChanged@Viewer@DirectUI@@UAAXPBUPropertyInfo@2@HPAVValue@2@1@Z
?OnPropertyChanging@BaseScrollViewer@DirectUI@@UAA_NPBUPropertyInfo@2@HPAVValue@2@1@Z
?OnPropertyChanging@CCBaseScrollBar@DirectUI@@UAA_NPBUPropertyInfo@2@HPAVValue@2@1@Z
?OnPropertyChanging@CCTrackBar@DirectUI@@UAA_NPBUPropertyInfo@2@HPAVValue@2@1@Z
?OnPropertyChanging@Element@DirectUI@@UAA_NPAUPropertyInfo@2@HPAVValue@2@1@Z
?OnPropertyChanging@Element@DirectUI@@UAA_NPBUPropertyInfo@2@HPAVValue@2@1@Z
?OnPropertyChanging@PText@DirectUI@@UAA_NPBUPropertyInfo@2@HPAVValue@2@1@Z
?OnPropertyChanging@ScrollBar@DirectUI@@UAA_NPBUPropertyInfo@2@HPAVValue@2@1@Z
?OnPropertyChanging@TextGraphic@DirectUI@@UAA_NPBUPropertyInfo@2@HPAVValue@2@1@Z
?OnPropertyChanging@TouchCheckBox@DirectUI@@UAA_NPBUPropertyInfo@2@HPAVValue@2@1@Z
?OnPropertyChanging@TouchCheckBoxGlyph@DirectUI@@UAA_NPBUPropertyInfo@2@HPAVValue@2@1@Z
?OnPropertyChanging@TouchCommandButton@DirectUI@@UAA_NPBUPropertyInfo@2@HPAVValue@2@1@Z
?OnPropertyChanging@TouchEdit2@DirectUI@@UAA_NPBUPropertyInfo@2@HPAVValue@2@1@Z
?OnPropertyChanging@TouchEditBase@DirectUI@@UAA_NPBUPropertyInfo@2@HPAVValue@2@1@Z
?OnPropertyChanging@TouchSelect@DirectUI@@UAA_NPBUPropertyInfo@2@HPAVValue@2@1@Z
?OnPropertyChanging@Viewer@DirectUI@@UAA_NPBUPropertyInfo@2@HPAVValue@2@1@Z
?OnQueryCancel@TaskPage@DirectUI@@MAAJXZ
?OnQueryInitialFocus@TaskPage@DirectUI@@MAAPAVElement@2@XZ
?OnReceivedDialogFocus@Button@DirectUI@@UAA_NPAUIDialogElement@2@@Z
?OnReceivedDialogFocus@CCBase@DirectUI@@UAA_NPAUIDialogElement@2@@Z
?OnReceivedDialogFocus@CCBaseCheckRadioButton@DirectUI@@UAA_NPAUIDialogElement@2@@Z
?OnReceivedDialogFocus@CCPushButton@DirectUI@@UAA_NPAUIDialogElement@2@@Z
?OnReceivedDialogFocus@CCSysLink@DirectUI@@UAA_NPAUIDialogElement@2@@Z
?OnReceivedDialogFocus@CheckBoxGlyph@DirectUI@@UAA_NPAUIDialogElement@2@@Z
?OnReceivedDialogFocus@ExpandoButtonGlyph@DirectUI@@UAA_NPAUIDialogElement@2@@Z
?OnReceivedDialogFocus@RadioButtonGlyph@DirectUI@@UAA_NPAUIDialogElement@2@@Z
?OnRegisteredDefaultButtonChanged@DialogElementCore@DirectUI@@QAAXPAVValue@2@0@Z
?OnRemove@BorderLayout@DirectUI@@UAAXPAVElement@2@PAPAV32@I@Z
?OnRemove@Layout@DirectUI@@UAAXPAVElement@2@PAPAV32@I@Z
?OnRemove@NineGridLayout@DirectUI@@UAAXPAVElement@2@PAPAV32@I@Z
?OnRemove@ShellBorderLayout@DirectUI@@UAAXPAVElement@2@PAPAV32@I@Z
?OnReset@TaskPage@DirectUI@@MAAJXZ
?OnSelectedPropertyChanged@CCCommandLink@DirectUI@@UAAXXZ
?OnSelectedPropertyChanged@CCPushButton@DirectUI@@UAAXXZ
?OnSetActive@TaskPage@DirectUI@@MAAJXZ
?OnSinkThemeChanged@HWNDHost@DirectUI@@UAA_NIIJPAJ@Z
?OnSinkThemeChanged@XElement@DirectUI@@UAA_NIIJPAJ@Z
?OnSysChar@HWNDHost@DirectUI@@UAA_NG@Z
?OnSysChar@XElement@DirectUI@@UAA_NG@Z
?OnTextProp@TouchSwitch@DirectUI@@SAPBUPropertyInfo@2@XZ
?OnThemeChanged@HWNDElement@DirectUI@@UAAXPAUThemeChangedEvent@2@@Z
?OnThemeChanged@XBaby@DirectUI@@UAAXPAUThemeChangedEvent@2@@Z
?OnToolTip@EventManager@DirectUI@@SAJPAVElement@2@K@Z
?OnUnHosted@Element@DirectUI@@MAAXPAV12@@Z
?OnUnHosted@HWNDHost@DirectUI@@MAAXPAVElement@2@@Z
?OnUnHosted@ModernProgressBar@DirectUI@@MAAXPAVElement@2@@Z
?OnUnHosted@ModernProgressRing@DirectUI@@MAAXPAVElement@2@@Z
?OnUnHosted@PushButton@DirectUI@@UAAXPAVElement@2@@Z
?OnUnHosted@TouchButton@DirectUI@@UAAXPAVElement@2@@Z
?OnUnHosted@TouchSelect@DirectUI@@UAAXPAVElement@2@@Z
?OnWindowStyleChanged@HWNDHost@DirectUI@@UAAXIPBUtagSTYLESTRUCT@@@Z
?OnWizBack@TaskPage@DirectUI@@MAAJXZ
?OnWizFinish@TaskPage@DirectUI@@MAAJXZ
?OnWizNext@TaskPage@DirectUI@@MAAJXZ
?OnWmSettingChanged@HWNDElement@DirectUI@@UAAXIJ@Z
?OnWmThemeChanged@HWNDElement@DirectUI@@UAAXIJ@Z
?OnWmThemeChanged@XBaby@DirectUI@@UAAXIJ@Z
?OnWndMsg@TaskPage@DirectUI@@AAAHIIJPAJ@Z
?OpenAnimation@CCAVI@DirectUI@@AAAXPAUHWND__@@@Z
?OpenPopup@TouchSelect@DirectUI@@QAAJXZ
?OptimizeMoveProp@HWNDHost@DirectUI@@SAPBUPropertyInfo@2@XZ
?OrderProp@ScrollBar@DirectUI@@SAPBUPropertyInfo@2@XZ
?Orientation@Schema@DirectUI@@2HA DATA
?OverhangOffsetProp@RichText@DirectUI@@SAPBUPropertyInfo@2@XZ
?OverhangProp@Element@DirectUI@@SAPBUPropertyInfo@2@XZ
?OverrideButtonBackgroundProp@CCPushButton@DirectUI@@SAPBUPropertyInfo@2@XZ
?OverrideZoomThreshold@TouchScrollViewer@DirectUI@@QAAJMMH@Z
?PaddingProp@Element@DirectUI@@SAPBUPropertyInfo@2@XZ
?PageDown@BaseScrollBar@DirectUI@@UAAXI@Z
?PageDown@TouchScrollBar@DirectUI@@UAAXI@Z
?PageProp@CCBaseScrollBar@DirectUI@@SAPBUPropertyInfo@2@XZ
?PageProp@ScrollBar@DirectUI@@SAPBUPropertyInfo@2@XZ
?PageUp@BaseScrollBar@DirectUI@@UAAXI@Z
?PageUp@TouchScrollBar@DirectUI@@UAAXI@Z
?Paint@AnimationStrip@DirectUI@@MAAXPAUHDC__@@PBUtagRECT@@1PAU4@2@Z
?Paint@Element@DirectUI@@UAAXPAUHDC__@@PBUtagRECT@@1PAU4@2@Z
?Paint@HWNDHost@DirectUI@@UAAXPAUHDC__@@PBUtagRECT@@1PAU4@2@Z
?Paint@ModernProgressBar@DirectUI@@MAAXPAUHDC__@@PBUtagRECT@@1PAU4@2@Z
?Paint@ModernProgressRing@DirectUI@@MAAXPAUHDC__@@PBUtagRECT@@1PAU4@2@Z
?Paint@Movie@DirectUI@@UAAXPAUHDC__@@PBUtagRECT@@1PAU4@2@Z
?Paint@Progress@DirectUI@@UAAXPAUHDC__@@PBUtagRECT@@1PAU4@2@Z
?Paint@RichText@DirectUI@@UAAXPAUHDC__@@PBUtagRECT@@1PAU4@2@Z
?Paint@TouchCheckBox@DirectUI@@UAAXPAUHDC__@@PBUtagRECT@@1PAU4@2@Z
?Paint@TouchCheckBoxGlyph@DirectUI@@UAAXPAUHDC__@@PBUtagRECT@@1PAU4@2@Z
?Paint@TouchCommandButton@DirectUI@@UAAXPAUHDC__@@PBUtagRECT@@1PAU4@2@Z
?Paint@TouchEdit2@DirectUI@@UAAXPAUHDC__@@PBUtagRECT@@1PAU4@2@Z
?PaintBackground@Element@DirectUI@@QAAXPAUHDC__@@PAVValue@2@ABUtagRECT@@222@Z
?PaintBorder@Element@DirectUI@@QAAXPAUHDC__@@PAVValue@2@PAUtagRECT@@ABU5@@Z
?PaintContent@Element@DirectUI@@QAAXPAUHDC__@@PBUtagRECT@@@Z
?PaintEdgeHighlight@Element@DirectUI@@QAAXPAUHDC__@@ABUtagRECT@@1@Z
?PaintFocusRect@Element@DirectUI@@QAAXPAUHDC__@@PBUtagRECT@@1@Z
?PaintStringContent@Element@DirectUI@@QAAXPAUHDC__@@PBUtagRECT@@PAVValue@2@H@Z
?PaneControlType@Schema@DirectUI@@2HA DATA
?ParentProp@Element@DirectUI@@SAPBUPropertyInfo@2@XZ
?ParseARGBColor@DUIXmlParser@DirectUI@@IAAJPBUExprNode@ParserTools@2@PAK@Z
?ParseArgs@DUIXmlParser@DirectUI@@IAAJPBUExprNode@ParserTools@2@PATParsedArg@12@IPBD@Z
?ParseAtomValue@DUIXmlParser@DirectUI@@IAAJPBUExprNode@ParserTools@2@PAPAVValue@2@@Z
?ParseBehavior@DUIXmlParser@DirectUI@@IAAJPBUExprNode@ParserTools@2@@Z
?ParseBehaviorArgValue@DUIXmlParser@DirectUI@@IAAJPBUExprNode@ParserTools@2@PAPAVValue@2@@Z
?ParseBoolValue@DUIXmlParser@DirectUI@@IAAJPBUExprNode@ParserTools@2@PAPAVValue@2@@Z
?ParseColor@DUIXmlParser@DirectUI@@IAAJPBUExprNode@ParserTools@2@PAK@Z
?ParseDFCFill@DUIXmlParser@DirectUI@@IAAJPBUExprNode@ParserTools@2@PAPAVValue@2@@Z
?ParseDTBFill@DUIXmlParser@DirectUI@@IAAJPBUExprNode@ParserTools@2@PAPAVValue@2@@Z
?ParseDoubleListValue@DUIXmlParser@DirectUI@@IAAJPBUExprNode@ParserTools@2@PAPAVValue@2@@Z
?ParseFillValue@DUIXmlParser@DirectUI@@IAAJPBUExprNode@ParserTools@2@PAPAVValue@2@@Z
?ParseFloat@DUIXmlParser@DirectUI@@IAAJPBUExprNode@ParserTools@2@PAMPA_N@Z
?ParseFloatValue@DUIXmlParser@DirectUI@@IAAJPBUExprNode@ParserTools@2@PAPAVValue@2@@Z
?ParseFunction@DUIXmlParser@DirectUI@@IAAJPBGPBUExprNode@ParserTools@2@PATParsedArg@12@IPBD@Z
?ParseGTCColor@DUIXmlParser@DirectUI@@IAAJPBUExprNode@ParserTools@2@PAK@Z
?ParseGTFStr@DUIXmlParser@DirectUI@@IAAJPBUExprNode@ParserTools@2@PAPAVValue@2@@Z
?ParseGTMarRect@DUIXmlParser@DirectUI@@IAAJPBUExprNode@ParserTools@2@PAUScaledRECT@2@@Z
?ParseGTMetInt@DUIXmlParser@DirectUI@@IAAJPBUExprNode@ParserTools@2@PAH@Z
?ParseGradientFill@DUIXmlParser@DirectUI@@IAAJPBUExprNode@ParserTools@2@PAPAVValue@2@@Z
?ParseGraphicGraphic@DUIXmlParser@DirectUI@@IAAJPBUExprNode@ParserTools@2@PAPAVValue@2@@Z
?ParseGraphicHelper@DUIXmlParser@DirectUI@@IAAJ_NPBUExprNode@ParserTools@2@PAPAVValue@2@@Z
?ParseGraphicValue@DUIXmlParser@DirectUI@@IAAJPBUExprNode@ParserTools@2@PAPAVValue@2@@Z
?ParseIconGraphic@DUIXmlParser@DirectUI@@IAAJPBUExprNode@ParserTools@2@PAPAVValue@2@@Z
?ParseImageGraphic@DUIXmlParser@DirectUI@@IAAJPBUExprNode@ParserTools@2@PAPAVValue@2@@Z
?ParseIntValue@DUIXmlParser@DirectUI@@IAAJPBUExprNode@ParserTools@2@PAPAVValue@2@@Z
?ParseLayoutValue@DUIXmlParser@DirectUI@@IAAJPBUExprNode@ParserTools@2@@Z
?ParseLibrary@DUIXmlParser@DirectUI@@IAAJPBUExprNode@ParserTools@2@PAPAUHINSTANCE__@@@Z
?ParseLiteral@DUIXmlParser@DirectUI@@IAAJPBUExprNode@ParserTools@2@PAPBG@Z
?ParseLiteralColor@DUIXmlParser@DirectUI@@IAAJPBGPAK@Z
?ParseLiteralColorInt@DUIXmlParser@DirectUI@@IAAJPBGPAH@Z
?ParseLiteralNumber@DUIXmlParser@DirectUI@@IAAJPBGPAHPA_N@Z
?ParseMagnitude@DUIXmlParser@DirectUI@@IAAJPBGPAHPA_N@Z
?ParseMagnitudeFloat@DUIXmlParser@DirectUI@@IAAJPBGPAMPA_N@Z
?ParseNumber@DUIXmlParser@DirectUI@@IAAJPBUExprNode@ParserTools@2@PAHPA_N@Z
?ParsePointValue@DUIXmlParser@DirectUI@@IAAJPBUExprNode@ParserTools@2@PAPAVValue@2@@Z
?ParseQuotedString@DUIXmlParser@DirectUI@@IAAJPBUExprNode@ParserTools@2@PAPBG@Z
?ParseRGBColor@DUIXmlParser@DirectUI@@IAAJPBUExprNode@ParserTools@2@PAK@Z
?ParseRect@DUIXmlParser@DirectUI@@IAAJPBUExprNode@ParserTools@2@PAUScaledRECT@2@@Z
?ParseRectRect@DUIXmlParser@DirectUI@@IAAJPBUExprNode@ParserTools@2@PAUScaledRECT@2@@Z
?ParseRectValue@DUIXmlParser@DirectUI@@IAAJPBUExprNode@ParserTools@2@PAPAVValue@2@@Z
?ParseResStr@DUIXmlParser@DirectUI@@IAAJPBUExprNode@ParserTools@2@PAPAVValue@2@@Z
?ParseResid@DUIXmlParser@DirectUI@@IAAJPBUExprNode@ParserTools@2@PAPBG@Z
?ParseSGraphicGraphic@DUIXmlParser@DirectUI@@IAAJPBUExprNode@ParserTools@2@PAPAVValue@2@@Z
?ParseSGraphicHelper@DUIXmlParser@DirectUI@@IAAJ_NPBUExprNode@ParserTools@2@PAPAVValue@2@@Z
?ParseSizeValue@DUIXmlParser@DirectUI@@IAAJPBUExprNode@ParserTools@2@PAPAVValue@2@@Z
?ParseStringValue@DUIXmlParser@DirectUI@@IAAJPBUExprNode@ParserTools@2@PAPAVValue@2@@Z
?ParseStyleSheets@DUIXmlParser@DirectUI@@IAAJPAUIXmlReader@@@Z
?ParseSysMetricInt@DUIXmlParser@DirectUI@@IAAJPBUExprNode@ParserTools@2@PAH@Z
?ParseSysMetricStr@DUIXmlParser@DirectUI@@IAAJPBUExprNode@ParserTools@2@PAPAVValue@2@@Z
?ParseTheme@DUIXmlParser@DirectUI@@IAAJPBUExprNode@ParserTools@2@PAPAX@Z
?PasswordCharacterProp@Edit@DirectUI@@SAPBUPropertyInfo@2@XZ
?PasswordCharacterProp@TouchEditBase@DirectUI@@SAPBUPropertyInfo@2@XZ
?PasswordRevealModeProp@TouchEdit2@DirectUI@@SAPBUPropertyInfo@2@XZ
?Paste@TouchEditBase@DirectUI@@SA?AVUID@@XZ
?PasteText@TouchEdit2@DirectUI@@QAAJPBG@Z
?PathProp@Movie@DirectUI@@SAPBUPropertyInfo@2@XZ
?PatternFromPatternId@Schema@DirectUI@@SA?AW4Pattern@12@H@Z
?Pause@Movie@DirectUI@@QAAXXZ
?PfnIsSupportedFromPattern@Schema@DirectUI@@SAP6A_NPAVElement@2@@ZW4Pattern@12@@Z
?PinningProp@BaseScrollViewer@DirectUI@@SAPBUPropertyInfo@2@XZ
?PixelOffsetModeProp@Movie@DirectUI@@SAPBUPropertyInfo@2@XZ
?Play@CCAVI@DirectUI@@QAAXPAUHWND__@@@Z
?Play@Movie@DirectUI@@QAAXXZ
?PlayAllFramesModeProp@Movie@DirectUI@@SAPBUPropertyInfo@2@XZ
?PlayProp@AnimationStrip@DirectUI@@SAPBUPropertyInfo@2@XZ
?PopupBoundsProp@TouchSelect@DirectUI@@SAPBUPropertyInfo@2@XZ
?PopupChange@TouchSelect@DirectUI@@SA?AVUID@@XZ
?PosInLayoutProp@Element@DirectUI@@SAPBUPropertyInfo@2@XZ
?PositionProp@CCBaseScrollBar@DirectUI@@SAPBUPropertyInfo@2@XZ
?PositionProp@ModernProgressBar@DirectUI@@SAPBUPropertyInfo@2@XZ
?PositionProp@Progress@DirectUI@@SAPBUPropertyInfo@2@XZ
?PositionProp@ScrollBar@DirectUI@@SAPBUPropertyInfo@2@XZ
?PostCreate@CCAVI@DirectUI@@MAAXPAUHWND__@@@Z
?PostCreate@CCBase@DirectUI@@MAAXPAUHWND__@@@Z
?PostCreate@CCBaseCheckRadioButton@DirectUI@@MAAXPAUHWND__@@@Z
?PostCreate@CCCommandLink@DirectUI@@MAAXPAUHWND__@@@Z
?PostCreate@CCTrackBar@DirectUI@@MAAXPAUHWND__@@@Z
?PrepareManualSwapDeferredZoomToRect@TouchScrollViewer@DirectUI@@QAAJPBUtagRECT@@PBM1PAM2M@Z
?PressedProp@Button@DirectUI@@SAPBUPropertyInfo@2@XZ
?PressedProp@TouchButton@DirectUI@@SAPBUPropertyInfo@2@XZ
?PreventFormatChangeUpdatingModifiedStateProp@TouchEditBase@DirectUI@@SAPBUPropertyInfo@2@XZ
?PrintRTLControl@HWNDHost@DirectUI@@IAAXPAUHDC__@@0ABUtagRECT@@@Z
?ProcessIdProperty@Schema@DirectUI@@2HA DATA
?ProcessingKeyboardNavigation@TouchHWNDElement@DirectUI@@SA?AVUID@@XZ
?ProgressBarControlType@Schema@DirectUI@@2HA DATA
?PromptTextProp@TouchEdit2@DirectUI@@SAPBUPropertyInfo@2@XZ
?PromptWithCaretProp@TouchEdit2@DirectUI@@SAPBUPropertyInfo@2@XZ
?PropSheet_SendMessage@TaskPage@DirectUI@@IAAJIIJ@Z
?PropertyChangedCore@Edit@DirectUI@@AAAXPBUPropertyInfo@2@HPAVValue@2@PAUHWND__@@@Z
?PropertyChangingListener@EventManager@DirectUI@@SAJPAVElement@2@PBUPropertyInfo@2@PA_N@Z
?PropertyListener@EventManager@DirectUI@@SAJPAVElement@2@PBUPropertyInfo@2@HPAVValue@2@2@Z
?PropertyProp@Bind@DirectUI@@SAPBUPropertyInfo@2@XZ
?ProportionalProp@ScrollBar@DirectUI@@SAPBUPropertyInfo@2@XZ
?QueryInterface@DuiAccessible@DirectUI@@UAAJABU_GUID@@PAPAX@Z
?QueryInterface@Element@DirectUI@@UAAJABU_GUID@@PAPAX@Z
?QueryInterface@ElementProvider@DirectUI@@UAAJABU_GUID@@PAPAX@Z
?QueryInterface@ExpandCollapseProvider@DirectUI@@UAAJABU_GUID@@PAPAX@Z
?QueryInterface@GridItemProvider@DirectUI@@UAAJABU_GUID@@PAPAX@Z
?QueryInterface@GridProvider@DirectUI@@UAAJABU_GUID@@PAPAX@Z
?QueryInterface@HWNDElementProvider@DirectUI@@UAAJABU_GUID@@PAPAX@Z
?QueryInterface@HWNDHostAccessible@DirectUI@@UAAJABU_GUID@@PAPAX@Z
?QueryInterface@InvokeProvider@DirectUI@@UAAJABU_GUID@@PAPAX@Z
?QueryInterface@RangeValueProvider@DirectUI@@UAAJABU_GUID@@PAPAX@Z
?QueryInterface@ScrollItemProvider@DirectUI@@UAAJABU_GUID@@PAPAX@Z
?QueryInterface@ScrollProvider@DirectUI@@UAAJABU_GUID@@PAPAX@Z
?QueryInterface@SelectionItemProvider@DirectUI@@UAAJABU_GUID@@PAPAX@Z
?QueryInterface@SelectionProvider@DirectUI@@UAAJABU_GUID@@PAPAX@Z
?QueryInterface@TableItemProvider@DirectUI@@UAAJABU_GUID@@PAPAX@Z
?QueryInterface@TableProvider@DirectUI@@UAAJABU_GUID@@PAPAX@Z
?QueryInterface@ToggleProvider@DirectUI@@UAAJABU_GUID@@PAPAX@Z
?QueryInterface@ValueProvider@DirectUI@@UAAJABU_GUID@@PAPAX@Z
?QueryInterface@XProvider@DirectUI@@UAAJABU_GUID@@PAPAX@Z
?QueryService@DuiAccessible@DirectUI@@UAAJABU_GUID@@0PAPAX@Z
?QueryService@HWNDHostAccessible@DirectUI@@UAAJABU_GUID@@0PAPAX@Z
?QuerySysMetric@DUIXmlParser@DirectUI@@KAHH@Z
?QuerySysMetricStr@DUIXmlParser@DirectUI@@KAPBGHPAGI@Z
?QueueDefaultAction@Element@DirectUI@@QAAJXZ
?RadioButtonControlType@Schema@DirectUI@@2HA DATA
?RaiseChildRemovedEvent@EventManager@DirectUI@@CAJABUElementRuntimeId@2@PAVElement@2@@Z
?RaiseGeometryEventWorker@EventManager@DirectUI@@CAJPAURectangleChange@2@_N111@Z
?RaiseGeometryEvents@EventManager@DirectUI@@CAJXZ
?RaiseStructureChangedEvent@EventManager@DirectUI@@CAJPAVElement@2@W4StructureChangeType@@@Z
?RaiseStructureEvents@EventManager@DirectUI@@CAJXZ
?RaiseVisibilityEvents@EventManager@DirectUI@@CAJXZ
?RangeMaxProp@CCTrackBar@DirectUI@@SAPBUPropertyInfo@2@XZ
?RangeMinProp@CCTrackBar@DirectUI@@SAPBUPropertyInfo@2@XZ
?RangeValuePattern@Schema@DirectUI@@2HA DATA
?RangeValue_IsReadOnly_Property@Schema@DirectUI@@2HA DATA
?RangeValue_LargeChange_Property@Schema@DirectUI@@2HA DATA
?RangeValue_Maximum_Property@Schema@DirectUI@@2HA DATA
?RangeValue_Minimum_Property@Schema@DirectUI@@2HA DATA
?RangeValue_SmallChange_Property@Schema@DirectUI@@2HA DATA
?RangeValue_Value_Property@Schema@DirectUI@@2HA DATA
?RawActionProc@AnimationStrip@DirectUI@@KAXPAUGMA_ACTIONINFO@@@Z
?RawActionProc@Movie@DirectUI@@SAXPAUGMA_ACTIONINFO@@@Z
?ReadOnlyProp@TouchEditBase@DirectUI@@SAPBUPropertyInfo@2@XZ
?Recalc@AccessibleButton@DirectUI@@QAAXXZ
?ReferencePointProp@RefPointElement@DirectUI@@SAPBUPropertyInfo@2@XZ
?ReflowStyle@PVLAnimation@DirectUI@@SA?AVUID@@XZ
?RefreshContent@TouchEdit2@DirectUI@@UAAJXZ
?RefreshContent@TouchEditBase@DirectUI@@UAAJXZ
?Register@AccessibleButton@DirectUI@@SAJXZ
?Register@AnimationStrip@DirectUI@@SAJXZ
?Register@AutoButton@DirectUI@@SAJXZ
?Register@BaseScrollViewer@DirectUI@@SAJXZ
?Register@Bind@DirectUI@@SAJXZ
?Register@Browser@DirectUI@@SAJXZ
?Register@Button@DirectUI@@SAJXZ
?Register@CCAVI@DirectUI@@SAJXZ
?Register@CCBase@DirectUI@@SAJXZ
?Register@CCBaseCheckRadioButton@DirectUI@@SAJXZ
?Register@CCBaseScrollBar@DirectUI@@SAJXZ
?Register@CCCheckBox@DirectUI@@SAJXZ
?Register@CCCommandLink@DirectUI@@SAJXZ
?Register@CCHScrollBar@DirectUI@@SAJXZ
?Register@CCListBox@DirectUI@@SAJXZ
?Register@CCListView@DirectUI@@SAJXZ
?Register@CCProgressBar@DirectUI@@SAJXZ
?Register@CCPushButton@DirectUI@@SAJXZ
?Register@CCRadioButton@DirectUI@@SAJXZ
?Register@CCSysLink@DirectUI@@SAJXZ
?Register@CCTrackBar@DirectUI@@SAJXZ
?Register@CCTreeView@DirectUI@@SAJXZ
?Register@CCVScrollBar@DirectUI@@SAJXZ
?Register@CheckBoxGlyph@DirectUI@@SAJXZ
?Register@ClassInfoBase@DirectUI@@QAAJXZ
?Register@Clipper@DirectUI@@SAJXZ
?Register@Combobox@DirectUI@@SAJXZ
?Register@DialogElement@DirectUI@@SAJXZ
?Register@Edit@DirectUI@@SAJXZ
?Register@Element@DirectUI@@SAJXZ
?Register@ElementWithHWND@DirectUI@@SAJXZ
?Register@Expandable@DirectUI@@SAJXZ
?Register@Expando@DirectUI@@SAJXZ
?Register@ExpandoButtonGlyph@DirectUI@@SAJXZ
?Register@HWNDElement@DirectUI@@SAJXZ
?Register@HWNDHost@DirectUI@@SAJXZ
?Register@ItemList@DirectUI@@SAJXZ
?Register@Macro@DirectUI@@SAJXZ
?Register@ModernProgressBar@DirectUI@@SAJXZ
?Register@ModernProgressRing@DirectUI@@SAJXZ
?Register@Movie@DirectUI@@SAJXZ
?Register@Navigator@DirectUI@@SAJXZ
?Register@PText@DirectUI@@SAJXZ
?Register@Page@DirectUI@@SAJXZ
?Register@Pages@DirectUI@@SAJXZ
?Register@Progress@DirectUI@@SAJXZ
?Register@PushButton@DirectUI@@SAJXZ
?Register@RadioButtonGlyph@DirectUI@@SAJXZ
?Register@RefPointElement@DirectUI@@SAJXZ
?Register@RepeatButton@DirectUI@@SAJXZ
?Register@Repeater@DirectUI@@SAJXZ
?Register@RichText@DirectUI@@SAJXZ
?Register@ScrollBar@DirectUI@@SAJXZ
?Register@ScrollViewer@DirectUI@@SAJXZ
?Register@Selector@DirectUI@@SAJXZ
?Register@SelectorNoDefault@DirectUI@@SAJXZ
?Register@SemanticZoomToggle@DirectUI@@SAJXZ
?Register@StyledScrollViewer@DirectUI@@SAJXZ
?Register@TextGraphic@DirectUI@@SAJXZ
?Register@Thumb@DirectUI@@SAJXZ
?Register@TouchButton@DirectUI@@SAJXZ
?Register@TouchCheckBox@DirectUI@@SAJXZ
?Register@TouchCheckBoxGlyph@DirectUI@@SAJXZ
?Register@TouchCommandButton@DirectUI@@SAJXZ
?Register@TouchEdit2@DirectUI@@SAJXZ
?Register@TouchEditBase@DirectUI@@SAJXZ
?Register@TouchHWNDElement@DirectUI@@SAJXZ
?Register@TouchHyperLink@DirectUI@@SAJXZ
?Register@TouchRepeatButton@DirectUI@@SAJXZ
?Register@TouchScrollBar@DirectUI@@SAJXZ
?Register@TouchSelect@DirectUI@@SAJXZ
?Register@TouchSelectItem@DirectUI@@SAJXZ
?Register@TouchSlider@DirectUI@@SAJXZ
?Register@TouchSwitch@DirectUI@@SAJXZ
?Register@UnknownElement@DirectUI@@SAJXZ
?Register@Viewer@DirectUI@@SAJXZ
?Register@XBaby@DirectUI@@SAJXZ
?Register@XElement@DirectUI@@SAJXZ
?RegisterForAnimationStatusChanges@TouchHWNDElement@DirectUI@@QAAXXZ
?RegisterForIHMChanges@TouchHWNDElement@DirectUI@@QAAJXZ
?RegisterForMonitorPowerChanges@TouchHWNDElement@DirectUI@@QAAJXZ
?RegisteredDefaultButtonProp@DialogElement@DirectUI@@SAPBUPropertyInfo@2@XZ
?Release@ClassInfoBase@DirectUI@@UAAHXZ
?Release@DuiAccessible@DirectUI@@UAAKXZ
?Release@Element@DirectUI@@QAAKXZ
?Release@ElementProvider@DirectUI@@UAAKXZ
?Release@ExpandCollapseProvider@DirectUI@@UAAKXZ
?Release@GridItemProvider@DirectUI@@UAAKXZ
?Release@GridProvider@DirectUI@@UAAKXZ
?Release@HWNDElementProvider@DirectUI@@UAAKXZ
?Release@InvokeProvider@DirectUI@@UAAKXZ
?Release@RangeValueProvider@DirectUI@@UAAKXZ
?Release@RefcountBase@DirectUI@@QAAJXZ
?Release@ScrollItemProvider@DirectUI@@UAAKXZ
?Release@ScrollProvider@DirectUI@@UAAKXZ
?Release@SelectionItemProvider@DirectUI@@UAAKXZ
?Release@SelectionProvider@DirectUI@@UAAKXZ
?Release@TableItemProvider@DirectUI@@UAAKXZ
?Release@TableProvider@DirectUI@@UAAKXZ
?Release@ToggleProvider@DirectUI@@UAAKXZ
?Release@Value@DirectUI@@QAAXXZ
?Release@ValueProvider@DirectUI@@UAAKXZ
?Release@XProvider@DirectUI@@UAAKXZ
?ReleaseSnapshot@TouchScrollViewer@DirectUI@@SA?AVUID@@XZ
?Remove@Element@DirectUI@@QAAJPAV12@@Z
?Remove@Element@DirectUI@@UAAJPAPAV12@I@Z
?Remove@ElementProviderManager@DirectUI@@SAXPAVElementProvider@2@@Z
?Remove@LinkedList@DirectUI@@QAAXPAVLinkedListNode@2@@Z
?RemoveAll@Element@DirectUI@@QAAJXZ
?RemoveAll@TouchSelect@DirectUI@@QAAXXZ
?RemoveBehavior@Element@DirectUI@@UAAJPAUIDuiBehavior@@@Z
?RemoveChild@ClassInfoBase@DirectUI@@UAAXXZ
?RemoveFromSelection@SelectionItemProvider@DirectUI@@UAAJXZ
?RemoveItem@TouchSelect@DirectUI@@QAAJH@Z
?RemoveListener@Element@DirectUI@@QAAXPAUIElementListener@2@@Z
?RemoveLocalValue@Element@DirectUI@@QAAJP6APBUPropertyInfo@2@XZ@Z
?RemoveLocalValue@Element@DirectUI@@QAAJPBUPropertyInfo@2@@Z
?RemoveRichDuiTooltip@TouchSlider@DirectUI@@QAAXXZ
?RemoveShortcutFromName@Element@DirectUI@@AAAPAGPBG@Z
?RemoveTail@LinkedList@DirectUI@@QAAPAVLinkedListNode@2@XZ
?RemoveTooltip@Element@DirectUI@@MAAXPAV12@@Z
?RemoveTooltip@HWNDElement@DirectUI@@UAAXPAVElement@2@@Z
?RemoveTooltip@TouchHWNDElement@DirectUI@@UAAXPAVElement@2@@Z
?RepeatClick@TouchRepeatButton@DirectUI@@SA?AVUID@@XZ
?RepeatProp@Movie@DirectUI@@SAPBUPropertyInfo@2@XZ
?Reset@DuiAccessible@DirectUI@@UAAJXZ
?Reset@HWNDHostAccessible@DirectUI@@UAAJXZ
?ResetInputState@TouchScrollViewer@DirectUI@@QAAJXZ
?ResetManipulations@TouchScrollViewer@DirectUI@@QAAJXZ
?ResolveBindings@Macro@DirectUI@@IAAXXZ
?RestoreFocus@NativeHWNDHost@DirectUI@@QAAHXZ
?Resume@Movie@DirectUI@@QAAXXZ
?ReturnValueParser@DUIXmlParser@DirectUI@@IAAXPAVValueParser@ParserTools@2@@Z
?Rewind@Movie@DirectUI@@QAAXXZ
?RichTooltipShowing@TouchHWNDElement@DirectUI@@SA?AVUID@@XZ
?RightClick@TouchButton@DirectUI@@SA?AVUID@@XZ
?RuntimeIdProperty@Schema@DirectUI@@2HA DATA
?STACKDEPTH@CallstackTracker@DirectUI@@0HB
?SaveFocus@NativeHWNDHost@DirectUI@@QAAXXZ
?ScaleChanged@TouchHWNDElement@DirectUI@@SA?AVUID@@XZ
?ScaleFactorProp@Element@DirectUI@@SAPBUPropertyInfo@2@XZ
?Scroll@BaseScrollBar@DirectUI@@SA?AVUID@@XZ
?Scroll@ScrollProvider@DirectUI@@UAAJW4ScrollAmount@@0@Z
?Scroll@ScrollProxy@DirectUI@@AAAJW4ScrollAmount@@0@Z
?ScrollBarControlType@Schema@DirectUI@@2HA DATA
?ScrollIntoView@ScrollItemProvider@DirectUI@@UAAJXZ
?ScrollItemPattern@Schema@DirectUI@@2HA DATA
?ScrollLine@ScrollProxy@DirectUI@@AAAJ_N0@Z
?ScrollPaddingProp@TouchScrollViewer@DirectUI@@SAPBUPropertyInfo@2@XZ
?ScrollPage@ScrollProxy@DirectUI@@AAAJ_N0@Z
?ScrollPattern@Schema@DirectUI@@2HA DATA
?ScrollToHorizontalPosition@ScrollProxy@DirectUI@@AAAJH_N@Z
?ScrollToVerticalPosition@ScrollProxy@DirectUI@@AAAJH_N@Z
?Scroll_HorizontalScrollPercent_Property@Schema@DirectUI@@2HA DATA
?Scroll_HorizontalViewSize_Property@Schema@DirectUI@@2HA DATA
?Scroll_HorizontallyScrollable_Property@Schema@DirectUI@@2HA DATA
?Scroll_VerticalScrollPercent_Property@Schema@DirectUI@@2HA DATA
?Scroll_VerticalViewSize_Property@Schema@DirectUI@@2HA DATA
?Scroll_VerticallyScrollable_Property@Schema@DirectUI@@2HA DATA
?Select@SelectionItemProvider@DirectUI@@UAAJXZ
?Select@SelectorSelectionItemProxy@DirectUI@@AAAJXZ
?SelectAll@TouchEdit2@DirectUI@@QAAJXZ
?SelectNone@TouchEdit2@DirectUI@@QAAJXZ
?SelectedProp@Element@DirectUI@@SAPBUPropertyInfo@2@XZ
?SelectionBackgroundColorProp@TouchEditBase@DirectUI@@SAPBUPropertyInfo@2@XZ
?SelectionChange@Combobox@DirectUI@@SA?AVUID@@XZ
?SelectionChange@Selector@DirectUI@@SA?AVUID@@XZ
?SelectionChange@TouchSelect@DirectUI@@SA?AVUID@@XZ
?SelectionForegroundColorProp@TouchEditBase@DirectUI@@SAPBUPropertyInfo@2@XZ
?SelectionInvalidatedEvent@Schema@DirectUI@@2HA DATA
?SelectionItemElementAddedToSelectionEvent@Schema@DirectUI@@2HA DATA
?SelectionItemElementRemovedFromSelectionEvent@Schema@DirectUI@@2HA DATA
?SelectionItemElementSelectedEvent@Schema@DirectUI@@2HA DATA
?SelectionItemPattern@Schema@DirectUI@@2HA DATA
?SelectionItem_IsSelected_Property@Schema@DirectUI@@2HA DATA
?SelectionItem_SelectionContainer_Property@Schema@DirectUI@@2HA DATA
?SelectionPattern@Schema@DirectUI@@2HA DATA
?SelectionProp@Combobox@DirectUI@@SAPBUPropertyInfo@2@XZ
?SelectionProp@Selector@DirectUI@@SAPBUPropertyInfo@2@XZ
?SelectionProp@TouchSelect@DirectUI@@SAPBUPropertyInfo@2@XZ
?Selection_CanSelectMultiple_Property@Schema@DirectUI@@2HA DATA
?Selection_IsSelectionRequired_Property@Schema@DirectUI@@2HA DATA
?Selection_Selection_Property@Schema@DirectUI@@2HA DATA
?SemanticChange@TouchScrollViewer@DirectUI@@SA?AVUID@@XZ
?SemanticZoomControlType@Schema@DirectUI@@2HA DATA
?SendParseError@DUIXmlParser@DirectUI@@IAAXPBG0HHJ@Z
?SendParseError@DUIXmlParser@DirectUI@@IAAXPBG0PAUIXmlReader@@J@Z
?SeparatorControlType@Schema@DirectUI@@2HA DATA
?SetAbsorbsShortcut@Element@DirectUI@@QAAJ_N@Z
?SetAccDefAction@Element@DirectUI@@QAAJPBG@Z
?SetAccDesc@Element@DirectUI@@QAAJPBG@Z
?SetAccHelp@Element@DirectUI@@QAAJPBG@Z
?SetAccItemStatus@Element@DirectUI@@QAAJPBG@Z
?SetAccItemType@Element@DirectUI@@QAAJPBG@Z
?SetAccName@Element@DirectUI@@QAAJPBG@Z
?SetAccRole@Element@DirectUI@@QAAJH@Z
?SetAccState@Element@DirectUI@@QAAJH@Z
?SetAccValue@Element@DirectUI@@QAAJPBG@Z
?SetAccessible@Element@DirectUI@@QAAJ_N@Z
?SetActive@Element@DirectUI@@QAAJH@Z
?SetActiveState@TouchScrollBar@DirectUI@@QAAXW4ActiveState@2@_N@Z
?SetActivityOccuring@ModernProgressBar@DirectUI@@QAAJ_N@Z
?SetActivityOccuring@ModernProgressRing@DirectUI@@QAAJ_N@Z
?SetAddLayeredRef@ModernProgressBar@DirectUI@@QAAJ_N@Z
?SetAddLayeredRef@ModernProgressRing@DirectUI@@QAAJ_N@Z
?SetAliasedRendering@RichText@DirectUI@@QAAJ_N@Z
?SetAllowArrowOut@TouchScrollViewer@DirectUI@@QAAJ_N@Z
?SetAlpha@Element@DirectUI@@QAAJH@Z
?SetAnimatePopupOnDismiss@TouchSelect@DirectUI@@QAAJ_N@Z
?SetAnimation@Element@DirectUI@@QAAJH@Z
?SetAutoGrouping@CCRadioButton@DirectUI@@QAAJ_N@Z
?SetAutoHeight@ModernProgressBar@DirectUI@@QAAJ_N@Z
?SetAutoStart@Movie@DirectUI@@QAAJ_N@Z
?SetAutoStop@Movie@DirectUI@@QAAJ_N@Z
?SetBackgroundColor@Element@DirectUI@@QAAJABUFill@2@@Z
?SetBackgroundColor@Element@DirectUI@@QAAJK@Z
?SetBackgroundColor@Element@DirectUI@@QAAJKKE@Z
?SetBackgroundColor@Element@DirectUI@@QAAJKKKE@Z
?SetBackgroundColor@Element@DirectUI@@QAAJPBGHH@Z
?SetBackgroundOwnerID@HWNDHost@DirectUI@@QAAJPBG@Z
?SetBackgroundStdColor@Element@DirectUI@@QAAJH@Z
?SetBaseline@RichText@DirectUI@@QAAJH@Z
?SetBorderColor@Element@DirectUI@@QAAJK@Z
?SetBorderGradientColor@Element@DirectUI@@QAAJKKE@Z
?SetBorderStdColor@Element@DirectUI@@QAAJH@Z
?SetBorderStyle@Element@DirectUI@@QAAJH@Z
?SetBorderThickness@Element@DirectUI@@QAAJHHHH@Z
?SetBuffering@TouchSlider@DirectUI@@QAAJH@Z
?SetButtonClassAcceptsEnterKey@DialogElement@DirectUI@@QAAJ_N@Z
?SetButtonClassAcceptsEnterKey@XBaby@DirectUI@@UAAJ_N@Z
?SetButtonClassAcceptsEnterKey@XProvider@DirectUI@@UAAJ_N@Z
?SetCache@RichText@DirectUI@@QAAXKPAUIDUIRichTextCache@@@Z
?SetCacheDirty@Layout@DirectUI@@IAAXXZ
?SetCaptured@Button@DirectUI@@QAAJ_N@Z
?SetCaptured@TouchButton@DirectUI@@QAAJ_N@Z
?SetCaretPosition@TouchEdit2@DirectUI@@QAAJJ@Z
?SetCheckedState@TouchCheckBox@DirectUI@@QAAJW4CheckedStateFlags@2@@Z
?SetClass@Element@DirectUI@@QAAJPBG@Z
?SetClassInfoPtr@AccessibleButton@DirectUI@@SAXPAUIClassInfo@2@@Z
?SetClassInfoPtr@AnimationStrip@DirectUI@@SAXPAUIClassInfo@2@@Z
?SetClassInfoPtr@AutoButton@DirectUI@@SAXPAUIClassInfo@2@@Z
?SetClassInfoPtr@BaseScrollViewer@DirectUI@@SAXPAUIClassInfo@2@@Z
?SetClassInfoPtr@Bind@DirectUI@@SAXPAUIClassInfo@2@@Z
?SetClassInfoPtr@Browser@DirectUI@@SAXPAUIClassInfo@2@@Z
?SetClassInfoPtr@Button@DirectUI@@SAXPAUIClassInfo@2@@Z
?SetClassInfoPtr@CCAVI@DirectUI@@SAXPAUIClassInfo@2@@Z
?SetClassInfoPtr@CCBase@DirectUI@@SAXPAUIClassInfo@2@@Z
?SetClassInfoPtr@CCBaseCheckRadioButton@DirectUI@@SAXPAUIClassInfo@2@@Z
?SetClassInfoPtr@CCBaseScrollBar@DirectUI@@SAXPAUIClassInfo@2@@Z
?SetClassInfoPtr@CCCheckBox@DirectUI@@SAXPAUIClassInfo@2@@Z
?SetClassInfoPtr@CCCommandLink@DirectUI@@SAXPAUIClassInfo@2@@Z
?SetClassInfoPtr@CCHScrollBar@DirectUI@@SAXPAUIClassInfo@2@@Z
?SetClassInfoPtr@CCListBox@DirectUI@@SAXPAUIClassInfo@2@@Z
?SetClassInfoPtr@CCListView@DirectUI@@SAXPAUIClassInfo@2@@Z
?SetClassInfoPtr@CCProgressBar@DirectUI@@SAXPAUIClassInfo@2@@Z
?SetClassInfoPtr@CCPushButton@DirectUI@@SAXPAUIClassInfo@2@@Z
?SetClassInfoPtr@CCRadioButton@DirectUI@@SAXPAUIClassInfo@2@@Z
?SetClassInfoPtr@CCSysLink@DirectUI@@SAXPAUIClassInfo@2@@Z
?SetClassInfoPtr@CCTrackBar@DirectUI@@SAXPAUIClassInfo@2@@Z
?SetClassInfoPtr@CCTreeView@DirectUI@@SAXPAUIClassInfo@2@@Z
?SetClassInfoPtr@CCVScrollBar@DirectUI@@SAXPAUIClassInfo@2@@Z
?SetClassInfoPtr@CheckBoxGlyph@DirectUI@@SAXPAUIClassInfo@2@@Z
?SetClassInfoPtr@Clipper@DirectUI@@SAXPAUIClassInfo@2@@Z
?SetClassInfoPtr@Combobox@DirectUI@@SAXPAUIClassInfo@2@@Z
?SetClassInfoPtr@DialogElement@DirectUI@@SAXPAUIClassInfo@2@@Z
?SetClassInfoPtr@Edit@DirectUI@@SAXPAUIClassInfo@2@@Z
?SetClassInfoPtr@Element@DirectUI@@SAXPAUIClassInfo@2@@Z
?SetClassInfoPtr@ElementWithHWND@DirectUI@@SAXPAUIClassInfo@2@@Z
?SetClassInfoPtr@Expandable@DirectUI@@SAXPAUIClassInfo@2@@Z
?SetClassInfoPtr@Expando@DirectUI@@SAXPAUIClassInfo@2@@Z
?SetClassInfoPtr@ExpandoButtonGlyph@DirectUI@@SAXPAUIClassInfo@2@@Z
?SetClassInfoPtr@HWNDElement@DirectUI@@SAXPAUIClassInfo@2@@Z
?SetClassInfoPtr@HWNDHost@DirectUI@@SAXPAUIClassInfo@2@@Z
?SetClassInfoPtr@Macro@DirectUI@@SAXPAUIClassInfo@2@@Z
?SetClassInfoPtr@Movie@DirectUI@@SAXPAUIClassInfo@2@@Z
?SetClassInfoPtr@Navigator@DirectUI@@SAXPAUIClassInfo@2@@Z
?SetClassInfoPtr@PText@DirectUI@@SAXPAUIClassInfo@2@@Z
?SetClassInfoPtr@Page@DirectUI@@SAXPAUIClassInfo@2@@Z
?SetClassInfoPtr@Pages@DirectUI@@SAXPAUIClassInfo@2@@Z
?SetClassInfoPtr@Progress@DirectUI@@SAXPAUIClassInfo@2@@Z
?SetClassInfoPtr@PushButton@DirectUI@@SAXPAUIClassInfo@2@@Z
?SetClassInfoPtr@RadioButtonGlyph@DirectUI@@SAXPAUIClassInfo@2@@Z
?SetClassInfoPtr@RefPointElement@DirectUI@@SAXPAUIClassInfo@2@@Z
?SetClassInfoPtr@RepeatButton@DirectUI@@SAXPAUIClassInfo@2@@Z
?SetClassInfoPtr@Repeater@DirectUI@@SAXPAUIClassInfo@2@@Z
?SetClassInfoPtr@ScrollBar@DirectUI@@SAXPAUIClassInfo@2@@Z
?SetClassInfoPtr@ScrollViewer@DirectUI@@SAXPAUIClassInfo@2@@Z
?SetClassInfoPtr@Selector@DirectUI@@SAXPAUIClassInfo@2@@Z
?SetClassInfoPtr@SelectorNoDefault@DirectUI@@SAXPAUIClassInfo@2@@Z
?SetClassInfoPtr@StyledScrollViewer@DirectUI@@SAXPAUIClassInfo@2@@Z
?SetClassInfoPtr@TextGraphic@DirectUI@@SAXPAUIClassInfo@2@@Z
?SetClassInfoPtr@Thumb@DirectUI@@SAXPAUIClassInfo@2@@Z
?SetClassInfoPtr@UnknownElement@DirectUI@@SAXPAUIClassInfo@2@@Z
?SetClassInfoPtr@Viewer@DirectUI@@SAXPAUIClassInfo@2@@Z
?SetClassInfoPtr@XBaby@DirectUI@@SAXPAUIClassInfo@2@@Z
?SetClassInfoPtr@XElement@DirectUI@@SAXPAUIClassInfo@2@@Z
?SetClient@BorderLayout@DirectUI@@AAAXPAVElement@2@@Z
?SetColorFontPaletteIndex@RichText@DirectUI@@QAAJH@Z
?SetCompositedText@Element@DirectUI@@QAAJ_N@Z
?SetCompositingQuality@Movie@DirectUI@@QAAJH@Z
?SetConnect@Bind@DirectUI@@QAAJPBG@Z
?SetConstrainLayout@RichText@DirectUI@@QAAJH@Z
?SetContact@TouchScrollViewer@DirectUI@@QAAJI_N@Z
?SetContactNeeded@TouchScrollViewer@DirectUI@@SA?AVUID@@XZ
?SetContactNotify@TouchScrollViewer@DirectUI@@SA?AVUID@@XZ
?SetContentAlign@Element@DirectUI@@QAAJH@Z
?SetContentGraphic@Element@DirectUI@@QAAJPBGEI@Z
?SetContentGraphic@Element@DirectUI@@QAAJPBGGG@Z
?SetContentString@Element@DirectUI@@QAAJPBG@Z
?SetCursor@Element@DirectUI@@QAAJPBG@Z
?SetCursorHandle@Element@DirectUI@@QAAJPAUHICON__@@@Z
?SetDWriteFontCollection@RichText@DirectUI@@QAAXPAUIDWriteFontCollection@@@Z
?SetDWriteTextLayout@RichText@DirectUI@@QAAXPAUIDWriteTextLayout@@@Z
?SetDataEngine@Repeater@DirectUI@@QAAXPAUIDataEngine@2@@Z
?SetDataEntry@Macro@DirectUI@@QAAXPAUIDataEntry@2@PAVElement@2@@Z
?SetDataEntry@PText@DirectUI@@QAAXPAUIDataEntry@2@@Z
?SetDefaultButtonTracking@DialogElement@DirectUI@@UAAJ_N@Z
?SetDefaultButtonTracking@XBaby@DirectUI@@UAAJ_N@Z
?SetDefaultButtonTracking@XProvider@DirectUI@@UAAJ_N@Z
?SetDefaultFocusID@NativeHWNDHost@DirectUI@@QAAXPBG@Z
?SetDefaultGraphicType@Macro@DirectUI@@QAAXE_N@Z
?SetDefaultHInstance@DUIXmlParser@DirectUI@@QAAXPAUHINSTANCE__@@@Z
?SetDefaultState@CCPushButton@DirectUI@@IAAXKK@Z
?SetDelegateEventHandler@TouchScrollViewer@DirectUI@@QAAJPAUIUnknown@@@Z
?SetDeterminate@ModernProgressBar@DirectUI@@QAAJ_N@Z
?SetDirection@Element@DirectUI@@QAAJH@Z
?SetDirty@Edit@DirectUI@@QAAJ_N@Z
?SetDisableAccTextExtend@RichText@DirectUI@@QAAJ_N@Z
?SetDisableMouseInRectCheck@TouchRepeatButton@DirectUI@@QAAJ_N@Z
?SetDisableOffscreenCaching@TouchScrollViewer@DirectUI@@QAAX_N@Z
?SetDrawOutlines@Movie@DirectUI@@QAAJ_N@Z
?SetDynamicScaling@DUIXmlParser@DirectUI@@QAAXW4DynamicScaleParsing@2@@Z
?SetEdgeHighlightColor@Element@DirectUI@@QAAJK@Z
?SetEdgeHighlightThickness@Element@DirectUI@@QAAJHHHH@Z
?SetElementMovesOnIHMNotify@TouchEditBase@DirectUI@@QAAJ_N@Z
?SetEnabled@Element@DirectUI@@QAAJ_N@Z
?SetEncodedContentString@Element@DirectUI@@QAAJPBG@Z
?SetEnforceSize@PushButton@DirectUI@@QAAJ_N@Z
?SetEnsureVisibleUseLayoutCoordinates@Viewer@DirectUI@@QAAX_N@Z
?SetError@DUIFactory@DirectUI@@QAAXPBGZZ
?SetExpand@Macro@DirectUI@@QAAJPBG@Z
?SetExpanded@Expandable@DirectUI@@QAAJ_N@Z
?SetFilterOnPaste@TouchEditBase@DirectUI@@QAAJ_N@Z
?SetFireContinuousSliderEvent@TouchSlider@DirectUI@@QAAX_N@Z
?SetFlags@TouchHWNDElement@DirectUI@@QAAJW4TouchHWNDElementFlags@2@0@Z
?SetFocus@ElementProvider@DirectUI@@UAAJXZ
?SetFocus@HWNDElement@DirectUI@@QAAX_N@Z
?SetFocus@XProvider@DirectUI@@UAAJPAVElement@2@@Z
?SetFont@Element@DirectUI@@QAAJPBG@Z
?SetFontColorRuns@RichText@DirectUI@@QAAJPBG@Z
?SetFontFace@Element@DirectUI@@QAAJPBG@Z
?SetFontQuality@Element@DirectUI@@QAAJH@Z
?SetFontSize@Element@DirectUI@@QAAJH@Z
?SetFontSizeRuns@RichText@DirectUI@@QAAJPBG@Z
?SetFontStyle@Element@DirectUI@@QAAJH@Z
?SetFontWeight@Element@DirectUI@@QAAJH@Z
?SetFontWeightRuns@RichText@DirectUI@@QAAJPBG@Z
?SetForceEditTextToLTR@TouchEditBase@DirectUI@@QAAJ_N@Z
?SetForegroundColor@Element@DirectUI@@QAAJK@Z
?SetForegroundColor@Element@DirectUI@@QAAJKKE@Z
?SetForegroundColor@Element@DirectUI@@QAAJKKKE@Z
?SetForegroundStdColor@Element@DirectUI@@QAAJH@Z
?SetFrameDuration@AnimationStrip@DirectUI@@QAAJH@Z
?SetFrameIndex@AnimationStrip@DirectUI@@QAAJH@Z
?SetFrameWidth@AnimationStrip@DirectUI@@QAAJH@Z
?SetGetSheetCallback@DUIXmlParser@DirectUI@@QAAXP6APAVValue@2@PBGPAX@Z1@Z
?SetGraphicType@Repeater@DirectUI@@QAAXE@Z
?SetHandleEnter@TouchButton@DirectUI@@QAAJ_N@Z
?SetHandleEnterKey@DialogElement@DirectUI@@QAAJ_N@Z
?SetHandleEnterKey@XBaby@DirectUI@@UAAJ_N@Z
?SetHandleEnterKey@XProvider@DirectUI@@IAAX_N@Z
?SetHandleGlobalEnter@TouchButton@DirectUI@@QAAJ_N@Z
?SetHeight@Element@DirectUI@@QAAJH@Z
?SetID@Element@DirectUI@@QAAJPBG@Z
?SetIMEComposing@TouchEditBase@DirectUI@@QAAJ_N@Z
?SetIgnoredKeyCombos@TouchEditBase@DirectUI@@QAAJW4TouchEditFilteredKeyComboFlags@2@0@Z
?SetIndependentAnimations@ModernProgressBar@DirectUI@@QAAJ_N@Z
?SetInnerBorderThickness@TouchEdit2@DirectUI@@QAAJHHHH@Z
?SetInputScope@TouchEdit2@DirectUI@@QAAJW4__MIDL___MIDL_itf_inputscope_0000_0000_0001@@@Z
?SetIntegrateIMECandidateList@TouchEditBase@DirectUI@@QAAJ_N@Z
?SetInteractionMode@TouchScrollViewer@DirectUI@@QAAJH@Z
?SetInterpolationMode@Movie@DirectUI@@QAAJH@Z
?SetIsContinuous@TouchSlider@DirectUI@@QAAJ_N@Z
?SetIsPressed@TouchSlider@DirectUI@@QAAJ_N@Z
?SetIsShowOnOffFeedback@TouchSlider@DirectUI@@QAAJ_N@Z
?SetIsVertical@TouchSlider@DirectUI@@QAAJ_N@Z
?SetItemData@TouchSelect@DirectUI@@QAAJHPAUIUnknown@@@Z
?SetItemData@TouchSelectItem@DirectUI@@QAAJPAUIUnknown@@@Z
?SetItemHeightInPopup@TouchSelect@DirectUI@@QAAJH@Z
?SetItemState@CCTreeView@DirectUI@@QAAXPAU_TREEITEM@@I@Z
?SetKeyFocus@Element@DirectUI@@UAAXXZ
?SetKeyFocus@HWNDHost@DirectUI@@UAAXXZ
?SetKeyFocus@TouchEditBase@DirectUI@@UAAXXZ
?SetKeyFocus@XBaby@DirectUI@@UAAXXZ
?SetKeyFocus@XElement@DirectUI@@UAAXXZ
?SetKeyboardNavigationCapture@TouchEditBase@DirectUI@@QAAJW4TouchEditKeyboardNavigationCapture@2@@Z
?SetLayout@Element@DirectUI@@QAAJPAVLayout@2@@Z
?SetLayoutCompletionNotify@Element@DirectUI@@QAAX_N@Z
?SetLayoutPos@Element@DirectUI@@QAAJH@Z
?SetLightDismissIHM@TouchHWNDElement@DirectUI@@QAAJ_N@Z
?SetLine@CCBaseScrollBar@DirectUI@@UAAJH@Z
?SetLine@ScrollBar@DirectUI@@UAAJH@Z
?SetLineSize@CCTrackBar@DirectUI@@QAAJH@Z
?SetLineSpacing@RichText@DirectUI@@QAAJH@Z
?SetLinkIndicatorsToContent@TouchScrollViewer@DirectUI@@QAAJ_N@Z
?SetLocale@RichText@DirectUI@@QAAJPBG@Z
?SetManipulationHorizontalAlignment@TouchScrollViewer@DirectUI@@QAAJH@Z
?SetManipulationVerticalAlignment@TouchScrollViewer@DirectUI@@QAAJH@Z
?SetMapRunsToClusters@RichText@DirectUI@@QAAJ_N@Z
?SetMargin@Element@DirectUI@@QAAJHHHH@Z
?SetMaxLength@Edit@DirectUI@@QAAJH@Z
?SetMaxLength@TouchEditBase@DirectUI@@QAAJH@Z
?SetMaxLineCount@RichText@DirectUI@@QAAXI@Z
?SetMaximum@CCBaseScrollBar@DirectUI@@UAAJH@Z
?SetMaximum@ModernProgressBar@DirectUI@@QAAJH@Z
?SetMaximum@Progress@DirectUI@@QAAJH@Z
?SetMaximum@ScrollBar@DirectUI@@UAAJH@Z
?SetMetering@TouchSlider@DirectUI@@QAAJH@Z
?SetMinSize@Element@DirectUI@@QAAJHH@Z
?SetMinimum@CCBaseScrollBar@DirectUI@@UAAJH@Z
?SetMinimum@ModernProgressBar@DirectUI@@QAAJH@Z
?SetMinimum@Progress@DirectUI@@QAAJH@Z
?SetMinimum@ScrollBar@DirectUI@@UAAJH@Z
?SetMoveCaretToEndOnSyncContent@TouchEditBase@DirectUI@@QAAJ_N@Z
?SetMultiline@Edit@DirectUI@@QAAJ_N@Z
?SetMultiline@TouchEditBase@DirectUI@@QAAJ_N@Z
?SetNoBrowseOnFirstAdd@Pages@DirectUI@@QAAXXZ
?SetNote@CCCommandLink@DirectUI@@QAAJPBG@Z
?SetNotifyHandler@CCBase@DirectUI@@QAAXP6AHIIJPAJPAX@Z1@Z
?SetOffText@TouchSwitch@DirectUI@@QAAJPBG@Z
?SetOnOffText@TouchSwitch@DirectUI@@QAAXPBG0@Z
?SetOnText@TouchSwitch@DirectUI@@QAAJPBG@Z
?SetOptimizeMove@HWNDHost@DirectUI@@QAAJ_N@Z
?SetOrder@ScrollBar@DirectUI@@QAAJH@Z
?SetOverhang@Element@DirectUI@@QAAJ_N@Z
?SetOverhangOffset@RichText@DirectUI@@QAAJH@Z
?SetOverrideButtonBackground@CCPushButton@DirectUI@@QAAJ_N@Z
?SetOverrideScaleFactor@DUIXmlParser@DirectUI@@QAAXM@Z
?SetOverrideScaleFactor@Element@DirectUI@@QAAXM@Z
?SetPVLAnimationState@Element@DirectUI@@QAAXH@Z
?SetPadding@Element@DirectUI@@QAAJHHHH@Z
?SetPage@CCBaseScrollBar@DirectUI@@UAAJH@Z
?SetPage@ScrollBar@DirectUI@@UAAJH@Z
?SetParameter@XProvider@DirectUI@@UAAJABU_GUID@@PAX@Z
?SetParentSizeControl@HWNDElement@DirectUI@@QAAX_N@Z
?SetParseErrorCallback@DUIXmlParser@DirectUI@@QAAXP6AXPBG0HPAX@Z1@Z
?SetParseState@DUIXmlParser@DirectUI@@AAAXW4_DUI_PARSE_STATE@2@@Z
?SetParser@Macro@DirectUI@@QAAXPAVDUIXmlParser@2@@Z
?SetPasswordCharacter@Edit@DirectUI@@QAAJH@Z
?SetPasswordCharacter@TouchEditBase@DirectUI@@QAAJH@Z
?SetPasswordRevealMode@TouchEdit2@DirectUI@@QAAJW4TouchEditPasswordRevealMode@2@@Z
?SetPath@Movie@DirectUI@@QAAJPBG@Z
?SetPercent@ScrollProxy@DirectUI@@AAAJPAVBaseScrollBar@2@N@Z
?SetPinned@BaseScrollBar@DirectUI@@QAAX_N@Z
?SetPinning@BaseScrollViewer@DirectUI@@QAAJH@Z
?SetPixelOffsetMode@Movie@DirectUI@@QAAJH@Z
?SetPlay@AnimationStrip@DirectUI@@QAAJ_N@Z
?SetPlayAllFramesMode@Movie@DirectUI@@QAAJ_N@Z
?SetPopupBounds@TouchSelect@DirectUI@@QAAJHHHH@Z
?SetPosition@CCBaseScrollBar@DirectUI@@UAAJH@Z
?SetPosition@ModernProgressBar@DirectUI@@QAAJH@Z
?SetPosition@Progress@DirectUI@@QAAJH@Z
?SetPosition@ScrollBar@DirectUI@@UAAJH@Z
?SetPreprocessedXML@DUIXmlParser@DirectUI@@QAAJPBGPAUHINSTANCE__@@1@Z
?SetPreserveAlphaChannel@Element@DirectUI@@QAAX_N@Z
?SetPressed@Button@DirectUI@@QAAJ_N@Z
?SetPressed@TouchButton@DirectUI@@QAAJ_N@Z
?SetPreventFormatChangeUpdatingModifiedState@TouchEditBase@DirectUI@@QAAJ_N@Z
?SetPromptText@TouchEdit2@DirectUI@@QAAJPBG@Z
?SetPromptWithCaret@TouchEdit2@DirectUI@@QAAJ_N@Z
?SetProperty@Bind@DirectUI@@QAAJPBG@Z
?SetProportional@ScrollBar@DirectUI@@QAAJ_N@Z
?SetProvider@XElement@DirectUI@@QAAJPAUIUnknown@@@Z
?SetRangeMax@CCTrackBar@DirectUI@@QAAJH@Z
?SetRangeMax@TouchSlider@DirectUI@@QAAXH@Z
?SetRangeMin@CCTrackBar@DirectUI@@QAAJH@Z
?SetRangeMin@TouchSlider@DirectUI@@QAAXH@Z
?SetRangeMinAndRangeMax@TouchSlider@DirectUI@@QAAXHH@Z
?SetReadOnly@TouchEditBase@DirectUI@@QAAJ_N@Z
?SetReferencePoint@RefPointElement@DirectUI@@QAAJHH@Z
?SetRegisteredDefaultButton@DialogElement@DirectUI@@QAAJPAVElement@2@@Z
?SetRegisteredDefaultButton@XBaby@DirectUI@@UAAJPAVElement@2@@Z
?SetRegisteredDefaultButton@XProvider@DirectUI@@UAAJPAVElement@2@@Z
?SetRegisteredDefaultButtonSelectedState@DialogElementCore@DirectUI@@IAAX_N@Z
?SetReorderable@ItemList@DirectUI@@QAAJ_N@Z
?SetRepeat@Movie@DirectUI@@QAAJ_N@Z
?SetRespectLanguageDirection@TouchSlider@DirectUI@@QAAX_N@Z
?SetRespondToMouseScroll@TouchSlider@DirectUI@@QAAX_N@Z
?SetScaleFactor@DUIXmlParser@DirectUI@@QAAXM@Z
?SetScreenCenter@HWNDElement@DirectUI@@QAAX_N@Z
?SetScrollControlHost@TouchScrollViewer@DirectUI@@QAAJPAVElement@2@@Z
?SetScrollPadding@TouchScrollViewer@DirectUI@@QAAJHHHH@Z
?SetScrollPercent@ScrollProvider@DirectUI@@UAAJNN@Z
?SetScrollPercent@ScrollProxy@DirectUI@@AAAJNN@Z
?SetSelected@Element@DirectUI@@QAAJ_N@Z
?SetSelection@Combobox@DirectUI@@QAAJH@Z
?SetSelection@Selector@DirectUI@@UAAJPAVElement@2@@Z
?SetSelection@SelectorNoDefault@DirectUI@@UAAJPAVElement@2@@Z
?SetSelection@TouchEdit2@DirectUI@@QAAJJJ@Z
?SetSelection@TouchSelect@DirectUI@@QAAJPAVElement@2@@Z
?SetSelectionBackgroundColor@TouchEditBase@DirectUI@@QAAJPAVValue@2@@Z
?SetSelectionForegroundColor@TouchEditBase@DirectUI@@QAAJPAVValue@2@@Z
?SetSelectionIndex@TouchSelect@DirectUI@@QAAJH@Z
?SetShadowIntensity@Element@DirectUI@@QAAJH@Z
?SetSheet@Element@DirectUI@@QAAJPAVStyleSheet@2@@Z
?SetShortcut@Element@DirectUI@@QAAJH@Z
?SetShowClearButtonMinWidth@TouchEdit2@DirectUI@@QAAJH@Z
?SetShowKeyFocus@TouchButton@DirectUI@@QAAJ_N@Z
?SetShowTick@TouchSlider@DirectUI@@QAAJ_N@Z
?SetSmoothFillAnimation@ModernProgressBar@DirectUI@@QAAJ_N@Z
?SetSmoothingMode@Movie@DirectUI@@QAAJH@Z
?SetSnapIntervalX@TouchScrollViewer@DirectUI@@QAAJM@Z
?SetSnapIntervalY@TouchScrollViewer@DirectUI@@QAAJM@Z
?SetSnapMode@TouchScrollViewer@DirectUI@@QAAJH@Z
?SetSnapOffsetX@TouchScrollViewer@DirectUI@@QAAJM@Z
?SetSnapOffsetY@TouchScrollViewer@DirectUI@@QAAJM@Z
?SetSnapPointCollectionX@TouchScrollViewer@DirectUI@@QAAJPAV?$DynamicArray@N$0A@@2@@Z
?SetSnapPointCollectionX@TouchScrollViewer@DirectUI@@QAAJPBNH@Z
?SetSnapPointCollectionY@TouchScrollViewer@DirectUI@@QAAJPAV?$DynamicArray@N$0A@@2@@Z
?SetSnapPointCollectionY@TouchScrollViewer@DirectUI@@QAAJPBNH@Z
?SetState@ModernProgressBar@DirectUI@@QAAJH@Z
?SetStdCursor@Element@DirectUI@@QAAJH@Z
?SetStepCount@TouchSlider@DirectUI@@QAAXH@Z
?SetStopThumbBehavior@RepeatButton@DirectUI@@QAAXXZ
?SetString@ElementProxy@DirectUI@@IAAJPAUtagVARIANT@@P8Element@2@AAPBGPAPAVValue@2@@Z@Z
?SetStyle@CCTreeView@DirectUI@@QAAKK@Z
?SetSubContent@TouchCommandButton@DirectUI@@QAAJPBG@Z
?SetSuppressClearButton@TouchEdit2@DirectUI@@QAAJ_N@Z
?SetSuppressSetContact@TouchScrollViewer@DirectUI@@QAAJ_N@Z
?SetSyncContentWhileIMEComposing@TouchEditBase@DirectUI@@QAAJ_N@Z
?SetTargetPage@Navigator@DirectUI@@QAAJPBG@Z
?SetTextContentOverride@TouchSelectItem@DirectUI@@QAAJPBG@Z
?SetTextGlowSize@Element@DirectUI@@QAAJH@Z
?SetTextMode@TouchEditBase@DirectUI@@QAAJW4TouchEditTextMode@2@@Z
?SetThemeChanged@HWNDHost@DirectUI@@IAAJH@Z
?SetThemedBorder@Edit@DirectUI@@QAAJ_N@Z
?SetThumbPosition@CCTrackBar@DirectUI@@QAAJH@Z
?SetThumbValue@TouchSlider@DirectUI@@QAAXH_N0@Z
?SetThumbValue@TouchSlider@DirectUI@@QAAXH_N@Z
?SetTickCount@TouchSlider@DirectUI@@QAAJH@Z
?SetTitleText@TouchSwitch@DirectUI@@QAAJPBG@Z
?SetToHost@XBaby@DirectUI@@UAAJPAVElement@2@@Z
?SetToggleOnClick@TouchCheckBox@DirectUI@@QAAJ_N@Z
?SetToggleSwitchText@TouchSwitch@DirectUI@@QAAXPBG@Z
?SetToggleValue@TouchSwitch@DirectUI@@QAAXH@Z
?SetToggleValue@TouchSwitch@DirectUI@@QAAXH_N0@Z
?SetToggleValue@TouchSwitch@DirectUI@@QAAXH_N@Z
?SetTooltip@Element@DirectUI@@QAAJ_N@Z
?SetTooltipMaxWidth@Element@DirectUI@@QAAJH@Z
?SetTooltipMaximumLineCount@TouchHWNDElement@DirectUI@@QAAJH@Z
?SetTooltipText@TouchSlider@DirectUI@@QAAXPBG@Z
?SetTracking@CCBaseScrollBar@DirectUI@@QAAJ_N@Z
?SetTransparent@HWNDHost@DirectUI@@QAAJ_N@Z
?SetTreatRightMouseButtonAsLeft@TouchButton@DirectUI@@QAAJ_N@Z
?SetTypography@RichText@DirectUI@@QAAJPBG@Z
?SetTypographyRuns@RichText@DirectUI@@QAAJPBG@Z
?SetUnavailableIcon@DUIXmlParser@DirectUI@@QAAXPAUHICON__@@@Z
?SetUnknownAttrCallback@DUIXmlParser@DirectUI@@QAAXP6A_NPBGPAX@Z1@Z
?SetValue@Element@DirectUI@@QAAJP6APBUPropertyInfo@2@XZHPAVValue@2@@Z
?SetValue@Element@DirectUI@@QAAJPBUPropertyInfo@2@HPAVValue@2@@Z
?SetValue@RangeValueProvider@DirectUI@@UAAJN@Z
?SetValue@ValueProvider@DirectUI@@UAAJPBG@Z
?SetValue@ValueProxy@DirectUI@@AAAJPBG@Z
?SetVertical@ScrollBar@DirectUI@@QAAJ_N@Z
?SetVerticalScript@RichText@DirectUI@@QAAJ_N@Z
?SetVirtualizeElements@TouchScrollViewer@DirectUI@@QAAJ_N@Z
?SetVisible@Element@DirectUI@@QAAJ_N@Z
?SetVisited@TouchHyperLink@DirectUI@@QAAJ_N@Z
?SetWantTabs@Edit@DirectUI@@QAAJ_N@Z
?SetWidth@Element@DirectUI@@QAAJH@Z
?SetWinStyle@CCBase@DirectUI@@QAAJH@Z
?SetWindowAccessGradientColor@TouchHWNDElement@DirectUI@@QAAJPAVValue@2@@Z
?SetWindowActive@Element@DirectUI@@QAAJ_N@Z
?SetWindowDirection@HWNDHost@DirectUI@@UAAXPAUHWND__@@@Z
?SetWrapKeyboardNavigate@HWNDElement@DirectUI@@QAAJ_N@Z
?SetX@Element@DirectUI@@QAAJH@Z
?SetXBarVisibility@BaseScrollViewer@DirectUI@@QAAJH@Z
?SetXML@DUIXmlParser@DirectUI@@QAAJPBGPAUHINSTANCE__@@1@Z
?SetXMLFromResource@DUIXmlParser@DirectUI@@QAAJIPAUHINSTANCE__@@0@Z
?SetXMLFromResource@DUIXmlParser@DirectUI@@QAAJIPBGPAUHINSTANCE__@@1@Z
?SetXMLFromResource@DUIXmlParser@DirectUI@@QAAJPBG0PAUHINSTANCE__@@1@Z
?SetXMLFromResource@DUIXmlParser@DirectUI@@QAAJPBGPAUHINSTANCE__@@1@Z
?SetXMLFromResourceWithTheme@DUIXmlParser@DirectUI@@QAAJIPAUHINSTANCE__@@00@Z
?SetXOffset@BaseScrollViewer@DirectUI@@QAAJH@Z
?SetXOffset@Viewer@DirectUI@@QAAJH@Z
?SetXScrollable@BaseScrollViewer@DirectUI@@QAAJ_N@Z
?SetXScrollable@Viewer@DirectUI@@QAAJ_N@Z
?SetY@Element@DirectUI@@QAAJH@Z
?SetYBarVisibility@BaseScrollViewer@DirectUI@@QAAJH@Z
?SetYOffset@BaseScrollViewer@DirectUI@@QAAJH@Z
?SetYOffset@Viewer@DirectUI@@QAAJH@Z
?SetYScrollable@BaseScrollViewer@DirectUI@@QAAJ_N@Z
?SetYScrollable@Viewer@DirectUI@@QAAJ_N@Z
?SetZoomMaximum@TouchScrollViewer@DirectUI@@QAAJM@Z
?SetZoomMinimum@TouchScrollViewer@DirectUI@@QAAJM@Z
?ShadowIntensityProp@Element@DirectUI@@SAPBUPropertyInfo@2@XZ
?SheetProp@Element@DirectUI@@SAPBUPropertyInfo@2@XZ
?ShiftChild@Element@DirectUI@@QAAJII@Z
?ShortcutProp@Element@DirectUI@@SAPBUPropertyInfo@2@XZ
?ShouldUsePerMonitorScaling@TouchHWNDElement@DirectUI@@QAA_NXZ
?ShowAccel@HWNDElement@DirectUI@@QAA_NXZ
?ShowClearButtonMinWidthProp@TouchEdit2@DirectUI@@SAPBUPropertyInfo@2@XZ
?ShowFocus@HWNDElement@DirectUI@@QAA_NXZ
?ShowKeyFocusProp@TouchButton@DirectUI@@SAPBUPropertyInfo@2@XZ
?ShowRichTooltip@TouchHWNDElement@DirectUI@@QAAJW4TOUCHTOOLTIP_INPUT@@W4TOUCHTOOLTIP_OPTION_FLAGS@@PAVElement@2@@Z
?ShowTickProp@TouchSlider@DirectUI@@SAPBUPropertyInfo@2@XZ
?ShowTooltipOnRightForLTRBuild@TouchSlider@DirectUI@@QAAXXZ
?ShowUIState@HWNDElement@DirectUI@@QAAX_N0@Z
?ShowWindow@NativeHWNDHost@DirectUI@@QAAXH@Z
?ShowWindow@XHost@DirectUI@@QAAXH@Z
?SideGraphicProp@TextGraphic@DirectUI@@SAPBUPropertyInfo@2@XZ
?SizeInLayoutProp@Element@DirectUI@@SAPBUPropertyInfo@2@XZ
?SizeZero@FlowLayout@DirectUI@@KA?AUtagSIZE@@XZ
?SizeZero@VerticalFlowLayout@DirectUI@@KA?AUtagSIZE@@XZ
?Skip@DuiAccessible@DirectUI@@UAAJK@Z
?Skip@HWNDHostAccessible@DirectUI@@UAAJK@Z
?SliderControlType@Schema@DirectUI@@2HA DATA
?SliderUpdated@TouchSlider@DirectUI@@SA?AVUID@@XZ
?SmoothingModeProp@Movie@DirectUI@@SAPBUPropertyInfo@2@XZ
?SnapIntervalXProp@TouchScrollViewer@DirectUI@@SAPBUPropertyInfo@2@XZ
?SnapIntervalYProp@TouchScrollViewer@DirectUI@@SAPBUPropertyInfo@2@XZ
?SnapModeProp@TouchScrollViewer@DirectUI@@SAPBUPropertyInfo@2@XZ
?SnapOffsetXProp@TouchScrollViewer@DirectUI@@SAPBUPropertyInfo@2@XZ
?SnapOffsetYProp@TouchScrollViewer@DirectUI@@SAPBUPropertyInfo@2@XZ
?SnapPointCollectionXProp@TouchScrollViewer@DirectUI@@SAPBUPropertyInfo@2@XZ
?SnapPointCollectionYProp@TouchScrollViewer@DirectUI@@SAPBUPropertyInfo@2@XZ
?SnapshotTransformElement@TouchScrollViewer@DirectUI@@SA?AVUID@@XZ
?SortChildren@Element@DirectUI@@QAAJP6AHPBX0@Z@Z
?SpinnerControlType@Schema@DirectUI@@2HA DATA
?SplitButtonControlType@Schema@DirectUI@@2HA DATA
?Start@AnimationStrip@DirectUI@@AAAJXZ
?StartDefer@Element@DirectUI@@QAAXPAK@Z
?StartNavigate@Browser@DirectUI@@SA?AVUID@@XZ
?StartRichTooltipTimer@TouchHWNDElement@DirectUI@@QAAJW4TOUCHTOOLTIP_INPUT@@@Z
?StateProp@ModernProgressBar@DirectUI@@SAPBUPropertyInfo@2@XZ
?StaticWndProc@HWNDElement@DirectUI@@SAJPAUHWND__@@IIJ@Z
?StaticXHostSubclassProc@TaskPage@DirectUI@@CAJPAUHWND__@@IIJ@Z
?StaticXmlParserError@TaskPage@DirectUI@@CAXPBG0HPAX@Z
?StatusBarControlType@Schema@DirectUI@@2HA DATA
?Stop@AnimationStrip@DirectUI@@AAAXXZ
?Stop@CCAVI@DirectUI@@QAAXXZ
?StopAnimation@Element@DirectUI@@QAAXI@Z
?StopUsingCache@RichText@DirectUI@@QAAXXZ
?StrDupW@Value@DirectUI@@CAJPBGPAPAG@Z
?StructureChangedEvent@Schema@DirectUI@@2HA DATA
?SubContentProp@TouchCommandButton@DirectUI@@SAPBUPropertyInfo@2@XZ
?SuppressClearButtonProp@TouchEdit2@DirectUI@@SAPBUPropertyInfo@2@XZ
?SupressRightButtonDrag@Thumb@DirectUI@@QAAX_N@Z
?SyncBackground@HWNDHost@DirectUI@@IAAXXZ
?SyncCallback@Proxy@DirectUI@@SAJPAUHGADGET__@@PAXPAUEventMsg@@@Z
?SyncColorsAndFonts@HWNDHost@DirectUI@@AAAXXZ
?SyncContentWhileIMEComposingProp@TouchEditBase@DirectUI@@SAPBUPropertyInfo@2@XZ
?SyncDestroyWindow@NativeHWNDHost@DirectUI@@QAAXXZ
?SyncDirection@HWNDHost@DirectUI@@IAAXXZ
?SyncElementAlphaFromForegroundAlpha@DirectUI@@YAXPAVElement@1@@Z
?SyncFont@HWNDHost@DirectUI@@IAAXXZ
?SyncForeground@HWNDHost@DirectUI@@IAAXXZ
?SyncNoteAndGlyph@CCCommandLink@DirectUI@@IAAXPAUHWND__@@@Z
?SyncParent@HWNDHost@DirectUI@@IAAXXZ
?SyncRect@HWNDHost@DirectUI@@IAAXI_N@Z
?SyncScrollBar@CCBaseScrollBar@DirectUI@@QAAXXZ
?SyncStyle@HWNDHost@DirectUI@@IAAXXZ
?SyncText@HWNDHost@DirectUI@@IAAXXZ
?SyncVisible@HWNDHost@DirectUI@@IAAXXZ
?SystemAlertEvent@Schema@DirectUI@@2HA DATA
?TabControlType@Schema@DirectUI@@2HA DATA
?TabItemControlType@Schema@DirectUI@@2HA DATA
?TableControlType@Schema@DirectUI@@2HA DATA
?TableItemPattern@Schema@DirectUI@@2HA DATA
?TableItem_ColumnHeaderItems_Property@Schema@DirectUI@@2HA DATA
?TableItem_RowHeaderItems_Property@Schema@DirectUI@@2HA DATA
?TablePattern@Schema@DirectUI@@2HA DATA
?Table_ColumnHeaders_Property@Schema@DirectUI@@2HA DATA
?Table_RowHeaders_Property@Schema@DirectUI@@2HA DATA
?Table_RowOrColumnMajor_Property@Schema@DirectUI@@2HA DATA
?TargetPageProp@Navigator@DirectUI@@SAPBUPropertyInfo@2@XZ
?TelemetrySetDescription@TouchScrollViewer@DirectUI@@QAAJPBG@Z
?TestDeferObject@Element@DirectUI@@QAAPAVDeferCycle@2@XZ
?TextContentOverrideProp@TouchSelectItem@DirectUI@@SAPBUPropertyInfo@2@XZ
?TextControlType@Schema@DirectUI@@2HA DATA
?TextGlowSizeProp@Element@DirectUI@@SAPBUPropertyInfo@2@XZ
?TextModeProp@TouchEditBase@DirectUI@@SAPBUPropertyInfo@2@XZ
?TextPattern@Schema@DirectUI@@2HA DATA
?TextTextSelectionChangedEvent@Schema@DirectUI@@2HA DATA
?TextTooltipShowing@TouchHWNDElement@DirectUI@@SA?AVUID@@XZ
?ThemeChange@HWNDElement@DirectUI@@SA?AVUID@@XZ
?ThemeChangedProp@HWNDHost@DirectUI@@SAPBUPropertyInfo@2@XZ
?ThemedBorderProp@Edit@DirectUI@@SAPBUPropertyInfo@2@XZ
?ThumbControlType@Schema@DirectUI@@2HA DATA
?ThumbPositionProp@CCTrackBar@DirectUI@@SAPBUPropertyInfo@2@XZ
?ThumbPositionProp@TouchSlider@DirectUI@@SAPBUPropertyInfo@2@XZ
?TickCountProp@TouchSlider@DirectUI@@SAPBUPropertyInfo@2@XZ
?TitleBarControlType@Schema@DirectUI@@2HA DATA
?TitleTextProp@TouchSwitch@DirectUI@@SAPBUPropertyInfo@2@XZ
?ToString@Value@DirectUI@@QBAPAGPAGI@Z
?Toggle@AutoButton@DirectUI@@SA?AVUID@@XZ
?Toggle@SemanticZoomToggle@DirectUI@@SA?AVUID@@XZ
?Toggle@ToggleProvider@DirectUI@@UAAJXZ
?ToggleOnClickProp@TouchCheckBox@DirectUI@@SAPBUPropertyInfo@2@XZ
?TogglePattern@Schema@DirectUI@@2HA DATA
?ToggleUIState@HWNDElement@DirectUI@@QAAX_N0@Z
?Toggle_ToggleState_Property@Schema@DirectUI@@2HA DATA
?ToolBarControlType@Schema@DirectUI@@2HA DATA
?ToolTipClosedEvent@Schema@DirectUI@@2HA DATA
?ToolTipControlType@Schema@DirectUI@@2HA DATA
?ToolTipOpenedEvent@Schema@DirectUI@@2HA DATA
?TooltipMaxWidthProp@Element@DirectUI@@SAPBUPropertyInfo@2@XZ
?TooltipMaximumLineCountProp@TouchHWNDElement@DirectUI@@SAPBUPropertyInfo@2@XZ
?TooltipProp@Element@DirectUI@@SAPBUPropertyInfo@2@XZ
?TooltipTimerStarting@TouchHWNDElement@DirectUI@@SA?AVUID@@XZ
?TossElement@ElementProvider@DirectUI@@UAAXXZ
?TossPatternProvider@ElementProvider@DirectUI@@QAAXW4Pattern@Schema@2@@Z
?TrackScore@NavScoring@DirectUI@@QAAHPAVElement@2@0@Z
?TrackingProp@CCBaseScrollBar@DirectUI@@SAPBUPropertyInfo@2@XZ
?TransformPattern@Schema@DirectUI@@2HA DATA
?TranslateThumbPositionToThumbValue@TouchSlider@DirectUI@@QAAHH@Z
?TransparentProp@HWNDHost@DirectUI@@SAPBUPropertyInfo@2@XZ
?TreatRightMouseButtonAsLeftProp@TouchButton@DirectUI@@SAPBUPropertyInfo@2@XZ
?TreeControlType@Schema@DirectUI@@2HA DATA
?TreeItemControlType@Schema@DirectUI@@2HA DATA
?TriggeredAnimationComplete@PVLAnimation@DirectUI@@SA?AVUID@@XZ
?Try@NavScoring@DirectUI@@QAAHPAVElement@2@HPBUNavReference@2@K@Z
?TryLinePattern@Element@DirectUI@@AAA_NPAUtagPOINT@@ABUtagRECT@@@Z
?TryPattern@Element@DirectUI@@AAA_NNNPAUtagPOINT@@ABUtagRECT@@@Z
?TrySparsePattern@Element@DirectUI@@AAA_NPAUtagPOINT@@ABUtagRECT@@@Z
?TypographyProp@RichText@DirectUI@@SAPBUPropertyInfo@2@XZ
?TypographyRunsProp@RichText@DirectUI@@SAPBUPropertyInfo@2@XZ
?UiaEvents@Element@DirectUI@@QAA_NXZ
?UiaHostProviderFromHwnd@Schema@DirectUI@@2P6AJPAUHWND__@@PAPAUIRawElementProviderSimple@@@ZA DATA
?UiaLookupId@Schema@DirectUI@@2P6AHW4AutomationIdentifierType@@PBU_GUID@@@ZA DATA
?UiaRaiseAutomationEvent@Schema@DirectUI@@2P6AJPAUIRawElementProviderSimple@@H@ZA DATA
?UiaRaiseAutomationPropertyChangedEvent@Schema@DirectUI@@2P6AJPAUIRawElementProviderSimple@@HUtagVARIANT@@1@ZA DATA
?UiaRaiseStructureChangedEvent@Schema@DirectUI@@2P6AJPAUIRawElementProviderSimple@@W4StructureChangeType@@PAHH@ZA DATA
?UiaReturnRawElementProvider@Schema@DirectUI@@2P6AJPAUHWND__@@IJPAUIRawElementProviderSimple@@@ZA DATA
?UnRegister@Element@DirectUI@@SAJPAPAUIClassInfo@2@@Z
?UnhandledSyschar@XElement@DirectUI@@SA?AVUID@@XZ
?Uninit@CallstackTracker@DirectUI@@SAXXZ
?Uninit@InvokeHelper@DirectUI@@QAAXXZ
?UninitProcess@FontCache@DirectUI@@SAXXZ
?UninitThread@FontCache@DirectUI@@SAXXZ
?UnloadCommonControlExports@AnimationStrip@DirectUI@@AAAXXZ
?Unlock@CritSecLock@DirectUI@@QAAXXZ
?UnregisterForAnimationStatusChanges@TouchHWNDElement@DirectUI@@QAAXXZ
?UnregisterForIHMChanges@TouchHWNDElement@DirectUI@@QAAXXZ
?UnregisterForMonitorPowerChanges@TouchHWNDElement@DirectUI@@QAAJXZ
?UnvirtualizePosition@HWNDHost@DirectUI@@AAAXXZ
?UpdateChildFocus@DialogElementCore@DirectUI@@QAAXPAVElement@2@0@Z
?UpdateChildren@Expando@DirectUI@@IAAXPAVValue@2@@Z
?UpdateContentSize@TouchScrollViewer@DirectUI@@SA?AVUID@@XZ
?UpdateDesiredSize@BorderLayout@DirectUI@@UAA?AUtagSIZE@@PAVElement@2@HHPAVSurface@2@@Z
?UpdateDesiredSize@FillLayout@DirectUI@@UAA?AUtagSIZE@@PAVElement@2@HHPAVSurface@2@@Z
?UpdateDesiredSize@FlowLayout@DirectUI@@UAA?AUtagSIZE@@PAVElement@2@HHPAVSurface@2@@Z
?UpdateDesiredSize@GridLayout@DirectUI@@UAA?AUtagSIZE@@PAVElement@2@HHPAVSurface@2@@Z
?UpdateDesiredSize@Layout@DirectUI@@UAA?AUtagSIZE@@PAVElement@2@HHPAVSurface@2@@Z
?UpdateDesiredSize@NineGridLayout@DirectUI@@UAA?AUtagSIZE@@PAVElement@2@HHPAVSurface@2@@Z
?UpdateDesiredSize@RowLayout@DirectUI@@UAA?AUtagSIZE@@PAVElement@2@HHPAVSurface@2@@Z
?UpdateDesiredSize@TableLayout@DirectUI@@UAA?AUtagSIZE@@PAVElement@2@HHPAVSurface@2@@Z
?UpdateDesiredSize@VerticalFlowLayout@DirectUI@@UAA?AUtagSIZE@@PAVElement@2@HHPAVSurface@2@@Z
?UpdateElement@TouchSelect@DirectUI@@QAAJHPAVElement@2@PBG@Z
?UpdateLayout@Element@DirectUI@@QAAXXZ
?UpdateLayoutRect@Layout@DirectUI@@SAXPAVElement@2@HH0HHHH@Z
?UpdateSheets@DUIXmlParser@DirectUI@@QAAJPAVElement@2@@Z
?UpdateString@TouchSelect@DirectUI@@QAAJHPBG@Z
?UpdateStyleSheets@HWNDElement@DirectUI@@IAAXXZ
?UpdateToggleState@SemanticZoomToggle@DirectUI@@QAAXW4SemanticZoomToggleState@@_N@Z
?UpdateTooltip@Element@DirectUI@@MAAXPAV12@@Z
?UpdateTooltip@HWNDElement@DirectUI@@UAAXPAVElement@2@@Z
?UpdateTooltip@TouchHWNDElement@DirectUI@@UAAXPAVElement@2@@Z
?UpdateView@TouchScrollViewer@DirectUI@@SA?AVUID@@XZ
?UseFixedTooltipOffset@TouchSlider@DirectUI@@QAAXXZ
?UsePerMonitorScaling@TouchHWNDElement@DirectUI@@QAAXPAUHMONITOR__@@@Z
?UserTextChanged@TouchEditBase@DirectUI@@SA?AVUID@@XZ
?UserTextUpdateNoChange@TouchEditBase@DirectUI@@SA?AVUID@@XZ
?ValuePattern@Schema@DirectUI@@2HA DATA
?Value_IsReadOnly_Property@Schema@DirectUI@@2HA DATA
?Value_Value_Property@Schema@DirectUI@@2HA DATA
?VerifyParentage@HWNDHost@DirectUI@@IAAHXZ
?VerticalProp@ScrollBar@DirectUI@@SAPBUPropertyInfo@2@XZ
?VerticalScriptProp@RichText@DirectUI@@SAPBUPropertyInfo@2@XZ
?VirtualizedItemPattern@Schema@DirectUI@@2HA DATA
?VisibleProp@Element@DirectUI@@SAPBUPropertyInfo@2@XZ
?VisitedProp@TouchHyperLink@DirectUI@@SAPBUPropertyInfo@2@XZ
?VisualStateProp@TouchSlider@DirectUI@@SAPBUPropertyInfo@2@XZ
?WantEvent@EventManager@DirectUI@@CA_NW4Event@Schema@2@H@Z
?WantEvent@EventManager@DirectUI@@SA_NW4Event@Schema@2@@Z
?WantPropertyEvent@EventManager@DirectUI@@SA_NH@Z
?WantTabsProp@Edit@DirectUI@@SAPBUPropertyInfo@2@XZ
?WidthProp@Element@DirectUI@@SAPBUPropertyInfo@2@XZ
?WinStyleProp@CCBase@DirectUI@@SAPBUPropertyInfo@2@XZ
?WindowAccessGradientColorProp@TouchHWNDElement@DirectUI@@SAPBUPropertyInfo@2@XZ
?WindowActiveProp@Element@DirectUI@@SAPBUPropertyInfo@2@XZ
?WindowControlType@Schema@DirectUI@@2HA DATA
?WindowPattern@Schema@DirectUI@@2HA DATA
?WindowWindowClosedEvent@Schema@DirectUI@@2HA DATA
?WindowWindowOpenedEvent@Schema@DirectUI@@2HA DATA
?WndProc@HWNDElement@DirectUI@@UAAJPAUHWND__@@IIJ@Z
?WndProc@NativeHWNDHost@DirectUI@@SAJPAUHWND__@@IIJ@Z
?WndProc@TouchHWNDElement@DirectUI@@UAAJPAUHWND__@@IIJ@Z
?WndProc@XHost@DirectUI@@SAJPAUHWND__@@IIJ@Z
?WrapKeyboardNavigateProp@HWNDElement@DirectUI@@SAPBUPropertyInfo@2@XZ
?XBarVisibilityProp@BaseScrollViewer@DirectUI@@SAPBUPropertyInfo@2@XZ
?XOffsetProp@BaseScrollViewer@DirectUI@@SAPBUPropertyInfo@2@XZ
?XOffsetProp@Viewer@DirectUI@@SAPBUPropertyInfo@2@XZ
?XProp@Element@DirectUI@@SAPBUPropertyInfo@2@XZ
?XScrollableProp@BaseScrollViewer@DirectUI@@SAPBUPropertyInfo@2@XZ
?XScrollableProp@Viewer@DirectUI@@SAPBUPropertyInfo@2@XZ
?YBarVisibilityProp@BaseScrollViewer@DirectUI@@SAPBUPropertyInfo@2@XZ
?YOffsetProp@BaseScrollViewer@DirectUI@@SAPBUPropertyInfo@2@XZ
?YOffsetProp@Viewer@DirectUI@@SAPBUPropertyInfo@2@XZ
?YProp@Element@DirectUI@@SAPBUPropertyInfo@2@XZ
?YScrollableProp@BaseScrollViewer@DirectUI@@SAPBUPropertyInfo@2@XZ
?YScrollableProp@Viewer@DirectUI@@SAPBUPropertyInfo@2@XZ
?ZoomToRect@TouchScrollViewer@DirectUI@@QAAJPBUtagRECT@@_N@Z
?ZoomToRectManualVisualSwap@TouchScrollViewer@DirectUI@@QAAJMMMMPBHMMM_N@Z
?_AddDependency@Element@DirectUI@@SAXPAV12@PBUPropertyInfo@2@HPAUDepRecs@2@PAVDeferCycle@2@PAJ@Z
?_BitAccurateFillRect@Macro@DirectUI@@KAXPAUHDC__@@HHHHEEEEK@Z
?_BroadcastEventWorker@Element@DirectUI@@AAAXPAUEvent@2@@Z
?_BuildChildren@DUIXmlParser@DirectUI@@IAAJPAUIXmlReader@@PAVElement@2@@Z
?_BuildElement@DUIXmlParser@DirectUI@@IAAJPAUIXmlReader@@PAVElement@2@PAPAV42@@Z
?_BuildFromBinary@DUIXmlParser@DirectUI@@IAAJPAVElement@2@0PBGPAKPAPAV32@@Z
?_BuildStyles@DUIXmlParser@DirectUI@@IAAJPAUIXmlReader@@@Z
?_CachedValueIsEqual@Element@DirectUI@@AAAHPBUPropertyInfo@2@PAV12@@Z
?_CalcTabOrder@ShellBorderLayout@DirectUI@@AAAJPAVElement@2@@Z
?_ClearNeedsLayout@Element@DirectUI@@QAAXXZ
?_ClearTooltipState@TouchHWNDElement@DirectUI@@IAAXXZ
?_CreateAndSetLayout@DirectUI@@YAJPAVElement@1@P6AJHPAHPAPAVValue@1@@ZH1@Z
?_CreateValue@DUIXmlParser@DirectUI@@IAAJPBGPBUPropertyInfo@2@PAPAVValue@2@@Z
?_CtrlWndProc@HWNDHost@DirectUI@@CAHPAXPAUHWND__@@IIJPAJ@Z
?_DeleteCtrlWnd@HWNDHost@DirectUI@@AAAXXZ
?_DestroyTables@DUIXmlParser@DirectUI@@QAAXXZ
?_DestroyTooltip@TouchHWNDElement@DirectUI@@IAAXXZ
?_DisplayNodeCallback@Element@DirectUI@@SAJPAUHGADGET__@@PAXPAUEventMsg@@@Z
?_EndOptimizedLayoutQ@Element@DirectUI@@QAAXXZ
?_EnterOnCurrentThread@DUIXmlParser@DirectUI@@IAAJXZ
?_Fill@Element@DirectUI@@IAAXPAUHDC__@@KHHHH_N@Z
?_FlushDS@Element@DirectUI@@AAAXPAVDeferCycle@2@@Z
?_FlushLayout@Element@DirectUI@@KAXPAV12@PAVDeferCycle@2@@Z
?_GetBitmapSize@Macro@DirectUI@@KA_NPAUHBITMAP__@@PAUtagSIZE@@@Z
?_GetBuriedSheetDependencies@Element@DirectUI@@AAAXPBUPropertyInfo@2@PAV12@PAUDepRecs@2@PAVDeferCycle@2@PAJ@Z
?_GetChangesUpdatePass@Element@DirectUI@@QAAHXZ
?_GetClassForElement@DUIXmlParser@DirectUI@@IAAJPAUIXmlReader@@PAPAUIClassInfo@2@@Z
?_GetClassForElementByName@DUIXmlParser@DirectUI@@IAAJPBGPAPAUIClassInfo@2@@Z
?_GetComputedValue@Element@DirectUI@@AAAPAVValue@2@PBUPropertyInfo@2@PAUUpdateCache@2@@Z
?_GetContent@Viewer@DirectUI@@AAAPAVElement@2@XZ
?_GetDependencies@Element@DirectUI@@AAAJPBUPropertyInfo@2@HPAUDepRecs@2@HPAVValue@2@PAVDeferCycle@2@@Z
?_GetLineInfo@DUIXmlParser@DirectUI@@IAA?AULINEINFO@2@PAUIXmlReader@@@Z
?_GetLocalValue@Element@DirectUI@@AAAPAVValue@2@PBUPropertyInfo@2@@Z
?_GetLocalValueFromVM@Element@DirectUI@@AAAPAVValue@2@PBUPropertyInfo@2@@Z
?_GetNeedsLayout@Element@DirectUI@@QAAIXZ
?_GetPropertyForAttribute@DUIXmlParser@DirectUI@@IAAJPAUIXmlReader@@PAUIClassInfo@2@PAPBUPropertyInfo@2@@Z
?_GetSpecifiedValue@Element@DirectUI@@AAAPAVValue@2@PBUPropertyInfo@2@PAUUpdateCache@2@@Z
?_GetSpecifiedValueIgnoreCache@Element@DirectUI@@AAAPAVValue@2@PBUPropertyInfo@2@@Z
?_GetValueForStyleSheet@DUIXmlParser@DirectUI@@IAAJPAUIClassInfo@2@PBG1PAPBUPropertyInfo@2@PAPAVValue@2@@Z
?_HandleImmersiveColorSchemeChange@HWNDElement@DirectUI@@IAAXXZ
?_InheritProperties@Element@DirectUI@@AAAXXZ
?_InitializeTables@DUIXmlParser@DirectUI@@QAAJXZ
?_InternalEnsureVisible@Viewer@DirectUI@@AAA_NHHHH@Z
?_InvalidateCachedDSConstraints@Element@DirectUI@@KAXPAV12@@Z
?_IsSemanticZoomControl@ElementProxy@DirectUI@@AAA_NH@Z
?_IsWindowHostUsingDoNotStealFocusFlag@ElementProxy@DirectUI@@AAA_NXZ
?_LeaveOnCurrentThread@DUIXmlParser@DirectUI@@IAAXXZ
?_LoadImage32BitsPerPixel@Macro@DirectUI@@KAPAVValue@2@PBG@Z
?_MarkElementForDS@Element@DirectUI@@SAHPAV12@@Z
?_MarkElementForLayout@Element@DirectUI@@SAHPAV12@I@Z
?_OnFontPropChanged@Element@DirectUI@@IAAXPAVValue@2@@Z
?_OnGetInfoTip@CCTreeView@DirectUI@@MAAJPBUtagNMTVGETINFOTIPW@@@Z
?_OnItemChanged@CCTreeView@DirectUI@@MAAJPBUtagTVITEMCHANGE@@@Z
?_OnUIStateChanged@HWNDElement@DirectUI@@MAAXGG@Z
?_OnUIStateChanged@TouchHWNDElement@DirectUI@@MAAXGG@Z
?_ParseBehavior@DUIXmlParser@DirectUI@@IAAJPAVElement@2@PBG@Z
?_ParseLayout@DUIXmlParser@DirectUI@@IAAJPBGPAPAVValue@2@@Z
?_ParseValue@DUIXmlParser@DirectUI@@IAAJPBUPropertyInfo@2@PBGPAPAVValue@2@@Z
?_PostEvent@Element@DirectUI@@AAAXPAUEvent@2@H@Z
?_PostSourceChange@Element@DirectUI@@AAAJXZ
?_PreSourceChange@Element@DirectUI@@AAAJP6APBUPropertyInfo@2@XZHPAVValue@2@1@Z
?_PreSourceChange@Element@DirectUI@@AAAJPBUPropertyInfo@2@HPAVValue@2@1@Z
?_RecordElementBehaviors@DUIXmlParser@DirectUI@@IAAJPAUIXmlReader@@PBG@Z
?_RecordElementLayout@DUIXmlParser@DirectUI@@IAAJPAUIXmlReader@@PBG@Z
?_RecordElementStyleSheet@DUIXmlParser@DirectUI@@IAAJPBG_N@Z
?_RecordElementTrees@DUIXmlParser@DirectUI@@IAAJPAUIXmlReader@@@Z
?_RecordElementWithChildren@DUIXmlParser@DirectUI@@IAAJPAUIXmlReader@@_NPAPAG@Z
?_RecordInstantiateElement@DUIXmlParser@DirectUI@@IAAJPAUIXmlReader@@PAPAG@Z
?_RecordSetElementProperties@DUIXmlParser@DirectUI@@IAAJPAUIXmlReader@@@Z
?_RecordSetValue@DUIXmlParser@DirectUI@@IAAJPAUIXmlReader@@PBG1@Z
?_RemoveLocalValue@Element@DirectUI@@IAAJP6APBUPropertyInfo@2@XZ_N@Z
?_RemoveLocalValue@Element@DirectUI@@IAAJPBUPropertyInfo@2@_N@Z
?_RepeatButtonActionCallback@RepeatButton@DirectUI@@CAXPAUGMA_ACTIONINFO@@@Z
?_Reset@ShellBorderLayout@DirectUI@@AAAXXZ
?_ResolveStyleSheet@DUIXmlParser@DirectUI@@IAAJPBGPAPAVValue@2@PAI@Z
?_ScalePointsToPixels@DUIXmlParser@DirectUI@@ABAHH@Z
?_ScalePointsToPixels@DUIXmlParser@DirectUI@@ABAMM@Z
?_ScaleRelativePixels@DUIXmlParser@DirectUI@@ABAHH@Z
?_ScaleRelativePixels@DUIXmlParser@DirectUI@@ABAMM@Z
?_SelfLayoutDoLayout@Clipper@DirectUI@@UAAXHH@Z
?_SelfLayoutDoLayout@Element@DirectUI@@MAAXHH@Z
?_SelfLayoutDoLayout@ScrollBar@DirectUI@@UAAXHH@Z
?_SelfLayoutDoLayout@TouchScrollBar@DirectUI@@UAAXHH@Z
?_SelfLayoutDoLayout@Viewer@DirectUI@@UAAXHH@Z
?_SelfLayoutUpdateDesiredSize@Clipper@DirectUI@@UAA?AUtagSIZE@@HHPAVSurface@2@@Z
?_SelfLayoutUpdateDesiredSize@Element@DirectUI@@MAA?AUtagSIZE@@HHPAVSurface@2@@Z
?_SelfLayoutUpdateDesiredSize@ScrollBar@DirectUI@@UAA?AUtagSIZE@@HHPAVSurface@2@@Z
?_SelfLayoutUpdateDesiredSize@TouchScrollBar@DirectUI@@UAA?AUtagSIZE@@HHPAVSurface@2@@Z
?_SelfLayoutUpdateDesiredSize@Viewer@DirectUI@@UAA?AUtagSIZE@@HHPAVSurface@2@@Z
?_SetBinaryXml@DUIXmlParser@DirectUI@@IAAJPBEIPAUHINSTANCE__@@@Z
?_SetGroupChanges@Element@DirectUI@@SA_NPAV12@HPAVDeferCycle@2@@Z
?_SetNeedsLayout@Element@DirectUI@@QAAHI@Z
?_SetProperties@DUIXmlParser@DirectUI@@IAAJPAUIXmlReader@@PAUIClassInfo@2@PAVElement@2@@Z
?_SetValue@Element@DirectUI@@IAAJP6APBUPropertyInfo@2@XZHPAVValue@2@_N@Z
?_SetValue@Element@DirectUI@@IAAJPBUPropertyInfo@2@HPAVValue@2@_N@Z
?_SetXMLFromResource@DUIXmlParser@DirectUI@@IAAJPBG0PAUHINSTANCE__@@11@Z
?_SetupParserState@DUIXmlParser@DirectUI@@IAAJPAUHINSTANCE__@@0@Z
?_SinkWndProc@HWNDHost@DirectUI@@CAHPAXPAUHWND__@@IIJPAJ@Z
?_StartOptimizedLayoutQ@Element@DirectUI@@QAAXXZ
?_SyncBackground@Element@DirectUI@@AAAXXZ
?_SyncRedrawStyle@Element@DirectUI@@AAAXXZ
?_SyncVisible@Element@DirectUI@@AAAXXZ
?_TransferGroupFlags@Element@DirectUI@@SAXPAV12@H@Z
?_UpdateDesiredSize@Element@DirectUI@@QAA?AUtagSIZE@@HHPAVSurface@2@@Z
?_UpdateLayoutPosition@Element@DirectUI@@QAAXHH@Z
?_UpdateLayoutSize@Element@DirectUI@@QAAXHH@Z
?_UpdatePropertyInCache@Element@DirectUI@@AAAXPBUPropertyInfo@2@@Z
?_UpdateTileList@NineGridLayout@DirectUI@@AAAXHPAVElement@2@@Z
?_UsesUIAProxies@ElementProxy@DirectUI@@IAAHXZ
?_VoidPCNotifyTree@Element@DirectUI@@CAXHPAVDeferCycle@2@@Z
?_WndProc@InvokeHelper@DirectUI@@CAHPAXPAUHWND__@@IIJPAJ@Z
?_ZeroRelease@Value@DirectUI@@AAAXXZ
?_atmArrow@Expando@DirectUI@@0GA DATA
?_atmClipper@Expando@DirectUI@@0GA DATA
?_roleMapping@Schema@DirectUI@@0QBURoleMap@12@B
?accDoDefaultAction@DuiAccessible@DirectUI@@UAAJUtagVARIANT@@@Z
?accDoDefaultAction@HWNDHostAccessible@DirectUI@@UAAJUtagVARIANT@@@Z
?accHitTest@DuiAccessible@DirectUI@@UAAJJJPAUtagVARIANT@@@Z
?accHitTest@HWNDHostAccessible@DirectUI@@UAAJJJPAUtagVARIANT@@@Z
?accLocation@DuiAccessible@DirectUI@@UAAJPAJ000UtagVARIANT@@@Z
?accLocation@HWNDHostAccessible@DirectUI@@UAAJPAJ000UtagVARIANT@@@Z
?accNavigate@DuiAccessible@DirectUI@@UAAJJUtagVARIANT@@PAU3@@Z
?accNavigate@HWNDHostAccessible@DirectUI@@UAAJJUtagVARIANT@@PAU3@@Z
?accNavigate@HWNDHostClientAccessible@DirectUI@@UAAJJUtagVARIANT@@PAU3@@Z
?accSelect@DuiAccessible@DirectUI@@UAAJJUtagVARIANT@@@Z
?accSelect@HWNDHostAccessible@DirectUI@@UAAJJUtagVARIANT@@@Z
?advanceFrameActionStart@Movie@DirectUI@@AAAXXZ
?advanceFrameActionStop@Movie@DirectUI@@AAAXXZ
?cChangeBulk@EventManager@DirectUI@@0HB
?c_RefCountBitOffset@Value@DirectUI@@0HB
?c_RefCountMask@Value@DirectUI@@0JB
?c_SingleRefCount@Value@DirectUI@@0JB
?c_rgar@AccessibleButton@DirectUI@@0QBUACCESSIBLEROLE@12@B
?doAction@Movie@DirectUI@@QAAXPAUGMA_ACTIONINFO@@@Z
?g_cRefCount@ResourceModuleHandles@DirectUI@@0JC DATA
?g_controlInfoTable@Schema@DirectUI@@0QBUControlInfo@12@B DATA
?g_cs@ElementProviderManager@DirectUI@@2U_RTL_CRITICAL_SECTION@@A DATA
?g_cs@EventManager@DirectUI@@0U_RTL_CRITICAL_SECTION@@A DATA
?g_cs@InvokeManager@DirectUI@@0U_RTL_CRITICAL_SECTION@@A DATA
?g_dwElSlot@DirectUI@@3KA DATA
?g_eventInfoTable@Schema@DirectUI@@0QBUEventInfo@12@B DATA
?g_eventMapping@Schema@DirectUI@@0QBUEventMap@12@B DATA
?g_eventRegisteredMap@EventManager@DirectUI@@0PAIA DATA
?g_fInited@Schema@DirectUI@@0_NA DATA
?g_fWantAnyEvent@EventManager@DirectUI@@0_NA DATA
?g_pArrayInvokeHelper@InvokeManager@DirectUI@@0PAV?$UiaArray@PAVInvokeHelper@DirectUI@@@2@A DATA
?g_pArrayPprv@ElementProviderManager@DirectUI@@0PAV?$UiaArray@PAVElementProvider@DirectUI@@@2@A DATA
?g_pArrayPropertyEvent@EventManager@DirectUI@@0PAV?$UiaArray@H@2@A DATA
?g_patternInfoTable@Schema@DirectUI@@0QBUPatternInfo@12@B DATA
?g_patternMapping@Schema@DirectUI@@0QBUPatternMap@12@B DATA
?g_propertyInfoTable@Schema@DirectUI@@0QBUPropertyInfo@12@B DATA
?g_rgMouseMap@HWNDHost@DirectUI@@0QAY02$$CBIA
?get_BoundingRectangle@ElementProvider@DirectUI@@UAAJPAUUiaRect@@@Z
?get_CanSelectMultiple@SelectionProvider@DirectUI@@UAAJPAH@Z
?get_Column@GridItemProvider@DirectUI@@UAAJPAH@Z
?get_ColumnCount@GridProvider@DirectUI@@UAAJPAH@Z
?get_ColumnSpan@GridItemProvider@DirectUI@@UAAJPAH@Z
?get_ContainingGrid@GridItemProvider@DirectUI@@UAAJPAPAUIRawElementProviderSimple@@@Z
?get_ExpandCollapseState@ExpandCollapseProvider@DirectUI@@UAAJPAW4ExpandCollapseState@@@Z
?get_FragmentRoot@ElementProvider@DirectUI@@UAAJPAPAUIRawElementProviderFragmentRoot@@@Z
?get_HorizontalScrollPercent@ScrollProvider@DirectUI@@UAAJPAN@Z
?get_HorizontalViewSize@ScrollProvider@DirectUI@@UAAJPAN@Z
?get_HorizontallyScrollable@ScrollProvider@DirectUI@@UAAJPAH@Z
?get_HostRawElementProvider@ElementProvider@DirectUI@@UAAJPAPAUIRawElementProviderSimple@@@Z
?get_IsReadOnly@RangeValueProvider@DirectUI@@UAAJPAH@Z
?get_IsReadOnly@ValueProvider@DirectUI@@UAAJPAH@Z
?get_IsSelected@SelectionItemProvider@DirectUI@@UAAJPAH@Z
?get_IsSelectionRequired@SelectionProvider@DirectUI@@UAAJPAH@Z
?get_LargeChange@RangeValueProvider@DirectUI@@UAAJPAN@Z
?get_Maximum@RangeValueProvider@DirectUI@@UAAJPAN@Z
?get_Minimum@RangeValueProvider@DirectUI@@UAAJPAN@Z
?get_ProviderOptions@ElementProvider@DirectUI@@UAAJPAW4ProviderOptions@@@Z
?get_Row@GridItemProvider@DirectUI@@UAAJPAH@Z
?get_RowCount@GridProvider@DirectUI@@UAAJPAH@Z
?get_RowOrColumnMajor@TableProvider@DirectUI@@UAAJPAW4RowOrColumnMajor@@@Z
?get_RowSpan@GridItemProvider@DirectUI@@UAAJPAH@Z
?get_SelectionContainer@SelectionItemProvider@DirectUI@@UAAJPAPAUIRawElementProviderSimple@@@Z
?get_SmallChange@RangeValueProvider@DirectUI@@UAAJPAN@Z
?get_ToggleState@ToggleProvider@DirectUI@@UAAJPAW4ToggleState@@@Z
?get_Value@RangeValueProvider@DirectUI@@UAAJPAN@Z
?get_Value@ValueProvider@DirectUI@@UAAJPAPAG@Z
?get_VerticalScrollPercent@ScrollProvider@DirectUI@@UAAJPAN@Z
?get_VerticalViewSize@ScrollProvider@DirectUI@@UAAJPAN@Z
?get_VerticallyScrollable@ScrollProvider@DirectUI@@UAAJPAH@Z
?get_accChild@DuiAccessible@DirectUI@@UAAJUtagVARIANT@@PAPAUIDispatch@@@Z
?get_accChild@HWNDHostAccessible@DirectUI@@UAAJUtagVARIANT@@PAPAUIDispatch@@@Z
?get_accChildCount@DuiAccessible@DirectUI@@UAAJPAJ@Z
?get_accChildCount@HWNDHostAccessible@DirectUI@@UAAJPAJ@Z
?get_accDefaultAction@DuiAccessible@DirectUI@@UAAJUtagVARIANT@@PAPAG@Z
?get_accDefaultAction@HWNDHostAccessible@DirectUI@@UAAJUtagVARIANT@@PAPAG@Z
?get_accDescription@DuiAccessible@DirectUI@@UAAJUtagVARIANT@@PAPAG@Z
?get_accDescription@HWNDHostAccessible@DirectUI@@UAAJUtagVARIANT@@PAPAG@Z
?get_accFocus@DuiAccessible@DirectUI@@UAAJPAUtagVARIANT@@@Z
?get_accFocus@HWNDHostAccessible@DirectUI@@UAAJPAUtagVARIANT@@@Z
?get_accHelp@DuiAccessible@DirectUI@@UAAJUtagVARIANT@@PAPAG@Z
?get_accHelp@HWNDHostAccessible@DirectUI@@UAAJUtagVARIANT@@PAPAG@Z
?get_accHelpTopic@DuiAccessible@DirectUI@@UAAJPAPAGUtagVARIANT@@PAJ@Z
?get_accHelpTopic@HWNDHostAccessible@DirectUI@@UAAJPAPAGUtagVARIANT@@PAJ@Z
?get_accKeyboardShortcut@DuiAccessible@DirectUI@@UAAJUtagVARIANT@@PAPAG@Z
?get_accKeyboardShortcut@HWNDHostAccessible@DirectUI@@UAAJUtagVARIANT@@PAPAG@Z
?get_accName@DuiAccessible@DirectUI@@UAAJUtagVARIANT@@PAPAG@Z
?get_accName@HWNDHostAccessible@DirectUI@@UAAJUtagVARIANT@@PAPAG@Z
?get_accParent@DuiAccessible@DirectUI@@UAAJPAPAUIDispatch@@@Z
?get_accParent@HWNDElementAccessible@DirectUI@@UAAJPAPAUIDispatch@@@Z
?get_accParent@HWNDHostAccessible@DirectUI@@UAAJPAPAUIDispatch@@@Z
?get_accParent@HWNDHostClientAccessible@DirectUI@@UAAJPAPAUIDispatch@@@Z
?get_accRole@DuiAccessible@DirectUI@@UAAJUtagVARIANT@@PAU3@@Z
?get_accRole@HWNDHostAccessible@DirectUI@@UAAJUtagVARIANT@@PAU3@@Z
?get_accRole@HWNDHostClientAccessible@DirectUI@@UAAJUtagVARIANT@@PAU3@@Z
?get_accSelection@DuiAccessible@DirectUI@@UAAJPAUtagVARIANT@@@Z
?get_accSelection@HWNDHostAccessible@DirectUI@@UAAJPAUtagVARIANT@@@Z
?get_accState@DuiAccessible@DirectUI@@UAAJUtagVARIANT@@PAU3@@Z
?get_accState@HWNDHostAccessible@DirectUI@@UAAJUtagVARIANT@@PAU3@@Z
?get_accValue@DuiAccessible@DirectUI@@UAAJUtagVARIANT@@PAPAG@Z
?get_accValue@HWNDHostAccessible@DirectUI@@UAAJUtagVARIANT@@PAPAG@Z
?put_accName@DuiAccessible@DirectUI@@UAAJUtagVARIANT@@PAG@Z
?put_accName@HWNDHostAccessible@DirectUI@@UAAJUtagVARIANT@@PAG@Z
?put_accValue@DuiAccessible@DirectUI@@UAAJUtagVARIANT@@PAG@Z
?put_accValue@HWNDHostAccessible@DirectUI@@UAAJUtagVARIANT@@PAG@Z
?s_HandleDUIEventMessage@Element@DirectUI@@CA_NPAV12@PAUEventMsg@@@Z
?s_ImageHlpFuncList@CallstackTracker@DirectUI@@0PAUIMGHLPFN_LOAD@12@A DATA
?s_SyncCallback@CSafeElementProxy@@SAJPAUHGADGET__@@PAXPAUEventMsg@@@Z
?s_XMLParseError@DUIFactory@DirectUI@@CAXPBG0HPAX@Z
?s_fdClr@DUIXmlParser@DirectUI@@1QBU?$FunctionDefinition@K@12@B DATA
?s_fdFill@DUIXmlParser@DirectUI@@1QBU?$FunctionDefinition@PAVValue@DirectUI@@@12@B DATA
?s_fdGraphic@DUIXmlParser@DirectUI@@1QBU?$FunctionDefinition@PAVValue@DirectUI@@@12@B DATA
?s_fdInt@DUIXmlParser@DirectUI@@1QBU?$FunctionDefinition@H@12@B DATA
?s_fdRect@DUIXmlParser@DirectUI@@1QBU?$FunctionDefinition@UScaledRECT@DirectUI@@@12@B DATA
?s_fdString@DUIXmlParser@DirectUI@@1QBU?$FunctionDefinition@PAVValue@DirectUI@@@12@B DATA
?s_hProcess@CallstackTracker@DirectUI@@0PAXA DATA
?s_hinstImageHlp@CallstackTracker@DirectUI@@0PAUHINSTANCE__@@A DATA
?s_hinstNtDll@CallstackTracker@DirectUI@@0PAUHINSTANCE__@@A DATA
?s_initonceInit@CallstackTracker@DirectUI@@0T_RTL_RUN_ONCE@@A DATA
?s_pClassInfo@AccessibleButton@DirectUI@@0PAUIClassInfo@2@A DATA
?s_pClassInfo@AnimationStrip@DirectUI@@0PAUIClassInfo@2@A DATA
?s_pClassInfo@AutoButton@DirectUI@@0PAUIClassInfo@2@A DATA
?s_pClassInfo@BaseScrollViewer@DirectUI@@0PAUIClassInfo@2@A DATA
?s_pClassInfo@Bind@DirectUI@@0PAUIClassInfo@2@A DATA
?s_pClassInfo@Browser@DirectUI@@0PAUIClassInfo@2@A DATA
?s_pClassInfo@Button@DirectUI@@0PAUIClassInfo@2@A DATA
?s_pClassInfo@CCAVI@DirectUI@@0PAUIClassInfo@2@A DATA
?s_pClassInfo@CCBase@DirectUI@@0PAUIClassInfo@2@A DATA
?s_pClassInfo@CCBaseCheckRadioButton@DirectUI@@0PAUIClassInfo@2@A DATA
?s_pClassInfo@CCBaseScrollBar@DirectUI@@0PAUIClassInfo@2@A DATA
?s_pClassInfo@CCCheckBox@DirectUI@@0PAUIClassInfo@2@A DATA
?s_pClassInfo@CCCommandLink@DirectUI@@0PAUIClassInfo@2@A DATA
?s_pClassInfo@CCHScrollBar@DirectUI@@0PAUIClassInfo@2@A DATA
?s_pClassInfo@CCListBox@DirectUI@@0PAUIClassInfo@2@A DATA
?s_pClassInfo@CCListView@DirectUI@@0PAUIClassInfo@2@A DATA
?s_pClassInfo@CCProgressBar@DirectUI@@0PAUIClassInfo@2@A DATA
?s_pClassInfo@CCPushButton@DirectUI@@0PAUIClassInfo@2@A DATA
?s_pClassInfo@CCRadioButton@DirectUI@@0PAUIClassInfo@2@A DATA
?s_pClassInfo@CCSysLink@DirectUI@@0PAUIClassInfo@2@A DATA
?s_pClassInfo@CCTrackBar@DirectUI@@0PAUIClassInfo@2@A DATA
?s_pClassInfo@CCTreeView@DirectUI@@0PAUIClassInfo@2@A DATA
?s_pClassInfo@CCVScrollBar@DirectUI@@0PAUIClassInfo@2@A DATA
?s_pClassInfo@CheckBoxGlyph@DirectUI@@0PAUIClassInfo@2@A DATA
?s_pClassInfo@Clipper@DirectUI@@0PAUIClassInfo@2@A DATA
?s_pClassInfo@Combobox@DirectUI@@0PAUIClassInfo@2@A DATA
?s_pClassInfo@DialogElement@DirectUI@@0PAUIClassInfo@2@A DATA
?s_pClassInfo@Edit@DirectUI@@0PAUIClassInfo@2@A DATA
?s_pClassInfo@Element@DirectUI@@0PAUIClassInfo@2@A DATA
?s_pClassInfo@ElementWithHWND@DirectUI@@0PAUIClassInfo@2@A DATA
?s_pClassInfo@Expandable@DirectUI@@0PAUIClassInfo@2@A DATA
?s_pClassInfo@Expando@DirectUI@@0PAUIClassInfo@2@A DATA
?s_pClassInfo@ExpandoButtonGlyph@DirectUI@@0PAUIClassInfo@2@A DATA
?s_pClassInfo@HWNDElement@DirectUI@@0PAUIClassInfo@2@A DATA
?s_pClassInfo@HWNDHost@DirectUI@@0PAUIClassInfo@2@A DATA
?s_pClassInfo@Macro@DirectUI@@0PAUIClassInfo@2@A DATA
?s_pClassInfo@Movie@DirectUI@@0PAUIClassInfo@2@A DATA
?s_pClassInfo@Navigator@DirectUI@@0PAUIClassInfo@2@A DATA
?s_pClassInfo@PText@DirectUI@@0PAUIClassInfo@2@A DATA
?s_pClassInfo@Page@DirectUI@@0PAUIClassInfo@2@A DATA
?s_pClassInfo@Pages@DirectUI@@0PAUIClassInfo@2@A DATA
?s_pClassInfo@Progress@DirectUI@@0PAUIClassInfo@2@A DATA
?s_pClassInfo@PushButton@DirectUI@@0PAUIClassInfo@2@A DATA
?s_pClassInfo@RadioButtonGlyph@DirectUI@@0PAUIClassInfo@2@A DATA
?s_pClassInfo@RefPointElement@DirectUI@@0PAUIClassInfo@2@A DATA
?s_pClassInfo@RepeatButton@DirectUI@@0PAUIClassInfo@2@A DATA
?s_pClassInfo@Repeater@DirectUI@@0PAUIClassInfo@2@A DATA
?s_pClassInfo@ScrollBar@DirectUI@@0PAUIClassInfo@2@A DATA
?s_pClassInfo@ScrollViewer@DirectUI@@0PAUIClassInfo@2@A DATA
?s_pClassInfo@Selector@DirectUI@@0PAUIClassInfo@2@A DATA
?s_pClassInfo@SelectorNoDefault@DirectUI@@0PAUIClassInfo@2@A DATA
?s_pClassInfo@StyledScrollViewer@DirectUI@@0PAUIClassInfo@2@A DATA
?s_pClassInfo@TextGraphic@DirectUI@@0PAUIClassInfo@2@A DATA
?s_pClassInfo@Thumb@DirectUI@@0PAUIClassInfo@2@A DATA
?s_pClassInfo@UnknownElement@DirectUI@@0PAUIClassInfo@2@A DATA
?s_pClassInfo@Viewer@DirectUI@@0PAUIClassInfo@2@A DATA
?s_pClassInfo@XBaby@DirectUI@@0PAUIClassInfo@2@A DATA
?s_pClassInfo@XElement@DirectUI@@0PAUIClassInfo@2@A DATA
?s_pfnImagehlpApiVersionEx@CallstackTracker@DirectUI@@0P6APAUAPI_VERSION@@PAU3@@ZA DATA
?s_pfnRtlCaptureStackBackTrace@CallstackTracker@DirectUI@@0P6AGKKPAPAXPAK@ZA DATA
?s_pfnSymFromAddr@CallstackTracker@DirectUI@@0P6AHPAX_KPA_KPAU_SYMBOL_INFO@@@ZA DATA
?s_pfnSymGetModuleInfo64@CallstackTracker@DirectUI@@0P6AHPAX_KPAU_IMAGEHLP_MODULE64@@@ZA DATA
?s_pfnSymInitialize@CallstackTracker@DirectUI@@0P6AHPAXPBDH@ZA DATA
?s_pfnSymLoadModule64@CallstackTracker@DirectUI@@0P6A_KPAX0PBD1_KK@ZA DATA
?s_pfnSymSetOptions@CallstackTracker@DirectUI@@0P6AKK@ZA DATA
?s_uButtonFocusChangeMsg@XElement@DirectUI@@2IB DATA
?s_uInvokeHelperMsg@InvokeHelper@DirectUI@@0IB DATA
?s_uNavigateOutMsg@XElement@DirectUI@@2IB DATA
?s_uUnhandledSyscharMsg@XElement@DirectUI@@2IB DATA
ARGBColorFromEnumI
BlurBitmap
BrushFromEnumI
ColorFromEnumI
CreateDUIWrapper
CreateDUIWrapperEx
CreateDUIWrapperFromResource
CreateTouchTooltip
DUIDrawShadowText
DisableAnimations
DisableInitCallstackTracking
DrawShadowTextEx
ElementFromGadget
EnableAnimations
FlushThemeHandles
ForceDebugBreak
GetElementDataEntry
GetElementMacro
GetFontCache
GetScaleFactor
GetThemeHandle
HStrDup
HrSysAllocString
InitPreprocessor
InitProcessPriv
InitThread
IsAnimationsEnabled
IsPalette
IsUIAutomationProviderEnabled
MultiByteToUnicode
NotifyAccessibilityEvent
PreprocessBuffer
ProcessAlphaBitmapI
PurgeThemeHandles
RegisterAllControls
RegisterBaseControls
RegisterBrowserControls
RegisterCommonControls
RegisterExtendedControls
RegisterMacroControls
RegisterMiscControls
RegisterPVLBehaviorFactory
RegisterStandardControls
RegisterXControls
SetDefAction
SkipDLLUnloadInitChecks
StartMessagePump
StopMessagePump
StrToID
UiaHideOnGetObject
UiaOnDestroySink
UiaOnGetObject
UiaOnToolTip
UnInitProcessPriv
UnInitThread
UnicodeToMultiByte
