;
; Definition file of framedyn.dll
; Automatic generated by gendef
; written by Kai Tietz 2008-2014
;
LIBRARY "framedyn.dll"
EXPORTS
??0CAutoEvent@@QAA@XZ
??0CFrameworkQuery@@QAA@ABV0@@Z
??0CFrameworkQuery@@QAA@XZ
??0CFrameworkQueryEx@@QAA@ABV0@@Z
??0CFrameworkQueryEx@@QAA@XZ
??0CHPtrArray@@QAA@XZ
??0CHString@@QAA@ABV0@@Z
??0CHString@@QAA@GH@Z
??0CHString@@QAA@PBD@Z
??0CHString@@QAA@PBE@Z
??0CHString@@QAA@PBG@Z
??0CHString@@QAA@PBGH@Z
??0CHString@@QAA@XZ
??0CHStringArray@@QAA@XZ
??0CInstance@@QAA@ABV0@@Z
??0CInstance@@QAA@PAUIWbemClassObject@@PAVMethodContext@@@Z
??0CObjectPathParser@@QAA@W4ObjectParserFlags@@@Z
??0CRegistry@@QAA@ABV0@@Z
??0CRegistry@@QAA@XZ
??0CRegistrySearch@@QAA@ABV0@@Z
??0CRegistrySearch@@QAA@XZ
??0CThreadBase@@QAA@ABV0@@Z
??0CThreadBase@@QAA@W4THREAD_SAFETY_MECHANISM@0@@Z
??0CWbemGlueFactory@@QAA@ABV0@@Z
??0CWbemGlueFactory@@QAA@PAJ@Z
??0CWbemGlueFactory@@QAA@XZ
??0CWbemProviderGlue@@QAA@ABV0@@Z
??0CWbemProviderGlue@@QAA@PAJ@Z
??0CWbemProviderGlue@@QAA@XZ
??0CWinMsgEvent@@QAA@ABV0@@Z
??0CWinMsgEvent@@QAA@XZ
??0CreateMutexAsProcess@@QAA@PBG@Z
??0KeyRef@@QAA@PBGPBUtagVARIANT@@@Z
??0KeyRef@@QAA@XZ
??0MethodContext@@QAA@ABV0@@Z
??0MethodContext@@QAA@PAUIWbemContext@@PAVCWbemProviderGlue@@@Z
??0ParsedObjectPath@@QAA@XZ
??0Provider@@QAA@ABV0@@Z
??0Provider@@QAA@PBG0@Z
??0ProviderLog@@QAA@ABV0@@Z
??0ProviderLog@@QAA@XZ
??0WBEMTime@@QAA@ABJ@Z
??0WBEMTime@@QAA@ABU_FILETIME@@@Z
??0WBEMTime@@QAA@ABU_SYSTEMTIME@@@Z
??0WBEMTime@@QAA@ABUtm@@@Z
??0WBEMTime@@QAA@QAG@Z
??0WBEMTime@@QAA@XZ
??0WBEMTimeSpan@@QAA@ABJ@Z
??0WBEMTimeSpan@@QAA@ABU_FILETIME@@@Z
??0WBEMTimeSpan@@QAA@HHHHHHH@Z
??0WBEMTimeSpan@@QAA@QAG@Z
??0WBEMTimeSpan@@QAA@XZ
??0_Lockit@std@@QAA@XZ
??1CAutoEvent@@QAA@XZ
??1CFrameworkQuery@@QAA@XZ
??1CFrameworkQueryEx@@QAA@XZ
??1CHPtrArray@@QAA@XZ
??1CHString@@QAA@XZ
??1CHStringArray@@QAA@XZ
??1CInstance@@UAA@XZ
??1CObjectPathParser@@QAA@XZ
??1CRegistry@@QAA@XZ
??1CRegistrySearch@@QAA@XZ
??1CThreadBase@@UAA@XZ
??1CWbemGlueFactory@@QAA@XZ
??1CWbemProviderGlue@@QAA@XZ
??1CWinMsgEvent@@QAA@XZ
??1CreateMutexAsProcess@@QAA@XZ
??1KeyRef@@QAA@XZ
??1MethodContext@@UAA@XZ
??1ParsedObjectPath@@QAA@XZ
??1Provider@@UAA@XZ
??1ProviderLog@@UAA@XZ
??1_Lockit@std@@QAA@XZ
??4CAutoEvent@@QAAAAV0@ABV0@@Z
??4CFrameworkQuery@@QAAAAV0@ABV0@@Z
??4CFrameworkQueryEx@@QAAAAV0@ABV0@@Z
??4CHPtrArray@@QAAAAV0@ABV0@@Z
??4CHString@@QAAABV0@ABV0@@Z
??4CHString@@QAAABV0@D@Z
??4CHString@@QAAABV0@G@Z
??4CHString@@QAAABV0@PAV0@@Z
??4CHString@@QAAABV0@PBD@Z
??4CHString@@QAAABV0@PBE@Z
??4CHString@@QAAABV0@PBG@Z
??4CHStringArray@@QAAAAV0@ABV0@@Z
??4CInstance@@QAAAAV0@ABV0@@Z
??4CObjectPathParser@@QAAAAV0@ABV0@@Z
??4CRegistry@@QAAAAV0@ABV0@@Z
??4CRegistrySearch@@QAAAAV0@ABV0@@Z
??4CThreadBase@@QAAAAV0@ABV0@@Z
??4CWbemGlueFactory@@QAAAAV0@ABV0@@Z
??4CWbemProviderGlue@@QAAAAV0@ABV0@@Z
??4CWinMsgEvent@@QAAAAV0@ABV0@@Z
??4CreateMutexAsProcess@@QAAAAV0@ABV0@@Z
??4KeyRef@@QAAAAU0@ABU0@@Z
??4MethodContext@@QAAAAV0@ABV0@@Z
??4ParsedObjectPath@@QAAAAU0@ABU0@@Z
??4Provider@@QAAAAV0@ABV0@@Z
??4ProviderLog@@QAAAAV0@ABV0@@Z
??4WBEMTime@@QAAAAV0@ABV0@@Z
??4WBEMTime@@QAAABV0@ABJ@Z
??4WBEMTime@@QAAABV0@ABU_FILETIME@@@Z
??4WBEMTime@@QAAABV0@ABU_SYSTEMTIME@@@Z
??4WBEMTime@@QAAABV0@ABUtm@@@Z
??4WBEMTime@@QAAABV0@QAG@Z
??4WBEMTimeSpan@@QAAAAV0@ABV0@@Z
??4WBEMTimeSpan@@QAAABV0@ABJ@Z
??4WBEMTimeSpan@@QAAABV0@ABU_FILETIME@@@Z
??4WBEMTimeSpan@@QAAABV0@QAG@Z
??8WBEMTime@@QBAHABV0@@Z
??8WBEMTimeSpan@@QBAHABV0@@Z
??9WBEMTime@@QBAHABV0@@Z
??9WBEMTimeSpan@@QBAHABV0@@Z
??ACHPtrArray@@QAAAAPAXH@Z
??ACHPtrArray@@QBAPAXH@Z
??ACHString@@QBAGH@Z
??ACHStringArray@@QAAAAVCHString@@H@Z
??ACHStringArray@@QBA?AVCHString@@H@Z
??BCHString@@QBAPBGXZ
??GWBEMTime@@QAA?AVWBEMTimeSpan@@ABV0@@Z
??GWBEMTime@@QBA?AV0@ABVWBEMTimeSpan@@@Z
??GWBEMTimeSpan@@QBA?AV0@ABV0@@Z
??H@YA?AVCHString@@ABV0@0@Z
??H@YA?AVCHString@@ABV0@G@Z
??H@YA?AVCHString@@ABV0@PBG@Z
??H@YA?AVCHString@@GABV0@@Z
??H@YA?AVCHString@@PBGABV0@@Z
??HWBEMTime@@QBA?AV0@ABVWBEMTimeSpan@@@Z
??HWBEMTimeSpan@@QBA?AV0@ABV0@@Z
??MWBEMTime@@QBAHABV0@@Z
??MWBEMTimeSpan@@QBAHABV0@@Z
??NWBEMTime@@QBAHABV0@@Z
??NWBEMTimeSpan@@QBAHABV0@@Z
??OWBEMTime@@QBAHABV0@@Z
??OWBEMTimeSpan@@QBAHABV0@@Z
??PWBEMTime@@QBAHABV0@@Z
??PWBEMTimeSpan@@QBAHABV0@@Z
??YCHString@@QAAABV0@ABV0@@Z
??YCHString@@QAAABV0@D@Z
??YCHString@@QAAABV0@G@Z
??YCHString@@QAAABV0@PBG@Z
??YWBEMTime@@QAAABV0@ABVWBEMTimeSpan@@@Z
??YWBEMTimeSpan@@QAAABV0@ABV0@@Z
??ZWBEMTime@@QAAABV0@ABVWBEMTimeSpan@@@Z
??ZWBEMTimeSpan@@QAAABV0@ABV0@@Z
??_7CFrameworkQueryEx@@6B@ DATA
??_7CInstance@@6B@ DATA
??_7CThreadBase@@6B@ DATA
??_7CWbemGlueFactory@@6B@ DATA
??_7CWbemProviderGlue@@6BIWbemProviderInit@@@ DATA
??_7CWbemProviderGlue@@6BIWbemServices@@@ DATA
??_7CWinMsgEvent@@6B@ DATA
??_7MethodContext@@6B@ DATA
??_7Provider@@6B@ DATA
??_7ProviderLog@@6B@ DATA
??_FCObjectPathParser@@QAAXXZ
??_FCThreadBase@@QAAXXZ
?Add@CHPtrArray@@QAAHPAX@Z
?Add@CHStringArray@@QAAHPBG@Z
?AddFlushPtr@CWbemProviderGlue@@AAAXPAX@Z
?AddKeyRef@ParsedObjectPath@@QAAHPAUKeyRef@@@Z
?AddKeyRef@ParsedObjectPath@@QAAHPBGPBUtagVARIANT@@@Z
?AddKeyRefEx@ParsedObjectPath@@QAAHPBGPBUtagVARIANT@@@Z
?AddNamespace@ParsedObjectPath@@QAAHPBG@Z
?AddProviderToMap@CWbemProviderGlue@@CAPAVProvider@@PBG0PAV2@@Z
?AddRef@CInstance@@QAAJXZ
?AddRef@CThreadBase@@QAAJXZ
?AddRef@CWbemGlueFactory@@UAAKXZ
?AddRef@CWbemProviderGlue@@UAAKXZ
?AddRef@MethodContext@@QAAJXZ
?AddToFactoryMap@CWbemProviderGlue@@KAXPBVCWbemGlueFactory@@PAJ@Z
?AllPropertiesAreRequired@CFrameworkQuery@@QAA_NXZ
?AllocBeforeWrite@CHString@@IAAXH@Z
?AllocBuffer@CHString@@IAAXH@Z
?AllocCopy@CHString@@IBAXAAV1@HHH@Z
?AllocSysString@CHString@@QBAPAGXZ
?Append@CHPtrArray@@QAAHABV1@@Z
?Append@CHStringArray@@QAAHABV1@@Z
?AssignCopy@CHString@@IAAXHPBG@Z
?BeginRead@CThreadBase@@QAAHK@Z
?BeginWrite@CThreadBase@@QAAHK@Z
?CancelAsyncCall@CWbemProviderGlue@@UAAJPAUIWbemObjectSink@@@Z
?CancelAsyncRequest@CWbemProviderGlue@@UAAJJ@Z
?CheckAndAddToList@CRegistrySearch@@AAAXPAVCRegistry@@VCHString@@1AAVCHPtrArray@@11H@Z
?CheckFileSize@ProviderLog@@AAAXAAT_LARGE_INTEGER@@ABVCHString@@@Z
?CheckImpersonationLevel@CWbemProviderGlue@@CAJXZ
?Clear@WBEMTime@@QAAXXZ
?Clear@WBEMTimeSpan@@QAAXXZ
?ClearKeys@ParsedObjectPath@@QAAXXZ
?Close@CRegistry@@QAAXXZ
?CloseSubKey@CRegistry@@AAAXXZ
?Collate@CHString@@QBAHPBG@Z
?Commit@CInstance@@QAAJXZ
?Commit@Provider@@IAAJPAVCInstance@@_N@Z
?Compare@CHString@@QBAHPBG@Z
?CompareNoCase@CHString@@QBAHPBG@Z
?ConcatCopy@CHString@@IAAXHPBGH0@Z
?ConcatInPlace@CHString@@IAAXHPBG@Z
?Copy@CHPtrArray@@QAAXABV1@@Z
?Copy@CHStringArray@@QAAXABV1@@Z
?CopyBeforeWrite@CHString@@IAAXXZ
?Create@CWbemGlueFactory@@SAPAV1@PAJ@Z
?Create@CWbemGlueFactory@@SAPAV1@XZ
?CreateClassEnum@CWbemProviderGlue@@UAAJQAGJPAUIWbemContext@@PAPAUIEnumWbemClassObject@@@Z
?CreateClassEnumAsync@CWbemProviderGlue@@UAAJQAGJPAUIWbemContext@@PAUIWbemObjectSink@@@Z
?CreateInstance@CWbemGlueFactory@@UAAJPAUIUnknown@@ABU_GUID@@PAPAX@Z
?CreateInstanceEnum@CWbemProviderGlue@@UAAJQAGJPAUIWbemContext@@PAPAUIEnumWbemClassObject@@@Z
?CreateInstanceEnum@Provider@@AAAJPAVMethodContext@@J@Z
?CreateInstanceEnumAsync@CWbemProviderGlue@@UAAJQAGJPAUIWbemContext@@PAUIWbemObjectSink@@@Z
?CreateMsgProvider@CWinMsgEvent@@CAXXZ
?CreateMsgWindow@CWinMsgEvent@@CAPAUHWND__@@XZ
?CreateNewInstance@Provider@@IAAPAVCInstance@@PAVMethodContext@@@Z
?CreateOpen@CRegistry@@QAAJPAUHKEY__@@PBGPAGKKPAU_SECURITY_ATTRIBUTES@@PAK@Z
?CtrlHandlerRoutine@CWinMsgEvent@@CAHK@Z
?DecrementMapCount@CWbemProviderGlue@@KAJPAJ@Z
?DecrementMapCount@CWbemProviderGlue@@KAJPBVCWbemGlueFactory@@@Z
?DecrementObjectCount@CWbemProviderGlue@@SAJXZ
?DeleteClass@CWbemProviderGlue@@UAAJQAGJPAUIWbemContext@@PAPAUIWbemCallResult@@@Z
?DeleteClassAsync@CWbemProviderGlue@@UAAJQAGJPAUIWbemContext@@PAUIWbemObjectSink@@@Z
?DeleteCurrentKeyValue@CRegistry@@QAAKPAUHKEY__@@PBG@Z
?DeleteCurrentKeyValue@CRegistry@@QAAKPBG@Z
?DeleteInstance@CWbemProviderGlue@@UAAJQAGJPAUIWbemContext@@PAPAUIWbemCallResult@@@Z
?DeleteInstance@Provider@@AAAJPAUParsedObjectPath@@JPAVMethodContext@@@Z
?DeleteInstance@Provider@@MAAJABVCInstance@@J@Z
?DeleteInstanceAsync@CWbemProviderGlue@@UAAJQAGJPAUIWbemContext@@PAUIWbemObjectSink@@@Z
?DeleteKey@CRegistry@@QAAJPAVCHString@@@Z
?DeleteValue@CRegistry@@QAAJPBG@Z
?Destroy@CWbemGlueFactory@@QAAXXZ
?DestroyMsgWindow@CWinMsgEvent@@CAXXZ
?ElementAt@CHPtrArray@@QAAAAPAXH@Z
?ElementAt@CHStringArray@@QAAAAVCHString@@H@Z
?Empty@CHString@@QAAXXZ
?Empty@CObjectPathParser@@AAAXXZ
?EndRead@CThreadBase@@QAAXXZ
?EndWrite@CThreadBase@@QAAXXZ
?EnumerateAndGetValues@CRegistry@@QAAJAAKAAPAGAAPAE@Z
?EnumerateInstances@Provider@@MAAJPAVMethodContext@@J@Z
?ExecMethod@CWbemProviderGlue@@UAAJQAG0JPAUIWbemContext@@PAUIWbemClassObject@@PAPAU3@PAPAUIWbemCallResult@@@Z
?ExecMethod@Provider@@AAAJPAUParsedObjectPath@@PAGJPAVCInstance@@2PAVMethodContext@@@Z
?ExecMethod@Provider@@MAAJABVCInstance@@QAGPAV2@2J@Z
?ExecMethodAsync@CWbemProviderGlue@@UAAJQAG0JPAUIWbemContext@@PAUIWbemClassObject@@PAUIWbemObjectSink@@@Z
?ExecNotificationQuery@CWbemProviderGlue@@UAAJQAG0JPAUIWbemContext@@PAPAUIEnumWbemClassObject@@@Z
?ExecNotificationQueryAsync@CWbemProviderGlue@@UAAJQAG0JPAUIWbemContext@@PAUIWbemObjectSink@@@Z
?ExecQuery@CWbemProviderGlue@@UAAJQAG0JPAUIWbemContext@@PAPAUIEnumWbemClassObject@@@Z
?ExecQuery@Provider@@MAAJPAVMethodContext@@AAVCFrameworkQuery@@J@Z
?ExecQueryAsync@CWbemProviderGlue@@UAAJQAG0JPAUIWbemContext@@PAUIWbemObjectSink@@@Z
?ExecuteQuery@Provider@@AAAJPAVMethodContext@@AAVCFrameworkQuery@@J@Z
?FillInstance@CWbemProviderGlue@@SAJPAVCInstance@@PBG@Z
?FillInstance@CWbemProviderGlue@@SAJPAVMethodContext@@PAVCInstance@@@Z
?Find@CHString@@QBAHG@Z
?Find@CHString@@QBAHPBG@Z
?FindOneOf@CHString@@QBAHPBG@Z
?Flush@Provider@@MAAXXZ
?FlushAll@CWbemProviderGlue@@AAAXXZ
?Format@CHString@@QAAXIZZ
?Format@CHString@@QAAXPBGZZ
?FormatMessageW@CHString@@QAAXIZZ
?FormatMessageW@CHString@@QAAXPBGZZ
?FormatV@CHString@@QAAXPBGPAD@Z
?FrameworkLogin@CWbemProviderGlue@@SAXPBGPAVProvider@@0@Z
?FrameworkLoginDLL@CWbemProviderGlue@@SAHPBG@Z
?FrameworkLoginDLL@CWbemProviderGlue@@SAHPBGPAJ@Z
?FrameworkLogoff@CWbemProviderGlue@@SAXPBG0@Z
?FrameworkLogoffDLL@CWbemProviderGlue@@SAHPBG@Z
?FrameworkLogoffDLL@CWbemProviderGlue@@SAHPBGPAJ@Z
?Free@CObjectPathParser@@QAAXPAUParsedObjectPath@@@Z
?FreeExtra@CHPtrArray@@QAAXXZ
?FreeExtra@CHString@@QAAXXZ
?FreeExtra@CHStringArray@@QAAXXZ
?FreeSearchList@CRegistrySearch@@QAAHHAAVCHPtrArray@@@Z
?GetAllDerivedInstances@CWbemProviderGlue@@SAJPBGPAV?$TRefPointerCollection@VCInstance@@@@PAVMethodContext@@0@Z
?GetAllDerivedInstancesAsynch@CWbemProviderGlue@@SAJPBGPAVProvider@@P6AJ1PAVCInstance@@PAVMethodContext@@PAX@Z034@Z
?GetAllInstances@CWbemProviderGlue@@SAJPBGPAV?$TRefPointerCollection@VCInstance@@@@0PAVMethodContext@@@Z
?GetAllInstancesAsynch@CWbemProviderGlue@@SAJPBGPAVProvider@@P6AJ1PAVCInstance@@PAVMethodContext@@PAX@Z034@Z
?GetAllocLength@CHString@@QBAHXZ
?GetAt@CHPtrArray@@QBAPAXH@Z
?GetAt@CHString@@QBAGH@Z
?GetAt@CHStringArray@@QBA?AVCHString@@H@Z
?GetBSTR@WBEMTime@@QBAPAGXZ
?GetBSTR@WBEMTimeSpan@@QBAPAGXZ
?GetBuffer@CHString@@QAAPAGH@Z
?GetBufferSetLength@CHString@@QAAPAGH@Z
?GetByte@CInstance@@QBA_NPBGAAE@Z
?GetCHString@CInstance@@QBA_NPBGAAVCHString@@@Z
?GetCSDVersion@CWbemProviderGlue@@SAPBGXZ
?GetClassNameW@CRegistry@@QAAPAGXZ
?GetClassObjectInterface@CInstance@@QAAPAUIWbemClassObject@@XZ
?GetClassObjectInterface@Provider@@AAAPAUIWbemClassObject@@PAVMethodContext@@@Z
?GetComputerNameW@CWbemProviderGlue@@CAXAAVCHString@@@Z
?GetCurrentBinaryKeyValue@CRegistry@@QAAKPAUHKEY__@@PBGPAEPAK@Z
?GetCurrentBinaryKeyValue@CRegistry@@QAAKPBGAAVCHString@@@Z
?GetCurrentBinaryKeyValue@CRegistry@@QAAKPBGPAEPAK@Z
?GetCurrentKeyValue@CRegistry@@QAAKPAUHKEY__@@PBGAAK@Z
?GetCurrentKeyValue@CRegistry@@QAAKPAUHKEY__@@PBGAAVCHString@@@Z
?GetCurrentKeyValue@CRegistry@@QAAKPAUHKEY__@@PBGAAVCHStringArray@@@Z
?GetCurrentKeyValue@CRegistry@@QAAKPBGAAK@Z
?GetCurrentKeyValue@CRegistry@@QAAKPBGAAVCHString@@@Z
?GetCurrentKeyValue@CRegistry@@QAAKPBGAAVCHStringArray@@@Z
?GetCurrentRawKeyValue@CRegistry@@AAAKPAUHKEY__@@PBGPAXPAK3@Z
?GetCurrentRawSubKeyValue@CRegistry@@AAAKPBGPAXPAK2@Z
?GetCurrentSubKeyCount@CRegistry@@QAAKXZ
?GetCurrentSubKeyName@CRegistry@@QAAKAAVCHString@@@Z
?GetCurrentSubKeyPath@CRegistry@@QAAKAAVCHString@@@Z
?GetCurrentSubKeyValue@CRegistry@@QAAKPBGAAK@Z
?GetCurrentSubKeyValue@CRegistry@@QAAKPBGAAVCHString@@@Z
?GetCurrentSubKeyValue@CRegistry@@QAAKPBGPAXPAK@Z
?GetDMTF@WBEMTime@@QBAPAGH@Z
?GetDMTFNonNtfs@WBEMTime@@QBAPAGXZ
?GetDOUBLE@CInstance@@QBA_NPBGAAN@Z
?GetDWORD@CInstance@@QBA_NPBGAAK@Z
?GetData@CHPtrArray@@QAAPAPAXXZ
?GetData@CHPtrArray@@QBAPAPBXXZ
?GetData@CHString@@IBAPAUCHStringData@@XZ
?GetData@CHStringArray@@QAAPAVCHString@@XZ
?GetData@CHStringArray@@QBAPBVCHString@@XZ
?GetDateTime@CInstance@@QBA_NPBGAAVWBEMTime@@@Z
?GetEmbeddedObject@CInstance@@QBA_NPBGPAPAV1@PAVMethodContext@@@Z
?GetEmptyInstance@CWbemProviderGlue@@SAJPAVMethodContext@@PBGPAPAVCInstance@@1@Z
?GetEmptyInstance@CWbemProviderGlue@@SAJPBGPAPAVCInstance@@0@Z
?GetFILETIME@WBEMTime@@QBAHPAU_FILETIME@@@Z
?GetFILETIME@WBEMTimeSpan@@QBAHPAU_FILETIME@@@Z
?GetIWBEMContext@MethodContext@@UAAPAUIWbemContext@@XZ
?GetInstanceByPath@CWbemProviderGlue@@SAJPBGPAPAVCInstance@@PAVMethodContext@@@Z
?GetInstanceFromCIMOM@CWbemProviderGlue@@CAJPBG0PAVMethodContext@@PAPAVCInstance@@@Z
?GetInstanceKeysByPath@CWbemProviderGlue@@SAJPBGPAPAVCInstance@@PAVMethodContext@@@Z
?GetInstancePropertiesByPath@CWbemProviderGlue@@SAJPBGPAPAVCInstance@@PAVMethodContext@@AAVCHStringArray@@@Z
?GetInstancesByQuery@CWbemProviderGlue@@SAJPBGPAV?$TRefPointerCollection@VCInstance@@@@PAVMethodContext@@0@Z
?GetInstancesByQueryAsynch@CWbemProviderGlue@@SAJPBGPAVProvider@@P6AJ1PAVCInstance@@PAVMethodContext@@PAX@Z034@Z
?GetKeyString@ParsedObjectPath@@QAAPAGXZ
?GetLength@CHString@@QBAHXZ
?GetLocalComputerName@Provider@@IAAABVCHString@@XZ
?GetLocalInstancePath@Provider@@IAA_NPBVCInstance@@AAVCHString@@@Z
?GetLocalOffsetForDate@WBEMTime@@SAJABJ@Z
?GetLocalOffsetForDate@WBEMTime@@SAJPBU_FILETIME@@@Z
?GetLocalOffsetForDate@WBEMTime@@SAJPBU_SYSTEMTIME@@@Z
?GetLocalOffsetForDate@WBEMTime@@SAJPBUtm@@@Z
?GetLongestClassStringSize@CRegistry@@QAAKXZ
?GetLongestSubKeySize@CRegistry@@QAAKXZ
?GetLongestValueData@CRegistry@@QAAKXZ
?GetLongestValueName@CRegistry@@QAAKXZ
?GetMapCountPtr@CWbemProviderGlue@@KAPAJPBVCWbemGlueFactory@@@Z
?GetMethodContext@CInstance@@QBAPAVMethodContext@@XZ
?GetNamespace@CFrameworkQuery@@IAAABVCHString@@XZ
?GetNamespace@Provider@@IAAABVCHString@@XZ
?GetNamespaceConnection@CWbemProviderGlue@@SAPAUIWbemServices@@PBG@Z
?GetNamespaceConnection@CWbemProviderGlue@@SAPAUIWbemServices@@PBGPAVMethodContext@@@Z
?GetNamespacePart@ParsedObjectPath@@QAAPAGXZ
?GetOSMajorVersion@CWbemProviderGlue@@SAKXZ
?GetObject@CWbemProviderGlue@@UAAJQAGJPAUIWbemContext@@PAPAUIWbemClassObject@@PAPAUIWbemCallResult@@@Z
?GetObject@Provider@@AAAJPAUParsedObjectPath@@PAVMethodContext@@J@Z
?GetObject@Provider@@MAAJPAVCInstance@@J@Z
?GetObject@Provider@@MAAJPAVCInstance@@JAAVCFrameworkQuery@@@Z
?GetObjectAsync@CWbemProviderGlue@@UAAJQAGJPAUIWbemContext@@PAUIWbemObjectSink@@@Z
?GetParentNamespacePart@ParsedObjectPath@@QAAPAGXZ
?GetPlatform@CWbemProviderGlue@@SAKXZ
?GetPropertyBitMask@CFrameworkQueryEx@@QAAXABVCHPtrArray@@PAX@Z
?GetProviderGlue@MethodContext@@AAAPAVCWbemProviderGlue@@XZ
?GetProviderName@Provider@@IAAABVCHString@@XZ
?GetQuery@CFrameworkQuery@@QAAABVCHString@@XZ
?GetQueryClassName@CFrameworkQuery@@QAAPAGXZ
?GetRelativePath@CObjectPathParser@@SAPAGPAG@Z
?GetRequiredProperties@CFrameworkQuery@@QAAXAAVCHStringArray@@@Z
?GetSYSTEMTIME@WBEMTime@@QBAHPAU_SYSTEMTIME@@@Z
?GetSize@CHPtrArray@@QBAHXZ
?GetSize@CHStringArray@@QBAHXZ
?GetStatus@CInstance@@QBA_NPBGAA_NAAG@Z
?GetStatusObject@CWbemProviderGlue@@CAPAUIWbemClassObject@@PAVMethodContext@@PBG@Z
?GetStatusObject@MethodContext@@QAAPAUIWbemClassObject@@XZ
?GetStringArray@CInstance@@QBA_NPBGAAPAUtagSAFEARRAY@@@Z
?GetStructtm@WBEMTime@@QBAHPAUtm@@@Z
?GetTime@WBEMTime@@QBA_KXZ
?GetTime@WBEMTimeSpan@@QBA_KXZ
?GetTimeSpan@CInstance@@QBA_NPBGAAVWBEMTimeSpan@@@Z
?GetUpperBound@CHPtrArray@@QBAHXZ
?GetUpperBound@CHStringArray@@QBAHXZ
?GetValueCount@CRegistry@@QAAKXZ
?GetValuesForProp@CFrameworkQuery@@QAAJPBGAAV?$vector@V_bstr_t@@V?$allocator@V_bstr_t@@@std@@@std@@@Z
?GetValuesForProp@CFrameworkQuery@@QAAJPBGAAVCHStringArray@@@Z
?GetValuesForProp@CFrameworkQueryEx@@QAAJPBGAAV?$vector@HV?$allocator@H@std@@@std@@@Z
?GetValuesForProp@CFrameworkQueryEx@@QAAJPBGAAV?$vector@V_variant_t@@V?$allocator@V_variant_t@@@std@@@std@@@Z
?GetVariant@CInstance@@QBA_NPBGAAUtagVARIANT@@@Z
?GetWBEMINT16@CInstance@@QBA_NPBGAAF@Z
?GetWBEMINT64@CInstance@@QBA_NPBGAAVCHString@@@Z
?GetWBEMINT64@CInstance@@QBA_NPBGAA_J@Z
?GetWBEMINT64@CInstance@@QBA_NPBGAA_K@Z
?GetWCHAR@CInstance@@QBA_NPBGPAPAG@Z
?GetWORD@CInstance@@QBA_NPBGAAG@Z
?Getbool@CInstance@@QBA_NPBGAA_N@Z
?GethKey@CRegistry@@QAAPAUHKEY__@@XZ
?Gettime_t@WBEMTime@@QBAHPAJ@Z
?Gettime_t@WBEMTimeSpan@@QBAHPAJ@Z
?IncrementMapCount@CWbemProviderGlue@@KAJPAJ@Z
?IncrementMapCount@CWbemProviderGlue@@KAJPBVCWbemGlueFactory@@@Z
?IncrementObjectCount@CWbemProviderGlue@@SAXXZ
?Init2@CFrameworkQuery@@QAAXPAUIWbemClassObject@@@Z
?Init@CFrameworkQuery@@QAAJPAUParsedObjectPath@@PAUIWbemContext@@PBGAAVCHString@@@Z
?Init@CFrameworkQuery@@QAAJQAG0JAAVCHString@@@Z
?Init@CHString@@IAAXXZ
?Init@CWbemProviderGlue@@CAXXZ
?InitComputerName@Provider@@CAXXZ
?InitEx@CFrameworkQueryEx@@UAAJQAG0JAAVCHString@@@Z
?Initialize@CWbemProviderGlue@@UAAJPAGJ00PAUIWbemServices@@PAUIWbemContext@@PAUIWbemProviderInitSink@@@Z
?InsertAt@CHPtrArray@@QAAXHPAV1@@Z
?InsertAt@CHPtrArray@@QAAXHPAXH@Z
?InsertAt@CHStringArray@@QAAXHPAV1@@Z
?InsertAt@CHStringArray@@QAAXHPBGH@Z
?InternalGetNamespaceConnection@CWbemProviderGlue@@AAAPAUIWbemServices@@PBG@Z
?Is3TokenOR@CFrameworkQueryEx@@QAAHPBG0AAUtagVARIANT@@1@Z
?IsClass@ParsedObjectPath@@QAAHXZ
?IsDerivedFrom@CWbemProviderGlue@@SA_NPBG0PAVMethodContext@@0@Z
?IsEmpty@CHString@@QBAHXZ
?IsExtended@CFrameworkQueryEx@@UAA_NXZ
?IsInList@CFrameworkQuery@@IAAKABVCHStringArray@@PBG@Z
?IsInstance@ParsedObjectPath@@QAAHXZ
?IsLocal@ParsedObjectPath@@QAAHPBG@Z
?IsLoggingOn@ProviderLog@@QAA?AW4LogLevel@1@PAVCHString@@@Z
?IsNTokenAnd@CFrameworkQueryEx@@QAAHAAVCHStringArray@@AAVCHPtrArray@@@Z
?IsNull@CInstance@@QBA_NPBG@Z
?IsObject@ParsedObjectPath@@QAAHXZ
?IsOk@WBEMTime@@QBA_NXZ
?IsOk@WBEMTimeSpan@@QBA_NXZ
?IsPropertyRequired@CFrameworkQuery@@QAA_NPBG@Z
?IsReference@CFrameworkQuery@@IAAHPBG@Z
?IsRelative@ParsedObjectPath@@QAAHPBG0@Z
?KeysOnly@CFrameworkQuery@@QAA_NXZ
?Left@CHString@@QBA?AV1@H@Z
?LoadStringW@CHString@@IAAHIPAGI@Z
?LoadStringW@CHString@@QAAHI@Z
?LocalLogMessage@ProviderLog@@QAAXPBG0HW4LogLevel@1@@Z
?LocalLogMessage@ProviderLog@@QAAXPBGHW4LogLevel@1@0ZZ
?LocateKeyByNameOrValueName@CRegistrySearch@@QAAHPAUHKEY__@@PBG1PAPBGKAAVCHString@@3@Z
?Lock@CThreadBase@@AAAXXZ
?LockBuffer@CHString@@QAAPAGXZ
?LockFactoryMap@CWbemProviderGlue@@CAXXZ
?LockProviderMap@CWbemProviderGlue@@CAXXZ
?LockServer@CWbemGlueFactory@@UAAJH@Z
?LogError@CInstance@@IBAXPBG00J@Z
?MakeLocalPath@Provider@@IAA?AVCHString@@ABV2@@Z
?MakeLower@CHString@@QAAXXZ
?MakeReverse@CHString@@QAAXXZ
?MakeUpper@CHString@@QAAXXZ
?Mid@CHString@@QBA?AV1@H@Z
?Mid@CHString@@QBA?AV1@HH@Z
?MsgWndProc@CWinMsgEvent@@CAJPAUHWND__@@IIJ@Z
?NextSubKey@CRegistry@@QAAKXZ
?NextToken@CObjectPathParser@@AAAHXZ
?NormalizePath@@YAKPBG00KAAVCHString@@@Z
?NullOutUnsetProperties@CWbemProviderGlue@@AAAJPAUIWbemClassObject@@PAPAU2@ABUtagVARIANT@@@Z
?OnFinalRelease@CThreadBase@@MAAXXZ
?Open@CRegistry@@QAAJPAUHKEY__@@PBGK@Z
?OpenAndEnumerateSubKeys@CRegistry@@QAAJPAUHKEY__@@PBGK@Z
?OpenCurrentUser@CRegistry@@QAAKPBGK@Z
?OpenLocalMachineKeyAndReadValue@CRegistry@@QAAJPBG0AAVCHString@@@Z
?OpenNamespace@CWbemProviderGlue@@UAAJQAGJPAUIWbemContext@@PAPAUIWbemServices@@PAPAUIWbemCallResult@@@Z
?OpenSubKey@CRegistry@@AAAKXZ
?Parse@CObjectPathParser@@QAAHPBGPAPAUParsedObjectPath@@@Z
?PreProcessPutInstanceParms@CWbemProviderGlue@@AAAJPAUIWbemClassObject@@PAPAU2@PAUIWbemContext@@@Z
?PrepareToReOpen@CRegistry@@AAAXXZ
?PutClass@CWbemProviderGlue@@UAAJPAUIWbemClassObject@@JPAUIWbemContext@@PAPAUIWbemCallResult@@@Z
?PutClassAsync@CWbemProviderGlue@@UAAJPAUIWbemClassObject@@JPAUIWbemContext@@PAUIWbemObjectSink@@@Z
?PutInstance@CWbemProviderGlue@@UAAJPAUIWbemClassObject@@JPAUIWbemContext@@PAPAUIWbemCallResult@@@Z
?PutInstance@Provider@@AAAJPAUIWbemClassObject@@JPAVMethodContext@@@Z
?PutInstance@Provider@@MAAJABVCInstance@@J@Z
?PutInstanceAsync@CWbemProviderGlue@@UAAJPAUIWbemClassObject@@JPAUIWbemContext@@PAUIWbemObjectSink@@@Z
?QueryInterface@CWbemGlueFactory@@UAAJABU_GUID@@PAPAX@Z
?QueryInterface@CWbemProviderGlue@@UAAJABU_GUID@@PAPAX@Z
?QueryObjectSink@CWbemProviderGlue@@UAAJJPAPAUIWbemObjectSink@@@Z
?QueryPostProcess@MethodContext@@UAAXXZ
?RegisterForMessage@CWinMsgEvent@@IAAXIH@Z
?Release@CHString@@QAAXXZ
?Release@CHString@@SAXPAUCHStringData@@@Z
?Release@CInstance@@QAAJXZ
?Release@CThreadBase@@QAAJXZ
?Release@CWbemGlueFactory@@UAAKXZ
?Release@CWbemProviderGlue@@UAAKXZ
?Release@MethodContext@@QAAJXZ
?ReleaseBuffer@CHString@@QAAXH@Z
?RemoveAll@CHPtrArray@@QAAXXZ
?RemoveAll@CHStringArray@@QAAXXZ
?RemoveAt@CHPtrArray@@QAAXHH@Z
?RemoveAt@CHStringArray@@QAAXHH@Z
?RemoveFromFactoryMap@CWbemProviderGlue@@KAXPBVCWbemGlueFactory@@@Z
?Reset@CFrameworkQuery@@AAAXXZ
?ReverseFind@CHString@@QBAHG@Z
?RewindSubKeys@CRegistry@@QAAXXZ
?Right@CHString@@QBA?AV1@H@Z
?SafeStrlen@CHString@@KAHPBG@Z
?SearchAndBuildList@CRegistrySearch@@QAAHVCHString@@AAVCHPtrArray@@00HPAUHKEY__@@@Z
?SearchMapForProvider@CWbemProviderGlue@@CAPAVProvider@@PBG0@Z
?SetAt@CHPtrArray@@QAAXHPAX@Z
?SetAt@CHString@@QAAXHG@Z
?SetAt@CHStringArray@@QAAXHPBG@Z
?SetAtGrow@CHPtrArray@@QAAXHPAX@Z
?SetAtGrow@CHStringArray@@QAAXHPBG@Z
?SetByte@CInstance@@QAA_NPBGE@Z
?SetCHString@CInstance@@QAA_NPBG0@Z
?SetCHString@CInstance@@QAA_NPBGABVCHString@@@Z
?SetCHString@CInstance@@QAA_NPBGPBD@Z
?SetCHStringResourceHandle@@YAXPAUHINSTANCE__@@@Z
?SetCharSplat@CInstance@@QAA_NPBG0@Z
?SetCharSplat@CInstance@@QAA_NPBGK@Z
?SetCharSplat@CInstance@@QAA_NPBGPBD@Z
?SetClassName@ParsedObjectPath@@QAAHPBG@Z
?SetCreationClassName@Provider@@IAA_NPAVCInstance@@@Z
?SetCurrentKeyValue@CRegistry@@QAAKPAUHKEY__@@PBGAAK@Z
?SetCurrentKeyValue@CRegistry@@QAAKPAUHKEY__@@PBGAAVCHString@@@Z
?SetCurrentKeyValue@CRegistry@@QAAKPAUHKEY__@@PBGAAVCHStringArray@@@Z
?SetCurrentKeyValue@CRegistry@@QAAKPBGAAK@Z
?SetCurrentKeyValue@CRegistry@@QAAKPBGAAVCHString@@@Z
?SetCurrentKeyValue@CRegistry@@QAAKPBGAAVCHStringArray@@@Z
?SetCurrentKeyValueExpand@CRegistry@@QAAKPAUHKEY__@@PBGAAVCHString@@@Z
?SetDMTF@WBEMTime@@QAAHQAG@Z
?SetDOUBLE@CInstance@@QAA_NPBGN@Z
?SetDWORD@CInstance@@QAA_NPBGK@Z
?SetDateTime@CInstance@@QAA_NPBGABVWBEMTime@@@Z
?SetDefaultValues@CRegistry@@AAAXXZ
?SetEmbeddedObject@CInstance@@QAA_NPBGAAV1@@Z
?SetKeyFromParsedObjectPath@Provider@@AAAHPAVCInstance@@PAUParsedObjectPath@@@Z
?SetNull@CInstance@@QAA_NPBG@Z
?SetPlatformID@CRegistry@@CAHXZ
?SetSize@CHPtrArray@@QAAXHH@Z
?SetSize@CHStringArray@@QAAXHH@Z
?SetStatusObject@CWbemProviderGlue@@SA_NPAVMethodContext@@PBG1JPBUtagSAFEARRAY@@2@Z
?SetStatusObject@MethodContext@@QAA_NPAUIWbemClassObject@@@Z
?SetStringArray@CInstance@@QAA_NPBGABUtagSAFEARRAY@@@Z
?SetTimeSpan@CInstance@@QAA_NPBGABVWBEMTimeSpan@@@Z
?SetVariant@CInstance@@QAA_NPBGABUtagVARIANT@@@Z
?SetWBEMINT16@CInstance@@QAA_NPBGABF@Z
?SetWBEMINT64@CInstance@@QAA_NPBGABVCHString@@@Z
?SetWBEMINT64@CInstance@@QAA_NPBG_J@Z
?SetWBEMINT64@CInstance@@QAA_NPBG_K@Z
?SetWCHARSplat@CInstance@@QAA_NPBG0@Z
?SetWORD@CInstance@@QAA_NPBGG@Z
?Setbool@CInstance@@QAA_NPBG_N@Z
?Signal@CAutoEvent@@QAAHXZ
?SpanExcluding@CHString@@QBA?AV1@PBG@Z
?SpanIncluding@CHString@@QBA?AV1@PBG@Z
?TrimLeft@CHString@@QAAXXZ
?TrimRight@CHString@@QAAXXZ
?UnInit@CWbemProviderGlue@@CAXXZ
?UnRegisterAllMessages@CWinMsgEvent@@IAAXXZ
?UnRegisterMessage@CWinMsgEvent@@IAA_NIH@Z
?Unlock@CThreadBase@@AAAXXZ
?UnlockBuffer@CHString@@QAAXXZ
?UnlockFactoryMap@CWbemProviderGlue@@CAXXZ
?UnlockProviderMap@CWbemProviderGlue@@CAXXZ
?Unparse@CObjectPathParser@@SAHPAUParsedObjectPath@@PAPAG@Z
?ValidateDeletionFlags@Provider@@MAAJJ@Z
?ValidateEnumerationFlags@Provider@@MAAJJ@Z
?ValidateFlags@Provider@@IAAJJW4FlagDefs@1@@Z
?ValidateGetObjFlags@Provider@@MAAJJ@Z
?ValidateIMOSPointer@Provider@@AAAHXZ
?ValidateMethodFlags@Provider@@MAAJJ@Z
?ValidatePutInstanceFlags@Provider@@MAAJJ@Z
?ValidateQueryFlags@Provider@@MAAJJ@Z
?Wait@CAutoEvent@@QAAKK@Z
?WindowsDispatch@CWinMsgEvent@@CAXXZ
?Zero@CObjectPathParser@@AAAXXZ
?begin_parse@CObjectPathParser@@AAAHXZ
?captainsLog@@3VProviderLog@@A DATA
?dwThreadProc@CWinMsgEvent@@CAKPAX@Z
?g_cs@@3VCCritSec@@A DATA
?ident_becomes_class@CObjectPathParser@@AAAHXZ
?ident_becomes_ns@CObjectPathParser@@AAAHXZ
?initFailed@Provider@@SAHXZ
?initFailed_@Provider@@0HA DATA
?key_const@CObjectPathParser@@AAAHXZ
?keyref@CObjectPathParser@@AAAHXZ
?keyref_list@CObjectPathParser@@AAAHXZ
?keyref_term@CObjectPathParser@@AAAHXZ
?m_FlushPtrs@CWbemProviderGlue@@0V?$set@PAXU?$less@PAX@std@@V?$allocator@PAX@2@@std@@A DATA
?m_csFlushPtrs@CWbemProviderGlue@@0VCCritSec@@A DATA
?m_csStatusObject@CWbemProviderGlue@@0VCCritSec@@A DATA
?m_pStatusObject@CWbemProviderGlue@@0PAUIWbemClassObject@@A DATA
?mg_aeCreateWindow@CWinMsgEvent@@0VCAutoEvent@@A DATA
?mg_csMapLock@CWinMsgEvent@@0VCCritSec@@A DATA
?mg_csWindowLock@CWinMsgEvent@@0VCCritSec@@A DATA
?mg_hDevNotify@CWinMsgEvent@@0PAXA DATA
?mg_hThreadPumpHandle@CWinMsgEvent@@0PAXA DATA
?mg_hWnd@CWinMsgEvent@@0PAUHWND__@@A DATA
?mg_oSinkMap@CWinMsgEvent@@0V?$multimap@IPAVCWinMsgEvent@@U?$less@I@std@@V?$allocator@PAVCWinMsgEvent@@@3@@std@@A DATA
?myRegCreateKeyEx@CRegistry@@AAAJPAUHKEY__@@PBGKPAGKKQAU_SECURITY_ATTRIBUTES@@PAPAU2@PAK@Z
?myRegDeleteKey@CRegistry@@AAAJPAUHKEY__@@PBG@Z
?myRegDeleteValue@CRegistry@@AAAJPAUHKEY__@@PBG@Z
?myRegEnumKey@CRegistry@@AAAJPAUHKEY__@@KPAGK@Z
?myRegEnumValue@CRegistry@@AAAJPAUHKEY__@@KPAGPAK22PAE2@Z
?myRegOpenKeyEx@CRegistry@@AAAJPAUHKEY__@@PBGKKPAPAU2@@Z
?myRegQueryInfoKey@CRegistry@@AAAJPAUHKEY__@@PAGPAK22222222PAU_FILETIME@@@Z
?myRegQueryValueEx@CRegistry@@AAAJPAUHKEY__@@PBGPAK2PAE2@Z
?myRegSetValueEx@CRegistry@@AAAJPAUHKEY__@@PBGKKPBEK@Z
?ns_list@CObjectPathParser@@AAAHXZ
?ns_list_rest@CObjectPathParser@@AAAHXZ
?ns_or_class@CObjectPathParser@@AAAHXZ
?ns_or_server@CObjectPathParser@@AAAHXZ
?objref@CObjectPathParser@@AAAHXZ
?objref_rest@CObjectPathParser@@AAAHXZ
?optional_objref@CObjectPathParser@@AAAHXZ
?propname@CObjectPathParser@@AAAHXZ
?s_bInitted@CWbemProviderGlue@@0HA DATA
?s_csFactoryMap@CWbemProviderGlue@@0VCCritSec@@A DATA
?s_csProviderMap@CWbemProviderGlue@@0VCCritSec@@A DATA
?s_dwMajorVersion@CWbemProviderGlue@@0KA DATA
?s_dwPlatform@CRegistry@@0KA DATA
?s_dwPlatform@CWbemProviderGlue@@0KA DATA
?s_fPlatformSet@CRegistry@@0HA DATA
?s_factorymap@CWbemProviderGlue@@0V?$map@PBXPAJU?$less@PBX@std@@V?$allocator@PAJ@2@@std@@A DATA
?s_lObjects@CWbemProviderGlue@@0JA DATA
?s_providersmap@CWbemProviderGlue@@0V?$map@VCHString@@PAXU?$less@VCHString@@@std@@V?$allocator@PAX@3@@std@@A DATA
?s_strComputerName@Provider@@0VCHString@@A DATA
?s_wstrCSDVersion@CWbemProviderGlue@@0PAGA DATA
DoCmd
