;
; Definition file of FVEUI.dll
; Automatic generated by gendef
; written by Kai Tietz 2008-2014
;
LIBRARY "FVEUI.dll"
EXPORTS
??0VolumeFveStatus@@IAA@XZ
??0VolumeFveStatus@@QAA@K_KJW4_FVE_WIPING_STATE@@@Z
??4BuiVolume@@QAAAAV0@ABV0@@Z
??4VolumeFveStatus@@QAAAAV0@ABV0@@Z
?FailedDryRun@VolumeFveStatus@@QBA_NXZ
?GetExtendedFlags@VolumeFveStatus@@QBA_KXZ
?GetLastConvertStatus@VolumeFveStatus@@QBAJXZ
?GetStatusFlags@VolumeFveStatus@@QBAKXZ
?HasExternalKey@VolumeFveStatus@@QBA_NXZ
?HasPBKDF2RecoveryPassword@VolumeFveStatus@@QBA_NXZ
?HasPassphraseProtector@VolumeFveStatus@@QBA_NXZ
?HasPinProtector@VolumeFveStatus@@QBA_NXZ
?HasRecoveryData@VolumeFveStatus@@QBA_NXZ
?HasRecoveryPassword@VolumeFveStatus@@QBA_NXZ
?HasSmartCardProtector@VolumeFveStatus@@QBA_NXZ
?HasStartupKeyProtector@VolumeFveStatus@@QBA_NXZ
?HasTpmProtector@VolumeFveStatus@@QBA_NXZ
?IsConverting@VolumeFveStatus@@QBA_NXZ
?IsCsvMetadataVolume@VolumeFveStatus@@QBA_NXZ
?IsDEAutoProvisioned@VolumeFveStatus@@QBA_NXZ
?IsDecrypted@VolumeFveStatus@@QBA_NXZ
?IsDecrypting@VolumeFveStatus@@QBA_NXZ
?IsDisabled@VolumeFveStatus@@QBA_NXZ
?IsEDriveVolume@VolumeFveStatus@@QBA_NXZ
?IsEncrypted@VolumeFveStatus@@QBA_NXZ
?IsEncrypting@VolumeFveStatus@@QBA_NXZ
?IsLocked@VolumeFveStatus@@QBA_NXZ
?IsOn@VolumeFveStatus@@QBA_NXZ
?IsOsVolume@VolumeFveStatus@@QBA_NXZ
?IsPartiallyConverted@VolumeFveStatus@@QBA_NXZ
?IsPaused@VolumeFveStatus@@QBA_NXZ
?IsPreProvisioned@VolumeFveStatus@@QBA_NXZ
?IsRoamingDevice@VolumeFveStatus@@QBA_NXZ
?IsSecure@VolumeFveStatus@@QBA_NXZ
?IsUnknownFveVersion@VolumeFveStatus@@QBA_NXZ
?IsWiping@VolumeFveStatus@@QBA_NXZ
?NO_DRIVE_LETTER@BuiVolume@@2IB
?NeedsRestart@VolumeFveStatus@@QBA_NXZ
FveuiEnumSmartCardCerts
FveuiUserSelectCert
FveuiUserSelectSmartCard
