;
; Definition file of mmcbase.DLL
; Automatic generated by gendef
; written by Kai Tietz 2008-2014
;
LIBRARY "mmcbase.DLL"
EXPORTS
??0?$CEventLock@UAppEvents@@@@QAA@XZ
??0CEventBuffer@@QAA@ABV0@@Z
??0CEventBuffer@@QAA@XZ
??0CMMCStrongReferences@@AAA@XZ
??0SC@mmcerror@@QAA@ABV01@@Z
??0SC@mmcerror@@QAA@J@Z
??1?$CEventLock@UAppEvents@@@@QAA@XZ
??1CEventBuffer@@QAA@XZ
??1SC@mmcerror@@QAA@XZ
??4?$CEventLock@UAppEvents@@@@QAAAAV0@ABV0@@Z
??4CEventBuffer@@QAAAAV0@ABV0@@Z
??4CMMCStrongReferences@@QAAAAV0@ABV0@@Z
??4SC@mmcerror@@QAAAAV01@ABV01@@Z
??4SC@mmcerror@@QAAAAV01@J@Z
??7SC@mmcerror@@QBAHXZ
??8SC@mmcerror@@QBA_NABV01@@Z
??8SC@mmcerror@@QBA_NJ@Z
??9SC@mmcerror@@QBA_NABV01@@Z
??9SC@mmcerror@@QBA_NJ@Z
??BSC@mmcerror@@QBA_NXZ
??_FSC@mmcerror@@QAAXXZ
?AddItem@BookKeeping@@SAJAAVItemHandle@@@Z
?AddRef@CMMCStrongReferences@@SAKXZ
?AddSnapin@BookKeeping@@SAJPBGAAH@Z
?AddSnapinInterface@BookKeeping@@SA_NPAUIUnknown@@PBGAAH@Z
?CheckCallingThreadID@SC@mmcerror@@QAAXXZ
?Clear@SC@mmcerror@@QAAXXZ
?DumpWatsonTables@BookKeeping@@SAJPAXPBGH@Z
?EnableDiagnosticMessageBox@BookKeeping@@SA_N_N@Z
?ExceptionFilter@CMMCWatsonAPI@@SAJPAU_EXCEPTION_POINTERS@@H@Z
?FatalError@SC@mmcerror@@QBAXXZ
?FindAllSnapinUIThreads@BookKeeping@@SAJHPAPAKPAK@Z
?FindAllSnapinUIThreads@BookKeeping@@SAJPAPAKPAK@Z
?FindItem@BookKeeping@@SAPAVItemHandle@@PAX@Z
?FindSnapin@BookKeeping@@SAABVSnapinBookkeepingInfo@@H@Z
?FindSnapin@BookKeeping@@SAABVSnapinBookkeepingInfo@@PAUIUnknown@@@Z
?FindSnapin@BookKeeping@@SAABVSnapinBookkeepingInfo@@PBG@Z
?ForceException@CMMCWatsonAPI@@SAXH@Z
?FormatErrorIds@@YAXIVSC@mmcerror@@IPAG@Z
?FormatErrorShort@@YAXVSC@mmcerror@@IPAG@Z
?FormatErrorString@@YAXPBGVSC@mmcerror@@IPAGH@Z
?FromLastError@SC@mmcerror@@QAAAAV12@XZ
?FromMMC@SC@mmcerror@@QAAAAV12@J@Z
?FromWin32@SC@mmcerror@@QAAAAV12@J@Z
?FxSnapinException@BookKeeping@@SA_NHPBG000HPAUHWND__@@@Z
?GetCode@SC@mmcerror@@QBAJXZ
?GetComObjectEventSource@@YAAAV?$CEventSource@VCComObjectObserver@@VCVoid@@V2@V2@V2@@@XZ
?GetErrorMessage@SC@mmcerror@@QBAXIPAG@Z
?GetEventBuffer@@YAAAVCEventBuffer@@XZ
?GetFacility@SC@mmcerror@@ABA?AW4facility_type@12@XZ
?GetFunctionName@SC@mmcerror@@QBAPBGXZ
?GetHWnd@SC@mmcerror@@SAPAUHWND__@@XZ
?GetHelpFile@SC@mmcerror@@SAPBGXZ
?GetHelpID@SC@mmcerror@@QAAKXZ
?GetHinst@SC@mmcerror@@SAPAUHINSTANCE__@@XZ
?GetMainThreadID@SC@mmcerror@@SAKXZ
?GetModalHWND@SC@mmcerror@@SAPAUHWND__@@XZ
?GetNewSnapinInstanceId@BookKeeping@@SAHXZ
?GetSingletonObject@CMMCStrongReferences@@CAAAV1@XZ
?GetSnapinModuleName@BookKeeping@@SAPBGH@Z
?GetSnapinName@BookKeeping@@SAPBGH@Z
?GetSnapinName@SC@mmcerror@@QBAPBGXZ
?GetStringModule@@YAPAUHINSTANCE__@@XZ
?HrFromSc@@YAJABVSC@mmcerror@@@Z
?InitInstance@BookKeeping@@SAJXZ
?InterfaceFailure@BookKeeping@@SAXHPBG0@Z
?InterfaceMethodActivationContextException@BookKeeping@@SAXHPBG0KPAU_EXCEPTION_POINTERS@@@Z
?InterfaceMethodException@BookKeeping@@SAXHPBG0KPAU_EXCEPTION_POINTERS@@@Z
?InterfaceNotFound@BookKeeping@@SAXHPBG@Z
?InternalAddRef@CMMCStrongReferences@@AAAKXZ
?InternalLastRefReleased@CMMCStrongReferences@@AAA_NXZ
?InternalRelease@CMMCStrongReferences@@AAAKXZ
?InvalidInterface@BookKeeping@@SAXHPBG0@Z
?InvalidMMCInterface@BookKeeping@@SAXHPBG0@Z
?InvalidMMCInterfaceRelease@BookKeeping@@SAXHPBG0@Z
?IsError@SC@mmcerror@@QBA_NXZ
?IsLocked@CEventBuffer@@QAA_NXZ
?IsValid@ItemHandle@@SA_NPBV1@@Z
?LKResult2HRESULT@BookKeeping@@SAJJ@Z
?LastRefReleased@CMMCStrongReferences@@SA_NXZ
?LoadStandardOverlays@@YAJPAU_IMAGELIST@@HPAH1@Z
?Lock@CEventBuffer@@QAAXXZ
?MMCErrorBox@@YAHII@Z
?MMCErrorBox@@YAHIVSC@mmcerror@@I@Z
?MMCErrorBox@@YAHPBGI@Z
?MMCErrorBox@@YAHPBGVSC@mmcerror@@I@Z
?MMCErrorBox@@YAHVSC@mmcerror@@I@Z
?MMCInterfaceError@BookKeeping@@SAXHPBG0@Z
?MMCInterfaceLeak@BookKeeping@@SAXHPBG@Z
?MMCInterfaceMethodException@BookKeeping@@SAXHPBG0KPAU_EXCEPTION_POINTERS@@W4_SnapinError@1@@Z
?MMCNullInterface@BookKeeping@@SAXHPBG0@Z
?MMCUpdateRegistry@@YAJHPBVCObjectRegParams@@PBVCControlRegParams@@@Z
?MMC_PickIconDlg@@YAHPAUHWND__@@PAGIPAH@Z
?MakeSc@SC@mmcerror@@AAAXW4facility_type@12@J@Z
?RegisterSnapinInterfaceErrorHandler@BookKeeping@@SAP6A_NAAVSnapinBookkeepingInfo@@W4_SnapinError@1@PBG222KPAU_EXCEPTION_POINTERS@@@ZP6A_N012222K3@Z@Z
?RegisterThread@BookKeeping@@SAJHHKW4SnapinThreadFlags@1@@Z
?Release@CMMCStrongReferences@@SAKXZ
?ReleaseSnapinInterface@BookKeeping@@SAJPAUIUnknown@@H@Z
?RemoveItem@BookKeeping@@SAJPAX@Z
?SCODEFromSc@@YAJABVSC@mmcerror@@@Z
?ScEmitOrPostpone@CEventBuffer@@QAA?AVSC@mmcerror@@PAUIDispatch@@JPAVCComVariant@ATL@@H@Z
?ScFlushPostponed@CEventBuffer@@AAA?AVSC@mmcerror@@XZ
?ScFromMMC@@YA?AVSC@mmcerror@@J@Z
?ScGetConsoleEventDispatcher@CConsoleEventDispatcherProvider@@SA?AVSC@mmcerror@@AAPAVCConsoleEventDispatcher@@@Z
?ScSetConsoleEventDispatcher@CConsoleEventDispatcherProvider@@SA?AVSC@mmcerror@@PAVCConsoleEventDispatcher@@@Z
?SetFunctionName@SC@mmcerror@@QAAXPBG@Z
?SetHWnd@SC@mmcerror@@SAXPAUHWND__@@@Z
?SetHinst@SC@mmcerror@@SAXPAUHINSTANCE__@@@Z
?SetMainThreadID@SC@mmcerror@@SAXK@Z
?SetModalHWND@SC@mmcerror@@SAPAUHWND__@@PAU3@@Z
?SetSnapinName@SC@mmcerror@@QAAXPBG@Z
?Throw@SC@mmcerror@@QAAXJ@Z
?Throw@SC@mmcerror@@QAAXXZ
?ToHr@SC@mmcerror@@QBAJXZ
?TraceAndClear@SC@mmcerror@@QAAXXZ
?TraceError@@YAXPBGABVSC@mmcerror@@@Z
?TraceSnapinError@@YAXPBGABVSC@mmcerror@@@Z
?Trace_@SC@mmcerror@@QBAXXZ
?Unlock@CEventBuffer@@QAAXXZ
?UnregisterAllSnapinInstanceThreads@BookKeeping@@SAJH@Z
?UnregisterThread@BookKeeping@@SAJHK@Z
?s_CallDepth@SC@mmcerror@@0IA DATA
?s_dwMainThreadID@SC@mmcerror@@0KA DATA
?s_hInst@SC@mmcerror@@0PAUHINSTANCE__@@A DATA
?s_hWnd@SC@mmcerror@@0PAUHWND__@@A DATA
?s_hWndModal@SC@mmcerror@@0PAUHWND__@@A DATA
?s_pDispatcher@CConsoleEventDispatcherProvider@@0PAVCConsoleEventDispatcher@@A DATA
EnterModalLoop
InsideModalLoop
LeaveModalLoop
ReportFxSnapinException
