;
; Definition file of MSDART.DLL
; Automatic generated by gendef
; written by Kai Tietz 2008-2014
;
LIBRARY "MSDART.DLL"
EXPORTS
??0CCritSec@@QAA@XZ
??0CDoubleList@@QAA@XZ
??0CEXAutoBackupFile@@QAA@PBG@Z
??0CEXAutoBackupFile@@QAA@XZ
??0CExFileOperation@@QAA@XZ
??0CFakeLock@@QAA@XZ
??0CLKRHashTable@@QAA@PBDP6A?BKPBX@ZP6AKK@ZP6A_NKK@ZP6AX1H@ZNKK_N6PAVCLKRhashAllocator@@@Z
??0CLKRHashTableStats@@QAA@XZ
??0CLKRHashTable_Iterator@@IAA@PAVCLKRHashTable@@F@Z
??0CLKRHashTable_Iterator@@QAA@ABV0@@Z
??0CLKRHashTable_Iterator@@QAA@XZ
??0CLKRLinearHashTable@@AAA@PBDP6A?BKPBX@ZP6AKK@ZP6A_NKK@ZP6AX1H@ZNKPAVCLKRHashTable@@_N7PAVCLKRhashAllocator@@@Z
??0CLKRLinearHashTable@@QAA@PBDP6A?BKPBX@ZP6AKK@ZP6A_NKK@ZP6AX1H@ZNKK_N6PAVCLKRhashAllocator@@@Z
??0CLKRLinearHashTable_Iterator@@IAA@PAVCLKRLinearHashTable@@PAVCNodeClump@@KF@Z
??0CLKRLinearHashTable_Iterator@@QAA@ABV0@@Z
??0CLKRLinearHashTable_Iterator@@QAA@XZ
??0CLKRhashDefaultAllocator@@QAA@XZ
??0CLockedDoubleList@@QAA@XZ
??0CLockedSingleList@@QAA@XZ
??0CReaderWriterLock2@@QAA@XZ
??0CReaderWriterLock3@@QAA@XZ
??0CReaderWriterLock3AR@@QAA@XZ
??0CReaderWriterLock@@QAA@XZ
??0CSingleList@@QAA@XZ
??0CSmallSpinLock@@QAA@XZ
??0CSpinLock@@QAA@XZ
??1CCritSec@@QAA@XZ
??1CDoubleList@@QAA@XZ
??1CEXAutoBackupFile@@QAA@XZ
??1CExFileOperation@@QAA@XZ
??1CFakeLock@@QAA@XZ
??1CLKRHashTable@@QAA@XZ
??1CLKRHashTable_Iterator@@QAA@XZ
??1CLKRLinearHashTable@@QAA@XZ
??1CLKRLinearHashTable_Iterator@@QAA@XZ
??1CLockedDoubleList@@QAA@XZ
??1CLockedSingleList@@QAA@XZ
??1CReaderWriterLock2@@QAA@XZ
??1CReaderWriterLock3@@QAA@XZ
??1CReaderWriterLock3AR@@QAA@XZ
??1CReaderWriterLock@@QAA@XZ
??1CSingleList@@QAA@XZ
??1CSmallSpinLock@@QAA@XZ
??1CSpinLock@@QAA@XZ
??4?$CLockBase@$00$00$02$00$02$01@@QAAAAV0@ABV0@@Z
??4?$CLockBase@$01$00$00$00$02$01@@QAAAAV0@ABV0@@Z
??4?$CLockBase@$02$00$00$00$00$00@@QAAAAV0@ABV0@@Z
??4?$CLockBase@$03$00$00$01$02$02@@QAAAAV0@ABV0@@Z
??4?$CLockBase@$04$01$01$00$02$01@@QAAAAV0@ABV0@@Z
??4?$CLockBase@$05$01$01$00$02$01@@QAAAAV0@ABV0@@Z
??4?$CLockBase@$06$01$00$00$02$01@@QAAAAV0@ABV0@@Z
??4?$CLockBase@$07$01$00$00$02$01@@QAAAAV0@ABV0@@Z
??4CCritSec@@QAAAAV0@ABV0@@Z
??4CDoubleList@@QAAAAV0@ABV0@@Z
??4CEXAutoBackupFile@@QAAAAV0@ABV0@@Z
??4CExFileOperation@@QAAAAV0@ABV0@@Z
??4CFakeLock@@QAAAAV0@ABV0@@Z
??4CLKRHashTableStats@@QAAAAV0@ABV0@@Z
??4CLKRHashTable_Iterator@@QAAAAV0@ABV0@@Z
??4CLKRLinearHashTable_Iterator@@QAAAAV0@ABV0@@Z
??4CLockedDoubleList@@QAAAAV0@ABV0@@Z
??4CLockedSingleList@@QAAAAV0@ABV0@@Z
??4CMdVersionInfo@@QAAAAV0@ABV0@@Z
??4CReaderWriterLock2@@QAAAAV0@ABV0@@Z
??4CReaderWriterLock3@@QAAAAV0@ABV0@@Z
??4CReaderWriterLock3AR@@QAAAAV0@ABV0@@Z
??4CReaderWriterLock@@QAAAAV0@ABV0@@Z
??4CSingleList@@QAAAAV0@ABV0@@Z
??4CSmallSpinLock@@QAAAAV0@ABV0@@Z
??4CSpinLock@@QAAAAV0@ABV0@@Z
??8CLKRHashTable_Iterator@@QBA_NABV0@@Z
??8CLKRLinearHashTable_Iterator@@QBA_NABV0@@Z
??9CLKRHashTable_Iterator@@QBA_NABV0@@Z
??9CLKRLinearHashTable_Iterator@@QBA_NABV0@@Z
??_7CLKRhashDefaultAllocator@@6B@ DATA
?Alloc@CLKRhashDefaultAllocator@@UAAPAXIW4Type@CLKRhashAllocator@@@Z
?Apply@CLKRHashTable@@QAAKP6A?AW4LK_ACTION@@PBXPAX@Z1W4LK_LOCKTYPE@@@Z
?Apply@CLKRLinearHashTable@@QAAKP6A?AW4LK_ACTION@@PBXPAX@Z1W4LK_LOCKTYPE@@@Z
?ApplyIf@CLKRHashTable@@QAAKP6A?AW4LK_PREDICATE@@PBXPAX@ZP6A?AW4LK_ACTION@@01@Z1W4LK_LOCKTYPE@@@Z
?ApplyIf@CLKRLinearHashTable@@QAAKP6A?AW4LK_PREDICATE@@PBXPAX@ZP6A?AW4LK_ACTION@@01@Z1W4LK_LOCKTYPE@@@Z
?BackupFile@CEXAutoBackupFile@@QAAJPBG@Z
?Begin@CLKRHashTable@@QAA?AVCLKRHashTable_Iterator@@XZ
?Begin@CLKRLinearHashTable@@QAA?AVCLKRLinearHashTable_Iterator@@XZ
?BucketIndex@CLKRHashTableStats@@SAJJ@Z
?BucketSize@CLKRHashTableStats@@SAJJ@Z
?BucketSizes@CLKRHashTableStats@@SAPBJXZ
?CheckTable@CLKRHashTable@@QBAHXZ
?CheckTable@CLKRLinearHashTable@@QBAHXZ
?ClassName@CCritSec@@SAPBGXZ
?ClassName@CFakeLock@@SAPBGXZ
?ClassName@CLKRHashTable@@SAPBGXZ
?ClassName@CLKRLinearHashTable@@SAPBGXZ
?ClassName@CLKRhashDefaultAllocator@@UAAPBGXZ
?ClassName@CReaderWriterLock2@@SAPBGXZ
?ClassName@CReaderWriterLock3@@SAPBGXZ
?ClassName@CReaderWriterLock3AR@@SAPBGXZ
?ClassName@CReaderWriterLock@@SAPBGXZ
?ClassName@CSmallSpinLock@@SAPBGXZ
?ClassName@CSpinLock@@SAPBGXZ
?Clear@CLKRHashTable@@QAAXXZ
?Clear@CLKRLinearHashTable@@QAAXXZ
?ConvertExclusiveToShared@CCritSec@@QAAXXZ
?ConvertExclusiveToShared@CFakeLock@@QAAXXZ
?ConvertExclusiveToShared@CLKRHashTable@@QBAXXZ
?ConvertExclusiveToShared@CLKRLinearHashTable@@QBAXXZ
?ConvertExclusiveToShared@CReaderWriterLock2@@QAAXXZ
?ConvertExclusiveToShared@CReaderWriterLock3@@QAAXXZ
?ConvertExclusiveToShared@CReaderWriterLock3AR@@QAAXXZ
?ConvertExclusiveToShared@CReaderWriterLock@@QAAXXZ
?ConvertExclusiveToShared@CSmallSpinLock@@QAAXXZ
?ConvertExclusiveToShared@CSpinLock@@QAAXXZ
?ConvertSharedToExclusive@CCritSec@@QAAXXZ
?ConvertSharedToExclusive@CFakeLock@@QAAXXZ
?ConvertSharedToExclusive@CLKRHashTable@@QBAXXZ
?ConvertSharedToExclusive@CLKRLinearHashTable@@QBAXXZ
?ConvertSharedToExclusive@CReaderWriterLock2@@QAAXXZ
?ConvertSharedToExclusive@CReaderWriterLock3@@QAAXXZ
?ConvertSharedToExclusive@CReaderWriterLock3AR@@QAAXXZ
?ConvertSharedToExclusive@CReaderWriterLock@@QAAXXZ
?ConvertSharedToExclusive@CSmallSpinLock@@QAAXXZ
?ConvertSharedToExclusive@CSpinLock@@QAAXXZ
?CreateHolder@@YAJPAUIGPDispenser@@HIPAPAUIGPHolder@@@Z
?DeleteIf@CLKRHashTable@@QAAKP6A?AW4LK_PREDICATE@@PBXPAX@Z1@Z
?DeleteIf@CLKRLinearHashTable@@QAAKP6A?AW4LK_PREDICATE@@PBXPAX@Z1@Z
?DeleteKey@CLKRHashTable@@QAA?AW4LK_RETCODE@@K@Z
?DeleteKey@CLKRLinearHashTable@@QAA?AW4LK_RETCODE@@K@Z
?DeleteRecord@CLKRHashTable@@QAA?AW4LK_RETCODE@@PBX@Z
?DeleteRecord@CLKRLinearHashTable@@QAA?AW4LK_RETCODE@@PBX@Z
?End@CLKRHashTable@@QAA?AVCLKRHashTable_Iterator@@XZ
?End@CLKRLinearHashTable@@QAA?AVCLKRLinearHashTable_Iterator@@XZ
?EqualRange@CLKRHashTable@@QAA_NKAAVCLKRHashTable_Iterator@@0@Z
?EqualRange@CLKRLinearHashTable@@QAA_NKAAVCLKRLinearHashTable_Iterator@@0@Z
?Erase@CLKRHashTable@@QAA_NAAVCLKRHashTable_Iterator@@0@Z
?Erase@CLKRHashTable@@QAA_NAAVCLKRHashTable_Iterator@@@Z
?Erase@CLKRLinearHashTable@@QAA_NAAVCLKRLinearHashTable_Iterator@@0@Z
?Erase@CLKRLinearHashTable@@QAA_NAAVCLKRLinearHashTable_Iterator@@@Z
?FOCopyFile@CExFileOperation@@QAAJPBG0H@Z
?FOCopyFileDACLS@CExFileOperation@@QAAJPBG0@Z
?FODeleteFile@CExFileOperation@@QAAJPBG@Z
?FOMoveFile@CExFileOperation@@QAAJPBG0@Z
?FOReplaceFile@CExFileOperation@@QAAJPBG0@Z
?Find@CLKRHashTable@@QAA_NKAAVCLKRHashTable_Iterator@@@Z
?Find@CLKRLinearHashTable@@QAA_NKAAVCLKRLinearHashTable_Iterator@@@Z
?FindKey@CLKRHashTable@@QBA?AW4LK_RETCODE@@KPAPBX@Z
?FindKey@CLKRLinearHashTable@@QBA?AW4LK_RETCODE@@KPAPBX@Z
?FindRecord@CLKRHashTable@@QBA?AW4LK_RETCODE@@PBX@Z
?FindRecord@CLKRLinearHashTable@@QBA?AW4LK_RETCODE@@PBX@Z
?First@CDoubleList@@QBAQAVCListEntry@@XZ
?First@CLockedDoubleList@@QAAQAVCListEntry@@XZ
?Free@CLKRhashDefaultAllocator@@UAA_NPAXW4Type@CLKRhashAllocator@@@Z
?GetBackupFile@CEXAutoBackupFile@@QAAHPAPAG@Z
?GetBucketLockSpinCount@CLKRHashTable@@QBAGXZ
?GetBucketLockSpinCount@CLKRLinearHashTable@@QBAGXZ
?GetDefaultSpinAdjustmentFactor@CCritSec@@SANXZ
?GetDefaultSpinAdjustmentFactor@CFakeLock@@SANXZ
?GetDefaultSpinAdjustmentFactor@CReaderWriterLock2@@SANXZ
?GetDefaultSpinAdjustmentFactor@CReaderWriterLock3@@SANXZ
?GetDefaultSpinAdjustmentFactor@CReaderWriterLock3AR@@SANXZ
?GetDefaultSpinAdjustmentFactor@CReaderWriterLock@@SANXZ
?GetDefaultSpinAdjustmentFactor@CSmallSpinLock@@SANXZ
?GetDefaultSpinAdjustmentFactor@CSpinLock@@SANXZ
?GetDefaultSpinCount@CCritSec@@SAGXZ
?GetDefaultSpinCount@CFakeLock@@SAGXZ
?GetDefaultSpinCount@CReaderWriterLock2@@SAGXZ
?GetDefaultSpinCount@CReaderWriterLock3@@SAGXZ
?GetDefaultSpinCount@CReaderWriterLock3AR@@SAGXZ
?GetDefaultSpinCount@CReaderWriterLock@@SAGXZ
?GetDefaultSpinCount@CSmallSpinLock@@SAGXZ
?GetDefaultSpinCount@CSpinLock@@SAGXZ
?GetSpinCount@CCritSec@@QBAGXZ
?GetSpinCount@CFakeLock@@QBAGXZ
?GetSpinCount@CReaderWriterLock2@@QBAGXZ
?GetSpinCount@CReaderWriterLock3@@QBAGXZ
?GetSpinCount@CReaderWriterLock3AR@@QBAGXZ
?GetSpinCount@CReaderWriterLock@@QBAGXZ
?GetSpinCount@CSmallSpinLock@@QBAGXZ
?GetSpinCount@CSpinLock@@QBAGXZ
?GetStatistics@CLKRHashTable@@QBA?AVCLKRHashTableStats@@XZ
?GetStatistics@CLKRLinearHashTable@@QBA?AVCLKRHashTableStats@@XZ
?GetTableLockSpinCount@CLKRHashTable@@QBAGXZ
?GetTableLockSpinCount@CLKRLinearHashTable@@QBAGXZ
?GetVersionExW@CMdVersionInfo@@SAHPAU_OSVERSIONINFOW@@@Z
?HeadNode@CDoubleList@@QBAQBVCListEntry@@XZ
?HeadNode@CLockedDoubleList@@QBAQBVCListEntry@@XZ
?Increment@CLKRHashTable_Iterator@@QAA_NXZ
?Increment@CLKRLinearHashTable_Iterator@@QAA_NXZ
?InitializeVersionInfo@CMdVersionInfo@@CAHXZ
?Insert@CLKRHashTable@@QAA_NPBXAAVCLKRHashTable_Iterator@@_N@Z
?Insert@CLKRLinearHashTable@@QAA_NPBXAAVCLKRLinearHashTable_Iterator@@_N@Z
?InsertHead@CDoubleList@@QAAXQAVCListEntry@@@Z
?InsertHead@CLockedDoubleList@@QAAXQAVCListEntry@@@Z
?InsertRecord@CLKRHashTable@@QAA?AW4LK_RETCODE@@PBX_NPAPBX@Z
?InsertRecord@CLKRLinearHashTable@@QAA?AW4LK_RETCODE@@PBX_NPAPBX@Z
?InsertTail@CDoubleList@@QAAXQAVCListEntry@@@Z
?InsertTail@CLockedDoubleList@@QAAXQAVCListEntry@@@Z
?IsEmpty@CDoubleList@@QBA_NXZ
?IsEmpty@CLockedDoubleList@@QBA_NXZ
?IsEmpty@CLockedSingleList@@QBA_NXZ
?IsEmpty@CSingleList@@QBA_NXZ
?IsLocked@CLockedDoubleList@@QBA_NXZ
?IsLocked@CLockedSingleList@@QBA_NXZ
?IsMillnm@CMdVersionInfo@@SAHXZ
?IsReadLocked@CCritSec@@QBA_NXZ
?IsReadLocked@CFakeLock@@QBA_NXZ
?IsReadLocked@CLKRHashTable@@QBA_NXZ
?IsReadLocked@CLKRLinearHashTable@@QBA_NXZ
?IsReadLocked@CReaderWriterLock2@@QBA_NXZ
?IsReadLocked@CReaderWriterLock3@@QBA_NXZ
?IsReadLocked@CReaderWriterLock3AR@@QBA_NXZ
?IsReadLocked@CReaderWriterLock@@QBA_NXZ
?IsReadLocked@CSmallSpinLock@@QBA_NXZ
?IsReadLocked@CSpinLock@@QBA_NXZ
?IsReadUnlocked@CCritSec@@QBA_NXZ
?IsReadUnlocked@CFakeLock@@QBA_NXZ
?IsReadUnlocked@CLKRHashTable@@QBA_NXZ
?IsReadUnlocked@CLKRLinearHashTable@@QBA_NXZ
?IsReadUnlocked@CReaderWriterLock2@@QBA_NXZ
?IsReadUnlocked@CReaderWriterLock3@@QBA_NXZ
?IsReadUnlocked@CReaderWriterLock3AR@@QBA_NXZ
?IsReadUnlocked@CReaderWriterLock@@QBA_NXZ
?IsReadUnlocked@CSmallSpinLock@@QBA_NXZ
?IsReadUnlocked@CSpinLock@@QBA_NXZ
?IsUnlocked@CLockedDoubleList@@QBA_NXZ
?IsUnlocked@CLockedSingleList@@QBA_NXZ
?IsUsable@CLKRHashTable@@QBA_NXZ
?IsUsable@CLKRLinearHashTable@@QBA_NXZ
?IsValid@CLKRHashTable@@QBA_NXZ
?IsValid@CLKRHashTable_Iterator@@QBA_NXZ
?IsValid@CLKRLinearHashTable@@QBA_NXZ
?IsValid@CLKRLinearHashTable_Iterator@@QBA_NXZ
?IsWin2k@CMdVersionInfo@@SAHXZ
?IsWin2korLater@CMdVersionInfo@@SAHXZ
?IsWin95@CMdVersionInfo@@SAHXZ
?IsWin98@CMdVersionInfo@@SAHXZ
?IsWin98orLater@CMdVersionInfo@@SAHXZ
?IsWin9x@CMdVersionInfo@@SAHXZ
?IsWinNT4@CMdVersionInfo@@SAHXZ
?IsWinNT@CMdVersionInfo@@SAHXZ
?IsWinNt4orLater@CMdVersionInfo@@SAHXZ
?IsWriteLocked@CCritSec@@QBA_NXZ
?IsWriteLocked@CFakeLock@@QBA_NXZ
?IsWriteLocked@CLKRHashTable@@QBA_NXZ
?IsWriteLocked@CLKRLinearHashTable@@QBA_NXZ
?IsWriteLocked@CReaderWriterLock2@@QBA_NXZ
?IsWriteLocked@CReaderWriterLock3@@QBA_NXZ
?IsWriteLocked@CReaderWriterLock3AR@@QBA_NXZ
?IsWriteLocked@CReaderWriterLock@@QBA_NXZ
?IsWriteLocked@CSmallSpinLock@@QBA_NXZ
?IsWriteLocked@CSpinLock@@QBA_NXZ
?IsWriteUnlocked@CCritSec@@QBA_NXZ
?IsWriteUnlocked@CFakeLock@@QBA_NXZ
?IsWriteUnlocked@CLKRHashTable@@QBA_NXZ
?IsWriteUnlocked@CLKRLinearHashTable@@QBA_NXZ
?IsWriteUnlocked@CReaderWriterLock2@@QBA_NXZ
?IsWriteUnlocked@CReaderWriterLock3@@QBA_NXZ
?IsWriteUnlocked@CReaderWriterLock3AR@@QBA_NXZ
?IsWriteUnlocked@CReaderWriterLock@@QBA_NXZ
?IsWriteUnlocked@CSmallSpinLock@@QBA_NXZ
?IsWriteUnlocked@CSpinLock@@QBA_NXZ
?Key@CLKRHashTable_Iterator@@QBA?BKXZ
?Key@CLKRLinearHashTable_Iterator@@QBA?BKXZ
?Last@CDoubleList@@QBAQAVCListEntry@@XZ
?Last@CLockedDoubleList@@QAAQAVCListEntry@@XZ
?Lock@CLockedDoubleList@@QAAXXZ
?Lock@CLockedSingleList@@QAAXXZ
?LockType@?$CLockBase@$00$00$02$00$02$01@@SA?AW4LOCK_LOCKTYPE@@XZ
?LockType@?$CLockBase@$01$00$00$00$02$01@@SA?AW4LOCK_LOCKTYPE@@XZ
?LockType@?$CLockBase@$02$00$00$00$00$00@@SA?AW4LOCK_LOCKTYPE@@XZ
?LockType@?$CLockBase@$03$00$00$01$02$02@@SA?AW4LOCK_LOCKTYPE@@XZ
?LockType@?$CLockBase@$04$01$01$00$02$01@@SA?AW4LOCK_LOCKTYPE@@XZ
?LockType@?$CLockBase@$05$01$01$00$02$01@@SA?AW4LOCK_LOCKTYPE@@XZ
?LockType@?$CLockBase@$06$01$00$00$02$01@@SA?AW4LOCK_LOCKTYPE@@XZ
?LockType@?$CLockBase@$07$01$00$00$02$01@@SA?AW4LOCK_LOCKTYPE@@XZ
?MaxSize@CLKRHashTable@@QBAKXZ
?MaxSize@CLKRLinearHashTable@@QBAKXZ
?MpHeapCompact@@YAKPAX@Z
?MultiKeys@CLKRHashTable@@QBA_NXZ
?MultiKeys@CLKRLinearHashTable@@QBA_NXZ
?MutexType@?$CLockBase@$00$00$02$00$02$01@@SA?AW4LOCK_RW_MUTEX@@XZ
?MutexType@?$CLockBase@$01$00$00$00$02$01@@SA?AW4LOCK_RW_MUTEX@@XZ
?MutexType@?$CLockBase@$02$00$00$00$00$00@@SA?AW4LOCK_RW_MUTEX@@XZ
?MutexType@?$CLockBase@$03$00$00$01$02$02@@SA?AW4LOCK_RW_MUTEX@@XZ
?MutexType@?$CLockBase@$04$01$01$00$02$01@@SA?AW4LOCK_RW_MUTEX@@XZ
?MutexType@?$CLockBase@$05$01$01$00$02$01@@SA?AW4LOCK_RW_MUTEX@@XZ
?MutexType@?$CLockBase@$06$01$00$00$02$01@@SA?AW4LOCK_RW_MUTEX@@XZ
?MutexType@?$CLockBase@$07$01$00$00$02$01@@SA?AW4LOCK_RW_MUTEX@@XZ
?NumSubTables@CLKRHashTable@@QBAHXZ
?NumSubTables@CLKRHashTable@@SA?AW4LK_TABLESIZE@@AAK0_N@Z
?NumSubTables@CLKRLinearHashTable@@QBAHXZ
?NumSubTables@CLKRLinearHashTable@@SA?AW4LK_TABLESIZE@@AAK0_N@Z
?PerLockSpin@?$CLockBase@$00$00$02$00$02$01@@SA?AW4LOCK_PERLOCK_SPIN@@XZ
?PerLockSpin@?$CLockBase@$01$00$00$00$02$01@@SA?AW4LOCK_PERLOCK_SPIN@@XZ
?PerLockSpin@?$CLockBase@$02$00$00$00$00$00@@SA?AW4LOCK_PERLOCK_SPIN@@XZ
?PerLockSpin@?$CLockBase@$03$00$00$01$02$02@@SA?AW4LOCK_PERLOCK_SPIN@@XZ
?PerLockSpin@?$CLockBase@$04$01$01$00$02$01@@SA?AW4LOCK_PERLOCK_SPIN@@XZ
?PerLockSpin@?$CLockBase@$05$01$01$00$02$01@@SA?AW4LOCK_PERLOCK_SPIN@@XZ
?PerLockSpin@?$CLockBase@$06$01$00$00$02$01@@SA?AW4LOCK_PERLOCK_SPIN@@XZ
?PerLockSpin@?$CLockBase@$07$01$00$00$02$01@@SA?AW4LOCK_PERLOCK_SPIN@@XZ
?Pop@CLockedSingleList@@QAAQAVCSingleListEntry@@XZ
?Pop@CSingleList@@QAAQAVCSingleListEntry@@XZ
?Push@CLockedSingleList@@QAAXQAVCSingleListEntry@@@Z
?Push@CSingleList@@QAAXQAVCSingleListEntry@@@Z
?QueueType@?$CLockBase@$00$00$02$00$02$01@@SA?AW4LOCK_QUEUE_TYPE@@XZ
?QueueType@?$CLockBase@$01$00$00$00$02$01@@SA?AW4LOCK_QUEUE_TYPE@@XZ
?QueueType@?$CLockBase@$02$00$00$00$00$00@@SA?AW4LOCK_QUEUE_TYPE@@XZ
?QueueType@?$CLockBase@$03$00$00$01$02$02@@SA?AW4LOCK_QUEUE_TYPE@@XZ
?QueueType@?$CLockBase@$04$01$01$00$02$01@@SA?AW4LOCK_QUEUE_TYPE@@XZ
?QueueType@?$CLockBase@$05$01$01$00$02$01@@SA?AW4LOCK_QUEUE_TYPE@@XZ
?QueueType@?$CLockBase@$06$01$00$00$02$01@@SA?AW4LOCK_QUEUE_TYPE@@XZ
?QueueType@?$CLockBase@$07$01$00$00$02$01@@SA?AW4LOCK_QUEUE_TYPE@@XZ
?ReadLock@CCritSec@@QAAXXZ
?ReadLock@CFakeLock@@QAAXXZ
?ReadLock@CLKRHashTable@@QBAXXZ
?ReadLock@CLKRLinearHashTable@@QBAXXZ
?ReadLock@CReaderWriterLock2@@QAAXXZ
?ReadLock@CReaderWriterLock3@@QAAXXZ
?ReadLock@CReaderWriterLock3AR@@QAAXXZ
?ReadLock@CReaderWriterLock@@QAAXXZ
?ReadLock@CSmallSpinLock@@QAAXXZ
?ReadLock@CSpinLock@@QAAXXZ
?ReadOrWriteLock@CCritSec@@QAA_NXZ
?ReadOrWriteLock@CFakeLock@@QAA_NXZ
?ReadOrWriteLock@CReaderWriterLock3@@QAA_NXZ
?ReadOrWriteLock@CReaderWriterLock3AR@@QAA_NXZ
?ReadOrWriteLock@CSpinLock@@QAA_NXZ
?ReadOrWriteUnlock@CCritSec@@QAAX_N@Z
?ReadOrWriteUnlock@CFakeLock@@QAAX_N@Z
?ReadOrWriteUnlock@CReaderWriterLock3@@QAAX_N@Z
?ReadOrWriteUnlock@CReaderWriterLock3AR@@QAAX_N@Z
?ReadOrWriteUnlock@CSpinLock@@QAAX_N@Z
?ReadUnlock@CCritSec@@QAAXXZ
?ReadUnlock@CFakeLock@@QAAXXZ
?ReadUnlock@CLKRHashTable@@QBAXXZ
?ReadUnlock@CLKRLinearHashTable@@QBAXXZ
?ReadUnlock@CReaderWriterLock2@@QAAXXZ
?ReadUnlock@CReaderWriterLock3@@QAAXXZ
?ReadUnlock@CReaderWriterLock3AR@@QAAXXZ
?ReadUnlock@CReaderWriterLock@@QAAXXZ
?ReadUnlock@CSmallSpinLock@@QAAXXZ
?ReadUnlock@CSpinLock@@QAAXXZ
?Record@CLKRHashTable_Iterator@@QBAPBXXZ
?Record@CLKRLinearHashTable_Iterator@@QBAPBXXZ
?Recursion@?$CLockBase@$00$00$02$00$02$01@@SA?AW4LOCK_RECURSION@@XZ
?Recursion@?$CLockBase@$01$00$00$00$02$01@@SA?AW4LOCK_RECURSION@@XZ
?Recursion@?$CLockBase@$02$00$00$00$00$00@@SA?AW4LOCK_RECURSION@@XZ
?Recursion@?$CLockBase@$03$00$00$01$02$02@@SA?AW4LOCK_RECURSION@@XZ
?Recursion@?$CLockBase@$04$01$01$00$02$01@@SA?AW4LOCK_RECURSION@@XZ
?Recursion@?$CLockBase@$05$01$01$00$02$01@@SA?AW4LOCK_RECURSION@@XZ
?Recursion@?$CLockBase@$06$01$00$00$02$01@@SA?AW4LOCK_RECURSION@@XZ
?Recursion@?$CLockBase@$07$01$00$00$02$01@@SA?AW4LOCK_RECURSION@@XZ
?ReleaseVersionInfo@CMdVersionInfo@@SAXXZ
?RemoveEntry@CDoubleList@@SAXQAVCListEntry@@@Z
?RemoveEntry@CLockedDoubleList@@QAAXQAVCListEntry@@@Z
?RemoveHead@CDoubleList@@QAAQAVCListEntry@@XZ
?RemoveHead@CLockedDoubleList@@QAAQAVCListEntry@@XZ
?RemoveTail@CDoubleList@@QAAQAVCListEntry@@XZ
?RemoveTail@CLockedDoubleList@@QAAQAVCListEntry@@XZ
?RestoreFile@CEXAutoBackupFile@@QAAJXZ
?SetBucketLockSpinCount@CLKRHashTable@@QAAXG@Z
?SetBucketLockSpinCount@CLKRLinearHashTable@@QAAXG@Z
?SetDefaultSpinAdjustmentFactor@CCritSec@@SAXN@Z
?SetDefaultSpinAdjustmentFactor@CFakeLock@@SAXN@Z
?SetDefaultSpinAdjustmentFactor@CReaderWriterLock2@@SAXN@Z
?SetDefaultSpinAdjustmentFactor@CReaderWriterLock3@@SAXN@Z
?SetDefaultSpinAdjustmentFactor@CReaderWriterLock3AR@@SAXN@Z
?SetDefaultSpinAdjustmentFactor@CReaderWriterLock@@SAXN@Z
?SetDefaultSpinAdjustmentFactor@CSmallSpinLock@@SAXN@Z
?SetDefaultSpinAdjustmentFactor@CSpinLock@@SAXN@Z
?SetDefaultSpinCount@CCritSec@@SAXG@Z
?SetDefaultSpinCount@CFakeLock@@SAXG@Z
?SetDefaultSpinCount@CReaderWriterLock2@@SAXG@Z
?SetDefaultSpinCount@CReaderWriterLock3@@SAXG@Z
?SetDefaultSpinCount@CReaderWriterLock3AR@@SAXG@Z
?SetDefaultSpinCount@CReaderWriterLock@@SAXG@Z
?SetDefaultSpinCount@CSmallSpinLock@@SAXG@Z
?SetDefaultSpinCount@CSpinLock@@SAXG@Z
?SetSpinCount@CCritSec@@QAA_NG@Z
?SetSpinCount@CCritSec@@SAKPAPAVCCriticalSection@@K@Z
?SetSpinCount@CFakeLock@@QAA_NG@Z
?SetSpinCount@CReaderWriterLock2@@QAA_NG@Z
?SetSpinCount@CReaderWriterLock3@@QAA_NG@Z
?SetSpinCount@CReaderWriterLock3AR@@QAA_NG@Z
?SetSpinCount@CReaderWriterLock@@QAA_NG@Z
?SetSpinCount@CSmallSpinLock@@QAA_NG@Z
?SetSpinCount@CSpinLock@@QAA_NG@Z
?SetTableLockSpinCount@CLKRHashTable@@QAAXG@Z
?SetTableLockSpinCount@CLKRLinearHashTable@@QAAXG@Z
?Size@CLKRHashTable@@QBAKXZ
?Size@CLKRLinearHashTable@@QBAKXZ
?Swap@CSingleList@@QAAXAAV1@@Z
?TryConvertSharedToExclusive@CReaderWriterLock3@@QAA_NXZ
?TryConvertSharedToExclusive@CReaderWriterLock3AR@@QAA_NXZ
?TryReadLock@CCritSec@@QAA_NXZ
?TryReadLock@CFakeLock@@QAA_NXZ
?TryReadLock@CReaderWriterLock2@@QAA_NXZ
?TryReadLock@CReaderWriterLock3@@QAA_NXZ
?TryReadLock@CReaderWriterLock3AR@@QAA_NXZ
?TryReadLock@CReaderWriterLock@@QAA_NXZ
?TryReadLock@CSmallSpinLock@@QAA_NXZ
?TryReadLock@CSpinLock@@QAA_NXZ
?TryReadOrWriteLock@CReaderWriterLock3@@QAA_NAA_N@Z
?TryReadOrWriteLock@CReaderWriterLock3AR@@QAA_NAA_N@Z
?TryWriteLock@CCritSec@@QAA_NXZ
?TryWriteLock@CFakeLock@@QAA_NXZ
?TryWriteLock@CReaderWriterLock2@@QAA_NXZ
?TryWriteLock@CReaderWriterLock3@@QAA_NXZ
?TryWriteLock@CReaderWriterLock3AR@@QAA_NXZ
?TryWriteLock@CReaderWriterLock@@QAA_NXZ
?TryWriteLock@CSmallSpinLock@@QAA_NXZ
?TryWriteLock@CSpinLock@@QAA_NXZ
?UndoBackup@CEXAutoBackupFile@@QAAJXZ
?Unlock@CLockedDoubleList@@QAAXXZ
?Unlock@CLockedSingleList@@QAAXXZ
?ValidSignature@CLKRHashTable@@QBA_NXZ
?ValidSignature@CLKRLinearHashTable@@QBA_NXZ
?WaitType@?$CLockBase@$00$00$02$00$02$01@@SA?AW4LOCK_WAIT_TYPE@@XZ
?WaitType@?$CLockBase@$01$00$00$00$02$01@@SA?AW4LOCK_WAIT_TYPE@@XZ
?WaitType@?$CLockBase@$02$00$00$00$00$00@@SA?AW4LOCK_WAIT_TYPE@@XZ
?WaitType@?$CLockBase@$03$00$00$01$02$02@@SA?AW4LOCK_WAIT_TYPE@@XZ
?WaitType@?$CLockBase@$04$01$01$00$02$01@@SA?AW4LOCK_WAIT_TYPE@@XZ
?WaitType@?$CLockBase@$05$01$01$00$02$01@@SA?AW4LOCK_WAIT_TYPE@@XZ
?WaitType@?$CLockBase@$06$01$00$00$02$01@@SA?AW4LOCK_WAIT_TYPE@@XZ
?WaitType@?$CLockBase@$07$01$00$00$02$01@@SA?AW4LOCK_WAIT_TYPE@@XZ
?WriteLock@CCritSec@@QAAXXZ
?WriteLock@CFakeLock@@QAAXXZ
?WriteLock@CLKRHashTable@@QAAXXZ
?WriteLock@CLKRLinearHashTable@@QAAXXZ
?WriteLock@CReaderWriterLock2@@QAAXXZ
?WriteLock@CReaderWriterLock3@@QAAXXZ
?WriteLock@CReaderWriterLock3AR@@QAAXXZ
?WriteLock@CReaderWriterLock@@QAAXXZ
?WriteLock@CSmallSpinLock@@QAAXXZ
?WriteLock@CSpinLock@@QAAXXZ
?WriteUnlock@CCritSec@@QAAXXZ
?WriteUnlock@CFakeLock@@QAAXXZ
?WriteUnlock@CLKRHashTable@@QBAXXZ
?WriteUnlock@CLKRLinearHashTable@@QBAXXZ
?WriteUnlock@CReaderWriterLock2@@QAAXXZ
?WriteUnlock@CReaderWriterLock3@@QAAXXZ
?WriteUnlock@CReaderWriterLock3AR@@QAAXXZ
?WriteUnlock@CReaderWriterLock@@QAAXXZ
?WriteUnlock@CSmallSpinLock@@QAAXXZ
?WriteUnlock@CSpinLock@@QAAXXZ
?_AddRef@CLKRLinearHashTable_Iterator@@IBAXH@Z
?_AddRefRecord@CLKRLinearHashTable@@ABAXPBXH@Z
?_AllocateNodeClump@CLKRLinearHashTable@@AAAQAVCNodeClump@@XZ
?_AllocateSegment@CLKRLinearHashTable@@ABAQAVCSegment@@XZ
?_AllocateSegmentDirectory@CLKRLinearHashTable@@AAAQAVCDirEntry@@I@Z
?_AllocateSubTable@CLKRHashTable@@AAAQAVCLKRLinearHashTable@@PBDP6A?BKPBX@ZP6AKK@ZP6A_NKK@ZP6AX1H@ZNKPAV1@_N7@Z
?_AllocateSubTableArray@CLKRHashTable@@AAAQAPAVCLKRLinearHashTable@@I@Z
?_Apply@CLKRLinearHashTable@@AAAKP6A?AW4LK_ACTION@@PBXPAX@Z1W4LK_LOCKTYPE@@AAW4LK_PREDICATE@@@Z
?_ApplyIf@CLKRLinearHashTable@@AAAKP6A?AW4LK_PREDICATE@@PBXPAX@ZP6A?AW4LK_ACTION@@01@Z1W4LK_LOCKTYPE@@AAW42@@Z
?_Bucket@CLKRLinearHashTable@@ABAQAVCBucket@@K@Z
?_BucketAddress@CLKRLinearHashTable@@ABAKK@Z
?_BucketLock@CLKRLinearHashTable@@ABAXQAVCBucket@@W4LK_LOCKTYPE@@@Z
?_BucketReadLock@CLKRLinearHashTable@@ABAXQAVCBucket@@@Z
?_BucketReadUnlock@CLKRLinearHashTable@@ABAXQAVCBucket@@@Z
?_BucketUnlock@CLKRLinearHashTable@@ABAXQAVCBucket@@W4LK_LOCKTYPE@@@Z
?_BucketWriteLock@CLKRLinearHashTable@@ABAXQAVCBucket@@@Z
?_BucketWriteUnlock@CLKRLinearHashTable@@ABAXQAVCBucket@@@Z
?_CalcKeyHash@CLKRHashTable@@ABAKK@Z
?_CalcKeyHash@CLKRLinearHashTable@@ABAKK@Z
?_Clear@CLKRLinearHashTable@@AAAX_N@Z
?_CmpExch@CReaderWriterLock2@@AAA_NJJ@Z
?_CmpExch@CReaderWriterLock3@@AAA_NJJ@Z
?_CmpExch@CReaderWriterLock3AR@@AAA_NJJ@Z
?_CmpExch@CReaderWriterLock@@AAA_NJJ@Z
?_Contract@CLKRLinearHashTable@@AAA?AW4LK_RETCODE@@XZ
?_CurrentThreadId@CReaderWriterLock3@@CAJXZ
?_CurrentThreadId@CReaderWriterLock3AR@@CAJXZ
?_CurrentThreadId@CSmallSpinLock@@CAJXZ
?_CurrentThreadId@CSpinLock@@CAJXZ
?_DeleteIf@CLKRLinearHashTable@@AAAKP6A?AW4LK_PREDICATE@@PBXPAX@Z1AAW42@@Z
?_DeleteKey@CLKRLinearHashTable@@AAA?AW4LK_RETCODE@@KK@Z
?_DeleteNode@CLKRLinearHashTable@@AAA_NQAVCBucket@@AAPAVCNodeClump@@1AAH@Z
?_DeleteRecord@CLKRLinearHashTable@@AAA?AW4LK_RETCODE@@PBXK@Z
?_EqualKeys@CLKRLinearHashTable@@ABA_NKK@Z
?_Erase@CLKRLinearHashTable@@AAA_NAAVCLKRLinearHashTable_Iterator@@K@Z
?_Expand@CLKRLinearHashTable@@AAA?AW4LK_RETCODE@@XZ
?_ExtractKey@CLKRHashTable@@ABA?BKPBX@Z
?_ExtractKey@CLKRLinearHashTable@@ABA?BKPBX@Z
?_FindBucket@CLKRLinearHashTable@@ABAQAVCBucket@@K_N@Z
?_FindKey@CLKRLinearHashTable@@ABA?AW4LK_RETCODE@@KKPAPBXPAVCLKRLinearHashTable_Iterator@@@Z
?_FindRecord@CLKRLinearHashTable@@ABA?AW4LK_RETCODE@@PBXK@Z
?_FreeNodeClump@CLKRLinearHashTable@@AAA_NPAVCNodeClump@@@Z
?_FreeSegment@CLKRLinearHashTable@@ABA_NPAVCSegment@@@Z
?_FreeSegmentDirectory@CLKRLinearHashTable@@AAA_NXZ
?_FreeSubTable@CLKRHashTable@@AAA_NPAVCLKRLinearHashTable@@@Z
?_FreeSubTableArray@CLKRHashTable@@AAA_NPAPAVCLKRLinearHashTable@@@Z
?_H0@CLKRLinearHashTable@@ABAKK@Z
?_H0@CLKRLinearHashTable@@CAKKK@Z
?_H1@CLKRLinearHashTable@@ABAKK@Z
?_H1@CLKRLinearHashTable@@CAKKK@Z
?_Increment@CLKRHashTable_Iterator@@IAA_N_N@Z
?_Increment@CLKRLinearHashTable_Iterator@@IAA_N_N@Z
?_Initialize@CLKRLinearHashTable@@AAA?AW4LK_RETCODE@@P6A?BKPBX@ZP6AKK@ZP6A_NKK@ZP6AX0H@ZPBDNK@Z
?_InsertRecord@CLKRLinearHashTable@@AAA?AW4LK_RETCODE@@PBXK_NPAPBXPAVCLKRLinearHashTable_Iterator@@@Z
?_InsertThisIntoGlobalList@CLKRHashTable@@AAAXXZ
?_InsertThisIntoGlobalList@CLKRLinearHashTable@@AAAXXZ
?_IsLocked@CSpinLock@@ABA_NXZ
?_IsNodeCompact@CLKRLinearHashTable@@ABAHQAVCBucket@@@Z
?_IsValidIterator@CLKRHashTable@@ABA_NABVCLKRHashTable_Iterator@@@Z
?_IsValidIterator@CLKRLinearHashTable@@ABA_NABVCLKRLinearHashTable_Iterator@@@Z
?_Lock@CSpinLock@@AAAXXZ
?_LockSpin@CReaderWriterLock2@@AAAX_N@Z
?_LockSpin@CReaderWriterLock3@@AAAXW4SPIN_TYPE@1@@Z
?_LockSpin@CReaderWriterLock3AR@@AAAXW4SPIN_TYPE@1@@Z
?_LockSpin@CReaderWriterLock@@AAAX_N@Z
?_LockSpin@CSmallSpinLock@@AAAXXZ
?_LockSpin@CSpinLock@@AAAXXZ
?_MergeRecordSets@CLKRLinearHashTable@@AAA?AW4LK_RETCODE@@PAVCBucket@@PAVCNodeClump@@1@Z
?_PredTrue@CLKRLinearHashTable@@CA?AW4LK_PREDICATE@@PBXPAX@Z
?_ReadLockSpin@CReaderWriterLock2@@AAAXXZ
?_ReadLockSpin@CReaderWriterLock3@@AAAXW4SPIN_TYPE@1@@Z
?_ReadLockSpin@CReaderWriterLock3AR@@AAAXW4SPIN_TYPE@1@@Z
?_ReadLockSpin@CReaderWriterLock@@AAAXXZ
?_ReadOrWriteLock@CLKRLinearHashTable@@ABA_NXZ
?_ReadOrWriteUnlock@CLKRLinearHashTable@@ABAX_N@Z
?_RemoveThisFromGlobalList@CLKRHashTable@@AAAXXZ
?_RemoveThisFromGlobalList@CLKRLinearHashTable@@AAAXXZ
?_SegIndex@CLKRLinearHashTable@@ABAKK@Z
?_Segment@CLKRLinearHashTable@@ABAAAPAVCSegment@@K@Z
?_SetSegVars@CLKRLinearHashTable@@AAA?AW4LK_RETCODE@@W4LK_TABLESIZE@@K@Z
?_SplitRecordSet@CLKRLinearHashTable@@AAA?AW4LK_RETCODE@@PAVCNodeClump@@0KKK0@Z
?_SubTable@CLKRHashTable@@ABAPAVCLKRLinearHashTable@@K@Z
?_SubTableIndex@CLKRHashTable@@ABAHPAVCLKRLinearHashTable@@@Z
?_TableLock@CLKRLinearHashTable@@AAAXW4LK_LOCKTYPE@@@Z
?_TableUnlock@CLKRLinearHashTable@@AAAXW4LK_LOCKTYPE@@@Z
?_TryLock@CSmallSpinLock@@AAA_NXZ
?_TryLock@CSpinLock@@AAA_NXZ
?_TryReadLock@CReaderWriterLock2@@AAA_NXZ
?_TryReadLock@CReaderWriterLock3@@AAA_NXZ
?_TryReadLock@CReaderWriterLock3AR@@AAA_NXZ
?_TryReadLock@CReaderWriterLock@@AAA_NXZ
?_TryReadLockRecursive@CReaderWriterLock3@@AAA_NXZ
?_TryReadLockRecursive@CReaderWriterLock3AR@@AAA_NXZ
?_TryWriteLock2@CReaderWriterLock3@@AAA_NXZ
?_TryWriteLock2@CReaderWriterLock3AR@@AAA_NXZ
?_TryWriteLock@CReaderWriterLock2@@AAA_NJ@Z
?_TryWriteLock@CReaderWriterLock3@@AAA_NJ@Z
?_TryWriteLock@CReaderWriterLock3AR@@AAA_NJ@Z
?_TryWriteLock@CReaderWriterLock@@AAA_NXZ
?_Unlock@CSpinLock@@AAAXXZ
?_WriteLockSpin@CReaderWriterLock2@@AAAXXZ
?_WriteLockSpin@CReaderWriterLock3@@AAAXXZ
?_WriteLockSpin@CReaderWriterLock3AR@@AAAXXZ
?_WriteLockSpin@CReaderWriterLock@@AAAXXZ
?_getFileSecurity@CExFileOperation@@AAAJPBG@Z
?_setFileSecurity@CExFileOperation@@AAAJPBG@Z
?fHaveBackup@CEXAutoBackupFile@@QAAHXZ
?s_aBucketSizes@?1??BucketSizes@CLKRHashTableStats@@SAPBJXZ@4QBJB
?sm_DefaultAllocator@CLKRHashTable@@0VCLKRhashDefaultAllocator@@A DATA
?sm_dblDfltSpinAdjFctr@CCritSec@@1NA DATA
?sm_dblDfltSpinAdjFctr@CFakeLock@@1NA DATA
?sm_dblDfltSpinAdjFctr@CReaderWriterLock2@@1NA DATA
?sm_dblDfltSpinAdjFctr@CReaderWriterLock3@@1NA DATA
?sm_dblDfltSpinAdjFctr@CReaderWriterLock3AR@@1NA DATA
?sm_dblDfltSpinAdjFctr@CReaderWriterLock@@1NA DATA
?sm_dblDfltSpinAdjFctr@CSmallSpinLock@@1NA DATA
?sm_dblDfltSpinAdjFctr@CSpinLock@@1NA DATA
?sm_llGlobalList@CLKRHashTable@@0VCLockedDoubleList@@A DATA
?sm_llGlobalList@CLKRLinearHashTable@@0VCLockedDoubleList@@A DATA
?sm_lpOSVERSIONINFO@CMdVersionInfo@@0PAU_OSVERSIONINFOW@@A DATA
?sm_pfnSetCriticalSectionSpinCount@CCriticalSection@@0P6AKPAU_RTL_CRITICAL_SECTION@@K@ZA DATA
?sm_pfnTryEnterCriticalSection@CCriticalSection@@0P6AHPAU_RTL_CRITICAL_SECTION@@@ZA DATA
?sm_wDefaultSpinCount@CCritSec@@1GA DATA
?sm_wDefaultSpinCount@CFakeLock@@1GA DATA
?sm_wDefaultSpinCount@CReaderWriterLock2@@1GA DATA
?sm_wDefaultSpinCount@CReaderWriterLock3@@1GA DATA
?sm_wDefaultSpinCount@CReaderWriterLock3AR@@1GA DATA
?sm_wDefaultSpinCount@CReaderWriterLock@@1GA DATA
?sm_wDefaultSpinCount@CSmallSpinLock@@1GA DATA
?sm_wDefaultSpinCount@CSpinLock@@1GA DATA
DllBidEntryPoint
FXMemAttach
FXMemDetach
GetAllocCounters
GetIUMS
IrtlAssert
IrtlTrace
MPCSInitialize
MPCSUninitialize
MPDeleteCriticalSection
MPInitializeCriticalSection
MPInitializeCriticalSectionAndSpinCount
MpGetHeapHandle
MpHeapAlloc
MpHeapCreate
MpHeapDestroy
MpHeapFree
MpHeapReAlloc
MpHeapSize
MpHeapValidate
SetIUMS
SetMemHook
UMSEnterCSWraper
mpCalloc
mpFree
mpMalloc
mpRealloc
