;
; Definition file of msvcirt.dll
; Automatic generated by gendef
; written by Kai Tietz 2008-2014
;
LIBRARY "msvcirt.dll"
EXPORTS
??0Iostream_init@@QAA@AAVios@@H@Z
??0Iostream_init@@QAA@XZ
??0exception@@QAA@ABQBD@Z
??0exception@@QAA@ABV0@@Z
??0exception@@QAA@XZ
??0filebuf@@QAA@ABV0@@Z
??0filebuf@@QAA@H@Z
??0filebuf@@QAA@HPADH@Z
??0filebuf@@QAA@XZ
??0fstream@@QAA@ABV0@@Z
??0fstream@@QAA@H@Z
??0fstream@@QAA@HPADH@Z
??0fstream@@QAA@PBDHH@Z
??0fstream@@QAA@XZ
??0ifstream@@QAA@ABV0@@Z
??0ifstream@@QAA@H@Z
??0ifstream@@QAA@HPADH@Z
??0ifstream@@QAA@PBDHH@Z
??0ifstream@@QAA@XZ
??0ios@@IAA@ABV0@@Z
??0ios@@IAA@XZ
??0ios@@QAA@PAVstreambuf@@@Z
??0iostream@@IAA@ABV0@@Z
??0iostream@@IAA@XZ
??0iostream@@QAA@PAVstreambuf@@@Z
??0istream@@IAA@ABV0@@Z
??0istream@@IAA@XZ
??0istream@@QAA@PAVstreambuf@@@Z
??0istream_withassign@@QAA@ABV0@@Z
??0istream_withassign@@QAA@PAVstreambuf@@@Z
??0istream_withassign@@QAA@XZ
??0istrstream@@QAA@ABV0@@Z
??0istrstream@@QAA@PAD@Z
??0istrstream@@QAA@PADH@Z
??0logic_error@@QAA@ABQBD@Z
??0logic_error@@QAA@ABV0@@Z
??0ofstream@@QAA@ABV0@@Z
??0ofstream@@QAA@H@Z
??0ofstream@@QAA@HPADH@Z
??0ofstream@@QAA@PBDHH@Z
??0ofstream@@QAA@XZ
??0ostream@@IAA@ABV0@@Z
??0ostream@@IAA@XZ
??0ostream@@QAA@PAVstreambuf@@@Z
??0ostream_withassign@@QAA@ABV0@@Z
??0ostream_withassign@@QAA@PAVstreambuf@@@Z
??0ostream_withassign@@QAA@XZ
??0ostrstream@@QAA@ABV0@@Z
??0ostrstream@@QAA@PADHH@Z
??0ostrstream@@QAA@XZ
??0stdiobuf@@QAA@ABV0@@Z
??0stdiobuf@@QAA@PAU_iobuf@@@Z
??0stdiostream@@QAA@ABV0@@Z
??0stdiostream@@QAA@PAU_iobuf@@@Z
??0streambuf@@IAA@PADH@Z
??0streambuf@@IAA@XZ
??0streambuf@@QAA@ABV0@@Z
??0strstream@@QAA@ABV0@@Z
??0strstream@@QAA@PADHH@Z
??0strstream@@QAA@XZ
??0strstreambuf@@QAA@ABV0@@Z
??0strstreambuf@@QAA@H@Z
??0strstreambuf@@QAA@P6APAXJ@ZP6AXPAX@Z@Z
??0strstreambuf@@QAA@PADH0@Z
??0strstreambuf@@QAA@PAEH0@Z
??0strstreambuf@@QAA@XZ
??1Iostream_init@@QAA@XZ
??1exception@@UAA@XZ
??1filebuf@@UAA@XZ
??1fstream@@UAA@XZ
??1ifstream@@UAA@XZ
??1ios@@UAA@XZ
??1iostream@@UAA@XZ
??1istream@@UAA@XZ
??1istream_withassign@@UAA@XZ
??1istrstream@@UAA@XZ
??1logic_error@@UAA@XZ
??1ofstream@@UAA@XZ
??1ostream@@UAA@XZ
??1ostream_withassign@@UAA@XZ
??1ostrstream@@UAA@XZ
??1stdiobuf@@UAA@XZ
??1stdiostream@@UAA@XZ
??1streambuf@@UAA@XZ
??1strstream@@UAA@XZ
??1strstreambuf@@UAA@XZ
??4Iostream_init@@QAAAAV0@ABV0@@Z
??4exception@@QAAAAV0@ABV0@@Z
??4filebuf@@QAAAAV0@ABV0@@Z
??4fstream@@QAAAAV0@AAV0@@Z
??4ifstream@@QAAAAV0@ABV0@@Z
??4ios@@IAAAAV0@ABV0@@Z
??4iostream@@IAAAAV0@AAV0@@Z
??4iostream@@IAAAAV0@PAVstreambuf@@@Z
??4istream@@IAAAAV0@ABV0@@Z
??4istream@@IAAAAV0@PAVstreambuf@@@Z
??4istream_withassign@@QAAAAV0@ABV0@@Z
??4istream_withassign@@QAAAAVistream@@ABV1@@Z
??4istream_withassign@@QAAAAVistream@@PAVstreambuf@@@Z
??4istrstream@@QAAAAV0@ABV0@@Z
??4logic_error@@QAAAAV0@ABV0@@Z
??4ofstream@@QAAAAV0@ABV0@@Z
??4ostream@@IAAAAV0@ABV0@@Z
??4ostream@@IAAAAV0@PAVstreambuf@@@Z
??4ostream_withassign@@QAAAAV0@ABV0@@Z
??4ostream_withassign@@QAAAAVostream@@ABV1@@Z
??4ostream_withassign@@QAAAAVostream@@PAVstreambuf@@@Z
??4ostrstream@@QAAAAV0@ABV0@@Z
??4stdiobuf@@QAAAAV0@ABV0@@Z
??4stdiostream@@QAAAAV0@AAV0@@Z
??4streambuf@@QAAAAV0@ABV0@@Z
??4strstream@@QAAAAV0@AAV0@@Z
??4strstreambuf@@QAAAAV0@ABV0@@Z
??5istream@@QAAAAV0@AAC@Z
??5istream@@QAAAAV0@AAD@Z
??5istream@@QAAAAV0@AAE@Z
??5istream@@QAAAAV0@AAF@Z
??5istream@@QAAAAV0@AAG@Z
??5istream@@QAAAAV0@AAH@Z
??5istream@@QAAAAV0@AAI@Z
??5istream@@QAAAAV0@AAJ@Z
??5istream@@QAAAAV0@AAK@Z
??5istream@@QAAAAV0@AAM@Z
??5istream@@QAAAAV0@AAN@Z
??5istream@@QAAAAV0@AAO@Z
??5istream@@QAAAAV0@P6AAAV0@AAV0@@Z@Z
??5istream@@QAAAAV0@P6AAAVios@@AAV1@@Z@Z
??5istream@@QAAAAV0@PAC@Z
??5istream@@QAAAAV0@PAD@Z
??5istream@@QAAAAV0@PAE@Z
??5istream@@QAAAAV0@PAVstreambuf@@@Z
??6ostream@@QAAAAV0@C@Z
??6ostream@@QAAAAV0@D@Z
??6ostream@@QAAAAV0@E@Z
??6ostream@@QAAAAV0@F@Z
??6ostream@@QAAAAV0@G@Z
??6ostream@@QAAAAV0@H@Z
??6ostream@@QAAAAV0@I@Z
??6ostream@@QAAAAV0@J@Z
??6ostream@@QAAAAV0@K@Z
??6ostream@@QAAAAV0@M@Z
??6ostream@@QAAAAV0@N@Z
??6ostream@@QAAAAV0@O@Z
??6ostream@@QAAAAV0@P6AAAV0@AAV0@@Z@Z
??6ostream@@QAAAAV0@P6AAAVios@@AAV1@@Z@Z
??6ostream@@QAAAAV0@PAVstreambuf@@@Z
??6ostream@@QAAAAV0@PBC@Z
??6ostream@@QAAAAV0@PBD@Z
??6ostream@@QAAAAV0@PBE@Z
??6ostream@@QAAAAV0@PBX@Z
??7ios@@QBAHXZ
??Bios@@QBAPAXXZ
??_7exception@@6B@ DATA
??_7filebuf@@6B@ DATA
??_7fstream@@6B@ DATA
??_7ifstream@@6B@ DATA
??_7ios@@6B@ DATA
??_7iostream@@6B@ DATA
??_7istream@@6B@ DATA
??_7istream_withassign@@6B@ DATA
??_7istrstream@@6B@ DATA
??_7logic_error@@6B@ DATA
??_7ofstream@@6B@ DATA
??_7ostream@@6B@ DATA
??_7ostream_withassign@@6B@ DATA
??_7ostrstream@@6B@ DATA
??_7stdiobuf@@6B@ DATA
??_7stdiostream@@6B@ DATA
??_7streambuf@@6B@ DATA
??_7strstream@@6B@ DATA
??_7strstreambuf@@6B@ DATA
??_8fstream@@7Bistream@@@
??_8fstream@@7Bostream@@@
??_8ifstream@@7B@
??_8iostream@@7Bistream@@@
??_8iostream@@7Bostream@@@
??_8istream@@7B@
??_8istream_withassign@@7B@
??_8istrstream@@7B@
??_8ofstream@@7B@
??_8ostream@@7B@
??_8ostream_withassign@@7B@
??_8ostrstream@@7B@
??_8stdiostream@@7Bistream@@@
??_8stdiostream@@7Bostream@@@
??_8strstream@@7Bistream@@@
??_8strstream@@7Bostream@@@
??_Dfstream@@QAAXXZ
??_Difstream@@QAAXXZ
??_Diostream@@QAAXXZ
??_Distream@@QAAXXZ
??_Distream_withassign@@QAAXXZ
??_Distrstream@@QAAXXZ
??_Dofstream@@QAAXXZ
??_Dostream@@QAAXXZ
??_Dostream_withassign@@QAAXXZ
??_Dostrstream@@QAAXXZ
??_Dstdiostream@@QAAXXZ
??_Dstrstream@@QAAXXZ
?_init@strstreambuf@@AAAXPADH0@Z
?adjustfield@ios@@2JB
?allocate@streambuf@@IAAHXZ
?attach@filebuf@@QAAPAV1@H@Z
?attach@fstream@@QAAXH@Z
?attach@ifstream@@QAAXH@Z
?attach@ofstream@@QAAXH@Z
?bad@ios@@QBAHXZ
?base@streambuf@@IBAPADXZ
?basefield@ios@@2JB
?binary@filebuf@@2HB
?bitalloc@ios@@SAJXZ
?blen@streambuf@@IBAHXZ
?cerr@@3Vostream_withassign@@A DATA
?cin@@3Vistream_withassign@@A DATA
?clear@ios@@QAAXH@Z
?clog@@3Vostream_withassign@@A DATA
?close@filebuf@@QAAPAV1@XZ
?close@fstream@@QAAXXZ
?close@ifstream@@QAAXXZ
?close@ofstream@@QAAXXZ
?clrlock@ios@@QAAXXZ
?clrlock@streambuf@@QAAXXZ
?cout@@3Vostream_withassign@@A DATA
?dbp@streambuf@@QAAXXZ
?dec@@YAAAVios@@AAV1@@Z
?delbuf@ios@@QAAXH@Z
?delbuf@ios@@QBAHXZ
?doallocate@streambuf@@MAAHXZ
?doallocate@strstreambuf@@MAAHXZ
?eatwhite@istream@@QAAXXZ
?eback@streambuf@@IBAPADXZ
?ebuf@streambuf@@IBAPADXZ
?egptr@streambuf@@IBAPADXZ
?endl@@YAAAVostream@@AAV1@@Z
?ends@@YAAAVostream@@AAV1@@Z
?eof@ios@@QBAHXZ
?epptr@streambuf@@IBAPADXZ
?fLockcInit@ios@@0HA DATA
?fail@ios@@QBAHXZ
?fd@filebuf@@QBAHXZ
?fd@fstream@@QBAHXZ
?fd@ifstream@@QBAHXZ
?fd@ofstream@@QBAHXZ
?fill@ios@@QAADD@Z
?fill@ios@@QBADXZ
?flags@ios@@QAAJJ@Z
?flags@ios@@QBAJXZ
?floatfield@ios@@2JB
?flush@@YAAAVostream@@AAV1@@Z
?flush@ostream@@QAAAAV1@XZ
?freeze@strstreambuf@@QAAXH@Z
?gbump@streambuf@@IAAXH@Z
?gcount@istream@@QBAHXZ
?get@istream@@IAAAAV1@PADHH@Z
?get@istream@@QAAAAV1@AAC@Z
?get@istream@@QAAAAV1@AAD@Z
?get@istream@@QAAAAV1@AAE@Z
?get@istream@@QAAAAV1@AAVstreambuf@@D@Z
?get@istream@@QAAAAV1@PACHD@Z
?get@istream@@QAAAAV1@PADHD@Z
?get@istream@@QAAAAV1@PAEHD@Z
?get@istream@@QAAHXZ
?getdouble@istream@@AAAHPADH@Z
?getint@istream@@AAAHPAD@Z
?getline@istream@@QAAAAV1@PACHD@Z
?getline@istream@@QAAAAV1@PADHD@Z
?getline@istream@@QAAAAV1@PAEHD@Z
?good@ios@@QBAHXZ
?gptr@streambuf@@IBAPADXZ
?hex@@YAAAVios@@AAV1@@Z
?ignore@istream@@QAAAAV1@HH@Z
?in_avail@streambuf@@QBAHXZ
?init@ios@@IAAXPAVstreambuf@@@Z
?ipfx@istream@@QAAHH@Z
?is_open@filebuf@@QBAHXZ
?is_open@fstream@@QBAHXZ
?is_open@ifstream@@QBAHXZ
?is_open@ofstream@@QBAHXZ
?isfx@istream@@QAAXXZ
?iword@ios@@QBAAAJH@Z
?lock@ios@@QAAXXZ
?lock@streambuf@@QAAXXZ
?lockbuf@ios@@QAAXXZ
?lockc@ios@@KAXXZ
?lockptr@ios@@IAAPAU_CRT_CRITICAL_SECTION@@XZ
?lockptr@streambuf@@IAAPAU_CRT_CRITICAL_SECTION@@XZ
?oct@@YAAAVios@@AAV1@@Z
?open@filebuf@@QAAPAV1@PBDHH@Z
?open@fstream@@QAAXPBDHH@Z
?open@ifstream@@QAAXPBDHH@Z
?open@ofstream@@QAAXPBDHH@Z
?openprot@filebuf@@2HB
?opfx@ostream@@QAAHXZ
?osfx@ostream@@QAAXXZ
?out_waiting@streambuf@@QBAHXZ
?overflow@filebuf@@UAAHH@Z
?overflow@stdiobuf@@UAAHH@Z
?overflow@strstreambuf@@UAAHH@Z
?pbackfail@stdiobuf@@UAAHH@Z
?pbackfail@streambuf@@UAAHH@Z
?pbase@streambuf@@IBAPADXZ
?pbump@streambuf@@IAAXH@Z
?pcount@ostrstream@@QBAHXZ
?pcount@strstream@@QBAHXZ
?peek@istream@@QAAHXZ
?pptr@streambuf@@IBAPADXZ
?precision@ios@@QAAHH@Z
?precision@ios@@QBAHXZ
?put@ostream@@QAAAAV1@C@Z
?put@ostream@@QAAAAV1@D@Z
?put@ostream@@QAAAAV1@E@Z
?putback@istream@@QAAAAV1@D@Z
?pword@ios@@QBAAAPAXH@Z
?rdbuf@fstream@@QBAPAVfilebuf@@XZ
?rdbuf@ifstream@@QBAPAVfilebuf@@XZ
?rdbuf@ios@@QBAPAVstreambuf@@XZ
?rdbuf@istrstream@@QBAPAVstrstreambuf@@XZ
?rdbuf@ofstream@@QBAPAVfilebuf@@XZ
?rdbuf@ostrstream@@QBAPAVstrstreambuf@@XZ
?rdbuf@stdiostream@@QBAPAVstdiobuf@@XZ
?rdbuf@strstream@@QBAPAVstrstreambuf@@XZ
?rdstate@ios@@QBAHXZ
?read@istream@@QAAAAV1@PACH@Z
?read@istream@@QAAAAV1@PADH@Z
?read@istream@@QAAAAV1@PAEH@Z
?sbumpc@streambuf@@QAAHXZ
?seekg@istream@@QAAAAV1@J@Z
?seekg@istream@@QAAAAV1@JW4seek_dir@ios@@@Z
?seekoff@filebuf@@UAAJJW4seek_dir@ios@@H@Z
?seekoff@stdiobuf@@UAAJJW4seek_dir@ios@@H@Z
?seekoff@streambuf@@UAAJJW4seek_dir@ios@@H@Z
?seekoff@strstreambuf@@UAAJJW4seek_dir@ios@@H@Z
?seekp@ostream@@QAAAAV1@J@Z
?seekp@ostream@@QAAAAV1@JW4seek_dir@ios@@@Z
?seekpos@streambuf@@UAAJJH@Z
?setb@streambuf@@IAAXPAD0H@Z
?setbuf@filebuf@@UAAPAVstreambuf@@PADH@Z
?setbuf@fstream@@QAAPAVstreambuf@@PADH@Z
?setbuf@ifstream@@QAAPAVstreambuf@@PADH@Z
?setbuf@ofstream@@QAAPAVstreambuf@@PADH@Z
?setbuf@streambuf@@UAAPAV1@PADH@Z
?setbuf@strstreambuf@@UAAPAVstreambuf@@PADH@Z
?setf@ios@@QAAJJ@Z
?setf@ios@@QAAJJJ@Z
?setg@streambuf@@IAAXPAD00@Z
?setlock@ios@@QAAXXZ
?setlock@streambuf@@QAAXXZ
?setmode@filebuf@@QAAHH@Z
?setmode@fstream@@QAAHH@Z
?setmode@ifstream@@QAAHH@Z
?setmode@ofstream@@QAAHH@Z
?setp@streambuf@@IAAXPAD0@Z
?setrwbuf@stdiobuf@@QAAHHH@Z
?sgetc@streambuf@@QAAHXZ
?sgetn@streambuf@@QAAHPADH@Z
?sh_none@filebuf@@2HB
?sh_read@filebuf@@2HB
?sh_write@filebuf@@2HB
?snextc@streambuf@@QAAHXZ
?sputbackc@streambuf@@QAAHD@Z
?sputc@streambuf@@QAAHH@Z
?sputn@streambuf@@QAAHPBDH@Z
?stdiofile@stdiobuf@@QAAPAU_iobuf@@XZ
?stossc@streambuf@@QAAXXZ
?str@istrstream@@QAAPADXZ
?str@ostrstream@@QAAPADXZ
?str@strstream@@QAAPADXZ
?str@strstreambuf@@QAAPADXZ
?sunk_with_stdio@ios@@0HA DATA
?sync@filebuf@@UAAHXZ
?sync@istream@@QAAHXZ
?sync@stdiobuf@@UAAHXZ
?sync@streambuf@@UAAHXZ
?sync@strstreambuf@@UAAHXZ
?sync_with_stdio@ios@@SAXXZ
?tellg@istream@@QAAJXZ
?tellp@ostream@@QAAJXZ
?text@filebuf@@2HB
?tie@ios@@QAAPAVostream@@PAV2@@Z
?tie@ios@@QBAPAVostream@@XZ
?unbuffered@streambuf@@IAAXH@Z
?unbuffered@streambuf@@IBAHXZ
?underflow@filebuf@@UAAHXZ
?underflow@stdiobuf@@UAAHXZ
?underflow@strstreambuf@@UAAHXZ
?unlock@ios@@QAAXXZ
?unlock@streambuf@@QAAXXZ
?unlockbuf@ios@@QAAXXZ
?unlockc@ios@@KAXXZ
?unsetf@ios@@QAAJJ@Z
?what@exception@@UBAPBDXZ
?width@ios@@QAAHH@Z
?width@ios@@QBAHXZ
?write@ostream@@QAAAAV1@PBCH@Z
?write@ostream@@QAAAAV1@PBDH@Z
?write@ostream@@QAAAAV1@PBEH@Z
?writepad@ostream@@AAAAAV1@PBD0@Z
?ws@@YAAAVistream@@AAV1@@Z
?x_curindex@ios@@0HA DATA
?x_lockc@ios@@0U_CRT_CRITICAL_SECTION@@A DATA
?x_maxbit@ios@@0JA DATA
?x_statebuf@ios@@0PAJA DATA
?xalloc@ios@@SAHXZ
?xsgetn@streambuf@@UAAHPADH@Z
?xsputn@streambuf@@UAAHPBDH@Z
__dummy_export DATA
_mtlock
_mtunlock
