;
; Definition file of rgbrast.dll
; Automatic generated by gendef
; written by Kai Tietz 2008-2014
;
LIBRARY "rgbrast.dll"
EXPORTS
??0PrimProcessor@@QAA@XZ
??1PrimProcessor@@QAA@XZ
??4PrimProcessor@@QAAAAV0@ABV0@@Z
?AllocSpans@PrimProcessor@@QAAJPAIPAPAUtagD3DI_RASTSPAN@@@Z
?AppendPrim@PrimProcessor@@AAAJXZ
?Begin@PrimProcessor@@QAAXXZ
?BeginPrimSet@PrimProcessor@@QAAXW4_D3DPRIMITIVETYPE@@W4_RAST_VERTEX_TYPE@@@Z
?ClrFlags@PrimProcessor@@QAAXI@Z
?End@PrimProcessor@@QAAJXZ
?FillPointSpan@PrimProcessor@@AAAXPAU_D3DTLVERTEX@@PAUtagD3DI_RASTSPAN@@@Z
?Flush@PrimProcessor@@AAAJXZ
?FlushPartial@PrimProcessor@@AAAJXZ
?FreeSpans@PrimProcessor@@QAAXI@Z
?GetFlags@PrimProcessor@@QAAIXZ
?Initialize@PrimProcessor@@QAAJXZ
?Line@PrimProcessor@@QAAJPAU_D3DTLVERTEX@@00@Z
?LineSetup@PrimProcessor@@AAAHPAU_D3DTLVERTEX@@0@Z
?NormalizeLineRHW@PrimProcessor@@AAAXPAU_D3DTLVERTEX@@0@Z
?NormalizePointRHW@PrimProcessor@@AAAXPAU_D3DTLVERTEX@@@Z
?NormalizeTriRHW@PrimProcessor@@AAAXPAU_D3DTLVERTEX@@00@Z
?Point@PrimProcessor@@QAAJPAU_D3DTLVERTEX@@0@Z
?PointDiamondCheck@PrimProcessor@@AAAHHHHH@Z
?ResetBuffer@PrimProcessor@@AAAXXZ
?SetCtx@PrimProcessor@@QAAXPAUtagD3DI_RASTCTX@@@Z
?SetFlags@PrimProcessor@@QAAXI@Z
?SetTriFunctions@PrimProcessor@@AAAXXZ
?StateChanged@PrimProcessor@@QAAXXZ
?Tri@PrimProcessor@@QAAJPAU_D3DTLVERTEX@@00@Z
?TriSetup@PrimProcessor@@AAAHPAU_D3DTLVERTEX@@00@Z
D3D9GetSWInfo
