;
; Definition file of TabBtn.dll
; Automatic generated by gendef
; written by Kai Tietz 2008-2014
;
LIBRARY "TabBtn.dll"
EXPORTS
??0?$CSimpleArray@PAUACTION@@V?$CSimpleArrayEqualHelper@PAUACTION@@@ATL@@@ATL@@QAA@ABV01@@Z
??0?$CSimpleArray@PAUACTION@@V?$CSimpleArrayEqualHelper@PAUACTION@@@ATL@@@ATL@@QAA@XZ
??0?$CSimpleArray@PAVCButtonAction@@V?$CSimpleArrayEqualHelper@PAVCButtonAction@@@ATL@@@ATL@@QAA@ABV01@@Z
??0?$CSimpleArray@PAVCButtonAction@@V?$CSimpleArrayEqualHelper@PAVCButtonAction@@@ATL@@@ATL@@QAA@XZ
??0?$CSimpleArray@PAVCButtonSetting@@V?$CSimpleArrayEqualHelper@PAVCButtonSetting@@@ATL@@@ATL@@QAA@ABV01@@Z
??0?$CSimpleArray@PAVCButtonSetting@@V?$CSimpleArrayEqualHelper@PAVCButtonSetting@@@ATL@@@ATL@@QAA@XZ
??0?$CSimpleArray@PAVCOrientation@@V?$CSimpleArrayEqualHelper@PAVCOrientation@@@ATL@@@ATL@@QAA@ABV01@@Z
??0?$CSimpleArray@PAVCOrientation@@V?$CSimpleArrayEqualHelper@PAVCOrientation@@@ATL@@@ATL@@QAA@XZ
??0?$CSimpleMap@KPAVCButtonImages@@V?$CSimpleMapEqualHelper@KPAVCButtonImages@@@ATL@@@ATL@@QAA@XZ
??0CActions@@QAA@ABV0@@Z
??0CActions@@QAA@XZ
??0CButtonAction@@QAA@W4BUTTONACTION_TYPE@@@Z
??0CButtonConfig@@QAA@ABV0@@Z
??0CButtonConfig@@QAA@XZ
??0CButtonMonitor@@QAA@ABV0@@Z
??0CButtonMonitor@@QAA@XZ
??0CButtonSetting@@QAA@ABV0@@Z
??0CButtonSetting@@QAA@XZ
??0CButtonSettings@@QAA@ABV0@@Z
??0CButtonSettings@@QAA@XZ
??0CFunctionNotification@@QAA@XZ
??0CHidButton@@QAA@PAUHWND__@@II@Z
??0COrientation@@QAA@XZ
??1?$CSimpleArray@PAUACTION@@V?$CSimpleArrayEqualHelper@PAUACTION@@@ATL@@@ATL@@QAA@XZ
??1?$CSimpleArray@PAVCButtonAction@@V?$CSimpleArrayEqualHelper@PAVCButtonAction@@@ATL@@@ATL@@QAA@XZ
??1?$CSimpleArray@PAVCButtonSetting@@V?$CSimpleArrayEqualHelper@PAVCButtonSetting@@@ATL@@@ATL@@QAA@XZ
??1?$CSimpleArray@PAVCOrientation@@V?$CSimpleArrayEqualHelper@PAVCOrientation@@@ATL@@@ATL@@QAA@XZ
??1?$CSimpleMap@KPAVCButtonImages@@V?$CSimpleMapEqualHelper@KPAVCButtonImages@@@ATL@@@ATL@@QAA@XZ
??1CActions@@QAA@XZ
??1CButtonAction@@QAA@XZ
??1CButtonConfig@@QAA@XZ
??1CButtonMonitor@@QAA@XZ
??1CButtonSetting@@QAA@XZ
??1CButtonSettings@@QAA@XZ
??1CFunctionNotification@@QAA@XZ
??1CHidButton@@QAA@XZ
??1COrientation@@QAA@XZ
??4?$CSimpleArray@PAUACTION@@V?$CSimpleArrayEqualHelper@PAUACTION@@@ATL@@@ATL@@QAAAAV01@ABV01@@Z
??4?$CSimpleArray@PAVCButtonAction@@V?$CSimpleArrayEqualHelper@PAVCButtonAction@@@ATL@@@ATL@@QAAAAV01@ABV01@@Z
??4?$CSimpleArray@PAVCButtonSetting@@V?$CSimpleArrayEqualHelper@PAVCButtonSetting@@@ATL@@@ATL@@QAAAAV01@ABV01@@Z
??4?$CSimpleArray@PAVCOrientation@@V?$CSimpleArrayEqualHelper@PAVCOrientation@@@ATL@@@ATL@@QAAAAV01@ABV01@@Z
??4?$CSimpleMap@KPAVCButtonImages@@V?$CSimpleMapEqualHelper@KPAVCButtonImages@@@ATL@@@ATL@@QAAAAV01@ABV01@@Z
??4CActions@@QAAAAV0@ABV0@@Z
??4CButtonAction@@QAAAAV0@ABV0@@Z
??4CButtonConfig@@QAAAAV0@ABV0@@Z
??4CButtonMonitor@@QAAAAV0@ABV0@@Z
??4CButtonSetting@@QAAAAV0@ABV0@@Z
??4CButtonSettings@@QAAAAV0@ABV0@@Z
??4CFunctionNotification@@QAAAAV0@ABV0@@Z
??4CHidButton@@QAAAAV0@ABV0@@Z
??4COrientation@@QAAAAV0@ABV0@@Z
??A?$CSimpleArray@PAUACTION@@V?$CSimpleArrayEqualHelper@PAUACTION@@@ATL@@@ATL@@QAAAAPAUACTION@@H@Z
??A?$CSimpleArray@PAUACTION@@V?$CSimpleArrayEqualHelper@PAUACTION@@@ATL@@@ATL@@QBAABQAUACTION@@H@Z
??A?$CSimpleArray@PAVCButtonAction@@V?$CSimpleArrayEqualHelper@PAVCButtonAction@@@ATL@@@ATL@@QAAAAPAVCButtonAction@@H@Z
??A?$CSimpleArray@PAVCButtonAction@@V?$CSimpleArrayEqualHelper@PAVCButtonAction@@@ATL@@@ATL@@QBAABQAVCButtonAction@@H@Z
??A?$CSimpleArray@PAVCButtonSetting@@V?$CSimpleArrayEqualHelper@PAVCButtonSetting@@@ATL@@@ATL@@QAAAAPAVCButtonSetting@@H@Z
??A?$CSimpleArray@PAVCButtonSetting@@V?$CSimpleArrayEqualHelper@PAVCButtonSetting@@@ATL@@@ATL@@QBAABQAVCButtonSetting@@H@Z
??A?$CSimpleArray@PAVCOrientation@@V?$CSimpleArrayEqualHelper@PAVCOrientation@@@ATL@@@ATL@@QAAAAPAVCOrientation@@H@Z
??A?$CSimpleArray@PAVCOrientation@@V?$CSimpleArrayEqualHelper@PAVCOrientation@@@ATL@@@ATL@@QBAABQAVCOrientation@@H@Z
?Add@?$CSimpleArray@PAUACTION@@V?$CSimpleArrayEqualHelper@PAUACTION@@@ATL@@@ATL@@QAAHABQAUACTION@@@Z
?Add@?$CSimpleArray@PAVCButtonAction@@V?$CSimpleArrayEqualHelper@PAVCButtonAction@@@ATL@@@ATL@@QAAHABQAVCButtonAction@@@Z
?Add@?$CSimpleArray@PAVCButtonSetting@@V?$CSimpleArrayEqualHelper@PAVCButtonSetting@@@ATL@@@ATL@@QAAHABQAVCButtonSetting@@@Z
?Add@?$CSimpleArray@PAVCOrientation@@V?$CSimpleArrayEqualHelper@PAVCOrientation@@@ATL@@@ATL@@QAAHABQAVCOrientation@@@Z
?Add@?$CSimpleMap@KPAVCButtonImages@@V?$CSimpleMapEqualHelper@KPAVCButtonImages@@@ATL@@@ATL@@QAAHABKABQAVCButtonImages@@@Z
?CanRepeat@CButtonAction@@QBAHXZ
?Clone@CButtonAction@@QBAJPAPAV1@@Z
?CreateExtendedActionObject@CButtonMonitor@@SAJPAPAUIUnknown@@@Z
?CreateTrayWindow@CFunctionNotification@@AAAJXZ
?DispatchHidBtnEvents@CHidButton@@QAAJPAUHRAWINPUT__@@@Z
?DoBuiltInAction@CButtonMonitor@@AAAJPAVCButtonAction@@HH@Z
?DoButtonAction@CButtonMonitor@@AAAJPAVCButtonAction@@KHH@Z
?ExecuteObject@CButtonMonitor@@AAAJPBG0@Z
?Find@?$CSimpleArray@PAUACTION@@V?$CSimpleArrayEqualHelper@PAUACTION@@@ATL@@@ATL@@QBAHABQAUACTION@@@Z
?Find@?$CSimpleArray@PAVCButtonAction@@V?$CSimpleArrayEqualHelper@PAVCButtonAction@@@ATL@@@ATL@@QBAHABQAVCButtonAction@@@Z
?Find@?$CSimpleArray@PAVCButtonSetting@@V?$CSimpleArrayEqualHelper@PAVCButtonSetting@@@ATL@@@ATL@@QBAHABQAVCButtonSetting@@@Z
?Find@?$CSimpleArray@PAVCOrientation@@V?$CSimpleArrayEqualHelper@PAVCOrientation@@@ATL@@@ATL@@QBAHABQAVCOrientation@@@Z
?FindActionById@CActions@@QAAPAUACTION@@K@Z
?FindDeviceByHandle@CHidButton@@QAAPAU_hidbtndev@@PAX@Z
?FindKey@?$CSimpleMap@KPAVCButtonImages@@V?$CSimpleMapEqualHelper@KPAVCButtonImages@@@ATL@@@ATL@@QBAHABK@Z
?FindUsage@CHidButton@@AAAHPAU_USAGE_AND_PAGE@@KGG@Z
?FindVal@?$CSimpleMap@KPAVCButtonImages@@V?$CSimpleMapEqualHelper@KPAVCButtonImages@@@ATL@@@ATL@@QBAHABQAVCButtonImages@@@Z
?FreeData@CButtonAction@@QAAXXZ
?GetActionAt@CActions@@QAAPAUACTION@@H@Z
?GetActionFromOrientation@CButtonSetting@@QAAJKPAPAVCButtonAction@@00@Z
?GetAllowedActions@CButtonSetting@@QAAPBGXZ
?GetButtonActionType@CButtonAction@@QBA?BW4BUTTONACTION_TYPE@@XZ
?GetButtonConfig@CButtonMonitor@@QAAPAVCButtonConfig@@XZ
?GetButtonCount@CButtonSettings@@QBAHXZ
?GetButtonFromId@CButtonSettings@@QAAJKPAPAVCButtonSetting@@@Z
?GetButtonIdFromIndex@CButtonSettings@@QAAKK@Z
?GetButtonIds@CButtonSettings@@QBAJPAKH@Z
?GetButtonName@CButtonSetting@@QAAPBGXZ
?GetButtonName@CButtonSettings@@QBAPBGH@Z
?GetCount@CActions@@QAAHXZ
?GetCurrentDisplayOrientation@CButtonConfig@@QAAKXZ
?GetData@?$CSimpleArray@PAUACTION@@V?$CSimpleArrayEqualHelper@PAUACTION@@@ATL@@@ATL@@QBAPAPAUACTION@@XZ
?GetData@?$CSimpleArray@PAVCButtonAction@@V?$CSimpleArrayEqualHelper@PAVCButtonAction@@@ATL@@@ATL@@QBAPAPAVCButtonAction@@XZ
?GetData@?$CSimpleArray@PAVCButtonSetting@@V?$CSimpleArrayEqualHelper@PAVCButtonSetting@@@ATL@@@ATL@@QBAPAPAVCButtonSetting@@XZ
?GetData@?$CSimpleArray@PAVCOrientation@@V?$CSimpleArrayEqualHelper@PAVCOrientation@@@ATL@@@ATL@@QBAPAPAVCOrientation@@XZ
?GetData@CButtonAction@@QBAQAEXZ
?GetDataDWORD@CButtonAction@@QBA?BKXZ
?GetDefSeq@COrientation@@QAAKXZ
?GetDescription@COrientation@@QAAPBGXZ
?GetDetailImage@CButtonSettings@@QAAPAUHBITMAP__@@KK@Z
?GetDisallowedActions@CButtonSetting@@QAAPBGXZ
?GetDisplayOrientationName@CButtonConfig@@QAAPBGK@Z
?GetFlags@CButtonSetting@@QAAKXZ
?GetFnKeyButtonId@CButtonSettings@@QAAKXZ
?GetHidBtnUsages@CHidButton@@AAAHPAU_hidbtndev@@PAUtagRAWINPUT@@GGPAU_USAGE_AND_PAGE@@PAK@Z
?GetId@CButtonAction@@QBAKXZ
?GetId@CButtonSetting@@QAAKXZ
?GetKeyAt@?$CSimpleMap@KPAVCButtonImages@@V?$CSimpleMapEqualHelper@KPAVCButtonImages@@@ATL@@@ATL@@QBAAAKH@Z
?GetKeyName@COrientation@@QAAPBGXZ
?GetLocationImage@CButtonSettings@@QAAPAUHBITMAP__@@KK@Z
?GetMode@COrientation@@QAAKXZ
?GetOrientSeq@CButtonConfig@@QBAKI@Z
?GetOrientSeqCount@CButtonConfig@@QBAKXZ
?GetOrientationMode@CButtonAction@@QBAKXZ
?GetRegType@CButtonAction@@QBAKXZ
?GetSize@?$CSimpleArray@PAUACTION@@V?$CSimpleArrayEqualHelper@PAUACTION@@@ATL@@@ATL@@QBAHXZ
?GetSize@?$CSimpleArray@PAVCButtonAction@@V?$CSimpleArrayEqualHelper@PAVCButtonAction@@@ATL@@@ATL@@QBAHXZ
?GetSize@?$CSimpleArray@PAVCButtonSetting@@V?$CSimpleArrayEqualHelper@PAVCButtonSetting@@@ATL@@@ATL@@QBAHXZ
?GetSize@?$CSimpleArray@PAVCOrientation@@V?$CSimpleArrayEqualHelper@PAVCOrientation@@@ATL@@@ATL@@QBAHXZ
?GetSize@?$CSimpleMap@KPAVCButtonImages@@V?$CSimpleMapEqualHelper@KPAVCButtonImages@@@ATL@@@ATL@@QBAHXZ
?GetSize@CButtonAction@@QBAKXZ
?GetValueAt@?$CSimpleMap@KPAVCButtonImages@@V?$CSimpleMapEqualHelper@KPAVCButtonImages@@@ATL@@@ATL@@QBAAAPAVCButtonImages@@H@Z
HandleTabletButtonMessages
?Hide@CFunctionNotification@@QAAJXZ
?InSession0@CButtonMonitor@@AAAHXZ
?Init@CActions@@QAAJXZ
?Init@CButtonConfig@@QAAJH@Z
?Init@CButtonMonitor@@QAAJPAUHWND__@@@Z
?Init@COrientation@@QAAJPAUHKEY__@@@Z
InitializeTabletButtons
?InternalSetAtIndex@?$CSimpleArray@PAUACTION@@V?$CSimpleArrayEqualHelper@PAUACTION@@@ATL@@@ATL@@QAAXHABQAUACTION@@@Z
?InternalSetAtIndex@?$CSimpleArray@PAVCButtonAction@@V?$CSimpleArrayEqualHelper@PAVCButtonAction@@@ATL@@@ATL@@QAAXHABQAVCButtonAction@@@Z
?InternalSetAtIndex@?$CSimpleArray@PAVCButtonSetting@@V?$CSimpleArrayEqualHelper@PAVCButtonSetting@@@ATL@@@ATL@@QAAXHABQAVCButtonSetting@@@Z
?InternalSetAtIndex@?$CSimpleArray@PAVCOrientation@@V?$CSimpleArrayEqualHelper@PAVCOrientation@@@ATL@@@ATL@@QAAXHABQAVCOrientation@@@Z
?InternalSetAtIndex@?$CSimpleMap@KPAVCButtonImages@@V?$CSimpleMapEqualHelper@KPAVCButtonImages@@@ATL@@@ATL@@QAAXHABKABQAVCButtonImages@@@Z
?IsActionRepeatable@CButtonAction@@SAHK@Z
?IsActionUnsupported@CButtonMonitor@@SAHK@Z
?IsSameAction@CButtonAction@@QBAHPBV1@@Z
?LoadImageDLL@CButtonSettings@@AAAHXZ
?LoadSettings@CButtonConfig@@QAAJXZ
?Lookup@?$CSimpleMap@KPAVCButtonImages@@V?$CSimpleMapEqualHelper@KPAVCButtonImages@@@ATL@@@ATL@@QBAPAVCButtonImages@@ABK@Z
?MakeAllUserActionsEqual@CButtonSetting@@QAAJK@Z
?NotifyFnMode@CButtonMonitor@@AAAJH@Z
?OnActionAppCommand@CButtonMonitor@@AAAJPAVCButtonAction@@HH@Z
?OnActionContextMenu@CButtonMonitor@@AAAJPAVCButtonAction@@HH@Z
?OnActionDisplayOff@CButtonMonitor@@AAAJPAVCButtonAction@@HH@Z
?OnActionLaunchApp@CButtonMonitor@@AAAJPAVCButtonAction@@HH@Z
?OnActionMouseWheel@CButtonMonitor@@AAAJPAVCButtonAction@@HH@Z
?OnActionSendKey@CButtonMonitor@@AAAJPAVCButtonAction@@HH@Z
?OnActionSetOrientation@CButtonMonitor@@AAAJPAVCButtonAction@@HH@Z
?OnActionUnknown@CButtonMonitor@@AAAJPAVCButtonAction@@HH@Z
?OnActionWindowsFlip3d@CButtonMonitor@@AAAJPAVCButtonAction@@HH@Z
?OnActionWindowsFlip@CButtonMonitor@@AAAJPAVCButtonAction@@HH@Z
?OnButtonDown@CButtonMonitor@@AAAXIJ@Z
?OnButtonUp@CButtonMonitor@@AAAXIJ@Z
?OnDisplayChange@CButtonMonitor@@AAAXIJ@Z
?OnFnKeyTimer@CButtonMonitor@@AAAXXZ
?OnHoldTimer@CButtonMonitor@@AAAXXZ
?OnInput@CButtonMonitor@@AAAXIJ@Z
?OnMessage@CButtonMonitor@@QAAXIIJ@Z
?OnRepeatTimer@CButtonMonitor@@AAAXXZ
?OnSettingChange@CButtonMonitor@@AAAXIJ@Z
?OnTimer@CButtonMonitor@@AAAXIJ@Z
?ProcessAction@CButtonMonitor@@AAAJKH@Z
?ProcessEvent@CButtonMonitor@@AAAJKH@Z
?RegReadActions@CButtonConfig@@QAAXPAUHKEY__@@PAVCButtonSetting@@H@Z
?RegReadAndAllocate@CButtonConfig@@SAJPAUHKEY__@@PBGPAKPAPAE2@Z
?RegReadButtonSetting@CButtonConfig@@QAAJPAUHKEY__@@HH@Z
?RegReadButtonsSettings@CButtonConfig@@QAAJXZ
?RegReadDisplayOrientations@CButtonConfig@@QAAJXZ
?RegReadOrientationSeq@CButtonConfig@@QAAJXZ
?RegisterButtonDevices@CButtonMonitor@@QAAJXZ
?RegisterForPopups@CButtonMonitor@@AAAJXZ
?RegisterHidBtnDevice@CHidButton@@QAAPAU_hidbtndev@@PAXPAK@Z
?ReleaseDownButtons@CButtonMonitor@@AAAJXZ
?ReleaseRepeatOrHoldButton@CButtonMonitor@@AAAJXZ
?Remove@?$CSimpleArray@PAUACTION@@V?$CSimpleArrayEqualHelper@PAUACTION@@@ATL@@@ATL@@QAAHABQAUACTION@@@Z
?Remove@?$CSimpleArray@PAVCButtonAction@@V?$CSimpleArrayEqualHelper@PAVCButtonAction@@@ATL@@@ATL@@QAAHABQAVCButtonAction@@@Z
?Remove@?$CSimpleArray@PAVCButtonSetting@@V?$CSimpleArrayEqualHelper@PAVCButtonSetting@@@ATL@@@ATL@@QAAHABQAVCButtonSetting@@@Z
?Remove@?$CSimpleArray@PAVCOrientation@@V?$CSimpleArrayEqualHelper@PAVCOrientation@@@ATL@@@ATL@@QAAHABQAVCOrientation@@@Z
?Remove@?$CSimpleMap@KPAVCButtonImages@@V?$CSimpleMapEqualHelper@KPAVCButtonImages@@@ATL@@@ATL@@QAAHABK@Z
?RemoveAll@?$CSimpleArray@PAUACTION@@V?$CSimpleArrayEqualHelper@PAUACTION@@@ATL@@@ATL@@QAAXXZ
?RemoveAll@?$CSimpleArray@PAVCButtonAction@@V?$CSimpleArrayEqualHelper@PAVCButtonAction@@@ATL@@@ATL@@QAAXXZ
?RemoveAll@?$CSimpleArray@PAVCButtonSetting@@V?$CSimpleArrayEqualHelper@PAVCButtonSetting@@@ATL@@@ATL@@QAAXXZ
?RemoveAll@?$CSimpleArray@PAVCOrientation@@V?$CSimpleArrayEqualHelper@PAVCOrientation@@@ATL@@@ATL@@QAAXXZ
?RemoveAll@?$CSimpleMap@KPAVCButtonImages@@V?$CSimpleMapEqualHelper@KPAVCButtonImages@@@ATL@@@ATL@@QAAXXZ
?RemoveAt@?$CSimpleArray@PAUACTION@@V?$CSimpleArrayEqualHelper@PAUACTION@@@ATL@@@ATL@@QAAHH@Z
?RemoveAt@?$CSimpleArray@PAVCButtonAction@@V?$CSimpleArrayEqualHelper@PAVCButtonAction@@@ATL@@@ATL@@QAAHH@Z
?RemoveAt@?$CSimpleArray@PAVCButtonSetting@@V?$CSimpleArrayEqualHelper@PAVCButtonSetting@@@ATL@@@ATL@@QAAHH@Z
?RemoveAt@?$CSimpleArray@PAVCOrientation@@V?$CSimpleArrayEqualHelper@PAVCOrientation@@@ATL@@@ATL@@QAAHH@Z
?RemoveAt@?$CSimpleMap@KPAVCButtonImages@@V?$CSimpleMapEqualHelper@KPAVCButtonImages@@@ATL@@@ATL@@QAAHH@Z
?ResetDeprecatedAction@CButtonConfig@@AAAXPAVCButtonAction@@@Z
?ReverseLookup@?$CSimpleMap@KPAVCButtonImages@@V?$CSimpleMapEqualHelper@KPAVCButtonImages@@@ATL@@@ATL@@QBAKABQAVCButtonImages@@@Z
?SaveSettings@CButtonConfig@@QAAJXZ
?SendAppCommand@CButtonMonitor@@AAAJG@Z
?SendModKeys@CButtonMonitor@@CAXEH@Z
?SendVKey@CButtonMonitor@@CAXEEH@Z
?Set@CButtonAction@@QAAJPBV1@@Z
?SetAt@?$CSimpleMap@KPAVCButtonImages@@V?$CSimpleMapEqualHelper@KPAVCButtonImages@@@ATL@@@ATL@@QAAHABKABQAVCButtonImages@@@Z
?SetAtIndex@?$CSimpleArray@PAUACTION@@V?$CSimpleArrayEqualHelper@PAUACTION@@@ATL@@@ATL@@QAAHHABQAUACTION@@@Z
?SetAtIndex@?$CSimpleArray@PAVCButtonAction@@V?$CSimpleArrayEqualHelper@PAVCButtonAction@@@ATL@@@ATL@@QAAHHABQAVCButtonAction@@@Z
?SetAtIndex@?$CSimpleArray@PAVCButtonSetting@@V?$CSimpleArrayEqualHelper@PAVCButtonSetting@@@ATL@@@ATL@@QAAHHABQAVCButtonSetting@@@Z
?SetAtIndex@?$CSimpleArray@PAVCOrientation@@V?$CSimpleArrayEqualHelper@PAVCOrientation@@@ATL@@@ATL@@QAAHHABQAVCOrientation@@@Z
?SetAtIndex@?$CSimpleMap@KPAVCButtonImages@@V?$CSimpleMapEqualHelper@KPAVCButtonImages@@@ATL@@@ATL@@QAAHHABKABQAVCButtonImages@@@Z
?SetData@CButtonAction@@QAAJQAEK@Z
?SetDataDWORD@CButtonAction@@QAAJK@Z
?SetDisplayOrientation@CButtonMonitor@@AAAJH@Z
?SetDisplayPower@CButtonMonitor@@AAAXH@Z
?SetId@CButtonAction@@QAAXK@Z
?ShouldButtonShowUI@CButtonSettings@@QBAHH@Z
?ShouldSendEscapeForBack@CButtonMonitor@@AAAHXZ
?Show@CFunctionNotification@@QAAJXZ
?ShowWindowSwitchWindow@CButtonMonitor@@CAJXZ
UninitializeTabletButtons
?UnregisterButtonDevices@CButtonMonitor@@QAAJXZ
?UnregisterHidBtnDevice@CHidButton@@QAAHPAU_hidbtndev@@PAK@Z
?UpdateButtonRates@CButtonConfig@@QAAJXZ
?UpdateCurrentDisplayOrientation@CButtonConfig@@QAAXXZ
?WinEventProc@CButtonMonitor@@SAXPAUHWINEVENTHOOK__@@KPAUHWND__@@JJKK@Z
?WindowProc@CFunctionNotification@@SAJPAUHWND__@@IIJ@Z
?sm_dwPopupCount@CButtonMonitor@@2KA DATA
