;
; Definition file of TCPMIB.dll
; Automatic generated by gendef
; written by Kai Tietz 2008-2014
;
LIBRARY "TCPMIB.dll"
EXPORTS
??0CTcpMib@@QAA@ABV0@@Z
??0CTcpMib@@QAA@XZ
??0CTcpMibABC@@QAA@ABV0@@Z
??0CTcpMibABC@@QAA@XZ
??1CTcpMib@@UAA@XZ
??1CTcpMibABC@@UAA@XZ
??4CTcpMib@@QAAAAV0@ABV0@@Z
??4CTcpMibABC@@QAAAAV0@ABV0@@Z
??_7CTcpMib@@6B@ DATA
??_7CTcpMibABC@@6B@ DATA
?GetDeviceDescription@CTcpMib@@UAAKPBD0KPAGK@Z
?GetDeviceId@CTcpMib@@UAAJPBGKPAGKPAK@Z
?GetDeviceIdFromIni@CTcpMib@@AAAJPBGKPAGKPAK@Z
?GetDeviceIdFromMib@CTcpMib@@AAAJPBGKPAGKPAK@Z
?GetNextRequestId@CTcpMib@@UAAKPAK@Z
?GetPortList@CTcpMib@@UAAJPBGPAEKPAK@Z
?GetPortListFromIni@CTcpMib@@AAAJPBGPAEKPAK@Z
?GetPortListFromMib@CTcpMib@@AAAJPBGPAEKPAK@Z
?GetStatusFromVBL@CTcpMib@@CAKPAXPAUsmiVALUE@@11@Z
?InitSnmp@CTcpMib@@UAAKXZ
?IsValid@CTcpMib@@QBAHXZ
?MapAsynchToPortStatus@CTcpMib@@CAHKPAU_PORT_INFO_3W@@@Z
?RFC1157ToString@CTcpMib@@UAAHPAUSnmpVarBind@@PAGKPAK@Z
?RegisterDeviceStatusCallback@CTcpMib@@UAAKP6AKHPBD0KKK@ZPAPAX@Z
?RequestDeviceStatus@CTcpMib@@UAAKPAXKPBG1K@Z
?SnmpCallback@CTcpMib@@CAKPAXPAUHWND__@@IIJ0@Z
?SnmpGet@CTcpMib@@QAAKPBD0PAUSnmpVarBindList@@@Z
?SnmpGet@CTcpMib@@UAAKPBD00PAUSnmpVarBindList@@@Z
?SnmpGet@CTcpMib@@UAAKPBD0PAUAsnObjectIdentifier@@PAUSnmpVarBindList@@@Z
?SnmpGetNext@CTcpMib@@QAAKPBD0PAUSnmpVarBindList@@@Z
?SnmpGetNext@CTcpMib@@UAAKPBD0PAUAsnObjectIdentifier@@PAUSnmpVarBindList@@@Z
?SupportsPortMonMib@CTcpMib@@AAAJPBGPAH@Z
?SupportsPrinterMib@CTcpMib@@UAAHPBD0KPAH@Z
?UnInitSnmp@CTcpMib@@UAAXXZ
GetTcpMibPtr
