;
; Definition file of TQUERY.DLL
; Automatic generated by gendef
; written by Kai Tietz 2008-2014
;
LIBRARY "TQUERY.DLL"
EXPORTS
??0CDriveInfo@@QAA@PBGK@Z
??0CFullPath@@QAA@PBG@Z
??0CFullPropSpec@@QAA@ABV0@@Z
??0CMemSerStream@@QAA@PAEK@Z
??0CPidLookupTable@@QAA@XZ
??0CUnNormalizer@@QAA@XZ
??0CiStorage@@QAA@PBGKPAUICiCAdviseStatus@@KH@Z
??0XAct@@QAA@XZ
??1CMemSerStream@@UAA@XZ
??1CPhysStorage@@UAA@XZ
??1CPidLookupTable@@QAA@XZ
??1CiStorage@@UAA@XZ
?CoTaskAllocator@@3VCCoTaskAllocator@@A DATA
?ContainsDrive@CDriveInfo@@SAHPBG@Z
CreatePropMapperStorage
CreateSecurityStoreStorage
?EnumerateProperty@CPidLookupTable@@QAAKAAVCFullPropSpec@@AAI@Z
ExceptInitialize
?GetBlob@CMemDeSerStream@@UAAXPAEK@Z
?GetByte@CMemDeSerStream@@UAAEXZ
?GetChar@CMemDeSerStream@@UAAXPADK@Z
?GetDiskSpace@CDriveInfo@@QAAXAA_J0@Z
?GetDouble@CMemDeSerStream@@UAANXZ
?GetDrive@CDriveInfo@@SAXPBGPAG@Z
?GetFloat@CMemDeSerStream@@UAAMXZ
?GetGUID@CMemDeSerStream@@UAAXAAU_GUID@@@Z
?GetLong@CMemDeSerStream@@UAAJXZ
?GetSectorSize@CDriveInfo@@QAAKXZ
?GetString@CMemDeSerStream@@UAAPADXZ
?GetULong@CMemDeSerStream@@UAAKXZ
?GetUShort@CMemDeSerStream@@UAAGXZ
?GetWChar@CMemDeSerStream@@UAAXPAGK@Z
?GetWString@CMemDeSerStream@@UAAPAGXZ
?Init@CPidLookupTable@@QAAHPAVPRcovStorageObj@@@Z
?IsSameDrive@CDriveInfo@@QAAHPBG@Z
?IsWriteProtected@CDriveInfo@@QAAHXZ
?MakePath@CFullPath@@QAAXPBG@Z
?PeekULong@CMemDeSerStream@@UAAKXZ
?PutBlob@CMemSerStream@@UAAXPBEK@Z
?PutByte@CMemSerStream@@UAAXE@Z
?PutChar@CMemSerStream@@UAAXPBDK@Z
?PutDouble@CMemSerStream@@UAAXN@Z
?PutFloat@CMemSerStream@@UAAXM@Z
?PutGUID@CMemSerStream@@UAAXABU_GUID@@@Z
?PutLong@CMemSerStream@@UAAXJ@Z
?PutString@CMemSerStream@@UAAXPBD@Z
?PutULong@CMemSerStream@@UAAXK@Z
?PutUShort@CMemSerStream@@UAAXG@Z
?PutWChar@CMemSerStream@@UAAXPBGK@Z
?PutWString@CMemSerStream@@UAAXPBG@Z
?QueryPidLookupTable@CiStorage@@QAAPAVPRcovStorageObj@@K@Z
?Read@CCiFile@@QAAXXZ
?ResetType@CAllocStorageVariant@@IAAXAAVPMemoryAllocator@@@Z
?SetLPWSTR@CStorageVariant@@QAAXPBGI@Z
?SetProperty@CFullPropSpec@@QAAHPBG@Z
?SetProperty@CFullPropSpec@@QAAXK@Z
?SkipBlob@CMemDeSerStream@@UAAXK@Z
?SkipByte@CMemDeSerStream@@UAAXXZ
?SkipChar@CMemDeSerStream@@UAAXK@Z
?SkipDouble@CMemDeSerStream@@UAAXXZ
?SkipFloat@CMemDeSerStream@@UAAXXZ
?SkipGUID@CMemDeSerStream@@UAAXXZ
?SkipLong@CMemDeSerStream@@UAAXXZ
?SkipULong@CMemDeSerStream@@UAAXXZ
?SkipUShort@CMemDeSerStream@@UAAXXZ
?SkipWChar@CMemDeSerStream@@UAAXK@Z
?UnNormalizeKey@CUnNormalizer@@QAAXABVCKeyBuf@@AAUtagPROPVARIANT@@PAGK@Z
UseLowFragmentationHeap
?ciDelete@@YAXPAX@Z
?ciNew@@YAPAXI@Z
?ciNewNoThrow@@YAPAXI@Z
AccessDebugTracer
AccessRetailTracer
CIState
ExternPropagateEventToOpenQueries
ForceMasterMerge
PerfmonClose
PerfmonCollect
PerfmonIDXClose
PerfmonIDXCollect
PerfmonIDXOpen
PerfmonOpen
RetailTracerDisable
RetailTracerEnable
RetailTracerReleaseAll
