;
; Definition file of UEXFAT.dll
; Automatic generated by gendef
; written by Kai Tietz 2008-2014
;
LIBRARY "UEXFAT.dll"
EXPORTS
??0CLUSTER_CHAIN@@QAA@XZ
??0EXFATDIR@@QAA@XZ
??0EXFAT_DIRENT@@QAA@XZ
??0EXFAT_SA@@QAA@XZ
??0EXFAT_VOL@@QAA@XZ
??1CLUSTER_CHAIN@@UAA@XZ
??1EXFATDIR@@UAA@XZ
??1EXFAT_DIRENT@@UAA@XZ
??1EXFAT_SA@@UAA@XZ
??1EXFAT_VOL@@UAA@XZ
?AllocChain@FAT@@QAAKPAVEXFATBITMAP@@KPAK@Z
Chkdsk
ChkdskEx
Format
FormatEx
?FreeChain@FAT@@QAAXPAVEXFATBITMAP@@K@Z
GetFilesystemInformation
?Initialize@CLUSTER_CHAIN@@QAAEPAVMEM@@PAVLOG_IO_DP_DRIVE@@PAVEXFAT_SA@@PBVFAT@@KKE@Z
?Initialize@EXFATDIR@@QAAEPAVHMEM@@PAVLOG_IO_DP_DRIVE@@PAVEXFAT_SA@@PBVFAT@@K_KE@Z
?Initialize@EXFAT_DIRENT@@QAAEPAVEXFAT_SA@@PAXPAVEXFATDIR@@K@Z
?Initialize@EXFAT_SA@@QAAEPAVLOG_IO_DP_DRIVE@@PAVMESSAGE@@@Z
?Initialize@EXFAT_VOL@@QAA?AW4FORMAT_ERROR_CODE@@PBVWSTRING@@PAVMESSAGE@@EEW4_MEDIA_TYPE@@EE@Z
?QueryAllocatedClusters@FAT@@QBAKXZ
?QueryFileSize@EXFAT_DIRENT@@QAA_JXZ
?QueryLengthOfChain@FAT@@QBAKKPAK@Z
?QueryNthCluster@FAT@@QBAKKK@Z
?QueryStartingCluster@EXFAT_DIRENT@@QAAKXZ
?Read@CLUSTER_CHAIN@@UAAEXZ
?ReadAndRecordBadSectors@CLUSTER_CHAIN@@QAAEPAVEXFATSECRUNBITMAP@@@Z
Recover
?SetFileSize@EXFAT_DIRENT@@QAAE_J@Z
?SetStartingCluster@EXFAT_DIRENT@@QAAEK@Z
?VerifyAndFixPhase2@EXFAT_DIRENT@@QAAEPAVEXFATBITMAP@@0PAVWSTRING@@EEEW4FIX_LEVEL@@PAEPAVMESSAGE@@@Z
?Write@CLUSTER_CHAIN@@UAAEXZ
?WriteAndSkipBadSectors@CLUSTER_CHAIN@@QAAEXZ
