;
; Definition file of UFAT.dll
; Automatic generated by gendef
; written by Kai Tietz 2008-2014
;
LIBRARY "UFAT.dll"
EXPORTS
??0CLUSTER_CHAIN@@QAA@XZ
??0EA_HEADER@@QAA@XZ
??0EA_SET@@QAA@XZ
??0FAT_DIRENT@@QAA@XZ
??0FAT_SA@@QAA@XZ
??0FILEDIR@@QAA@XZ
??0REAL_FAT_SA@@QAA@XZ
??0ROOTDIR@@QAA@XZ
??1CLUSTER_CHAIN@@UAA@XZ
??1EA_HEADER@@UAA@XZ
??1EA_SET@@UAA@XZ
??1FAT_DIRENT@@UAA@XZ
??1FAT_SA@@UAA@XZ
??1FILEDIR@@UAA@XZ
??1REAL_FAT_SA@@UAA@XZ
??1ROOTDIR@@UAA@XZ
?AllocChain@FAT@@QAAKKPAK@Z
?FreeChain@FAT@@QAAXK@Z
?GetEa@EA_SET@@QAAPAU_EA@@KPAJPAE@Z
?Index12@FAT@@ABAKK@Z
?InitFATChkDirty@REAL_FAT_SA@@QAAEPAVLOG_IO_DP_DRIVE@@PAVMESSAGE@@@Z
?Initialize@CLUSTER_CHAIN@@QAAEPAVMEM@@PAVLOG_IO_DP_DRIVE@@PAVFAT_SA@@PBVFAT@@KK@Z
?Initialize@EA_HEADER@@QAAEPAVMEM@@PAVLOG_IO_DP_DRIVE@@PAVFAT_SA@@PBVFAT@@KK@Z
?Initialize@EA_SET@@QAAEPAVMEM@@PAVLOG_IO_DP_DRIVE@@PAVFAT_SA@@PBVFAT@@KK@Z
?Initialize@FAT_DIRENT@@QAAEPAX@Z
?Initialize@FAT_DIRENT@@QAAEPAXE@Z
?Initialize@FILEDIR@@QAAEPAVMEM@@PAVLOG_IO_DP_DRIVE@@PAVFAT_SA@@PBVFAT@@K@Z
?Initialize@REAL_FAT_SA@@UAAEPAVLOG_IO_DP_DRIVE@@PAVMESSAGE@@E@Z
?Initialize@ROOTDIR@@QAAEPAVMEM@@PAVLOG_IO_DP_DRIVE@@KJ@Z
?IsValidCreationTime@FAT_DIRENT@@QBAEXZ
?IsValidLastAccessTime@FAT_DIRENT@@QBAEXZ
?IsValidLastWriteTime@FAT_DIRENT@@QBAEXZ
?QueryAllocatedClusters@FAT@@QBAKXZ
?QueryCensusAndRelocate@FAT_SA@@QAAEPAU_CENSUS_REPORT@@PAVINTSTACK@@PAE@Z
?QueryCreationTime@FAT_DIRENT@@QBAEPAT_LARGE_INTEGER@@@Z
?QueryEaSetClusterNumber@EA_HEADER@@QBAGG@Z
?QueryFileStartingCluster@FAT_SA@@QAAKPBVWSTRING@@PAVHMEM@@PAPAVFATDIR@@PAEPAVFAT_DIRENT@@@Z
?QueryFreeSectors@REAL_FAT_SA@@QBAKXZ
?QueryLastAccessTime@FAT_DIRENT@@QBAEPAT_LARGE_INTEGER@@@Z
?QueryLastWriteTime@FAT_DIRENT@@QBAEPAT_LARGE_INTEGER@@@Z
?QueryLengthOfChain@FAT@@QBAKKPAK@Z
?QueryLongName@FATDIR@@QAAEJPAVWSTRING@@@Z
?QueryName@FAT_DIRENT@@QBAEPAVWSTRING@@@Z
?QueryNthCluster@FAT@@QBAKKK@Z
?Read@CLUSTER_CHAIN@@UAAEXZ
?Read@EA_SET@@UAAEXZ
?Read@REAL_FAT_SA@@UAAEPAVMESSAGE@@@Z
?SearchForDirEntry@FATDIR@@QAAPAXPBVWSTRING@@@Z
?Set12@FAT@@AAAXKK@Z
?Write@CLUSTER_CHAIN@@UAAEXZ
Chkdsk
ChkdskEx
Format
FormatEx
GetFilesystemInformation
Recover
