;
; Definition file of UNTFS.dll
; Automatic generated by gendef
; written by Kai Tietz 2008-2014
;
LIBRARY "UNTFS.dll"
EXPORTS
??0NTFS_ATTRIBUTE@@QAA@XZ
??0NTFS_ATTRIBUTE_DEFINITION_TABLE@@QAA@XZ
??0NTFS_ATTRIBUTE_LIST@@QAA@XZ
??0NTFS_ATTRIBUTE_RECORD@@QAA@XZ
??0NTFS_BAD_CLUSTER_FILE@@QAA@XZ
??0NTFS_BITMAP@@QAA@XZ
??0NTFS_BITMAP_FILE@@QAA@XZ
??0NTFS_BOOT_FILE@@QAA@XZ
??0NTFS_CLUSTER_RUN@@QAA@XZ
??0NTFS_EXTENT_LIST@@QAA@XZ
??0NTFS_FILE_RECORD_SEGMENT@@QAA@XZ
??0NTFS_FRS_STRUCTURE@@QAA@XZ
??0NTFS_INDEX_TREE@@QAA@XZ
??0NTFS_LOG_FILE@@QAA@XZ
??0NTFS_MFT_FILE@@QAA@XZ
??0NTFS_MFT_INFO@@QAA@XZ
??0NTFS_REFLECTED_MASTER_FILE_TABLE@@QAA@XZ
??0NTFS_SA@@QAA@XZ
??0NTFS_UPCASE_FILE@@QAA@XZ
??0NTFS_UPCASE_TABLE@@QAA@XZ
??0NTFS_VOLUME_FILE@@QAA@XZ
??1NTFS_ATTRIBUTE@@UAA@XZ
??1NTFS_ATTRIBUTE_DEFINITION_TABLE@@UAA@XZ
??1NTFS_ATTRIBUTE_LIST@@UAA@XZ
??1NTFS_ATTRIBUTE_RECORD@@UAA@XZ
??1NTFS_BAD_CLUSTER_FILE@@UAA@XZ
??1NTFS_BITMAP@@UAA@XZ
??1NTFS_BITMAP_FILE@@UAA@XZ
??1NTFS_BOOT_FILE@@UAA@XZ
??1NTFS_CLUSTER_RUN@@UAA@XZ
??1NTFS_EXTENT_LIST@@UAA@XZ
??1NTFS_FILE_RECORD_SEGMENT@@UAA@XZ
??1NTFS_FRS_STRUCTURE@@UAA@XZ
??1NTFS_INDEX_TREE@@UAA@XZ
??1NTFS_LOG_FILE@@UAA@XZ
??1NTFS_MFT_FILE@@UAA@XZ
??1NTFS_MFT_INFO@@UAA@XZ
??1NTFS_REFLECTED_MASTER_FILE_TABLE@@UAA@XZ
??1NTFS_SA@@UAA@XZ
??1NTFS_UPCASE_FILE@@UAA@XZ
??1NTFS_UPCASE_TABLE@@UAA@XZ
??1NTFS_VOLUME_FILE@@UAA@XZ
?AddExtent@NTFS_EXTENT_LIST@@QAAEVBIG_INT@@00@Z
?AddFileNameAttribute@NTFS_FILE_RECORD_SEGMENT@@QAAEPAU_FILE_NAME@@@Z
?AddSecurityDescriptor@NTFS_FILE_RECORD_SEGMENT@@QAAEW4_CANNED_SECURITY_TYPE@@PAVNTFS_BITMAP@@@Z
?AddSecurityDescriptorData@NTFS_FILE_RECORD_SEGMENT@@QAAEPAVNTFS_ATTRIBUTE@@PAXPAPAU_SECURITY_ENTRY@@KW4_CANNED_SECURITY_TYPE@@PAVNTFS_BITMAP@@E@Z
?AllocateFileRecordSegment@NTFS_MASTER_FILE_TABLE@@QAAEPAVBIG_INT@@E@Z
?CompareDupInfo@NTFS_MFT_INFO@@SAEPAXPAU_FILE_NAME@@@Z
?CompareFileName@NTFS_MFT_INFO@@SAEPAXKPAU_FILE_NAME@@PAG@Z
?ComputeDupInfoSignature@NTFS_MFT_INFO@@CAXPAU_DUPLICATED_INFORMATION@@QAE@Z
?ComputeFileNameSignature@NTFS_MFT_INFO@@CAXKPAU_FILE_NAME@@QAE@Z
?CopyIterator@NTFS_INDEX_TREE@@QAAEPAV1@@Z
?Create@NTFS_FILE_RECORD_SEGMENT@@QAAEPBU_STANDARD_INFORMATION@@G@Z
?CreateDataAttribute@NTFS_LOG_FILE@@QAAEVBIG_INT@@KPAVNTFS_BITMAP@@@Z
?CreateElementaryStructures@NTFS_SA@@QAAEPAVNTFS_BITMAP@@KKKKPBVNUMBER_SET@@EEEKPAVMESSAGE@@PAUBIOS_PARAMETER_BLOCK@@PBVWSTRING@@@Z
?Extend@NTFS_MASTER_FILE_TABLE@@QAAEK@Z
?Flush@NTFS_FILE_RECORD_SEGMENT@@QAAEPAVNTFS_BITMAP@@PAVNTFS_INDEX_TREE@@E@Z
?Flush@NTFS_MFT_FILE@@QAAEXZ
?GetNext@NTFS_INDEX_TREE@@QAAPBU_INDEX_ENTRY@@PAKPAEE@Z
?GetNextAttributeListEntry@NTFS_ATTRIBUTE_LIST@@QBAPBU_ATTRIBUTE_LIST_ENTRY@@PBU2@@Z
?GetNextAttributeRecord@NTFS_FRS_STRUCTURE@@QAAPAXPBXPAVMESSAGE@@PAE@Z
?GetRootFrsIndex@NTFS_SA@@SAEPAVNTFS_MFT_FILE@@PAVNTFS_FILE_RECORD_SEGMENT@@PAVNTFS_INDEX_TREE@@@Z
?Initialize@NTFS_ATTRIBUTE@@QAAEPAVLOG_IO_DP_DRIVE@@KPBVNTFS_EXTENT_LIST@@VBIG_INT@@2KPBVWSTRING@@G@Z
?Initialize@NTFS_ATTRIBUTE@@QAAEPAVLOG_IO_DP_DRIVE@@KPBXKKPBVWSTRING@@G@Z
?Initialize@NTFS_ATTRIBUTE_DEFINITION_TABLE@@QAAEPAVNTFS_MASTER_FILE_TABLE@@E@Z
?Initialize@NTFS_ATTRIBUTE_RECORD@@QAAEPAVIO_DP_DRIVE@@PAX@Z
?Initialize@NTFS_BAD_CLUSTER_FILE@@QAAEPAVNTFS_MASTER_FILE_TABLE@@@Z
?Initialize@NTFS_BITMAP@@QAAEVBIG_INT@@EPAVLOG_IO_DP_DRIVE@@KE@Z
?Initialize@NTFS_BITMAP_FILE@@QAAEPAVNTFS_MASTER_FILE_TABLE@@@Z
?Initialize@NTFS_BOOT_FILE@@QAAEPAVNTFS_MASTER_FILE_TABLE@@@Z
?Initialize@NTFS_CLUSTER_RUN@@QAAEPAVMEM@@PAVLOG_IO_DP_DRIVE@@VBIG_INT@@KK@Z
?Initialize@NTFS_EXTENT_LIST@@QAAEVBIG_INT@@0@Z
?Initialize@NTFS_FILE_RECORD_SEGMENT@@QAAEPAVNTFS_FRS_STRUCTURE@@PAVNTFS_MASTER_FILE_TABLE@@@Z
?Initialize@NTFS_FILE_RECORD_SEGMENT@@QAAEVBIG_INT@@KPAVNTFS_MASTER_FILE_TABLE@@@Z
?Initialize@NTFS_FILE_RECORD_SEGMENT@@QAAEVBIG_INT@@PAVNTFS_MASTER_FILE_TABLE@@@Z
?Initialize@NTFS_FILE_RECORD_SEGMENT@@QAAEVBIG_INT@@PAVNTFS_MFT_FILE@@@Z
?Initialize@NTFS_FILE_RECORD_SEGMENT@@QAAEXZ
?Initialize@NTFS_FRS_STRUCTURE@@QAAEPAU_FILE_RECORD_SEGMENT_HEADER@@PAVNTFS_ATTRIBUTE@@VBIG_INT@@KK2KPAVNTFS_UPCASE_TABLE@@@Z
?Initialize@NTFS_FRS_STRUCTURE@@QAAEPAVMEM@@PAVLOG_IO_DP_DRIVE@@VBIG_INT@@K2KPAVNTFS_UPCASE_TABLE@@K@Z
?Initialize@NTFS_FRS_STRUCTURE@@QAAEPAVMEM@@PAVNTFS_ATTRIBUTE@@VBIG_INT@@K2KPAVNTFS_UPCASE_TABLE@@@Z
?Initialize@NTFS_FRS_STRUCTURE@@QAAEPAVMEM@@PAVNTFS_ATTRIBUTE@@VBIG_INT@@KK2KPAVNTFS_UPCASE_TABLE@@@Z
?Initialize@NTFS_INDEX_TREE@@QAAEKPAVLOG_IO_DP_DRIVE@@KPAVNTFS_BITMAP@@PAVNTFS_UPCASE_TABLE@@KKKPBVWSTRING@@@Z
?Initialize@NTFS_INDEX_TREE@@QAAEPAVLOG_IO_DP_DRIVE@@KPAVNTFS_BITMAP@@PAVNTFS_UPCASE_TABLE@@KPAVNTFS_FILE_RECORD_SEGMENT@@PBVWSTRING@@@Z
?Initialize@NTFS_LOG_FILE@@QAAEPAVNTFS_MASTER_FILE_TABLE@@@Z
?Initialize@NTFS_MFT_FILE@@QAAEPAVLOG_IO_DP_DRIVE@@VBIG_INT@@KK1PAVNTFS_BITMAP@@PAVNTFS_UPCASE_TABLE@@PAVNTFS_ATTRIBUTE@@@Z
?Initialize@NTFS_MFT_INFO@@QAAEVBIG_INT@@PAVNTFS_UPCASE_TABLE@@EE_K@Z
?Initialize@NTFS_MFT_INFO@@QAAEXZ
?Initialize@NTFS_REFLECTED_MASTER_FILE_TABLE@@QAAEPAVNTFS_MASTER_FILE_TABLE@@@Z
?Initialize@NTFS_SA@@QAAEPAVLOG_IO_DP_DRIVE@@PAVMESSAGE@@VBIG_INT@@2@Z
?Initialize@NTFS_UPCASE_FILE@@QAAEPAVNTFS_MASTER_FILE_TABLE@@@Z
?Initialize@NTFS_UPCASE_TABLE@@QAAEPAVNTFS_ATTRIBUTE@@PA_K@Z
?Initialize@NTFS_VOLUME_FILE@@QAAEPAVLOG_IO_DP_DRIVE@@PAVNTFS_MASTER_FILE_TABLE@@PAVNTFS_FILE_RECORD_SEGMENT@@PAVNTFS_INDEX_TREE@@PAU_VOLUME_INFORMATION@@PAVWSTRING@@W4FIX_LEVEL@@@Z
?InsertEntry@NTFS_INDEX_TREE@@QAAEKPAXU_MFT_SEGMENT_REFERENCE@@E@Z
?InsertIntoFile@NTFS_ATTRIBUTE@@UAAEPAVNTFS_FILE_RECORD_SEGMENT@@PAVNTFS_BITMAP@@@Z
?IsAllocated@NTFS_BITMAP@@QBAEVBIG_INT@@0@Z
?IsAttributePresent@NTFS_FILE_RECORD_SEGMENT@@QAAEKPBVWSTRING@@E@Z
?IsDosName@NTFS_SA@@SAEPBU_FILE_NAME@@@Z
?IsFree@NTFS_BITMAP@@QBAEVBIG_INT@@0@Z
?IsNtfsName@NTFS_SA@@SAEPBU_FILE_NAME@@@Z
?MakeNonresident@NTFS_ATTRIBUTE@@UAAEPAVNTFS_BITMAP@@@Z
?NtfsUpcaseCompare@@YAJPBGK0KPBVNTFS_UPCASE_TABLE@@E@Z
?Prefetch@NTFS_ATTRIBUTE@@QAAEVBIG_INT@@K@Z
?Prefetch@NTFS_FRS_STRUCTURE@@QAAEVBIG_INT@@0@Z
?QueryAttribute@NTFS_FILE_RECORD_SEGMENT@@QAAEPAVNTFS_ATTRIBUTE@@PAEKPBVWSTRING@@@Z
?QueryAttributeByOrdinal@NTFS_FILE_RECORD_SEGMENT@@QAAEPAVNTFS_ATTRIBUTE@@PAEKK@Z
?QueryAttributeList@NTFS_FRS_STRUCTURE@@QAAEPAVNTFS_ATTRIBUTE_LIST@@@Z
?QueryAttributeListAttribute@NTFS_FILE_RECORD_SEGMENT@@QAAEPAVNTFS_ATTRIBUTE@@PAE@Z
?QueryClusterFactor@NTFS_SA@@QBAEXZ
?QueryDefaultClustersPerIndexBuffer@NTFS_SA@@SAKPBVDP_DRIVE@@K@Z
?QueryDuplicatedInformation@NTFS_FILE_RECORD_SEGMENT@@QAAEPAU_DUPLICATED_INFORMATION@@@Z
?QueryEntry@NTFS_INDEX_TREE@@QAAEKPAXKPAPAU_INDEX_ENTRY@@PAPAVNTFS_INDEX_BUFFER@@PAE@Z
?QueryExtent@NTFS_EXTENT_LIST@@QBAEKPAVBIG_INT@@00@Z
?QueryExtentList@NTFS_ATTRIBUTE_RECORD@@QBAEPAVNTFS_EXTENT_LIST@@@Z
?QueryFileReference@NTFS_INDEX_TREE@@QAAEKPAXKPAU_MFT_SEGMENT_REFERENCE@@PAE@Z
?QueryFileSizes@NTFS_FILE_RECORD_SEGMENT@@QAAEPAVBIG_INT@@0PAE@Z
?QueryFlags@NTFS_MFT_INFO@@SAEPAXG@Z
?QueryFrsFromPath@NTFS_SA@@QAAEPBVWSTRING@@PAVNTFS_MASTER_FILE_TABLE@@PAVNTFS_BITMAP@@PAVNTFS_FILE_RECORD_SEGMENT@@PAE4@Z
?QueryLcnFromVcn@NTFS_EXTENT_LIST@@QBAEVBIG_INT@@PAV2@1@Z
?QueryName@NTFS_ATTRIBUTE_RECORD@@QBAEPAVWSTRING@@@Z
?QueryNextEntry@NTFS_ATTRIBUTE_LIST@@QBAEPAU_ATTR_LIST_CURR_ENTRY@@PAKPAVBIG_INT@@PAU_MFT_SEGMENT_REFERENCE@@PAGPAVWSTRING@@@Z
?QueryNumberOfExtents@NTFS_EXTENT_LIST@@QBAKXZ
?QuerySectorsInElementaryStructures@NTFS_SA@@SAKPAVDP_DRIVE@@KKKK@Z
?QuerySegmentReference@NTFS_MFT_INFO@@SA?AU_MFT_SEGMENT_REFERENCE@@PAX@Z
?QueryVolumeFlagsAndLabel@NTFS_SA@@QAAGPAE00PAVWSTRING@@@Z
?Read@NTFS_ATTRIBUTE@@QAAEPAXVBIG_INT@@KPAK@Z
?Read@NTFS_FRS_STRUCTURE@@QAAEVBIG_INT@@@Z
?Read@NTFS_FRS_STRUCTURE@@UAAEXZ
?Read@NTFS_MFT_FILE@@UAAEXZ
?Read@NTFS_SA@@QAAEPAVMESSAGE@@@Z
?Read@NTFS_SA@@UAAEXZ
?ReadAgain@NTFS_FRS_STRUCTURE@@QAAEVBIG_INT@@@Z
?ReadAt@NTFS_FRS_STRUCTURE@@QAAEVBIG_INT@@@Z
?ReadList@NTFS_ATTRIBUTE_LIST@@QAAEXZ
?ReadNext@NTFS_FRS_STRUCTURE@@QAAEVBIG_INT@@@Z
?Relocate@NTFS_CLUSTER_RUN@@QAAXVBIG_INT@@@Z
?ResetIterator@NTFS_INDEX_TREE@@QAAEE@Z
?ResetIterator@NTFS_INDEX_TREE@@QAAEPBU_INDEX_ENTRY@@E@Z
?Resize@NTFS_ATTRIBUTE@@UAAEVBIG_INT@@PAVNTFS_BITMAP@@@Z
?SafeQueryAttribute@NTFS_FRS_STRUCTURE@@QAAEKPAVNTFS_ATTRIBUTE@@0PAVWSTRING@@@Z
?Save@NTFS_INDEX_TREE@@QAAEPAVNTFS_FILE_RECORD_SEGMENT@@@Z
SetOriginalVolumeName
?SetSparse@NTFS_ATTRIBUTE@@UAAEVBIG_INT@@PAVNTFS_BITMAP@@E@Z
?SetVolumeFlag@NTFS_SA@@QAAEGPAE@Z
SetWriteViewCacheVolumeName
?TakeCensus@NTFS_SA@@QAAEPAVNTFS_MASTER_FILE_TABLE@@KPAUNTFS_CENSUS_INFO@@@Z
?Write@NTFS_ATTRIBUTE@@UAAEPBXVBIG_INT@@KPAKPAVNTFS_BITMAP@@@Z
?Write@NTFS_BITMAP@@QAAEPAVNTFS_ATTRIBUTE@@PAV1@@Z
?Write@NTFS_FILE_RECORD_SEGMENT@@UAAEXZ
?Write@NTFS_FRS_STRUCTURE@@QAAEXZ
?WriteModified@NTFS_BITMAP@@QAAEPAVNTFS_ATTRIBUTE@@PAV1@@Z
?WriteRemainingBootCode@NTFS_SA@@QAAEXZ
Chkdsk
ChkdskEx
CreateFormatCorruptionRecordContext
DeleteFormatCorruptionRecordContext
Extend
Format
FormatCorruptionRecordA
FormatCorruptionRecordW
FormatEx
GetFilesystemInformation
Recover
