;
; Definition file of VSSAPI.DLL
; Automatic generated by gendef
; written by Kai Tietz 2008-2014
;
LIBRARY "VSSAPI.DLL"
EXPORTS
IsVolumeSnapshotted
VssFreeSnapshotProperties
ShouldBlockRevert
??0CVssJetWriter@@QAA@XZ
??0CVssWriter@@QAA@XZ
??1CVssJetWriter@@UAA@XZ
??1CVssWriter@@UAA@XZ
?AreComponentsSelected@CVssJetWriter@@IBA_NXZ
?AreComponentsSelected@CVssWriter@@IBA_NXZ
?CreateVssBackupComponents@@YGJPAPAVIVssBackupComponents@@@Z
?CreateVssExamineWriterMetadata@@YGJPAGPAPAVIVssExamineWriterMetadata@@@Z
?CreateVssSnapshotSetDescription@@YAJU_GUID@@JPAPAVIVssSnapshotSetDescription@@@Z
?GetBackupType@CVssJetWriter@@IBA?AW4_VSS_BACKUP_TYPE@@XZ
?GetBackupType@CVssWriter@@IBA?AW4_VSS_BACKUP_TYPE@@XZ
?GetContext@CVssJetWriter@@IBAJXZ
?GetContext@CVssWriter@@IBAJXZ
?GetCurrentLevel@CVssJetWriter@@IBA?AW4_VSS_APPLICATION_LEVEL@@XZ
?GetCurrentLevel@CVssWriter@@IBA?AW4_VSS_APPLICATION_LEVEL@@XZ
?GetCurrentSnapshotSetId@CVssJetWriter@@IBA?AU_GUID@@XZ
?GetCurrentSnapshotSetId@CVssWriter@@IBA?AU_GUID@@XZ
?GetCurrentVolumeArray@CVssJetWriter@@IBAPAPBGXZ
?GetCurrentVolumeArray@CVssWriter@@IBAPAPBGXZ
?GetCurrentVolumeCount@CVssJetWriter@@IBAIXZ
?GetCurrentVolumeCount@CVssWriter@@IBAIXZ
?GetRestoreType@CVssJetWriter@@IBA?AW4_VSS_RESTORE_TYPE@@XZ
?GetRestoreType@CVssWriter@@IBA?AW4_VSS_RESTORE_TYPE@@XZ
?GetSnapshotDeviceName@CVssJetWriter@@IBAJPBGPAPBG@Z
?GetSnapshotDeviceName@CVssWriter@@IBAJPBGPAPBG@Z
?Initialize@CVssJetWriter@@QAAJU_GUID@@PBG_N211K@Z
?Initialize@CVssWriter@@QAAJU_GUID@@PBGW4VSS_USAGE_TYPE@@W4VSS_SOURCE_TYPE@@W4_VSS_APPLICATION_LEVEL@@KW4VSS_ALTERNATE_WRITER_STATE@@_N1@Z
?InstallAlternateWriter@CVssWriter@@QAAJU_GUID@@0@Z
?IsBootableSystemStateBackedUp@CVssJetWriter@@IBA_NXZ
?IsBootableSystemStateBackedUp@CVssWriter@@IBA_NXZ
?IsPartialFileSupportEnabled@CVssJetWriter@@IBA_NXZ
?IsPartialFileSupportEnabled@CVssWriter@@IBA_NXZ
?IsPathAffected@CVssJetWriter@@IBA_NPBG@Z
?IsPathAffected@CVssWriter@@IBA_NPBG@Z
?LoadVssSnapshotSetDescription@@YAJPBGPAPAVIVssSnapshotSetDescription@@U_GUID@@@Z
?OnAbortBegin@CVssJetWriter@@UAAXXZ
?OnAbortEnd@CVssJetWriter@@UAAXXZ
?OnBackOffIOOnVolume@CVssWriter@@UAA_NPAGU_GUID@@1@Z
?OnBackupComplete@CVssWriter@@UAA_NPAVIVssWriterComponents@@@Z
?OnBackupCompleteBegin@CVssJetWriter@@UAA_NPAVIVssWriterComponents@@@Z
?OnBackupCompleteEnd@CVssJetWriter@@UAA_NPAVIVssWriterComponents@@_N@Z
?OnBackupShutdown@CVssWriter@@UAA_NU_GUID@@@Z
?OnContinueIOOnVolume@CVssWriter@@UAA_NPAGU_GUID@@1@Z
?OnFreezeBegin@CVssJetWriter@@UAA_NXZ
?OnFreezeEnd@CVssJetWriter@@UAA_N_N@Z
?OnIdentify@CVssJetWriter@@UAA_NPAVIVssCreateWriterMetadata@@@Z
?OnIdentify@CVssWriter@@UAA_NPAVIVssCreateWriterMetadata@@@Z
?OnPostRestore@CVssWriter@@UAA_NPAVIVssWriterComponents@@@Z
?OnPostRestoreBegin@CVssJetWriter@@UAA_NPAVIVssWriterComponents@@@Z
?OnPostRestoreEnd@CVssJetWriter@@UAA_NPAVIVssWriterComponents@@_N@Z
?OnPostSnapshot@CVssJetWriter@@UAA_NPAVIVssWriterComponents@@@Z
?OnPostSnapshot@CVssWriter@@UAA_NPAVIVssWriterComponents@@@Z
?OnPreRestore@CVssWriter@@UAA_NPAVIVssWriterComponents@@@Z
?OnPreRestoreBegin@CVssJetWriter@@UAA_NPAVIVssWriterComponents@@@Z
?OnPreRestoreEnd@CVssJetWriter@@UAA_NPAVIVssWriterComponents@@_N@Z
?OnPrepareBackup@CVssWriter@@UAA_NPAVIVssWriterComponents@@@Z
?OnPrepareBackupBegin@CVssJetWriter@@UAA_NPAVIVssWriterComponents@@@Z
?OnPrepareBackupEnd@CVssJetWriter@@UAA_NPAVIVssWriterComponents@@_N@Z
?OnPrepareSnapshotBegin@CVssJetWriter@@UAA_NXZ
?OnPrepareSnapshotEnd@CVssJetWriter@@UAA_N_N@Z
?OnThawBegin@CVssJetWriter@@UAA_NXZ
?OnThawEnd@CVssJetWriter@@UAA_N_N@Z
?OnVSSApplicationStartup@CVssWriter@@UAA_NXZ
?OnVSSShutdown@CVssWriter@@UAA_NXZ
?SetWriterFailure@CVssJetWriter@@IAAJJ@Z
?SetWriterFailure@CVssWriter@@IAAJJ@Z
?Subscribe@CVssWriter@@QAAJK@Z
?Uninitialize@CVssJetWriter@@QAAXXZ
?Unsubscribe@CVssWriter@@QAAJXZ
CreateVssBackupComponentsInternal
CreateVssExamineWriterMetadataInternal
CreateVssExpressWriterInternal
CreateWriter
CreateWriterEx
GetProviderMgmtInterface
GetProviderMgmtInterfaceInternal
IsVolumeSnapshottedInternal
ShouldBlockRevertInternal
VssFreeSnapshotPropertiesInternal
