;
; Definition file of WsmSvc.DLL
; Automatic generated by gendef
; written by Kai Tietz 2008-2014
;
LIBRARY "WsmSvc.DLL"
EXPORTS
??0?$AutoCleanup@V?$AutoDelete@D@@PAD@@QAA@PAD@Z
??0?$AutoCleanup@V?$AutoDelete@G@@PAG@@QAA@PAG@Z
??0?$AutoCleanup@V?$AutoDelete@UIPRange@CWSManIPFilter@@@@PAUIPRange@CWSManIPFilter@@@@QAA@PAUIPRange@CWSManIPFilter@@@Z
??0?$AutoCleanup@V?$AutoDelete@U_SID@@@@PAU_SID@@@@QAA@PAU_SID@@@Z
??0?$AutoCleanup@V?$AutoDelete@U_WSMAN_STREAM_ID_SET@@@@PAU_WSMAN_STREAM_ID_SET@@@@QAA@PAU_WSMAN_STREAM_ID_SET@@@Z
??0?$AutoCleanup@V?$AutoDelete@V?$Handle@VISubscription@@@@@@PAV?$Handle@VISubscription@@@@@@QAA@PAV?$Handle@VISubscription@@@@@Z
??0?$AutoCleanup@V?$AutoDelete@V?$SafeMap_Iterator@VStringKeyCI@@K@@@@PAV?$SafeMap_Iterator@VStringKeyCI@@K@@@@QAA@PAV?$SafeMap_Iterator@VStringKeyCI@@K@@@Z
??0?$AutoCleanup@V?$AutoDelete@V?$SafeMap_Iterator@W4WSManSessionOption@@PAVOptionValue@SessionOptions@Client@WSMan@@@@@@PAV?$SafeMap_Iterator@W4WSManSessionOption@@PAVOptionValue@SessionOptions@Client@WSMan@@@@@@QAA@PAV?$SafeMap_Iterator@W4WSManSessionOption@@PAVOptionValue@SessionOptions@Client@WSMan@@@@@Z
??0?$AutoCleanup@V?$AutoDelete@V?$SafeSet@PAVCCertMapping@@@@@@PAV?$SafeSet@PAVCCertMapping@@@@@@QAA@PAV?$SafeSet@PAVCCertMapping@@@@@Z
??0?$AutoCleanup@V?$AutoDelete@V?$SafeSet@PAVCShellUriSettings@@@@@@PAV?$SafeSet@PAVCShellUriSettings@@@@@@QAA@PAV?$SafeSet@PAVCShellUriSettings@@@@@Z
??0?$AutoCleanup@V?$AutoDelete@V?$SafeSet_Iterator@PAVCListenerOperation@@@@@@PAV?$SafeSet_Iterator@PAVCListenerOperation@@@@@@QAA@PAV?$SafeSet_Iterator@PAVCListenerOperation@@@@@Z
??0?$AutoCleanup@V?$AutoDelete@V?$SimpleStack@VCListenerOperation@@@@@@PAV?$SimpleStack@VCListenerOperation@@@@@@QAA@PAV?$SimpleStack@VCListenerOperation@@@@@Z
??0?$AutoCleanup@V?$AutoDelete@V?$SimpleStack@VShellHostEntry@@@@@@PAV?$SimpleStack@VShellHostEntry@@@@@@QAA@PAV?$SimpleStack@VShellHostEntry@@@@@Z
??0?$AutoCleanup@V?$AutoDelete@V?$set@PAVCListenerSettings@@VCListenerSettingsLessFunctor@CServiceConfigSettings@@V?$transport_allocator@PAVCListenerSettings@@@@@std@@@@PAV?$set@PAVCListenerSettings@@VCListenerSettingsLessFunctor@CServiceConfigSettings@@V?$transport_allocator@PAVCListenerSettings@@@@@std@@@@QAA@PAV?$set@PAVCListenerSettings@@VCListenerSettingsLessFunctor@CServiceConfigSettings@@V?$transport_allocator@PAVCListenerSettings@@@@@std@@@Z
??0?$AutoCleanup@V?$AutoDelete@V?$set@Usockaddr_storage@@VSockAddrLessFunctor@CListenerSettings@@V?$transport_allocator@Usockaddr_storage@@@@@std@@@@PAV?$set@Usockaddr_storage@@VSockAddrLessFunctor@CListenerSettings@@V?$transport_allocator@Usockaddr_storage@@@@@std@@@@QAA@PAV?$set@Usockaddr_storage@@VSockAddrLessFunctor@CListenerSettings@@V?$transport_allocator@Usockaddr_storage@@@@@std@@@Z
??0?$AutoCleanup@V?$AutoDelete@V?$vector@PAVHandleImpl@Client@WSMan@@V?$transport_allocator@PAVHandleImpl@Client@WSMan@@@@@std@@@@PAV?$vector@PAVHandleImpl@Client@WSMan@@V?$transport_allocator@PAVHandleImpl@Client@WSMan@@@@@std@@@@QAA@PAV?$vector@PAVHandleImpl@Client@WSMan@@V?$transport_allocator@PAVHandleImpl@Client@WSMan@@@@@std@@@Z
??0?$AutoCleanup@V?$AutoDelete@V?$vector@PAVIServiceConfigObserver@@V?$transport_allocator@PAVIServiceConfigObserver@@@@@std@@@@PAV?$vector@PAVIServiceConfigObserver@@V?$transport_allocator@PAVIServiceConfigObserver@@@@@std@@@@QAA@PAV?$vector@PAVIServiceConfigObserver@@V?$transport_allocator@PAVIServiceConfigObserver@@@@@std@@@Z
??0?$AutoCleanup@V?$AutoDelete@VAdminSid@CSecurity@@@@PAVAdminSid@CSecurity@@@@QAA@PAVAdminSid@CSecurity@@@Z
??0?$AutoCleanup@V?$AutoDelete@VBlockedRecord@@@@PAVBlockedRecord@@@@QAA@PAVBlockedRecord@@@Z
??0?$AutoCleanup@V?$AutoDelete@VCBaseConfigCache@@@@PAVCBaseConfigCache@@@@QAA@PAVCBaseConfigCache@@@Z
??0?$AutoCleanup@V?$AutoDelete@VCCertMapping@@@@PAVCCertMapping@@@@QAA@PAVCCertMapping@@@Z
??0?$AutoCleanup@V?$AutoDelete@VCConfigChangeSource@@@@PAVCConfigChangeSource@@@@QAA@PAVCConfigChangeSource@@@Z
??0?$AutoCleanup@V?$AutoDelete@VCListenerSettings@@@@PAVCListenerSettings@@@@QAA@PAVCListenerSettings@@@Z
??0?$AutoCleanup@V?$AutoDelete@VCObserverConfigChangeErrors@@@@PAVCObserverConfigChangeErrors@@@@QAA@PAVCObserverConfigChangeErrors@@@Z
??0?$AutoCleanup@V?$AutoDelete@VCServiceWatcher@CServiceConfigCache@@@@PAVCServiceWatcher@CServiceConfigCache@@@@QAA@PAVCServiceWatcher@CServiceConfigCache@@@Z
??0?$AutoCleanup@V?$AutoDelete@VCShellUriSettings@@@@PAVCShellUriSettings@@@@QAA@PAVCShellUriSettings@@@Z
??0?$AutoCleanup@V?$AutoDelete@VCWSManEPR@@@@PAVCWSManEPR@@@@QAA@PAVCWSManEPR@@@Z
??0?$AutoCleanup@V?$AutoDelete@VCWSManResource@@@@PAVCWSManResource@@@@QAA@PAVCWSManResource@@@Z
??0?$AutoCleanup@V?$AutoDelete@VCertHash@@@@PAVCertHash@@@@QAA@PAVCertHash@@@Z
??0?$AutoCleanup@V?$AutoDelete@VConfigUpdate@@@@PAVConfigUpdate@@@@QAA@PAVConfigUpdate@@@Z
??0?$AutoCleanup@V?$AutoDelete@VCredUIDllLoader@@@@PAVCredUIDllLoader@@@@QAA@PAVCredUIDllLoader@@@Z
??0?$AutoCleanup@V?$AutoDelete@VEnumSinkEx@@@@PAVEnumSinkEx@@@@QAA@PAVEnumSinkEx@@@Z
??0?$AutoCleanup@V?$AutoDelete@VEnumSinkEx@@@@PAVEnumSinkEx@@@@QAA@XZ
??0?$AutoCleanup@V?$AutoDelete@VEventHandler@WSMan@@@@PAVEventHandler@WSMan@@@@QAA@PAVEventHandler@WSMan@@@Z
??0?$AutoCleanup@V?$AutoDelete@VExpiredOperationIdRecord@@@@PAVExpiredOperationIdRecord@@@@QAA@PAVExpiredOperationIdRecord@@@Z
??0?$AutoCleanup@V?$AutoDelete@VGPApiManager@@@@PAVGPApiManager@@@@QAA@PAVGPApiManager@@@Z
??0?$AutoCleanup@V?$AutoDelete@VGeneralSinkEx@@@@PAVGeneralSinkEx@@@@QAA@PAVGeneralSinkEx@@@Z
??0?$AutoCleanup@V?$AutoDelete@VGeneralSinkEx@@@@PAVGeneralSinkEx@@@@QAA@XZ
??0?$AutoCleanup@V?$AutoDelete@VIChannelObserverFactory@@@@PAVIChannelObserverFactory@@@@QAA@PAVIChannelObserverFactory@@@Z
??0?$AutoCleanup@V?$AutoDelete@VIQueryDASHSMASHInterface@@@@PAVIQueryDASHSMASHInterface@@@@QAA@PAVIQueryDASHSMASHInterface@@@Z
??0?$AutoCleanup@V?$AutoDelete@VIQueryDASHSMASHInterface@@@@PAVIQueryDASHSMASHInterface@@@@QAA@XZ
??0?$AutoCleanup@V?$AutoDelete@VISpecification@@@@PAVISpecification@@@@QAA@PAVISpecification@@@Z
??0?$AutoCleanup@V?$AutoDelete@VISpecification@@@@PAVISpecification@@@@QAA@XZ
??0?$AutoCleanup@V?$AutoDelete@VInteractiveSid@CSecurity@@@@PAVInteractiveSid@CSecurity@@@@QAA@PAVInteractiveSid@CSecurity@@@Z
??0?$AutoCleanup@V?$AutoDelete@VIpHlpApiDllLoader@@@@PAVIpHlpApiDllLoader@@@@QAA@PAVIpHlpApiDllLoader@@@Z
??0?$AutoCleanup@V?$AutoDelete@VMachineName@@@@PAVMachineName@@@@QAA@PAVMachineName@@@Z
??0?$AutoCleanup@V?$AutoDelete@VNetworkServiceSid@CSecurity@@@@PAVNetworkServiceSid@CSecurity@@@@QAA@PAVNetworkServiceSid@CSecurity@@@Z
??0?$AutoCleanup@V?$AutoDelete@VNtDsApiDllLoader@@@@PAVNtDsApiDllLoader@@@@QAA@PAVNtDsApiDllLoader@@@Z
??0?$AutoCleanup@V?$AutoDelete@VOptionValue@SessionOptions@Client@WSMan@@@@PAVOptionValue@SessionOptions@Client@WSMan@@@@QAA@PAVOptionValue@SessionOptions@Client@WSMan@@@Z
??0?$AutoCleanup@V?$AutoDelete@VPacketCreator@@@@PAVPacketCreator@@@@QAA@PAVPacketCreator@@@Z
??0?$AutoCleanup@V?$AutoDelete@VPacketParser@@@@PAVPacketParser@@@@QAA@PAVPacketParser@@@Z
??0?$AutoCleanup@V?$AutoDelete@VResources@Locale@@@@PAVResources@Locale@@@@QAA@PAVResources@Locale@@@Z
??0?$AutoCleanup@V?$AutoDelete@VRunAsConfiguration@@@@PAVRunAsConfiguration@@@@QAA@PAVRunAsConfiguration@@@Z
??0?$AutoCleanup@V?$AutoDelete@VSecurityEntry@Catalog@@@@PAVSecurityEntry@Catalog@@@@QAA@PAVSecurityEntry@Catalog@@@Z
??0?$AutoCleanup@V?$AutoDelete@VSendPacketArgs@RobustConnectionBuffer@@@@PAVSendPacketArgs@RobustConnectionBuffer@@@@QAA@PAVSendPacketArgs@RobustConnectionBuffer@@@Z
??0?$AutoCleanup@V?$AutoDelete@VServiceSoapProcessor@@@@PAVServiceSoapProcessor@@@@QAA@PAVServiceSoapProcessor@@@Z
??0?$AutoCleanup@V?$AutoDelete@VShell32DllLoader@@@@PAVShell32DllLoader@@@@QAA@PAVShell32DllLoader@@@Z
??0?$AutoCleanup@V?$AutoDelete@VShlWApiDllLoader@@@@PAVShlWApiDllLoader@@@@QAA@PAVShlWApiDllLoader@@@Z
??0?$AutoCleanup@V?$AutoDelete@VSubscriptionEnumerator@@@@PAVSubscriptionEnumerator@@@@QAA@PAVSubscriptionEnumerator@@@Z
??0?$AutoCleanup@V?$AutoDelete@VSubscriptionManager@@@@PAVSubscriptionManager@@@@QAA@PAVSubscriptionManager@@@Z
??0?$AutoCleanup@V?$AutoDelete@VTSTRBUFFER@@@@PAVTSTRBUFFER@@@@QAA@PAVTSTRBUFFER@@@Z
??0?$AutoCleanup@V?$AutoDelete@VTSTRBUFFER@@@@PAVTSTRBUFFER@@@@QAA@XZ
??0?$AutoCleanup@V?$AutoDelete@VUniqueStringOverflow@@@@PAVUniqueStringOverflow@@@@QAA@PAVUniqueStringOverflow@@@Z
??0?$AutoCleanup@V?$AutoDelete@VUser32DllLoader@@@@PAVUser32DllLoader@@@@QAA@PAVUser32DllLoader@@@Z
??0?$AutoCleanup@V?$AutoDelete@VWSMANCONFIGTABLE_IDENTITY@@@@PAVWSMANCONFIGTABLE_IDENTITY@@@@QAA@PAVWSMANCONFIGTABLE_IDENTITY@@@Z
??0?$AutoCleanup@V?$AutoDelete@VWSManMemCryptManager@@@@PAVWSManMemCryptManager@@@@QAA@PAVWSManMemCryptManager@@@Z
??0?$AutoCleanup@V?$AutoDelete@VWmiEnumContext@@@@PAVWmiEnumContext@@@@QAA@PAVWmiEnumContext@@@Z
??0?$AutoCleanup@V?$AutoDelete@VWmiEnumContext@@@@PAVWmiEnumContext@@@@QAA@XZ
??0?$AutoCleanup@V?$AutoDelete@VXmlReader@@@@PAVXmlReader@@@@QAA@PAVXmlReader@@@Z
??0?$AutoCleanup@V?$AutoDeleteVector@$$CBG@@PBG@@QAA@PBG@Z
??0?$AutoCleanup@V?$AutoDeleteVector@D@@PAD@@QAA@PAD@Z
??0?$AutoCleanup@V?$AutoDeleteVector@E@@PAE@@QAA@PAE@Z
??0?$AutoCleanup@V?$AutoDeleteVector@E@@PAE@@QAA@XZ
??0?$AutoCleanup@V?$AutoDeleteVector@G@@PAG@@QAA@PAG@Z
??0?$AutoCleanup@V?$AutoDeleteVector@G@@PAG@@QAA@XZ
??0?$AutoCleanup@V?$AutoDeleteVector@H@@PAH@@QAA@PAH@Z
??0?$AutoCleanup@V?$AutoDeleteVector@PAG@@PAPAG@@QAA@PAPAG@Z
??0?$AutoCleanup@V?$AutoDeleteVector@PAG@@PAPAG@@QAA@XZ
??0?$AutoCleanup@V?$AutoDeleteVector@PBG@@PAPBG@@QAA@PAPBG@Z
??0?$AutoCleanup@V?$AutoDeleteVector@PBG@@PAPBG@@QAA@XZ
??0?$AutoCleanup@V?$AutoDeleteVector@U_CONFIG_UPDATE@@@@PAU_CONFIG_UPDATE@@@@QAA@PAU_CONFIG_UPDATE@@@Z
??0?$AutoCleanup@V?$AutoDeleteVector@U_WINRS_CREATE_SHELL_ENVIRONMENT_VARIABLE@@@@PAU_WINRS_CREATE_SHELL_ENVIRONMENT_VARIABLE@@@@QAA@PAU_WINRS_CREATE_SHELL_ENVIRONMENT_VARIABLE@@@Z
??0?$AutoCleanup@V?$AutoDeleteVector@U_WINRS_CREATE_SHELL_ENVIRONMENT_VARIABLE@@@@PAU_WINRS_CREATE_SHELL_ENVIRONMENT_VARIABLE@@@@QAA@XZ
??0?$AutoCleanup@V?$AutoDeleteVector@U_WINRS_RUN_COMMAND_ARG@@@@PAU_WINRS_RUN_COMMAND_ARG@@@@QAA@PAU_WINRS_RUN_COMMAND_ARG@@@Z
??0?$AutoCleanup@V?$AutoDeleteVector@U_WINRS_RUN_COMMAND_ARG@@@@PAU_WINRS_RUN_COMMAND_ARG@@@@QAA@XZ
??0?$AutoCleanup@V?$AutoDeleteVector@U_WSMAN_OPTION@@@@PAU_WSMAN_OPTION@@@@QAA@PAU_WSMAN_OPTION@@@Z
??0?$AutoCleanup@V?$AutoDeleteVector@X@@PAX@@QAA@PAX@Z
??0?$AutoCleanup@V?$AutoFree@E@@PAE@@QAA@PAE@Z
??0?$AutoCleanup@V?$AutoLocklessItemRecycle@VPacket@@@@PAVPacket@@@@QAA@PAVPacket@@@Z
??0?$AutoCleanup@V?$AutoRelease@UIAppHostChildElementCollection@@@@PAUIAppHostChildElementCollection@@@@QAA@PAUIAppHostChildElementCollection@@@Z
??0?$AutoCleanup@V?$AutoRelease@UIAppHostElement@@@@PAUIAppHostElement@@@@QAA@PAUIAppHostElement@@@Z
??0?$AutoCleanup@V?$AutoRelease@UIAppHostElementCollection@@@@PAUIAppHostElementCollection@@@@QAA@PAUIAppHostElementCollection@@@Z
??0?$AutoCleanup@V?$AutoRelease@UIAppHostProperty@@@@PAUIAppHostProperty@@@@QAA@PAUIAppHostProperty@@@Z
??0?$AutoCleanup@V?$AutoRelease@UIAppHostPropertyCollection@@@@PAUIAppHostPropertyCollection@@@@QAA@PAUIAppHostPropertyCollection@@@Z
??0?$AutoCleanup@V?$AutoRelease@UIClientSecurity@@@@PAUIClientSecurity@@@@QAA@PAUIClientSecurity@@@Z
??0?$AutoCleanup@V?$AutoRelease@UIClientSecurity@@@@PAUIClientSecurity@@@@QAA@XZ
??0?$AutoCleanup@V?$AutoRelease@UIEnumWbemClassObject@@@@PAUIEnumWbemClassObject@@@@QAA@PAUIEnumWbemClassObject@@@Z
??0?$AutoCleanup@V?$AutoRelease@UIEnumWbemClassObject@@@@PAUIEnumWbemClassObject@@@@QAA@XZ
??0?$AutoCleanup@V?$AutoRelease@UIErrorInfo@@@@PAUIErrorInfo@@@@QAA@PAUIErrorInfo@@@Z
??0?$AutoCleanup@V?$AutoRelease@UIErrorInfo@@@@PAUIErrorInfo@@@@QAA@XZ
??0?$AutoCleanup@V?$AutoRelease@UIUnknown@@@@PAUIUnknown@@@@QAA@PAUIUnknown@@@Z
??0?$AutoCleanup@V?$AutoRelease@UIUnknown@@@@PAUIUnknown@@@@QAA@XZ
??0?$AutoCleanup@V?$AutoRelease@UIWbemClassObject@@@@PAUIWbemClassObject@@@@QAA@PAUIWbemClassObject@@@Z
??0?$AutoCleanup@V?$AutoRelease@UIWbemClassObject@@@@PAUIWbemClassObject@@@@QAA@XZ
??0?$AutoCleanup@V?$AutoRelease@UIWbemContext@@@@PAUIWbemContext@@@@QAA@PAUIWbemContext@@@Z
??0?$AutoCleanup@V?$AutoRelease@UIWbemContext@@@@PAUIWbemContext@@@@QAA@XZ
??0?$AutoCleanup@V?$AutoRelease@UIWbemLocator@@@@PAUIWbemLocator@@@@QAA@PAUIWbemLocator@@@Z
??0?$AutoCleanup@V?$AutoRelease@UIWbemLocator@@@@PAUIWbemLocator@@@@QAA@XZ
??0?$AutoCleanup@V?$AutoRelease@UIWbemObjectTextSrc@@@@PAUIWbemObjectTextSrc@@@@QAA@PAUIWbemObjectTextSrc@@@Z
??0?$AutoCleanup@V?$AutoRelease@UIWbemObjectTextSrc@@@@PAUIWbemObjectTextSrc@@@@QAA@XZ
??0?$AutoCleanup@V?$AutoRelease@UIWbemPath@@@@PAUIWbemPath@@@@QAA@PAUIWbemPath@@@Z
??0?$AutoCleanup@V?$AutoRelease@UIWbemPath@@@@PAUIWbemPath@@@@QAA@XZ
??0?$AutoCleanup@V?$AutoRelease@UIWbemPathKeyList@@@@PAUIWbemPathKeyList@@@@QAA@PAUIWbemPathKeyList@@@Z
??0?$AutoCleanup@V?$AutoRelease@UIWbemPathKeyList@@@@PAUIWbemPathKeyList@@@@QAA@XZ
??0?$AutoCleanup@V?$AutoRelease@UIWbemQualifierSet@@@@PAUIWbemQualifierSet@@@@QAA@PAUIWbemQualifierSet@@@Z
??0?$AutoCleanup@V?$AutoRelease@UIWbemQualifierSet@@@@PAUIWbemQualifierSet@@@@QAA@XZ
??0?$AutoCleanup@V?$AutoRelease@UIWbemQuery@@@@PAUIWbemQuery@@@@QAA@PAUIWbemQuery@@@Z
??0?$AutoCleanup@V?$AutoRelease@UIWbemQuery@@@@PAUIWbemQuery@@@@QAA@XZ
??0?$AutoCleanup@V?$AutoRelease@UIWbemServices@@@@PAUIWbemServices@@@@QAA@PAUIWbemServices@@@Z
??0?$AutoCleanup@V?$AutoRelease@UIWbemServices@@@@PAUIWbemServices@@@@QAA@XZ
??0?$AutoCleanup@V?$AutoRelease@VApplication@Client@WSMan@@@@PAVApplication@Client@WSMan@@@@QAA@PAVApplication@Client@WSMan@@@Z
??0?$AutoCleanup@V?$AutoRelease@VCBaseConfigCache@@@@PAVCBaseConfigCache@@@@QAA@PAVCBaseConfigCache@@@Z
??0?$AutoCleanup@V?$AutoRelease@VCClientConfigSettings@@@@PAVCClientConfigSettings@@@@QAA@PAVCClientConfigSettings@@@Z
??0?$AutoCleanup@V?$AutoRelease@VCCommonConfigSettings@@@@PAVCCommonConfigSettings@@@@QAA@PAVCCommonConfigSettings@@@Z
??0?$AutoCleanup@V?$AutoRelease@VCConfigCacheMap@CBaseConfigCache@@@@PAVCConfigCacheMap@CBaseConfigCache@@@@QAA@PAVCConfigCacheMap@CBaseConfigCache@@@Z
??0?$AutoCleanup@V?$AutoRelease@VCConfigManager@@@@PAVCConfigManager@@@@QAA@PAVCConfigManager@@@Z
??0?$AutoCleanup@V?$AutoRelease@VCRemoteOperation@@@@PAVCRemoteOperation@@@@QAA@PAVCRemoteOperation@@@Z
??0?$AutoCleanup@V?$AutoRelease@VCRemoteSession@@@@PAVCRemoteSession@@@@QAA@PAVCRemoteSession@@@Z
??0?$AutoCleanup@V?$AutoRelease@VCRequestContext@@@@PAVCRequestContext@@@@QAA@PAVCRequestContext@@@Z
??0?$AutoCleanup@V?$AutoRelease@VCServiceCommonConfigSettings@@@@PAVCServiceCommonConfigSettings@@@@QAA@PAVCServiceCommonConfigSettings@@@Z
??0?$AutoCleanup@V?$AutoRelease@VCServiceConfigCache@@@@PAVCServiceConfigCache@@@@QAA@PAVCServiceConfigCache@@@Z
??0?$AutoCleanup@V?$AutoRelease@VCServiceConfigSettings@@@@PAVCServiceConfigSettings@@@@QAA@PAVCServiceConfigSettings@@@Z
??0?$AutoCleanup@V?$AutoRelease@VCWSManEPR@@@@PAVCWSManEPR@@@@QAA@PAVCWSManEPR@@@Z
??0?$AutoCleanup@V?$AutoRelease@VCWSManEPR@@@@PAVCWSManEPR@@@@QAA@XZ
??0?$AutoCleanup@V?$AutoRelease@VCWSManGroupPolicyCache@@@@PAVCWSManGroupPolicyCache@@@@QAA@PAVCWSManGroupPolicyCache@@@Z
??0?$AutoCleanup@V?$AutoRelease@VCWSManGroupPolicyManager@@@@PAVCWSManGroupPolicyManager@@@@QAA@PAVCWSManGroupPolicyManager@@@Z
??0?$AutoCleanup@V?$AutoRelease@VCWSManObject@@@@PAVCWSManObject@@@@QAA@PAVCWSManObject@@@Z
??0?$AutoCleanup@V?$AutoRelease@VCWSManResource@@@@PAVCWSManResource@@@@QAA@PAVCWSManResource@@@Z
??0?$AutoCleanup@V?$AutoRelease@VCWinRSPluginConfigCache@@@@PAVCWinRSPluginConfigCache@@@@QAA@PAVCWinRSPluginConfigCache@@@Z
??0?$AutoCleanup@V?$AutoRelease@VCWinRSPluginConfigCache@@@@PAVCWinRSPluginConfigCache@@@@QAA@XZ
??0?$AutoCleanup@V?$AutoRelease@VCWinRSPluginConfigSettings@@@@PAVCWinRSPluginConfigSettings@@@@QAA@PAVCWinRSPluginConfigSettings@@@Z
??0?$AutoCleanup@V?$AutoRelease@VCommand@Client@WSMan@@@@PAVCommand@Client@WSMan@@@@QAA@PAVCommand@Client@WSMan@@@Z
??0?$AutoCleanup@V?$AutoRelease@VConfigNotification@@@@PAVConfigNotification@@@@QAA@PAVConfigNotification@@@Z
??0?$AutoCleanup@V?$AutoRelease@VConnectShellOperation@Client@WSMan@@@@PAVConnectShellOperation@Client@WSMan@@@@QAA@PAVConnectShellOperation@Client@WSMan@@@Z
??0?$AutoCleanup@V?$AutoRelease@VCreateShellOperation@Client@WSMan@@@@PAVCreateShellOperation@Client@WSMan@@@@QAA@PAVCreateShellOperation@Client@WSMan@@@Z
??0?$AutoCleanup@V?$AutoRelease@VDeleteShellOperation@Client@WSMan@@@@PAVDeleteShellOperation@Client@WSMan@@@@QAA@PAVDeleteShellOperation@Client@WSMan@@@Z
??0?$AutoCleanup@V?$AutoRelease@VDisconnectOperation@Client@WSMan@@@@PAVDisconnectOperation@Client@WSMan@@@@QAA@PAVDisconnectOperation@Client@WSMan@@@Z
??0?$AutoCleanup@V?$AutoRelease@VEnumSinkEx@@@@PAVEnumSinkEx@@@@QAA@PAVEnumSinkEx@@@Z
??0?$AutoCleanup@V?$AutoRelease@VEnumSinkEx@@@@PAVEnumSinkEx@@@@QAA@XZ
??0?$AutoCleanup@V?$AutoRelease@VGeneralSinkEx@@@@PAVGeneralSinkEx@@@@QAA@PAVGeneralSinkEx@@@Z
??0?$AutoCleanup@V?$AutoRelease@VGeneralSinkEx@@@@PAVGeneralSinkEx@@@@QAA@XZ
??0?$AutoCleanup@V?$AutoRelease@VIISConfigSettings@@@@PAVIISConfigSettings@@@@QAA@PAVIISConfigSettings@@@Z
??0?$AutoCleanup@V?$AutoRelease@VIPCSoapProcessor@@@@PAVIPCSoapProcessor@@@@QAA@PAVIPCSoapProcessor@@@Z
??0?$AutoCleanup@V?$AutoRelease@VIRequestContext@@@@PAVIRequestContext@@@@QAA@PAVIRequestContext@@@Z
??0?$AutoCleanup@V?$AutoRelease@VIRequestContext@@@@PAVIRequestContext@@@@QAA@XZ
??0?$AutoCleanup@V?$AutoRelease@VISubscription@@@@PAVISubscription@@@@QAA@PAVISubscription@@@Z
??0?$AutoCleanup@V?$AutoRelease@VInboundRequestDetails@@@@PAVInboundRequestDetails@@@@QAA@PAVInboundRequestDetails@@@Z
??0?$AutoCleanup@V?$AutoRelease@VReceiveOperation@Client@WSMan@@@@PAVReceiveOperation@Client@WSMan@@@@QAA@PAVReceiveOperation@Client@WSMan@@@Z
??0?$AutoCleanup@V?$AutoRelease@VReconnectOperation@Client@WSMan@@@@PAVReconnectOperation@Client@WSMan@@@@QAA@PAVReconnectOperation@Client@WSMan@@@Z
??0?$AutoCleanup@V?$AutoRelease@VSendOperation@Client@WSMan@@@@PAVSendOperation@Client@WSMan@@@@QAA@PAVSendOperation@Client@WSMan@@@Z
??0?$AutoCleanup@V?$AutoRelease@VShell@Client@WSMan@@@@PAVShell@Client@WSMan@@@@QAA@PAVShell@Client@WSMan@@@Z
??0?$AutoCleanup@V?$AutoRelease@VShellInfo@@@@PAVShellInfo@@@@QAA@PAVShellInfo@@@Z
??0?$AutoCleanup@V?$AutoRelease@VSignalOperation@Client@WSMan@@@@PAVSignalOperation@Client@WSMan@@@@QAA@PAVSignalOperation@Client@WSMan@@@Z
??0?$AutoCleanup@V?$AutoRelease@VUserRecord@@@@PAVUserRecord@@@@QAA@PAVUserRecord@@@Z
??0?$AutoCleanup@V?$AutoRelease@VWSManHttpListener@@@@PAVWSManHttpListener@@@@QAA@PAVWSManHttpListener@@@Z
??0?$AutoCleanup@V?$AutoReleaseEx@VHostMappingTableEntry@@@@PAVHostMappingTableEntry@@@@QAA@PAVHostMappingTableEntry@@@Z
??0?$AutoCleanup@V?$AutoReleaseEx@VShell@Client@WSMan@@@@PAVShell@Client@WSMan@@@@QAA@PAVShell@Client@WSMan@@@Z
??0?$AutoCleanup@VAutoBstr@@PAG@@QAA@PAG@Z
??0?$AutoCleanup@VAutoBstr@@PAG@@QAA@XZ
??0?$AutoCleanup@VAutoBstrNoAlloc@@PAG@@QAA@PAG@Z
??0?$AutoCleanup@VAutoBstrNoAlloc@@PAG@@QAA@XZ
??0?$AutoCleanup@VAutoCertContext@@PBU_CERT_CONTEXT@@@@QAA@PBU_CERT_CONTEXT@@@Z
??0?$AutoCleanup@VAutoCertContext@@PBU_CERT_CONTEXT@@@@QAA@XZ
??0?$AutoCleanup@VAutoChainContext@@PBU_CERT_CHAIN_CONTEXT@@@@QAA@PBU_CERT_CHAIN_CONTEXT@@@Z
??0?$AutoCleanup@VAutoChainContext@@PBU_CERT_CHAIN_CONTEXT@@@@QAA@XZ
??0?$AutoCleanup@VAutoCoTaskMemFree@@PAX@@QAA@PAX@Z
??0?$AutoCleanup@VAutoCoTaskMemFree@@PAX@@QAA@XZ
??0?$AutoCleanup@VAutoEnvironmentBlock@@PAX@@QAA@PAX@Z
??0?$AutoCleanup@VAutoEnvironmentBlock@@PAX@@QAA@XZ
??0?$AutoCleanup@VAutoFwXmlCloseParser@@PAX@@QAA@PAX@Z
??0?$AutoCleanup@VAutoFwXmlCloseParser@@PAX@@QAA@XZ
??0?$AutoCleanup@VAutoHandle@@PAX@@QAA@PAX@Z
??0?$AutoCleanup@VAutoHandle@@PAX@@QAA@XZ
??0?$AutoCleanup@VAutoImpersonateUser@@PAX@@QAA@PAX@Z
??0?$AutoCleanup@VAutoImpersonateUser@@PAX@@QAA@XZ
??0?$AutoCleanup@VAutoLibrary@@PAUHINSTANCE__@@@@QAA@PAUHINSTANCE__@@@Z
??0?$AutoCleanup@VAutoLibrary@@PAUHINSTANCE__@@@@QAA@XZ
??0?$AutoCleanup@VAutoLocalFree@@PAX@@QAA@PAX@Z
??0?$AutoCleanup@VAutoLocalFree@@PAX@@QAA@XZ
??0?$AutoCleanup@VAutoMIClass@@PAU_MI_Class@@@@QAA@PAU_MI_Class@@@Z
??0?$AutoCleanup@VAutoMIClass@@PAU_MI_Class@@@@QAA@XZ
??0?$AutoCleanup@VAutoMIInstance@@PAU_MI_Instance@@@@QAA@PAU_MI_Instance@@@Z
??0?$AutoCleanup@VAutoMIInstance@@PAU_MI_Instance@@@@QAA@XZ
??0?$AutoCleanup@VAutoObject@@PAUWSMAN_OBJECT@@@@QAA@PAUWSMAN_OBJECT@@@Z
??0?$AutoCleanup@VAutoObject@@PAUWSMAN_OBJECT@@@@QAA@XZ
??0?$AutoCleanup@VAutoRegKey@@PAUHKEY__@@@@QAA@PAUHKEY__@@@Z
??0?$AutoCleanup@VAutoRegKey@@PAUHKEY__@@@@QAA@XZ
??0?$AutoCleanup@VAutoSecurityDescriptor@@PAX@@QAA@PAX@Z
??0?$AutoCleanup@VAutoSecurityDescriptor@@PAX@@QAA@XZ
??0?$AutoCleanup@VAutoWaitHandle@@PAX@@QAA@PAX@Z
??0?$AutoCleanup@VAutoWaitHandle@@PAX@@QAA@XZ
??0?$AutoDelete@D@@QAA@XZ
??0?$AutoDelete@G@@QAA@PAG@Z
??0?$AutoDelete@G@@QAA@XZ
??0?$AutoDelete@UIPRange@CWSManIPFilter@@@@QAA@XZ
??0?$AutoDelete@U_SID@@@@QAA@PAU_SID@@@Z
??0?$AutoDelete@U_WSMAN_STREAM_ID_SET@@@@QAA@PAU_WSMAN_STREAM_ID_SET@@@Z
??0?$AutoDelete@V?$Handle@VISubscription@@@@@@QAA@PAV?$Handle@VISubscription@@@@@Z
??0?$AutoDelete@V?$SafeMap_Iterator@VStringKeyCI@@K@@@@QAA@XZ
??0?$AutoDelete@V?$SafeMap_Iterator@W4WSManSessionOption@@PAVOptionValue@SessionOptions@Client@WSMan@@@@@@QAA@XZ
??0?$AutoDelete@V?$SafeSet@PAVCCertMapping@@@@@@QAA@PAV?$SafeSet@PAVCCertMapping@@@@@Z
??0?$AutoDelete@V?$SafeSet@PAVCCertMapping@@@@@@QAA@XZ
??0?$AutoDelete@V?$SafeSet@PAVCShellUriSettings@@@@@@QAA@PAV?$SafeSet@PAVCShellUriSettings@@@@@Z
??0?$AutoDelete@V?$SafeSet@PAVCShellUriSettings@@@@@@QAA@XZ
??0?$AutoDelete@V?$SafeSet_Iterator@PAVCListenerOperation@@@@@@QAA@XZ
??0?$AutoDelete@V?$SimpleStack@VCListenerOperation@@@@@@QAA@XZ
??0?$AutoDelete@V?$SimpleStack@VShellHostEntry@@@@@@QAA@XZ
??0?$AutoDelete@V?$set@PAVCListenerSettings@@VCListenerSettingsLessFunctor@CServiceConfigSettings@@V?$transport_allocator@PAVCListenerSettings@@@@@std@@@@QAA@PAV?$set@PAVCListenerSettings@@VCListenerSettingsLessFunctor@CServiceConfigSettings@@V?$transport_allocator@PAVCListenerSettings@@@@@std@@@Z
??0?$AutoDelete@V?$set@PAVCListenerSettings@@VCListenerSettingsLessFunctor@CServiceConfigSettings@@V?$transport_allocator@PAVCListenerSettings@@@@@std@@@@QAA@XZ
??0?$AutoDelete@V?$set@Usockaddr_storage@@VSockAddrLessFunctor@CListenerSettings@@V?$transport_allocator@Usockaddr_storage@@@@@std@@@@QAA@XZ
??0?$AutoDelete@V?$vector@PAVHandleImpl@Client@WSMan@@V?$transport_allocator@PAVHandleImpl@Client@WSMan@@@@@std@@@@QAA@XZ
??0?$AutoDelete@V?$vector@PAVIServiceConfigObserver@@V?$transport_allocator@PAVIServiceConfigObserver@@@@@std@@@@QAA@XZ
??0?$AutoDelete@VAdminSid@CSecurity@@@@QAA@PAVAdminSid@CSecurity@@@Z
??0?$AutoDelete@VBlockedRecord@@@@QAA@XZ
??0?$AutoDelete@VCBaseConfigCache@@@@QAA@PAVCBaseConfigCache@@@Z
??0?$AutoDelete@VCCertMapping@@@@QAA@PAVCCertMapping@@@Z
??0?$AutoDelete@VCConfigChangeSource@@@@QAA@XZ
??0?$AutoDelete@VCListenerSettings@@@@QAA@PAVCListenerSettings@@@Z
??0?$AutoDelete@VCObserverConfigChangeErrors@@@@QAA@XZ
??0?$AutoDelete@VCServiceWatcher@CServiceConfigCache@@@@QAA@PAVCServiceWatcher@CServiceConfigCache@@@Z
??0?$AutoDelete@VCServiceWatcher@CServiceConfigCache@@@@QAA@XZ
??0?$AutoDelete@VCShellUriSettings@@@@QAA@PAVCShellUriSettings@@@Z
??0?$AutoDelete@VCWSManEPR@@@@QAA@PAVCWSManEPR@@@Z
??0?$AutoDelete@VCWSManResource@@@@QAA@PAVCWSManResource@@@Z
??0?$AutoDelete@VCWSManResource@@@@QAA@XZ
??0?$AutoDelete@VCertHash@@@@QAA@PAVCertHash@@@Z
??0?$AutoDelete@VCertHash@@@@QAA@XZ
??0?$AutoDelete@VConfigUpdate@@@@QAA@PAVConfigUpdate@@@Z
??0?$AutoDelete@VConfigUpdate@@@@QAA@XZ
??0?$AutoDelete@VCredUIDllLoader@@@@QAA@PAVCredUIDllLoader@@@Z
??0?$AutoDelete@VEnumSinkEx@@@@QAA@PAVEnumSinkEx@@@Z
??0?$AutoDelete@VEnumSinkEx@@@@QAA@XZ
??0?$AutoDelete@VEventHandler@WSMan@@@@QAA@PAVEventHandler@WSMan@@@Z
??0?$AutoDelete@VExpiredOperationIdRecord@@@@QAA@PAVExpiredOperationIdRecord@@@Z
??0?$AutoDelete@VGPApiManager@@@@QAA@XZ
??0?$AutoDelete@VGeneralSinkEx@@@@QAA@PAVGeneralSinkEx@@@Z
??0?$AutoDelete@VGeneralSinkEx@@@@QAA@XZ
??0?$AutoDelete@VIChannelObserverFactory@@@@QAA@PAVIChannelObserverFactory@@@Z
??0?$AutoDelete@VIChannelObserverFactory@@@@QAA@XZ
??0?$AutoDelete@VIQueryDASHSMASHInterface@@@@QAA@PAVIQueryDASHSMASHInterface@@@Z
??0?$AutoDelete@VIQueryDASHSMASHInterface@@@@QAA@XZ
??0?$AutoDelete@VISpecification@@@@QAA@PAVISpecification@@@Z
??0?$AutoDelete@VISpecification@@@@QAA@XZ
??0?$AutoDelete@VInteractiveSid@CSecurity@@@@QAA@PAVInteractiveSid@CSecurity@@@Z
??0?$AutoDelete@VIpHlpApiDllLoader@@@@QAA@PAVIpHlpApiDllLoader@@@Z
??0?$AutoDelete@VMachineName@@@@QAA@PAVMachineName@@@Z
??0?$AutoDelete@VNetworkServiceSid@CSecurity@@@@QAA@PAVNetworkServiceSid@CSecurity@@@Z
??0?$AutoDelete@VNtDsApiDllLoader@@@@QAA@PAVNtDsApiDllLoader@@@Z
??0?$AutoDelete@VOptionValue@SessionOptions@Client@WSMan@@@@QAA@PAVOptionValue@SessionOptions@Client@WSMan@@@Z
??0?$AutoDelete@VPacketCreator@@@@QAA@PAVPacketCreator@@@Z
??0?$AutoDelete@VPacketCreator@@@@QAA@XZ
??0?$AutoDelete@VPacketParser@@@@QAA@XZ
??0?$AutoDelete@VResources@Locale@@@@QAA@PAVResources@Locale@@@Z
??0?$AutoDelete@VRunAsConfiguration@@@@QAA@PAVRunAsConfiguration@@@Z
??0?$AutoDelete@VSecurityEntry@Catalog@@@@QAA@PAVSecurityEntry@Catalog@@@Z
??0?$AutoDelete@VSendPacketArgs@RobustConnectionBuffer@@@@QAA@PAVSendPacketArgs@RobustConnectionBuffer@@@Z
??0?$AutoDelete@VServiceSoapProcessor@@@@QAA@XZ
??0?$AutoDelete@VShell32DllLoader@@@@QAA@PAVShell32DllLoader@@@Z
??0?$AutoDelete@VShlWApiDllLoader@@@@QAA@PAVShlWApiDllLoader@@@Z
??0?$AutoDelete@VSubscriptionEnumerator@@@@QAA@XZ
??0?$AutoDelete@VSubscriptionManager@@@@QAA@PAVSubscriptionManager@@@Z
??0?$AutoDelete@VTSTRBUFFER@@@@QAA@PAVTSTRBUFFER@@@Z
??0?$AutoDelete@VTSTRBUFFER@@@@QAA@XZ
??0?$AutoDelete@VUniqueStringOverflow@@@@QAA@XZ
??0?$AutoDelete@VUser32DllLoader@@@@QAA@PAVUser32DllLoader@@@Z
??0?$AutoDelete@VWSMANCONFIGTABLE_IDENTITY@@@@QAA@PAVWSMANCONFIGTABLE_IDENTITY@@@Z
??0?$AutoDelete@VWSManMemCryptManager@@@@QAA@PAVWSManMemCryptManager@@@Z
??0?$AutoDelete@VWmiEnumContext@@@@QAA@PAVWmiEnumContext@@@Z
??0?$AutoDelete@VWmiEnumContext@@@@QAA@XZ
??0?$AutoDelete@VXmlReader@@@@QAA@PAVXmlReader@@@Z
??0?$AutoDelete@VXmlReader@@@@QAA@XZ
??0?$AutoDeleteVector@$$CBG@@QAA@XZ
??0?$AutoDeleteVector@D@@QAA@PAD@Z
??0?$AutoDeleteVector@D@@QAA@XZ
??0?$AutoDeleteVector@E@@QAA@PAE@Z
??0?$AutoDeleteVector@E@@QAA@XZ
??0?$AutoDeleteVector@G@@QAA@PAG@Z
??0?$AutoDeleteVector@G@@QAA@XZ
??0?$AutoDeleteVector@H@@QAA@PAH@Z
??0?$AutoDeleteVector@PAG@@QAA@PAPAG@Z
??0?$AutoDeleteVector@PAG@@QAA@XZ
??0?$AutoDeleteVector@PBG@@QAA@PAPBG@Z
??0?$AutoDeleteVector@PBG@@QAA@XZ
??0?$AutoDeleteVector@U_CONFIG_UPDATE@@@@QAA@XZ
??0?$AutoDeleteVector@U_WINRS_CREATE_SHELL_ENVIRONMENT_VARIABLE@@@@QAA@PAU_WINRS_CREATE_SHELL_ENVIRONMENT_VARIABLE@@@Z
??0?$AutoDeleteVector@U_WINRS_CREATE_SHELL_ENVIRONMENT_VARIABLE@@@@QAA@XZ
??0?$AutoDeleteVector@U_WINRS_RUN_COMMAND_ARG@@@@QAA@PAU_WINRS_RUN_COMMAND_ARG@@@Z
??0?$AutoDeleteVector@U_WINRS_RUN_COMMAND_ARG@@@@QAA@XZ
??0?$AutoDeleteVector@U_WSMAN_OPTION@@@@QAA@PAU_WSMAN_OPTION@@@Z
??0?$AutoDeleteVector@U_WSMAN_OPTION@@@@QAA@XZ
??0?$AutoDeleteVector@X@@QAA@PAX@Z
??0?$AutoDeleteVector@X@@QAA@XZ
??0?$AutoFree@E@@QAA@PAE@Z
??0?$AutoFree@E@@QAA@XZ
??0?$AutoLocklessItemRecycle@VPacket@@@@QAA@PAVPacket@@@Z
??0?$AutoLocklessItemRecycle@VPacket@@@@QAA@XZ
??0?$AutoRelease@UIAppHostChildElementCollection@@@@QAA@XZ
??0?$AutoRelease@UIAppHostElement@@@@QAA@XZ
??0?$AutoRelease@UIAppHostElementCollection@@@@QAA@XZ
??0?$AutoRelease@UIAppHostProperty@@@@QAA@XZ
??0?$AutoRelease@UIAppHostPropertyCollection@@@@QAA@XZ
??0?$AutoRelease@UIClientSecurity@@@@QAA@PAUIClientSecurity@@@Z
??0?$AutoRelease@UIClientSecurity@@@@QAA@XZ
??0?$AutoRelease@UIEnumWbemClassObject@@@@QAA@PAUIEnumWbemClassObject@@@Z
??0?$AutoRelease@UIEnumWbemClassObject@@@@QAA@XZ
??0?$AutoRelease@UIErrorInfo@@@@QAA@PAUIErrorInfo@@@Z
??0?$AutoRelease@UIErrorInfo@@@@QAA@XZ
??0?$AutoRelease@UIUnknown@@@@QAA@PAUIUnknown@@@Z
??0?$AutoRelease@UIUnknown@@@@QAA@XZ
??0?$AutoRelease@UIWbemClassObject@@@@QAA@PAUIWbemClassObject@@@Z
??0?$AutoRelease@UIWbemClassObject@@@@QAA@XZ
??0?$AutoRelease@UIWbemContext@@@@QAA@PAUIWbemContext@@@Z
??0?$AutoRelease@UIWbemContext@@@@QAA@XZ
??0?$AutoRelease@UIWbemLocator@@@@QAA@PAUIWbemLocator@@@Z
??0?$AutoRelease@UIWbemLocator@@@@QAA@XZ
??0?$AutoRelease@UIWbemObjectTextSrc@@@@QAA@PAUIWbemObjectTextSrc@@@Z
??0?$AutoRelease@UIWbemObjectTextSrc@@@@QAA@XZ
??0?$AutoRelease@UIWbemPath@@@@QAA@PAUIWbemPath@@@Z
??0?$AutoRelease@UIWbemPath@@@@QAA@XZ
??0?$AutoRelease@UIWbemPathKeyList@@@@QAA@PAUIWbemPathKeyList@@@Z
??0?$AutoRelease@UIWbemPathKeyList@@@@QAA@XZ
??0?$AutoRelease@UIWbemQualifierSet@@@@QAA@PAUIWbemQualifierSet@@@Z
??0?$AutoRelease@UIWbemQualifierSet@@@@QAA@XZ
??0?$AutoRelease@UIWbemQuery@@@@QAA@PAUIWbemQuery@@@Z
??0?$AutoRelease@UIWbemQuery@@@@QAA@XZ
??0?$AutoRelease@UIWbemServices@@@@QAA@PAUIWbemServices@@@Z
??0?$AutoRelease@UIWbemServices@@@@QAA@XZ
??0?$AutoRelease@VApplication@Client@WSMan@@@@QAA@XZ
??0?$AutoRelease@VCBaseConfigCache@@@@QAA@PAVCBaseConfigCache@@@Z
??0?$AutoRelease@VCClientConfigSettings@@@@QAA@PAVCClientConfigSettings@@@Z
??0?$AutoRelease@VCClientConfigSettings@@@@QAA@XZ
??0?$AutoRelease@VCCommonConfigSettings@@@@QAA@PAVCCommonConfigSettings@@@Z
??0?$AutoRelease@VCCommonConfigSettings@@@@QAA@XZ
??0?$AutoRelease@VCConfigCacheMap@CBaseConfigCache@@@@QAA@PAVCConfigCacheMap@CBaseConfigCache@@@Z
??0?$AutoRelease@VCConfigCacheMap@CBaseConfigCache@@@@QAA@XZ
??0?$AutoRelease@VCConfigManager@@@@QAA@PAVCConfigManager@@@Z
??0?$AutoRelease@VCConfigManager@@@@QAA@XZ
??0?$AutoRelease@VCRemoteOperation@@@@QAA@PAVCRemoteOperation@@@Z
??0?$AutoRelease@VCRemoteSession@@@@QAA@PAVCRemoteSession@@@Z
??0?$AutoRelease@VCRemoteSession@@@@QAA@XZ
??0?$AutoRelease@VCRequestContext@@@@QAA@PAVCRequestContext@@@Z
??0?$AutoRelease@VCRequestContext@@@@QAA@XZ
??0?$AutoRelease@VCServiceCommonConfigSettings@@@@QAA@PAVCServiceCommonConfigSettings@@@Z
??0?$AutoRelease@VCServiceCommonConfigSettings@@@@QAA@XZ
??0?$AutoRelease@VCServiceConfigCache@@@@QAA@PAVCServiceConfigCache@@@Z
??0?$AutoRelease@VCServiceConfigCache@@@@QAA@XZ
??0?$AutoRelease@VCServiceConfigSettings@@@@QAA@PAVCServiceConfigSettings@@@Z
??0?$AutoRelease@VCServiceConfigSettings@@@@QAA@XZ
??0?$AutoRelease@VCWSManEPR@@@@QAA@PAVCWSManEPR@@@Z
??0?$AutoRelease@VCWSManEPR@@@@QAA@XZ
??0?$AutoRelease@VCWSManGroupPolicyCache@@@@QAA@PAVCWSManGroupPolicyCache@@@Z
??0?$AutoRelease@VCWSManGroupPolicyManager@@@@QAA@PAVCWSManGroupPolicyManager@@@Z
??0?$AutoRelease@VCWSManObject@@@@QAA@PAVCWSManObject@@@Z
??0?$AutoRelease@VCWSManResource@@@@QAA@PAVCWSManResource@@@Z
??0?$AutoRelease@VCWSManResource@@@@QAA@XZ
??0?$AutoRelease@VCWinRSPluginConfigCache@@@@QAA@PAVCWinRSPluginConfigCache@@@Z
??0?$AutoRelease@VCWinRSPluginConfigCache@@@@QAA@XZ
??0?$AutoRelease@VCWinRSPluginConfigSettings@@@@QAA@PAVCWinRSPluginConfigSettings@@@Z
??0?$AutoRelease@VCommand@Client@WSMan@@@@QAA@PAVCommand@Client@WSMan@@@Z
??0?$AutoRelease@VConfigNotification@@@@QAA@PAVConfigNotification@@@Z
??0?$AutoRelease@VConnectShellOperation@Client@WSMan@@@@QAA@PAVConnectShellOperation@Client@WSMan@@@Z
??0?$AutoRelease@VCreateShellOperation@Client@WSMan@@@@QAA@PAVCreateShellOperation@Client@WSMan@@@Z
??0?$AutoRelease@VDeleteShellOperation@Client@WSMan@@@@QAA@PAVDeleteShellOperation@Client@WSMan@@@Z
??0?$AutoRelease@VDisconnectOperation@Client@WSMan@@@@QAA@PAVDisconnectOperation@Client@WSMan@@@Z
??0?$AutoRelease@VEnumSinkEx@@@@QAA@PAVEnumSinkEx@@@Z
??0?$AutoRelease@VEnumSinkEx@@@@QAA@XZ
??0?$AutoRelease@VGeneralSinkEx@@@@QAA@PAVGeneralSinkEx@@@Z
??0?$AutoRelease@VGeneralSinkEx@@@@QAA@XZ
??0?$AutoRelease@VIISConfigSettings@@@@QAA@XZ
??0?$AutoRelease@VIPCSoapProcessor@@@@QAA@PAVIPCSoapProcessor@@@Z
??0?$AutoRelease@VIRequestContext@@@@QAA@PAVIRequestContext@@@Z
??0?$AutoRelease@VIRequestContext@@@@QAA@XZ
??0?$AutoRelease@VISubscription@@@@QAA@PAVISubscription@@@Z
??0?$AutoRelease@VInboundRequestDetails@@@@QAA@XZ
??0?$AutoRelease@VReceiveOperation@Client@WSMan@@@@QAA@PAVReceiveOperation@Client@WSMan@@@Z
??0?$AutoRelease@VReconnectOperation@Client@WSMan@@@@QAA@PAVReconnectOperation@Client@WSMan@@@Z
??0?$AutoRelease@VSendOperation@Client@WSMan@@@@QAA@PAVSendOperation@Client@WSMan@@@Z
??0?$AutoRelease@VShell@Client@WSMan@@@@QAA@PAVShell@Client@WSMan@@@Z
??0?$AutoRelease@VShellInfo@@@@QAA@XZ
??0?$AutoRelease@VSignalOperation@Client@WSMan@@@@QAA@PAVSignalOperation@Client@WSMan@@@Z
??0?$AutoRelease@VUserRecord@@@@QAA@XZ
??0?$AutoRelease@VWSManHttpListener@@@@QAA@PAVWSManHttpListener@@@Z
??0?$AutoReleaseEx@VHostMappingTableEntry@@@@QAA@XZ
??0?$AutoReleaseEx@VShell@Client@WSMan@@@@QAA@PAVShell@Client@WSMan@@@Z
??0?$ILoader@VAdminSid@CSecurity@@@@QAA@P8AdminSid@CSecurity@@AA_NAAVIRequestContext@@@Z1@Z
??0?$ILoader@VCredUIDllLoader@@@@QAA@P8CredUIDllLoader@@AA_NAAVIRequestContext@@@Z1@Z
??0?$ILoader@VEventHandler@WSMan@@@@QAA@P8EventHandler@WSMan@@AA_NAAVIRequestContext@@@Z1@Z
??0?$ILoader@VInteractiveSid@CSecurity@@@@QAA@P8InteractiveSid@CSecurity@@AA_NAAVIRequestContext@@@Z1@Z
??0?$ILoader@VIpHlpApiDllLoader@@@@QAA@P8IpHlpApiDllLoader@@AA_NAAVIRequestContext@@@Z1@Z
??0?$ILoader@VMachineName@@@@QAA@P8MachineName@@AA_NAAVIRequestContext@@@Z1@Z
??0?$ILoader@VNetworkServiceSid@CSecurity@@@@QAA@P8NetworkServiceSid@CSecurity@@AA_NAAVIRequestContext@@@Z1@Z
??0?$ILoader@VNtDsApiDllLoader@@@@QAA@P8NtDsApiDllLoader@@AA_NAAVIRequestContext@@@Z1@Z
??0?$ILoader@VResources@Locale@@@@QAA@P8Resources@Locale@@AA_NAAVIRequestContext@@@Z1@Z
??0?$ILoader@VShell32DllLoader@@@@QAA@P8Shell32DllLoader@@AA_NAAVIRequestContext@@@Z1@Z
??0?$ILoader@VShlWApiDllLoader@@@@QAA@P8ShlWApiDllLoader@@AA_NAAVIRequestContext@@@Z1@Z
??0?$ILoader@VSubscriptionManager@@@@QAA@P8SubscriptionManager@@AA_NAAVIRequestContext@@@Z1@Z
??0?$ILoader@VUser32DllLoader@@@@QAA@P8User32DllLoader@@AA_NAAVIRequestContext@@@Z1@Z
??0?$ILoader@VWSManMemCryptManager@@@@QAA@P8WSManMemCryptManager@@AA_NAAVIRequestContext@@@Z1@Z
??0?$Loader@VAdminSid@CSecurity@@$00@@QAA@XZ
??0?$Loader@VCredUIDllLoader@@$00@@QAA@XZ
??0?$Loader@VEventHandler@WSMan@@$00@@QAA@XZ
??0?$Loader@VInteractiveSid@CSecurity@@$00@@QAA@XZ
??0?$Loader@VIpHlpApiDllLoader@@$00@@QAA@XZ
??0?$Loader@VMachineName@@$00@@QAA@XZ
??0?$Loader@VNetworkServiceSid@CSecurity@@$00@@QAA@XZ
??0?$Loader@VNtDsApiDllLoader@@$00@@QAA@XZ
??0?$Loader@VResources@Locale@@$0A@@@QAA@XZ
??0?$Loader@VShell32DllLoader@@$00@@QAA@XZ
??0?$Loader@VShlWApiDllLoader@@$00@@QAA@XZ
??0?$Loader@VUser32DllLoader@@$00@@QAA@XZ
??0?$Loader@VWSManMemCryptManager@@$00@@QAA@XZ
??0?$LoaderSerializer@VAdminSid@CSecurity@@$00@@QAA@P8AdminSid@CSecurity@@AA_NAAVIRequestContext@@@Z1@Z
??0?$LoaderSerializer@VCredUIDllLoader@@$00@@QAA@P8CredUIDllLoader@@AA_NAAVIRequestContext@@@Z1@Z
??0?$LoaderSerializer@VEventHandler@WSMan@@$00@@QAA@P8EventHandler@WSMan@@AA_NAAVIRequestContext@@@Z1@Z
??0?$LoaderSerializer@VInteractiveSid@CSecurity@@$00@@QAA@P8InteractiveSid@CSecurity@@AA_NAAVIRequestContext@@@Z1@Z
??0?$LoaderSerializer@VIpHlpApiDllLoader@@$00@@QAA@P8IpHlpApiDllLoader@@AA_NAAVIRequestContext@@@Z1@Z
??0?$LoaderSerializer@VMachineName@@$00@@QAA@P8MachineName@@AA_NAAVIRequestContext@@@Z1@Z
??0?$LoaderSerializer@VNetworkServiceSid@CSecurity@@$00@@QAA@P8NetworkServiceSid@CSecurity@@AA_NAAVIRequestContext@@@Z1@Z
??0?$LoaderSerializer@VNtDsApiDllLoader@@$00@@QAA@P8NtDsApiDllLoader@@AA_NAAVIRequestContext@@@Z1@Z
??0?$LoaderSerializer@VResources@Locale@@$0A@@@QAA@P8Resources@Locale@@AA_NAAVIRequestContext@@@Z1@Z
??0?$LoaderSerializer@VShell32DllLoader@@$00@@QAA@P8Shell32DllLoader@@AA_NAAVIRequestContext@@@Z1@Z
??0?$LoaderSerializer@VShlWApiDllLoader@@$00@@QAA@P8ShlWApiDllLoader@@AA_NAAVIRequestContext@@@Z1@Z
??0?$LoaderSerializer@VSubscriptionManager@@$01@@QAA@P8SubscriptionManager@@AA_NAAVIRequestContext@@@Z1@Z
??0?$LoaderSerializer@VUser32DllLoader@@$00@@QAA@P8User32DllLoader@@AA_NAAVIRequestContext@@@Z1@Z
??0?$LoaderSerializer@VWSManMemCryptManager@@$00@@QAA@P8WSManMemCryptManager@@AA_NAAVIRequestContext@@@Z1@Z
??0?$PacketElement@K@PacketParser@@QAA@XZ
??0?$PacketElement@PAU_FWXML_ELEMENT@@@PacketParser@@QAA@XZ
??0?$PacketElement@PBG@PacketParser@@QAA@XZ
??0?$PacketElement@_K@PacketParser@@QAA@XZ
??0?$SafeMap@PAVCCertMapping@@UEmpty@@V?$SafeSet_Iterator@PAVCCertMapping@@@@@@QAA@XZ
??0?$SafeMap@PAVCListenerOperation@@UEmpty@@V?$SafeSet_Iterator@PAVCListenerOperation@@@@@@QAA@XZ
??0?$SafeMap@PAVCShellUriSettings@@UEmpty@@V?$SafeSet_Iterator@PAVCShellUriSettings@@@@@@QAA@XZ
??0?$SafeMap@PAXUEmpty@@V?$SafeSet_Iterator@PAX@@@@QAA@XZ
??0?$SafeMap@UPluginKey@@KV?$SafeMap_Iterator@UPluginKey@@K@@@@QAA@XZ
??0?$SafeMap@UUserKey@@PAVBlockedRecord@@V?$SafeMap_Iterator@UUserKey@@PAVBlockedRecord@@@@@@QAA@XZ
??0?$SafeMap@VCertThumbprintKey@@VCertThumbprintMappedSet@CServiceConfigSettings@@V?$SafeMap_Iterator@VCertThumbprintKey@@VCertThumbprintMappedSet@CServiceConfigSettings@@@@@@QAA@XZ
??0?$SafeMap@VKey@Locale@@KV?$SafeMap_Iterator@VKey@Locale@@K@@@@QAA@XZ
??0?$SafeMap@VStringKeyCI@@KV?$SafeMap_Iterator@VStringKeyCI@@K@@@@QAA@XZ
??0?$SafeMap@VStringKeyCI@@UUSER_CONTEXT_INFO@WSManHttpListener@@V?$SafeMap_Iterator@VStringKeyCI@@UUSER_CONTEXT_INFO@WSManHttpListener@@@@@@QAA@XZ
??0?$SafeMap@VStringKeyStore@@PAVExpiredOperationIdRecord@@V?$SafeMap_Iterator@VStringKeyStore@@PAVExpiredOperationIdRecord@@@@@@QAA@XZ
??0?$SafeMap@VStringKeyStore@@PAVServerFullDuplexChannel@@V?$SafeMap_Iterator@VStringKeyStore@@PAVServerFullDuplexChannel@@@@@@QAA@XZ
??0?$SafeMap@W4WSManSessionOption@@PAVOptionValue@SessionOptions@Client@WSMan@@V?$SafeMap_Iterator@W4WSManSessionOption@@PAVOptionValue@SessionOptions@Client@WSMan@@@@@@QAA@XZ
??0?$SafeMap@_KPAVSendPacketArgs@RobustConnectionBuffer@@V?$SafeMap_Iterator@_KPAVSendPacketArgs@RobustConnectionBuffer@@@@@@QAA@XZ
??0?$SafeMap_Iterator@PAVCCertMapping@@UEmpty@@@@QAA@AAV?$SafeMap@PAVCCertMapping@@UEmpty@@V?$SafeMap_Iterator@PAVCCertMapping@@UEmpty@@@@@@_N@Z
??0?$SafeMap_Iterator@PAVCListenerOperation@@UEmpty@@@@QAA@AAV?$SafeMap@PAVCListenerOperation@@UEmpty@@V?$SafeMap_Iterator@PAVCListenerOperation@@UEmpty@@@@@@_N@Z
??0?$SafeMap_Iterator@PAVCShellUriSettings@@UEmpty@@@@QAA@AAV?$SafeMap@PAVCShellUriSettings@@UEmpty@@V?$SafeMap_Iterator@PAVCShellUriSettings@@UEmpty@@@@@@_N@Z
??0?$SafeMap_Iterator@PAXUEmpty@@@@QAA@AAV?$SafeMap@PAXUEmpty@@V?$SafeMap_Iterator@PAXUEmpty@@@@@@_N@Z
??0?$SafeMap_Iterator@UPluginKey@@K@@QAA@AAV?$SafeMap@UPluginKey@@KV?$SafeMap_Iterator@UPluginKey@@K@@@@_N@Z
??0?$SafeMap_Iterator@UUserKey@@PAVBlockedRecord@@@@QAA@AAV?$SafeMap@UUserKey@@PAVBlockedRecord@@V?$SafeMap_Iterator@UUserKey@@PAVBlockedRecord@@@@@@_N@Z
??0?$SafeMap_Iterator@VCertThumbprintKey@@VCertThumbprintMappedSet@CServiceConfigSettings@@@@QAA@AAV?$SafeMap@VCertThumbprintKey@@VCertThumbprintMappedSet@CServiceConfigSettings@@V?$SafeMap_Iterator@VCertThumbprintKey@@VCertThumbprintMappedSet@CServiceConfigSettings@@@@@@_N@Z
??0?$SafeMap_Iterator@VKey@Locale@@K@@QAA@AAV?$SafeMap@VKey@Locale@@KV?$SafeMap_Iterator@VKey@Locale@@K@@@@_N@Z
??0?$SafeMap_Iterator@VStringKeyCI@@K@@QAA@AAV?$SafeMap@VStringKeyCI@@KV?$SafeMap_Iterator@VStringKeyCI@@K@@@@_N@Z
??0?$SafeMap_Iterator@VStringKeyCI@@UUSER_CONTEXT_INFO@WSManHttpListener@@@@QAA@AAV?$SafeMap@VStringKeyCI@@UUSER_CONTEXT_INFO@WSManHttpListener@@V?$SafeMap_Iterator@VStringKeyCI@@UUSER_CONTEXT_INFO@WSManHttpListener@@@@@@_N@Z
??0?$SafeMap_Iterator@VStringKeyStore@@PAVExpiredOperationIdRecord@@@@QAA@AAV?$SafeMap@VStringKeyStore@@PAVExpiredOperationIdRecord@@V?$SafeMap_Iterator@VStringKeyStore@@PAVExpiredOperationIdRecord@@@@@@_N@Z
??0?$SafeMap_Iterator@VStringKeyStore@@PAVServerFullDuplexChannel@@@@QAA@AAV?$SafeMap@VStringKeyStore@@PAVServerFullDuplexChannel@@V?$SafeMap_Iterator@VStringKeyStore@@PAVServerFullDuplexChannel@@@@@@_N@Z
??0?$SafeMap_Iterator@W4WSManSessionOption@@PAVOptionValue@SessionOptions@Client@WSMan@@@@QAA@AAV?$SafeMap@W4WSManSessionOption@@PAVOptionValue@SessionOptions@Client@WSMan@@V?$SafeMap_Iterator@W4WSManSessionOption@@PAVOptionValue@SessionOptions@Client@WSMan@@@@@@_N@Z
??0?$SafeMap_Iterator@_KPAVSendPacketArgs@RobustConnectionBuffer@@@@QAA@AAV?$SafeMap@_KPAVSendPacketArgs@RobustConnectionBuffer@@V?$SafeMap_Iterator@_KPAVSendPacketArgs@RobustConnectionBuffer@@@@@@_N@Z
??0?$SafeMap_Lock@PAVCCertMapping@@UEmpty@@V?$SafeMap_Iterator@PAVCCertMapping@@UEmpty@@@@@@QAA@ABV?$SafeMap@PAVCCertMapping@@UEmpty@@V?$SafeMap_Iterator@PAVCCertMapping@@UEmpty@@@@@@_N@Z
??0?$SafeMap_Lock@PAVCCertMapping@@UEmpty@@V?$SafeSet_Iterator@PAVCCertMapping@@@@@@QAA@ABV?$SafeMap@PAVCCertMapping@@UEmpty@@V?$SafeSet_Iterator@PAVCCertMapping@@@@@@_N@Z
??0?$SafeMap_Lock@PAVCListenerOperation@@UEmpty@@V?$SafeMap_Iterator@PAVCListenerOperation@@UEmpty@@@@@@QAA@ABV?$SafeMap@PAVCListenerOperation@@UEmpty@@V?$SafeMap_Iterator@PAVCListenerOperation@@UEmpty@@@@@@_N@Z
??0?$SafeMap_Lock@PAVCListenerOperation@@UEmpty@@V?$SafeSet_Iterator@PAVCListenerOperation@@@@@@QAA@ABV?$SafeMap@PAVCListenerOperation@@UEmpty@@V?$SafeSet_Iterator@PAVCListenerOperation@@@@@@_N@Z
??0?$SafeMap_Lock@PAVCShellUriSettings@@UEmpty@@V?$SafeMap_Iterator@PAVCShellUriSettings@@UEmpty@@@@@@QAA@ABV?$SafeMap@PAVCShellUriSettings@@UEmpty@@V?$SafeMap_Iterator@PAVCShellUriSettings@@UEmpty@@@@@@_N@Z
??0?$SafeMap_Lock@PAVCShellUriSettings@@UEmpty@@V?$SafeSet_Iterator@PAVCShellUriSettings@@@@@@QAA@ABV?$SafeMap@PAVCShellUriSettings@@UEmpty@@V?$SafeSet_Iterator@PAVCShellUriSettings@@@@@@_N@Z
??0?$SafeMap_Lock@PAXUEmpty@@V?$SafeMap_Iterator@PAXUEmpty@@@@@@QAA@ABV?$SafeMap@PAXUEmpty@@V?$SafeMap_Iterator@PAXUEmpty@@@@@@_N@Z
??0?$SafeMap_Lock@PAXUEmpty@@V?$SafeSet_Iterator@PAX@@@@QAA@ABV?$SafeMap@PAXUEmpty@@V?$SafeSet_Iterator@PAX@@@@_N@Z
??0?$SafeMap_Lock@UPluginKey@@KV?$SafeMap_Iterator@UPluginKey@@K@@@@QAA@ABV?$SafeMap@UPluginKey@@KV?$SafeMap_Iterator@UPluginKey@@K@@@@_N@Z
??0?$SafeMap_Lock@UUserKey@@PAVBlockedRecord@@V?$SafeMap_Iterator@UUserKey@@PAVBlockedRecord@@@@@@QAA@ABV?$SafeMap@UUserKey@@PAVBlockedRecord@@V?$SafeMap_Iterator@UUserKey@@PAVBlockedRecord@@@@@@_N@Z
??0?$SafeMap_Lock@VCertThumbprintKey@@VCertThumbprintMappedSet@CServiceConfigSettings@@V?$SafeMap_Iterator@VCertThumbprintKey@@VCertThumbprintMappedSet@CServiceConfigSettings@@@@@@QAA@ABV?$SafeMap@VCertThumbprintKey@@VCertThumbprintMappedSet@CServiceConfigSettings@@V?$SafeMap_Iterator@VCertThumbprintKey@@VCertThumbprintMappedSet@CServiceConfigSettings@@@@@@_N@Z
??0?$SafeMap_Lock@VKey@Locale@@KV?$SafeMap_Iterator@VKey@Locale@@K@@@@QAA@ABV?$SafeMap@VKey@Locale@@KV?$SafeMap_Iterator@VKey@Locale@@K@@@@_N@Z
??0?$SafeMap_Lock@VStringKeyCI@@KV?$SafeMap_Iterator@VStringKeyCI@@K@@@@QAA@ABV?$SafeMap@VStringKeyCI@@KV?$SafeMap_Iterator@VStringKeyCI@@K@@@@_N@Z
??0?$SafeMap_Lock@VStringKeyCI@@UEmpty@@V?$SafeSet_Iterator@VStringKeyCI@@@@@@QAA@ABV?$SafeMap@VStringKeyCI@@UEmpty@@V?$SafeSet_Iterator@VStringKeyCI@@@@@@_N@Z
??0?$SafeMap_Lock@VStringKeyCI@@UUSER_CONTEXT_INFO@WSManHttpListener@@V?$SafeMap_Iterator@VStringKeyCI@@UUSER_CONTEXT_INFO@WSManHttpListener@@@@@@QAA@ABV?$SafeMap@VStringKeyCI@@UUSER_CONTEXT_INFO@WSManHttpListener@@V?$SafeMap_Iterator@VStringKeyCI@@UUSER_CONTEXT_INFO@WSManHttpListener@@@@@@_N@Z
??0?$SafeMap_Lock@VStringKeyStore@@PAVExpiredOperationIdRecord@@V?$SafeMap_Iterator@VStringKeyStore@@PAVExpiredOperationIdRecord@@@@@@QAA@ABV?$SafeMap@VStringKeyStore@@PAVExpiredOperationIdRecord@@V?$SafeMap_Iterator@VStringKeyStore@@PAVExpiredOperationIdRecord@@@@@@_N@Z
??0?$SafeMap_Lock@VStringKeyStore@@PAVServerFullDuplexChannel@@V?$SafeMap_Iterator@VStringKeyStore@@PAVServerFullDuplexChannel@@@@@@QAA@ABV?$SafeMap@VStringKeyStore@@PAVServerFullDuplexChannel@@V?$SafeMap_Iterator@VStringKeyStore@@PAVServerFullDuplexChannel@@@@@@_N@Z
??0?$SafeMap_Lock@W4WSManSessionOption@@PAVOptionValue@SessionOptions@Client@WSMan@@V?$SafeMap_Iterator@W4WSManSessionOption@@PAVOptionValue@SessionOptions@Client@WSMan@@@@@@QAA@ABV?$SafeMap@W4WSManSessionOption@@PAVOptionValue@SessionOptions@Client@WSMan@@V?$SafeMap_Iterator@W4WSManSessionOption@@PAVOptionValue@SessionOptions@Client@WSMan@@@@@@_N@Z
??0?$SafeMap_Lock@_KPAVSendPacketArgs@RobustConnectionBuffer@@V?$SafeMap_Iterator@_KPAVSendPacketArgs@RobustConnectionBuffer@@@@@@QAA@ABV?$SafeMap@_KPAVSendPacketArgs@RobustConnectionBuffer@@V?$SafeMap_Iterator@_KPAVSendPacketArgs@RobustConnectionBuffer@@@@@@_N@Z
??0?$SafeSet@PAVCCertMapping@@@@QAA@XZ
??0?$SafeSet@PAVCListenerOperation@@@@QAA@XZ
??0?$SafeSet@PAVCShellUriSettings@@@@QAA@XZ
??0?$SafeSet@PAX@@QAA@XZ
??0?$SafeSet_Iterator@PAVCCertMapping@@@@QAA@AAV?$SafeMap@PAVCCertMapping@@UEmpty@@V?$SafeSet_Iterator@PAVCCertMapping@@@@@@_N@Z
??0?$SafeSet_Iterator@PAVCCertMapping@@@@QAA@AAV?$SafeSet@PAVCCertMapping@@@@@Z
??0?$SafeSet_Iterator@PAVCListenerOperation@@@@QAA@AAV?$SafeMap@PAVCListenerOperation@@UEmpty@@V?$SafeSet_Iterator@PAVCListenerOperation@@@@@@_N@Z
??0?$SafeSet_Iterator@PAVCListenerOperation@@@@QAA@AAV?$SafeSet@PAVCListenerOperation@@@@@Z
??0?$SafeSet_Iterator@PAVCShellUriSettings@@@@QAA@AAV?$SafeMap@PAVCShellUriSettings@@UEmpty@@V?$SafeSet_Iterator@PAVCShellUriSettings@@@@@@_N@Z
??0?$SafeSet_Iterator@PAX@@QAA@AAV?$SafeMap@PAXUEmpty@@V?$SafeSet_Iterator@PAX@@@@_N@Z
??0?$SimpleQueue@T_LARGE_INTEGER@@@@QAA@XZ
??0AutoBstr@@QAA@PAG@Z
??0AutoBstr@@QAA@XZ
??0AutoBstrNoAlloc@@QAA@PAG@Z
??0AutoBstrNoAlloc@@QAA@XZ
??0AutoCertContext@@QAA@PBU_CERT_CONTEXT@@@Z
??0AutoCertContext@@QAA@XZ
??0AutoChainContext@@QAA@PBU_CERT_CHAIN_CONTEXT@@@Z
??0AutoChainContext@@QAA@XZ
??0AutoCoTaskMemFree@@QAA@PAX@Z
??0AutoCoTaskMemFree@@QAA@XZ
??0AutoEnvironmentBlock@@QAA@PAX@Z
??0AutoEnvironmentBlock@@QAA@XZ
??0AutoFwXmlCloseParser@@QAA@PAX@Z
??0AutoFwXmlCloseParser@@QAA@XZ
??0AutoHandle@@QAA@PAX@Z
??0AutoHandle@@QAA@XZ
??0AutoImpersonateUser@@QAA@PAX@Z
??0AutoImpersonateUser@@QAA@XZ
??0AutoLibrary@@QAA@PAUHINSTANCE__@@@Z
??0AutoLibrary@@QAA@XZ
??0AutoLocalFree@@QAA@PAX@Z
??0AutoLocalFree@@QAA@XZ
??0AutoMIClass@@QAA@PAU_MI_Class@@@Z
??0AutoMIClass@@QAA@XZ
??0AutoMIInstance@@QAA@PAU_MI_Instance@@@Z
??0AutoMIInstance@@QAA@XZ
??0AutoObject@@QAA@PAUWSMAN_OBJECT@@@Z
??0AutoObject@@QAA@XZ
??0AutoRegKey@@QAA@PAUHKEY__@@@Z
??0AutoRegKey@@QAA@XZ
??0AutoSecurityDescriptor@@QAA@PAX@Z
??0AutoSecurityDescriptor@@QAA@XZ
??0AutoWaitHandle@@QAA@PAX@Z
??0AutoWaitHandle@@QAA@XZ
??0BufferFormatter@@QAA@PAEK@Z
??0BufferFormatter@@QAA@XZ
??0CBaseConfigCache@@IAA@W4ConfigLocation@CConfigChangeSource@@PAVFastLock@@PAVCConfigCacheMap@0@@Z
??0CClientConfigCache@@AAA@XZ
??0CConfigManager@@AAA@XZ
??0CErrorContext@@QAA@_N@Z
??0CRequestContext@@QAA@PBG@Z
??0CRequestContext@@QAA@XZ
??0CResourceAlias@@QAA@PBG@Z
??0CServiceConfigCache@@AAA@XZ
??0CServiceWatcher@CServiceConfigCache@@AAA@PAV1@PAVIServiceConfigObserver@@@Z
??0CWSManCriticalSection@@QAA@XZ
??0CWSManCriticalSectionWithConditionVar@@QAA@XZ
??0CWSManEPR@@QAA@H@Z
??0CWSManGroupPolicyManager@@AAA@XZ
??0CWSManResource@@QAA@H@Z
??0CWSManResourceNoResourceUri@@QAA@H@Z
??0CWSManSecurityUI@@QAA@XZ
??0CWinRSPluginConfigCache@@AAA@XZ
??0ChildLifeTimeManager@@QAA@XZ
??0CircularBufferFormatter@@QAA@XZ
??0ConfigRegistry@@IAA@XZ
??0EtwCorrelationHelper@@QAA@ABV0@@Z
??0EventHandler@WSMan@@QAA@XZ
??0ExtendedSemantic@@QAA@K@Z
??0FastLock@@QAA@XZ
??0Fragment@PacketParser@@QAA@XZ
??0IConfigChangeObserver@@QAA@ABV0@@Z
??0IConfigChangeObserver@@QAA@XZ
??0ILifeTimeMgmt@@QAA@ABV0@@Z
??0ILifeTimeMgmt@@QAA@XZ
??0IRequestContext@@IAA@XZ
??0IWSManGroupPolicyObserver@@QAA@ABV0@@Z
??0IWSManGroupPolicyObserver@@QAA@XZ
??0IWSManGroupPolicyPublisher@@QAA@ABV0@@Z
??0IWSManGroupPolicyPublisher@@QAA@XZ
??0Locale@@QAA@ABV0@@Z
??0Locale@@QAA@PAVIRequestContext@@@Z
??0Locale@@QAA@XZ
??0MessageId@PacketParser@@QAA@XZ
??0NotUnderstandSoapHeader@PacketParser@@QAA@XZ
??0OnHTTPInitialize@@QAA@XZ
??0OperationId@PacketParser@@QAA@XZ
??0OwnLock@@QAA@AAVFastLock@@@Z
??0PacketFormatter@@QAA@XZ
??0PacketParser@@QAA@XZ
??0RBUFFER@@QAA@I@Z
??0RBUFFER@@QAA@PAEI@Z
??0ReferenceParameters@PacketParser@@QAA@XZ
??0SBUFFER@@QAA@XZ
??0SessionId@PacketParser@@QAA@XZ
??0ShareLock@@QAA@AAVFastLock@@@Z
??0SoapSemanticConverter@@QAA@XZ
??0TSTRBUFFER@@QAA@XZ
??0UserAuthzRecord@@QAA@ABV0@@Z
??0UserAuthzRecord@@QAA@XZ
??0UserRecord@@QAA@XZ
??0XmlReader@@QAA@XZ
??1?$AutoCleanup@V?$AutoDelete@D@@PAD@@QAA@XZ
??1?$AutoCleanup@V?$AutoDelete@G@@PAG@@QAA@XZ
??1?$AutoCleanup@V?$AutoDelete@UIPRange@CWSManIPFilter@@@@PAUIPRange@CWSManIPFilter@@@@QAA@XZ
??1?$AutoCleanup@V?$AutoDelete@U_SID@@@@PAU_SID@@@@QAA@XZ
??1?$AutoCleanup@V?$AutoDelete@U_WSMAN_STREAM_ID_SET@@@@PAU_WSMAN_STREAM_ID_SET@@@@QAA@XZ
??1?$AutoCleanup@V?$AutoDelete@V?$Handle@VISubscription@@@@@@PAV?$Handle@VISubscription@@@@@@QAA@XZ
??1?$AutoCleanup@V?$AutoDelete@V?$SafeMap_Iterator@PAVCListenerConnect@@PAV1@@@@@PAV?$SafeMap_Iterator@PAVCListenerConnect@@PAV1@@@@@QAA@XZ
??1?$AutoCleanup@V?$AutoDelete@V?$SafeMap_Iterator@PAVCListenerReceive@@PAV1@@@@@PAV?$SafeMap_Iterator@PAVCListenerReceive@@PAV1@@@@@QAA@XZ
??1?$AutoCleanup@V?$AutoDelete@V?$SafeMap_Iterator@PAVCListenerSend@@PAV1@@@@@PAV?$SafeMap_Iterator@PAVCListenerSend@@PAV1@@@@@QAA@XZ
??1?$AutoCleanup@V?$AutoDelete@V?$SafeMap_Iterator@PAVCListenerSignal@@PAV1@@@@@PAV?$SafeMap_Iterator@PAVCListenerSignal@@PAV1@@@@@QAA@XZ
??1?$AutoCleanup@V?$AutoDelete@V?$SafeMap_Iterator@VGuidKey@@PAVCListenerCommand@@@@@@PAV?$SafeMap_Iterator@VGuidKey@@PAVCListenerCommand@@@@@@QAA@XZ
??1?$AutoCleanup@V?$AutoDelete@V?$SafeMap_Iterator@VStringKeyCI@@K@@@@PAV?$SafeMap_Iterator@VStringKeyCI@@K@@@@QAA@XZ
??1?$AutoCleanup@V?$AutoDelete@V?$SafeMap_Iterator@W4WSManSessionOption@@PAVOptionValue@SessionOptions@Client@WSMan@@@@@@PAV?$SafeMap_Iterator@W4WSManSessionOption@@PAVOptionValue@SessionOptions@Client@WSMan@@@@@@QAA@XZ
??1?$AutoCleanup@V?$AutoDelete@V?$SafeSet@PAVCCertMapping@@@@@@PAV?$SafeSet@PAVCCertMapping@@@@@@QAA@XZ
??1?$AutoCleanup@V?$AutoDelete@V?$SafeSet@PAVCShellUriSettings@@@@@@PAV?$SafeSet@PAVCShellUriSettings@@@@@@QAA@XZ
??1?$AutoCleanup@V?$AutoDelete@V?$SafeSet_Iterator@PAVCListenerOperation@@@@@@PAV?$SafeSet_Iterator@PAVCListenerOperation@@@@@@QAA@XZ
??1?$AutoCleanup@V?$AutoDelete@V?$SafeSet_Iterator@PAVCollector@@@@@@PAV?$SafeSet_Iterator@PAVCollector@@@@@@QAA@XZ
??1?$AutoCleanup@V?$AutoDelete@V?$SafeSet_Iterator@PAVHostOperation@@@@@@PAV?$SafeSet_Iterator@PAVHostOperation@@@@@@QAA@XZ
??1?$AutoCleanup@V?$AutoDelete@V?$SafeSet_Iterator@PAVListenerSourceSubscription@@@@@@PAV?$SafeSet_Iterator@PAVListenerSourceSubscription@@@@@@QAA@XZ
??1?$AutoCleanup@V?$AutoDelete@V?$SimpleStack@VCListenerOperation@@@@@@PAV?$SimpleStack@VCListenerOperation@@@@@@QAA@XZ
??1?$AutoCleanup@V?$AutoDelete@V?$SimpleStack@VShellHostEntry@@@@@@PAV?$SimpleStack@VShellHostEntry@@@@@@QAA@XZ
??1?$AutoCleanup@V?$AutoDelete@V?$queue@PAU_WSMAN_PUBLISHER_EVENT_STRUCT@@V?$deque@PAU_WSMAN_PUBLISHER_EVENT_STRUCT@@V?$transport_allocator@PAU_WSMAN_PUBLISHER_EVENT_STRUCT@@@@@std@@@std@@@@PAV?$queue@PAU_WSMAN_PUBLISHER_EVENT_STRUCT@@V?$deque@PAU_WSMAN_PUBLISHER_EVENT_STRUCT@@V?$transport_allocator@PAU_WSMAN_PUBLISHER_EVENT_STRUCT@@@@@std@@@std@@@@QAA@XZ
??1?$AutoCleanup@V?$AutoDelete@V?$set@PAVCListenerSettings@@VCListenerSettingsLessFunctor@CServiceConfigSettings@@V?$transport_allocator@PAVCListenerSettings@@@@@std@@@@PAV?$set@PAVCListenerSettings@@VCListenerSettingsLessFunctor@CServiceConfigSettings@@V?$transport_allocator@PAVCListenerSettings@@@@@std@@@@QAA@XZ
??1?$AutoCleanup@V?$AutoDelete@V?$set@Usockaddr_storage@@VSockAddrLessFunctor@CListenerSettings@@V?$transport_allocator@Usockaddr_storage@@@@@std@@@@PAV?$set@Usockaddr_storage@@VSockAddrLessFunctor@CListenerSettings@@V?$transport_allocator@Usockaddr_storage@@@@@std@@@@QAA@XZ
??1?$AutoCleanup@V?$AutoDelete@V?$vector@PAVCWSManRequest@@V?$transport_allocator@PAVCWSManRequest@@@@@std@@@@PAV?$vector@PAVCWSManRequest@@V?$transport_allocator@PAVCWSManRequest@@@@@std@@@@QAA@XZ
??1?$AutoCleanup@V?$AutoDelete@V?$vector@PAVHandleImpl@Client@WSMan@@V?$transport_allocator@PAVHandleImpl@Client@WSMan@@@@@std@@@@PAV?$vector@PAVHandleImpl@Client@WSMan@@V?$transport_allocator@PAVHandleImpl@Client@WSMan@@@@@std@@@@QAA@XZ
??1?$AutoCleanup@V?$AutoDelete@V?$vector@PAVIServiceConfigObserver@@V?$transport_allocator@PAVIServiceConfigObserver@@@@@std@@@@PAV?$vector@PAVIServiceConfigObserver@@V?$transport_allocator@PAVIServiceConfigObserver@@@@@std@@@@QAA@XZ
??1?$AutoCleanup@V?$AutoDelete@V?$vector@PAVWSManHttpSenderConnection@@V?$transport_allocator@PAVWSManHttpSenderConnection@@@@@std@@@@PAV?$vector@PAVWSManHttpSenderConnection@@V?$transport_allocator@PAVWSManHttpSenderConnection@@@@@std@@@@QAA@XZ
??1?$AutoCleanup@V?$AutoDelete@VAdminSid@CSecurity@@@@PAVAdminSid@CSecurity@@@@QAA@XZ
??1?$AutoCleanup@V?$AutoDelete@VBlockedRecord@@@@PAVBlockedRecord@@@@QAA@XZ
??1?$AutoCleanup@V?$AutoDelete@VCBaseConfigCache@@@@PAVCBaseConfigCache@@@@QAA@XZ
??1?$AutoCleanup@V?$AutoDelete@VCCertMapping@@@@PAVCCertMapping@@@@QAA@XZ
??1?$AutoCleanup@V?$AutoDelete@VCConfigChangeSource@@@@PAVCConfigChangeSource@@@@QAA@XZ
??1?$AutoCleanup@V?$AutoDelete@VCListenerSettings@@@@PAVCListenerSettings@@@@QAA@XZ
??1?$AutoCleanup@V?$AutoDelete@VCObserverConfigChangeErrors@@@@PAVCObserverConfigChangeErrors@@@@QAA@XZ
??1?$AutoCleanup@V?$AutoDelete@VCServiceWatcher@CServiceConfigCache@@@@PAVCServiceWatcher@CServiceConfigCache@@@@QAA@XZ
??1?$AutoCleanup@V?$AutoDelete@VCShellUriSettings@@@@PAVCShellUriSettings@@@@QAA@XZ
??1?$AutoCleanup@V?$AutoDelete@VCWSManEPR@@@@PAVCWSManEPR@@@@QAA@XZ
??1?$AutoCleanup@V?$AutoDelete@VCWSManResource@@@@PAVCWSManResource@@@@QAA@XZ
??1?$AutoCleanup@V?$AutoDelete@VCertHash@@@@PAVCertHash@@@@QAA@XZ
??1?$AutoCleanup@V?$AutoDelete@VConfigUpdate@@@@PAVConfigUpdate@@@@QAA@XZ
??1?$AutoCleanup@V?$AutoDelete@VCredUIDllLoader@@@@PAVCredUIDllLoader@@@@QAA@XZ
??1?$AutoCleanup@V?$AutoDelete@VEnumSinkEx@@@@PAVEnumSinkEx@@@@QAA@XZ
??1?$AutoCleanup@V?$AutoDelete@VEventHandler@WSMan@@@@PAVEventHandler@WSMan@@@@QAA@XZ
??1?$AutoCleanup@V?$AutoDelete@VExpiredOperationIdRecord@@@@PAVExpiredOperationIdRecord@@@@QAA@XZ
??1?$AutoCleanup@V?$AutoDelete@VGPApiManager@@@@PAVGPApiManager@@@@QAA@XZ
??1?$AutoCleanup@V?$AutoDelete@VGeneralSinkEx@@@@PAVGeneralSinkEx@@@@QAA@XZ
??1?$AutoCleanup@V?$AutoDelete@VIChannelObserverFactory@@@@PAVIChannelObserverFactory@@@@QAA@XZ
??1?$AutoCleanup@V?$AutoDelete@VIQueryDASHSMASHInterface@@@@PAVIQueryDASHSMASHInterface@@@@QAA@XZ
??1?$AutoCleanup@V?$AutoDelete@VISpecification@@@@PAVISpecification@@@@QAA@XZ
??1?$AutoCleanup@V?$AutoDelete@VInteractiveSid@CSecurity@@@@PAVInteractiveSid@CSecurity@@@@QAA@XZ
??1?$AutoCleanup@V?$AutoDelete@VIpHlpApiDllLoader@@@@PAVIpHlpApiDllLoader@@@@QAA@XZ
??1?$AutoCleanup@V?$AutoDelete@VMachineName@@@@PAVMachineName@@@@QAA@XZ
??1?$AutoCleanup@V?$AutoDelete@VMasterReceiveData@CListenerReceive@@@@PAVMasterReceiveData@CListenerReceive@@@@QAA@XZ
??1?$AutoCleanup@V?$AutoDelete@VNetworkServiceSid@CSecurity@@@@PAVNetworkServiceSid@CSecurity@@@@QAA@XZ
??1?$AutoCleanup@V?$AutoDelete@VNtDsApiDllLoader@@@@PAVNtDsApiDllLoader@@@@QAA@XZ
??1?$AutoCleanup@V?$AutoDelete@VOptionValue@SessionOptions@Client@WSMan@@@@PAVOptionValue@SessionOptions@Client@WSMan@@@@QAA@XZ
??1?$AutoCleanup@V?$AutoDelete@VPacketCreator@@@@PAVPacketCreator@@@@QAA@XZ
??1?$AutoCleanup@V?$AutoDelete@VPacketParser@@@@PAVPacketParser@@@@QAA@XZ
??1?$AutoCleanup@V?$AutoDelete@VResources@Locale@@@@PAVResources@Locale@@@@QAA@XZ
??1?$AutoCleanup@V?$AutoDelete@VRunAsConfiguration@@@@PAVRunAsConfiguration@@@@QAA@XZ
??1?$AutoCleanup@V?$AutoDelete@VSecurityEntry@Catalog@@@@PAVSecurityEntry@Catalog@@@@QAA@XZ
??1?$AutoCleanup@V?$AutoDelete@VSendPacketArgs@RobustConnectionBuffer@@@@PAVSendPacketArgs@RobustConnectionBuffer@@@@QAA@XZ
??1?$AutoCleanup@V?$AutoDelete@VServiceSoapProcessor@@@@PAVServiceSoapProcessor@@@@QAA@XZ
??1?$AutoCleanup@V?$AutoDelete@VShell32DllLoader@@@@PAVShell32DllLoader@@@@QAA@XZ
??1?$AutoCleanup@V?$AutoDelete@VShlWApiDllLoader@@@@PAVShlWApiDllLoader@@@@QAA@XZ
??1?$AutoCleanup@V?$AutoDelete@VSubscriptionEnumerator@@@@PAVSubscriptionEnumerator@@@@QAA@XZ
??1?$AutoCleanup@V?$AutoDelete@VSubscriptionManager@@@@PAVSubscriptionManager@@@@QAA@XZ
??1?$AutoCleanup@V?$AutoDelete@VTSTRBUFFER@@@@PAVTSTRBUFFER@@@@QAA@XZ
??1?$AutoCleanup@V?$AutoDelete@VUniqueStringOverflow@@@@PAVUniqueStringOverflow@@@@QAA@XZ
??1?$AutoCleanup@V?$AutoDelete@VUser32DllLoader@@@@PAVUser32DllLoader@@@@QAA@XZ
??1?$AutoCleanup@V?$AutoDelete@VWSMANCONFIGTABLE_IDENTITY@@@@PAVWSMANCONFIGTABLE_IDENTITY@@@@QAA@XZ
??1?$AutoCleanup@V?$AutoDelete@VWSManMemCryptManager@@@@PAVWSManMemCryptManager@@@@QAA@XZ
??1?$AutoCleanup@V?$AutoDelete@VWmiEnumContext@@@@PAVWmiEnumContext@@@@QAA@XZ
??1?$AutoCleanup@V?$AutoDelete@VXmlReader@@@@PAVXmlReader@@@@QAA@XZ
??1?$AutoCleanup@V?$AutoDeleteVector@$$CBG@@PBG@@QAA@XZ
??1?$AutoCleanup@V?$AutoDeleteVector@D@@PAD@@QAA@XZ
??1?$AutoCleanup@V?$AutoDeleteVector@E@@PAE@@QAA@XZ
??1?$AutoCleanup@V?$AutoDeleteVector@G@@PAG@@QAA@XZ
??1?$AutoCleanup@V?$AutoDeleteVector@H@@PAH@@QAA@XZ
??1?$AutoCleanup@V?$AutoDeleteVector@PAG@@PAPAG@@QAA@XZ
??1?$AutoCleanup@V?$AutoDeleteVector@PBG@@PAPBG@@QAA@XZ
??1?$AutoCleanup@V?$AutoDeleteVector@U_CONFIG_UPDATE@@@@PAU_CONFIG_UPDATE@@@@QAA@XZ
??1?$AutoCleanup@V?$AutoDeleteVector@U_WINRS_CREATE_SHELL_ENVIRONMENT_VARIABLE@@@@PAU_WINRS_CREATE_SHELL_ENVIRONMENT_VARIABLE@@@@QAA@XZ
??1?$AutoCleanup@V?$AutoDeleteVector@U_WINRS_RUN_COMMAND_ARG@@@@PAU_WINRS_RUN_COMMAND_ARG@@@@QAA@XZ
??1?$AutoCleanup@V?$AutoDeleteVector@U_WSMAN_OPTION@@@@PAU_WSMAN_OPTION@@@@QAA@XZ
??1?$AutoCleanup@V?$AutoDeleteVector@X@@PAX@@QAA@XZ
??1?$AutoCleanup@V?$AutoFree@E@@PAE@@QAA@XZ
??1?$AutoCleanup@V?$AutoLocklessItemRecycle@VPacket@@@@PAVPacket@@@@QAA@XZ
??1?$AutoCleanup@V?$AutoRelease@UIAppHostChildElementCollection@@@@PAUIAppHostChildElementCollection@@@@QAA@XZ
??1?$AutoCleanup@V?$AutoRelease@UIAppHostElement@@@@PAUIAppHostElement@@@@QAA@XZ
??1?$AutoCleanup@V?$AutoRelease@UIAppHostElementCollection@@@@PAUIAppHostElementCollection@@@@QAA@XZ
??1?$AutoCleanup@V?$AutoRelease@UIAppHostProperty@@@@PAUIAppHostProperty@@@@QAA@XZ
??1?$AutoCleanup@V?$AutoRelease@UIAppHostPropertyCollection@@@@PAUIAppHostPropertyCollection@@@@QAA@XZ
??1?$AutoCleanup@V?$AutoRelease@UIClientSecurity@@@@PAUIClientSecurity@@@@QAA@XZ
??1?$AutoCleanup@V?$AutoRelease@UIEnumWbemClassObject@@@@PAUIEnumWbemClassObject@@@@QAA@XZ
??1?$AutoCleanup@V?$AutoRelease@UIErrorInfo@@@@PAUIErrorInfo@@@@QAA@XZ
??1?$AutoCleanup@V?$AutoRelease@UIUnknown@@@@PAUIUnknown@@@@QAA@XZ
??1?$AutoCleanup@V?$AutoRelease@UIWbemClassObject@@@@PAUIWbemClassObject@@@@QAA@XZ
??1?$AutoCleanup@V?$AutoRelease@UIWbemContext@@@@PAUIWbemContext@@@@QAA@XZ
??1?$AutoCleanup@V?$AutoRelease@UIWbemLocator@@@@PAUIWbemLocator@@@@QAA@XZ
??1?$AutoCleanup@V?$AutoRelease@UIWbemObjectTextSrc@@@@PAUIWbemObjectTextSrc@@@@QAA@XZ
??1?$AutoCleanup@V?$AutoRelease@UIWbemPath@@@@PAUIWbemPath@@@@QAA@XZ
??1?$AutoCleanup@V?$AutoRelease@UIWbemPathKeyList@@@@PAUIWbemPathKeyList@@@@QAA@XZ
??1?$AutoCleanup@V?$AutoRelease@UIWbemQualifierSet@@@@PAUIWbemQualifierSet@@@@QAA@XZ
??1?$AutoCleanup@V?$AutoRelease@UIWbemQuery@@@@PAUIWbemQuery@@@@QAA@XZ
??1?$AutoCleanup@V?$AutoRelease@UIWbemServices@@@@PAUIWbemServices@@@@QAA@XZ
??1?$AutoCleanup@V?$AutoRelease@VApplication@Client@WSMan@@@@PAVApplication@Client@WSMan@@@@QAA@XZ
??1?$AutoCleanup@V?$AutoRelease@VCBaseConfigCache@@@@PAVCBaseConfigCache@@@@QAA@XZ
??1?$AutoCleanup@V?$AutoRelease@VCClientConfigCache@@@@PAVCClientConfigCache@@@@QAA@XZ
??1?$AutoCleanup@V?$AutoRelease@VCClientConfigSettings@@@@PAVCClientConfigSettings@@@@QAA@XZ
??1?$AutoCleanup@V?$AutoRelease@VCCommonConfigSettings@@@@PAVCCommonConfigSettings@@@@QAA@XZ
??1?$AutoCleanup@V?$AutoRelease@VCConfigCacheMap@CBaseConfigCache@@@@PAVCConfigCacheMap@CBaseConfigCache@@@@QAA@XZ
??1?$AutoCleanup@V?$AutoRelease@VCConfigManager@@@@PAVCConfigManager@@@@QAA@XZ
??1?$AutoCleanup@V?$AutoRelease@VCListenerCommand@@@@PAVCListenerCommand@@@@QAA@XZ
??1?$AutoCleanup@V?$AutoRelease@VCListenerMasterOperation@@@@PAVCListenerMasterOperation@@@@QAA@XZ
??1?$AutoCleanup@V?$AutoRelease@VCListenerReceive@@@@PAVCListenerReceive@@@@QAA@XZ
??1?$AutoCleanup@V?$AutoRelease@VCListenerShell@@@@PAVCListenerShell@@@@QAA@XZ
??1?$AutoCleanup@V?$AutoRelease@VCRemoteOperation@@@@PAVCRemoteOperation@@@@QAA@XZ
??1?$AutoCleanup@V?$AutoRelease@VCRemoteSession@@@@PAVCRemoteSession@@@@QAA@XZ
??1?$AutoCleanup@V?$AutoRelease@VCRequestContext@@@@PAVCRequestContext@@@@QAA@XZ
??1?$AutoCleanup@V?$AutoRelease@VCServiceCommonConfigSettings@@@@PAVCServiceCommonConfigSettings@@@@QAA@XZ
??1?$AutoCleanup@V?$AutoRelease@VCServiceConfigCache@@@@PAVCServiceConfigCache@@@@QAA@XZ
??1?$AutoCleanup@V?$AutoRelease@VCServiceConfigSettings@@@@PAVCServiceConfigSettings@@@@QAA@XZ
??1?$AutoCleanup@V?$AutoRelease@VCWSManEPR@@@@PAVCWSManEPR@@@@QAA@XZ
??1?$AutoCleanup@V?$AutoRelease@VCWSManGroupPolicyCache@@@@PAVCWSManGroupPolicyCache@@@@QAA@XZ
??1?$AutoCleanup@V?$AutoRelease@VCWSManGroupPolicyManager@@@@PAVCWSManGroupPolicyManager@@@@QAA@XZ
??1?$AutoCleanup@V?$AutoRelease@VCWSManObject@@@@PAVCWSManObject@@@@QAA@XZ
??1?$AutoCleanup@V?$AutoRelease@VCWSManResource@@@@PAVCWSManResource@@@@QAA@XZ
??1?$AutoCleanup@V?$AutoRelease@VCWSManSession@@@@PAVCWSManSession@@@@QAA@XZ
??1?$AutoCleanup@V?$AutoRelease@VCWinRSPluginConfigCache@@@@PAVCWinRSPluginConfigCache@@@@QAA@XZ
??1?$AutoCleanup@V?$AutoRelease@VCWinRSPluginConfigSettings@@@@PAVCWinRSPluginConfigSettings@@@@QAA@XZ
??1?$AutoCleanup@V?$AutoRelease@VCommand@Client@WSMan@@@@PAVCommand@Client@WSMan@@@@QAA@XZ
??1?$AutoCleanup@V?$AutoRelease@VConfigNotification@@@@PAVConfigNotification@@@@QAA@XZ
??1?$AutoCleanup@V?$AutoRelease@VConnectShellOperation@Client@WSMan@@@@PAVConnectShellOperation@Client@WSMan@@@@QAA@XZ
??1?$AutoCleanup@V?$AutoRelease@VCreateShellOperation@Client@WSMan@@@@PAVCreateShellOperation@Client@WSMan@@@@QAA@XZ
??1?$AutoCleanup@V?$AutoRelease@VDeleteShellOperation@Client@WSMan@@@@PAVDeleteShellOperation@Client@WSMan@@@@QAA@XZ
??1?$AutoCleanup@V?$AutoRelease@VDisconnectOperation@Client@WSMan@@@@PAVDisconnectOperation@Client@WSMan@@@@QAA@XZ
??1?$AutoCleanup@V?$AutoRelease@VEnumSinkEx@@@@PAVEnumSinkEx@@@@QAA@XZ
??1?$AutoCleanup@V?$AutoRelease@VGeneralSinkEx@@@@PAVGeneralSinkEx@@@@QAA@XZ
??1?$AutoCleanup@V?$AutoRelease@VHostMappingTable@@@@PAVHostMappingTable@@@@QAA@XZ
??1?$AutoCleanup@V?$AutoRelease@VIISConfigSettings@@@@PAVIISConfigSettings@@@@QAA@XZ
??1?$AutoCleanup@V?$AutoRelease@VIPCSoapProcessor@@@@PAVIPCSoapProcessor@@@@QAA@XZ
??1?$AutoCleanup@V?$AutoRelease@VIRequestContext@@@@PAVIRequestContext@@@@QAA@XZ
??1?$AutoCleanup@V?$AutoRelease@VISubscription@@@@PAVISubscription@@@@QAA@XZ
??1?$AutoCleanup@V?$AutoRelease@VInboundRequestDetails@@@@PAVInboundRequestDetails@@@@QAA@XZ
??1?$AutoCleanup@V?$AutoRelease@VProxyManager@Client@WSMan@@@@PAVProxyManager@Client@WSMan@@@@QAA@XZ
??1?$AutoCleanup@V?$AutoRelease@VProxySelection@Client@WSMan@@@@PAVProxySelection@Client@WSMan@@@@QAA@XZ
??1?$AutoCleanup@V?$AutoRelease@VPushSubscribeOperation@@@@PAVPushSubscribeOperation@@@@QAA@XZ
??1?$AutoCleanup@V?$AutoRelease@VPushSubscription@@@@PAVPushSubscription@@@@QAA@XZ
??1?$AutoCleanup@V?$AutoRelease@VReceiveOperation@Client@WSMan@@@@PAVReceiveOperation@Client@WSMan@@@@QAA@XZ
??1?$AutoCleanup@V?$AutoRelease@VReconnectOperation@Client@WSMan@@@@PAVReconnectOperation@Client@WSMan@@@@QAA@XZ
??1?$AutoCleanup@V?$AutoRelease@VSendOperation@Client@WSMan@@@@PAVSendOperation@Client@WSMan@@@@QAA@XZ
??1?$AutoCleanup@V?$AutoRelease@VShell@Client@WSMan@@@@PAVShell@Client@WSMan@@@@QAA@XZ
??1?$AutoCleanup@V?$AutoRelease@VShellInfo@@@@PAVShellInfo@@@@QAA@XZ
??1?$AutoCleanup@V?$AutoRelease@VSignalOperation@Client@WSMan@@@@PAVSignalOperation@Client@WSMan@@@@QAA@XZ
??1?$AutoCleanup@V?$AutoRelease@VUserRecord@@@@PAVUserRecord@@@@QAA@XZ
??1?$AutoCleanup@V?$AutoRelease@VWSManHttpListener@@@@PAVWSManHttpListener@@@@QAA@XZ
??1?$AutoCleanup@V?$AutoReleaseEx@VHostMappingTableEntry@@@@PAVHostMappingTableEntry@@@@QAA@XZ
??1?$AutoCleanup@V?$AutoReleaseEx@VShell@Client@WSMan@@@@PAVShell@Client@WSMan@@@@QAA@XZ
??1?$AutoCleanup@VAutoBstr@@PAG@@QAA@XZ
??1?$AutoCleanup@VAutoBstrNoAlloc@@PAG@@QAA@XZ
??1?$AutoCleanup@VAutoCertContext@@PBU_CERT_CONTEXT@@@@QAA@XZ
??1?$AutoCleanup@VAutoChainContext@@PBU_CERT_CHAIN_CONTEXT@@@@QAA@XZ
??1?$AutoCleanup@VAutoCoTaskMemFree@@PAX@@QAA@XZ
??1?$AutoCleanup@VAutoEnvironmentBlock@@PAX@@QAA@XZ
??1?$AutoCleanup@VAutoFwXmlCloseParser@@PAX@@QAA@XZ
??1?$AutoCleanup@VAutoHandle@@PAX@@QAA@XZ
??1?$AutoCleanup@VAutoImpersonateUser@@PAX@@QAA@XZ
??1?$AutoCleanup@VAutoLibrary@@PAUHINSTANCE__@@@@QAA@XZ
??1?$AutoCleanup@VAutoLocalFree@@PAX@@QAA@XZ
??1?$AutoCleanup@VAutoMIClass@@PAU_MI_Class@@@@QAA@XZ
??1?$AutoCleanup@VAutoMIInstance@@PAU_MI_Instance@@@@QAA@XZ
??1?$AutoCleanup@VAutoObject@@PAUWSMAN_OBJECT@@@@QAA@XZ
??1?$AutoCleanup@VAutoRegKey@@PAUHKEY__@@@@QAA@XZ
??1?$AutoCleanup@VAutoSecurityDescriptor@@PAX@@QAA@XZ
??1?$AutoCleanup@VAutoWaitHandle@@PAX@@QAA@XZ
??1?$AutoDelete@D@@QAA@XZ
??1?$AutoDelete@G@@QAA@XZ
??1?$AutoDelete@UIPRange@CWSManIPFilter@@@@QAA@XZ
??1?$AutoDelete@U_SID@@@@QAA@XZ
??1?$AutoDelete@U_WSMAN_STREAM_ID_SET@@@@QAA@XZ
??1?$AutoDelete@V?$Handle@VISubscription@@@@@@QAA@XZ
??1?$AutoDelete@V?$SafeMap_Iterator@PAVCListenerConnect@@PAV1@@@@@QAA@XZ
??1?$AutoDelete@V?$SafeMap_Iterator@PAVCListenerReceive@@PAV1@@@@@QAA@XZ
??1?$AutoDelete@V?$SafeMap_Iterator@PAVCListenerSend@@PAV1@@@@@QAA@XZ
??1?$AutoDelete@V?$SafeMap_Iterator@PAVCListenerSignal@@PAV1@@@@@QAA@XZ
??1?$AutoDelete@V?$SafeMap_Iterator@VGuidKey@@PAVCListenerCommand@@@@@@QAA@XZ
??1?$AutoDelete@V?$SafeMap_Iterator@VStringKeyCI@@K@@@@QAA@XZ
??1?$AutoDelete@V?$SafeMap_Iterator@W4WSManSessionOption@@PAVOptionValue@SessionOptions@Client@WSMan@@@@@@QAA@XZ
??1?$AutoDelete@V?$SafeSet@PAVCCertMapping@@@@@@QAA@XZ
??1?$AutoDelete@V?$SafeSet@PAVCShellUriSettings@@@@@@QAA@XZ
??1?$AutoDelete@V?$SafeSet_Iterator@PAVCListenerOperation@@@@@@QAA@XZ
??1?$AutoDelete@V?$SafeSet_Iterator@PAVCollector@@@@@@QAA@XZ
??1?$AutoDelete@V?$SafeSet_Iterator@PAVHostOperation@@@@@@QAA@XZ
??1?$AutoDelete@V?$SafeSet_Iterator@PAVListenerSourceSubscription@@@@@@QAA@XZ
??1?$AutoDelete@V?$SimpleStack@VCListenerOperation@@@@@@QAA@XZ
??1?$AutoDelete@V?$SimpleStack@VShellHostEntry@@@@@@QAA@XZ
??1?$AutoDelete@V?$queue@PAU_WSMAN_PUBLISHER_EVENT_STRUCT@@V?$deque@PAU_WSMAN_PUBLISHER_EVENT_STRUCT@@V?$transport_allocator@PAU_WSMAN_PUBLISHER_EVENT_STRUCT@@@@@std@@@std@@@@QAA@XZ
??1?$AutoDelete@V?$set@PAVCListenerSettings@@VCListenerSettingsLessFunctor@CServiceConfigSettings@@V?$transport_allocator@PAVCListenerSettings@@@@@std@@@@QAA@XZ
??1?$AutoDelete@V?$set@Usockaddr_storage@@VSockAddrLessFunctor@CListenerSettings@@V?$transport_allocator@Usockaddr_storage@@@@@std@@@@QAA@XZ
??1?$AutoDelete@V?$vector@PAVCWSManRequest@@V?$transport_allocator@PAVCWSManRequest@@@@@std@@@@QAA@XZ
??1?$AutoDelete@V?$vector@PAVHandleImpl@Client@WSMan@@V?$transport_allocator@PAVHandleImpl@Client@WSMan@@@@@std@@@@QAA@XZ
??1?$AutoDelete@V?$vector@PAVIServiceConfigObserver@@V?$transport_allocator@PAVIServiceConfigObserver@@@@@std@@@@QAA@XZ
??1?$AutoDelete@V?$vector@PAVWSManHttpSenderConnection@@V?$transport_allocator@PAVWSManHttpSenderConnection@@@@@std@@@@QAA@XZ
??1?$AutoDelete@VAdminSid@CSecurity@@@@QAA@XZ
??1?$AutoDelete@VBlockedRecord@@@@QAA@XZ
??1?$AutoDelete@VCBaseConfigCache@@@@QAA@XZ
??1?$AutoDelete@VCCertMapping@@@@QAA@XZ
??1?$AutoDelete@VCConfigChangeSource@@@@QAA@XZ
??1?$AutoDelete@VCListenerSettings@@@@QAA@XZ
??1?$AutoDelete@VCObserverConfigChangeErrors@@@@QAA@XZ
??1?$AutoDelete@VCServiceWatcher@CServiceConfigCache@@@@QAA@XZ
??1?$AutoDelete@VCShellUriSettings@@@@QAA@XZ
??1?$AutoDelete@VCWSManEPR@@@@QAA@XZ
??1?$AutoDelete@VCWSManResource@@@@QAA@XZ
??1?$AutoDelete@VCertHash@@@@QAA@XZ
??1?$AutoDelete@VConfigUpdate@@@@QAA@XZ
??1?$AutoDelete@VCredUIDllLoader@@@@QAA@XZ
??1?$AutoDelete@VEnumSinkEx@@@@QAA@XZ
??1?$AutoDelete@VEventHandler@WSMan@@@@QAA@XZ
??1?$AutoDelete@VExpiredOperationIdRecord@@@@QAA@XZ
??1?$AutoDelete@VGPApiManager@@@@QAA@XZ
??1?$AutoDelete@VGeneralSinkEx@@@@QAA@XZ
??1?$AutoDelete@VIChannelObserverFactory@@@@QAA@XZ
??1?$AutoDelete@VIQueryDASHSMASHInterface@@@@QAA@XZ
??1?$AutoDelete@VISpecification@@@@QAA@XZ
??1?$AutoDelete@VInteractiveSid@CSecurity@@@@QAA@XZ
??1?$AutoDelete@VIpHlpApiDllLoader@@@@QAA@XZ
??1?$AutoDelete@VMachineName@@@@QAA@XZ
??1?$AutoDelete@VMasterReceiveData@CListenerReceive@@@@QAA@XZ
??1?$AutoDelete@VNetworkServiceSid@CSecurity@@@@QAA@XZ
??1?$AutoDelete@VNtDsApiDllLoader@@@@QAA@XZ
??1?$AutoDelete@VOptionValue@SessionOptions@Client@WSMan@@@@QAA@XZ
??1?$AutoDelete@VPacketCreator@@@@QAA@XZ
??1?$AutoDelete@VPacketParser@@@@QAA@XZ
??1?$AutoDelete@VResources@Locale@@@@QAA@XZ
??1?$AutoDelete@VRunAsConfiguration@@@@QAA@XZ
??1?$AutoDelete@VSecurityEntry@Catalog@@@@QAA@XZ
??1?$AutoDelete@VSendPacketArgs@RobustConnectionBuffer@@@@QAA@XZ
??1?$AutoDelete@VServiceSoapProcessor@@@@QAA@XZ
??1?$AutoDelete@VShell32DllLoader@@@@QAA@XZ
??1?$AutoDelete@VShlWApiDllLoader@@@@QAA@XZ
??1?$AutoDelete@VSubscriptionEnumerator@@@@QAA@XZ
??1?$AutoDelete@VSubscriptionManager@@@@QAA@XZ
??1?$AutoDelete@VTSTRBUFFER@@@@QAA@XZ
??1?$AutoDelete@VUniqueStringOverflow@@@@QAA@XZ
??1?$AutoDelete@VUser32DllLoader@@@@QAA@XZ
??1?$AutoDelete@VWSMANCONFIGTABLE_IDENTITY@@@@QAA@XZ
??1?$AutoDelete@VWSManMemCryptManager@@@@QAA@XZ
??1?$AutoDelete@VWmiEnumContext@@@@QAA@XZ
??1?$AutoDelete@VXmlReader@@@@QAA@XZ
??1?$AutoDeleteVector@$$CBG@@QAA@XZ
??1?$AutoDeleteVector@D@@QAA@XZ
??1?$AutoDeleteVector@E@@QAA@XZ
??1?$AutoDeleteVector@G@@QAA@XZ
??1?$AutoDeleteVector@H@@QAA@XZ
??1?$AutoDeleteVector@PAG@@QAA@XZ
??1?$AutoDeleteVector@PBG@@QAA@XZ
??1?$AutoDeleteVector@U_CONFIG_UPDATE@@@@QAA@XZ
??1?$AutoDeleteVector@U_WINRS_CREATE_SHELL_ENVIRONMENT_VARIABLE@@@@QAA@XZ
??1?$AutoDeleteVector@U_WINRS_RUN_COMMAND_ARG@@@@QAA@XZ
??1?$AutoDeleteVector@U_WSMAN_OPTION@@@@QAA@XZ
??1?$AutoDeleteVector@X@@QAA@XZ
??1?$AutoFree@E@@QAA@XZ
??1?$AutoLocklessItemRecycle@VPacket@@@@QAA@XZ
??1?$AutoRelease@UIAppHostChildElementCollection@@@@QAA@XZ
??1?$AutoRelease@UIAppHostElement@@@@QAA@XZ
??1?$AutoRelease@UIAppHostElementCollection@@@@QAA@XZ
??1?$AutoRelease@UIAppHostProperty@@@@QAA@XZ
??1?$AutoRelease@UIAppHostPropertyCollection@@@@QAA@XZ
??1?$AutoRelease@UIClientSecurity@@@@QAA@XZ
??1?$AutoRelease@UIEnumWbemClassObject@@@@QAA@XZ
??1?$AutoRelease@UIErrorInfo@@@@QAA@XZ
??1?$AutoRelease@UIUnknown@@@@QAA@XZ
??1?$AutoRelease@UIWbemClassObject@@@@QAA@XZ
??1?$AutoRelease@UIWbemContext@@@@QAA@XZ
??1?$AutoRelease@UIWbemLocator@@@@QAA@XZ
??1?$AutoRelease@UIWbemObjectTextSrc@@@@QAA@XZ
??1?$AutoRelease@UIWbemPath@@@@QAA@XZ
??1?$AutoRelease@UIWbemPathKeyList@@@@QAA@XZ
??1?$AutoRelease@UIWbemQualifierSet@@@@QAA@XZ
??1?$AutoRelease@UIWbemQuery@@@@QAA@XZ
??1?$AutoRelease@UIWbemServices@@@@QAA@XZ
??1?$AutoRelease@VApplication@Client@WSMan@@@@QAA@XZ
??1?$AutoRelease@VCBaseConfigCache@@@@QAA@XZ
??1?$AutoRelease@VCClientConfigCache@@@@QAA@XZ
??1?$AutoRelease@VCClientConfigSettings@@@@QAA@XZ
??1?$AutoRelease@VCCommonConfigSettings@@@@QAA@XZ
??1?$AutoRelease@VCConfigCacheMap@CBaseConfigCache@@@@QAA@XZ
??1?$AutoRelease@VCConfigManager@@@@QAA@XZ
??1?$AutoRelease@VCListenerCommand@@@@QAA@XZ
??1?$AutoRelease@VCListenerMasterOperation@@@@QAA@XZ
??1?$AutoRelease@VCListenerReceive@@@@QAA@XZ
??1?$AutoRelease@VCListenerShell@@@@QAA@XZ
??1?$AutoRelease@VCRemoteOperation@@@@QAA@XZ
??1?$AutoRelease@VCRemoteSession@@@@QAA@XZ
??1?$AutoRelease@VCRequestContext@@@@QAA@XZ
??1?$AutoRelease@VCServiceCommonConfigSettings@@@@QAA@XZ
??1?$AutoRelease@VCServiceConfigCache@@@@QAA@XZ
??1?$AutoRelease@VCServiceConfigSettings@@@@QAA@XZ
??1?$AutoRelease@VCWSManEPR@@@@QAA@XZ
??1?$AutoRelease@VCWSManGroupPolicyCache@@@@QAA@XZ
??1?$AutoRelease@VCWSManGroupPolicyManager@@@@QAA@XZ
??1?$AutoRelease@VCWSManObject@@@@QAA@XZ
??1?$AutoRelease@VCWSManResource@@@@QAA@XZ
??1?$AutoRelease@VCWSManSession@@@@QAA@XZ
??1?$AutoRelease@VCWinRSPluginConfigCache@@@@QAA@XZ
??1?$AutoRelease@VCWinRSPluginConfigSettings@@@@QAA@XZ
??1?$AutoRelease@VCommand@Client@WSMan@@@@QAA@XZ
??1?$AutoRelease@VConfigNotification@@@@QAA@XZ
??1?$AutoRelease@VConnectShellOperation@Client@WSMan@@@@QAA@XZ
??1?$AutoRelease@VCreateShellOperation@Client@WSMan@@@@QAA@XZ
??1?$AutoRelease@VDeleteShellOperation@Client@WSMan@@@@QAA@XZ
??1?$AutoRelease@VDisconnectOperation@Client@WSMan@@@@QAA@XZ
??1?$AutoRelease@VEnumSinkEx@@@@QAA@XZ
??1?$AutoRelease@VGeneralSinkEx@@@@QAA@XZ
??1?$AutoRelease@VHostMappingTable@@@@QAA@XZ
??1?$AutoRelease@VIISConfigSettings@@@@QAA@XZ
??1?$AutoRelease@VIPCSoapProcessor@@@@QAA@XZ
??1?$AutoRelease@VIRequestContext@@@@QAA@XZ
??1?$AutoRelease@VISubscription@@@@QAA@XZ
??1?$AutoRelease@VInboundRequestDetails@@@@QAA@XZ
??1?$AutoRelease@VProxyManager@Client@WSMan@@@@QAA@XZ
??1?$AutoRelease@VProxySelection@Client@WSMan@@@@QAA@XZ
??1?$AutoRelease@VPushSubscribeOperation@@@@QAA@XZ
??1?$AutoRelease@VPushSubscription@@@@QAA@XZ
??1?$AutoRelease@VReceiveOperation@Client@WSMan@@@@QAA@XZ
??1?$AutoRelease@VReconnectOperation@Client@WSMan@@@@QAA@XZ
??1?$AutoRelease@VSendOperation@Client@WSMan@@@@QAA@XZ
??1?$AutoRelease@VShell@Client@WSMan@@@@QAA@XZ
??1?$AutoRelease@VShellInfo@@@@QAA@XZ
??1?$AutoRelease@VSignalOperation@Client@WSMan@@@@QAA@XZ
??1?$AutoRelease@VUserRecord@@@@QAA@XZ
??1?$AutoRelease@VWSManHttpListener@@@@QAA@XZ
??1?$AutoReleaseEx@VHostMappingTableEntry@@@@QAA@XZ
??1?$AutoReleaseEx@VShell@Client@WSMan@@@@QAA@XZ
??1?$ILoader@VAdminSid@CSecurity@@@@QAA@XZ
??1?$ILoader@VCredUIDllLoader@@@@QAA@XZ
??1?$ILoader@VEventHandler@WSMan@@@@QAA@XZ
??1?$ILoader@VInteractiveSid@CSecurity@@@@QAA@XZ
??1?$ILoader@VIpHlpApiDllLoader@@@@QAA@XZ
??1?$ILoader@VMachineName@@@@QAA@XZ
??1?$ILoader@VNetworkServiceSid@CSecurity@@@@QAA@XZ
??1?$ILoader@VNtDsApiDllLoader@@@@QAA@XZ
??1?$ILoader@VResources@Locale@@@@QAA@XZ
??1?$ILoader@VShell32DllLoader@@@@QAA@XZ
??1?$ILoader@VShlWApiDllLoader@@@@QAA@XZ
??1?$ILoader@VSubscriptionManager@@@@QAA@XZ
??1?$ILoader@VUser32DllLoader@@@@QAA@XZ
??1?$ILoader@VWSManMemCryptManager@@@@QAA@XZ
??1?$Loader@VAdminSid@CSecurity@@$00@@QAA@XZ
??1?$Loader@VCredUIDllLoader@@$00@@QAA@XZ
??1?$Loader@VEventHandler@WSMan@@$00@@QAA@XZ
??1?$Loader@VInteractiveSid@CSecurity@@$00@@QAA@XZ
??1?$Loader@VIpHlpApiDllLoader@@$00@@QAA@XZ
??1?$Loader@VMachineName@@$00@@QAA@XZ
??1?$Loader@VNetworkServiceSid@CSecurity@@$00@@QAA@XZ
??1?$Loader@VNtDsApiDllLoader@@$00@@QAA@XZ
??1?$Loader@VResources@Locale@@$0A@@@QAA@XZ
??1?$Loader@VShell32DllLoader@@$00@@QAA@XZ
??1?$Loader@VShlWApiDllLoader@@$00@@QAA@XZ
??1?$Loader@VSubscriptionManager@@$01@@QAA@XZ
??1?$Loader@VUser32DllLoader@@$00@@QAA@XZ
??1?$Loader@VWSManMemCryptManager@@$00@@QAA@XZ
??1?$LoaderSerializer@VAdminSid@CSecurity@@$00@@QAA@XZ
??1?$LoaderSerializer@VCredUIDllLoader@@$00@@QAA@XZ
??1?$LoaderSerializer@VEventHandler@WSMan@@$00@@QAA@XZ
??1?$LoaderSerializer@VInteractiveSid@CSecurity@@$00@@QAA@XZ
??1?$LoaderSerializer@VIpHlpApiDllLoader@@$00@@QAA@XZ
??1?$LoaderSerializer@VMachineName@@$00@@QAA@XZ
??1?$LoaderSerializer@VNetworkServiceSid@CSecurity@@$00@@QAA@XZ
??1?$LoaderSerializer@VNtDsApiDllLoader@@$00@@QAA@XZ
??1?$LoaderSerializer@VResources@Locale@@$0A@@@QAA@XZ
??1?$LoaderSerializer@VShell32DllLoader@@$00@@QAA@XZ
??1?$LoaderSerializer@VShlWApiDllLoader@@$00@@QAA@XZ
??1?$LoaderSerializer@VSubscriptionManager@@$01@@QAA@XZ
??1?$LoaderSerializer@VUser32DllLoader@@$00@@QAA@XZ
??1?$LoaderSerializer@VWSManMemCryptManager@@$00@@QAA@XZ
??1?$SafeMap@PAVCCertMapping@@UEmpty@@V?$SafeSet_Iterator@PAVCCertMapping@@@@@@QAA@XZ
??1?$SafeMap@PAVCListenerOperation@@UEmpty@@V?$SafeSet_Iterator@PAVCListenerOperation@@@@@@QAA@XZ
??1?$SafeMap@PAVCShellUriSettings@@UEmpty@@V?$SafeSet_Iterator@PAVCShellUriSettings@@@@@@QAA@XZ
??1?$SafeMap@PAVCollector@@UEmpty@@V?$SafeSet_Iterator@PAVCollector@@@@@@QAA@XZ
??1?$SafeMap@PAVHostOperation@@UEmpty@@V?$SafeSet_Iterator@PAVHostOperation@@@@@@QAA@XZ
??1?$SafeMap@PAVIOperation@@UEmpty@@V?$SafeSet_Iterator@PAVIOperation@@@@@@QAA@XZ
??1?$SafeMap@PAVListenerSourceSubscription@@UEmpty@@V?$SafeSet_Iterator@PAVListenerSourceSubscription@@@@@@QAA@XZ
??1?$SafeMap@PAVPushSubscription@@UEmpty@@V?$SafeSet_Iterator@PAVPushSubscription@@@@@@QAA@XZ
??1?$SafeMap@PAXUEmpty@@V?$SafeSet_Iterator@PAX@@@@QAA@XZ
??1?$SafeMap@UPluginKey@@KV?$SafeMap_Iterator@UPluginKey@@K@@@@QAA@XZ
??1?$SafeMap@UUserKey@@PAVBlockedRecord@@V?$SafeMap_Iterator@UUserKey@@PAVBlockedRecord@@@@@@QAA@XZ
??1?$SafeMap@VCertThumbprintKey@@VCertThumbprintMappedSet@CServiceConfigSettings@@V?$SafeMap_Iterator@VCertThumbprintKey@@VCertThumbprintMappedSet@CServiceConfigSettings@@@@@@QAA@XZ
??1?$SafeMap@VKey@Locale@@KV?$SafeMap_Iterator@VKey@Locale@@K@@@@QAA@XZ
??1?$SafeMap@VStringKeyCI@@KV?$SafeMap_Iterator@VStringKeyCI@@K@@@@QAA@XZ
??1?$SafeMap@VStringKeyCI@@UEmpty@@V?$SafeSet_Iterator@VStringKeyCI@@@@@@QAA@XZ
??1?$SafeMap@VStringKeyCI@@UUSER_CONTEXT_INFO@WSManHttpListener@@V?$SafeMap_Iterator@VStringKeyCI@@UUSER_CONTEXT_INFO@WSManHttpListener@@@@@@QAA@XZ
??1?$SafeMap@VStringKeyStore@@PAVExpiredOperationIdRecord@@V?$SafeMap_Iterator@VStringKeyStore@@PAVExpiredOperationIdRecord@@@@@@QAA@XZ
??1?$SafeMap@VStringKeyStore@@PAVServerFullDuplexChannel@@V?$SafeMap_Iterator@VStringKeyStore@@PAVServerFullDuplexChannel@@@@@@QAA@XZ
??1?$SafeMap@W4WSManSessionOption@@PAVOptionValue@SessionOptions@Client@WSMan@@V?$SafeMap_Iterator@W4WSManSessionOption@@PAVOptionValue@SessionOptions@Client@WSMan@@@@@@QAA@XZ
??1?$SafeMap@_KPAVSendPacketArgs@RobustConnectionBuffer@@V?$SafeMap_Iterator@_KPAVSendPacketArgs@RobustConnectionBuffer@@@@@@QAA@XZ
??1?$SafeMap_Iterator@PAVCCertMapping@@UEmpty@@@@QAA@XZ
??1?$SafeMap_Iterator@PAVCListenerConnect@@PAV1@@@QAA@XZ
??1?$SafeMap_Iterator@PAVCListenerOperation@@UEmpty@@@@QAA@XZ
??1?$SafeMap_Iterator@PAVCListenerReceive@@PAV1@@@QAA@XZ
??1?$SafeMap_Iterator@PAVCListenerSend@@PAV1@@@QAA@XZ
??1?$SafeMap_Iterator@PAVCListenerSignal@@PAV1@@@QAA@XZ
??1?$SafeMap_Iterator@PAVCShellUriSettings@@UEmpty@@@@QAA@XZ
??1?$SafeMap_Iterator@PAVCollector@@UEmpty@@@@QAA@XZ
??1?$SafeMap_Iterator@PAVHostOperation@@UEmpty@@@@QAA@XZ
??1?$SafeMap_Iterator@PAVIOperation@@UEmpty@@@@QAA@XZ
??1?$SafeMap_Iterator@PAVListenerSourceSubscription@@UEmpty@@@@QAA@XZ
??1?$SafeMap_Iterator@PAVPushSubscription@@UEmpty@@@@QAA@XZ
??1?$SafeMap_Iterator@PAXUEmpty@@@@QAA@XZ
??1?$SafeMap_Iterator@UPluginKey@@K@@QAA@XZ
??1?$SafeMap_Iterator@UUserKey@@PAVBlockedRecord@@@@QAA@XZ
??1?$SafeMap_Iterator@VCertThumbprintKey@@VCertThumbprintMappedSet@CServiceConfigSettings@@@@QAA@XZ
??1?$SafeMap_Iterator@VGuidKey@@PAVCListenerCommand@@@@QAA@XZ
??1?$SafeMap_Iterator@VKey@Locale@@K@@QAA@XZ
??1?$SafeMap_Iterator@VStringKeyCI@@K@@QAA@XZ
??1?$SafeMap_Iterator@VStringKeyCI@@UEmpty@@@@QAA@XZ
??1?$SafeMap_Iterator@VStringKeyCI@@UUSER_CONTEXT_INFO@WSManHttpListener@@@@QAA@XZ
??1?$SafeMap_Iterator@VStringKeyStore@@PAVExpiredOperationIdRecord@@@@QAA@XZ
??1?$SafeMap_Iterator@VStringKeyStore@@PAVServerFullDuplexChannel@@@@QAA@XZ
??1?$SafeMap_Iterator@W4WSManSessionOption@@PAVOptionValue@SessionOptions@Client@WSMan@@@@QAA@XZ
??1?$SafeMap_Iterator@_KPAVSendPacketArgs@RobustConnectionBuffer@@@@QAA@XZ
??1?$SafeMap_Lock@PAVCCertMapping@@UEmpty@@V?$SafeMap_Iterator@PAVCCertMapping@@UEmpty@@@@@@QAA@XZ
??1?$SafeMap_Lock@PAVCCertMapping@@UEmpty@@V?$SafeSet_Iterator@PAVCCertMapping@@@@@@QAA@XZ
??1?$SafeMap_Lock@PAVCListenerConnect@@PAV1@V?$SafeMap_Iterator@PAVCListenerConnect@@PAV1@@@@@QAA@XZ
??1?$SafeMap_Lock@PAVCListenerOperation@@UEmpty@@V?$SafeMap_Iterator@PAVCListenerOperation@@UEmpty@@@@@@QAA@XZ
??1?$SafeMap_Lock@PAVCListenerOperation@@UEmpty@@V?$SafeSet_Iterator@PAVCListenerOperation@@@@@@QAA@XZ
??1?$SafeMap_Lock@PAVCListenerReceive@@PAV1@V?$SafeMap_Iterator@PAVCListenerReceive@@PAV1@@@@@QAA@XZ
??1?$SafeMap_Lock@PAVCListenerSend@@PAV1@V?$SafeMap_Iterator@PAVCListenerSend@@PAV1@@@@@QAA@XZ
??1?$SafeMap_Lock@PAVCListenerSignal@@PAV1@V?$SafeMap_Iterator@PAVCListenerSignal@@PAV1@@@@@QAA@XZ
??1?$SafeMap_Lock@PAVCShellUriSettings@@UEmpty@@V?$SafeMap_Iterator@PAVCShellUriSettings@@UEmpty@@@@@@QAA@XZ
??1?$SafeMap_Lock@PAVCShellUriSettings@@UEmpty@@V?$SafeSet_Iterator@PAVCShellUriSettings@@@@@@QAA@XZ
??1?$SafeMap_Lock@PAVCollector@@UEmpty@@V?$SafeMap_Iterator@PAVCollector@@UEmpty@@@@@@QAA@XZ
??1?$SafeMap_Lock@PAVHostOperation@@UEmpty@@V?$SafeMap_Iterator@PAVHostOperation@@UEmpty@@@@@@QAA@XZ
??1?$SafeMap_Lock@PAVIOperation@@UEmpty@@V?$SafeMap_Iterator@PAVIOperation@@UEmpty@@@@@@QAA@XZ
??1?$SafeMap_Lock@PAVListenerSourceSubscription@@UEmpty@@V?$SafeMap_Iterator@PAVListenerSourceSubscription@@UEmpty@@@@@@QAA@XZ
??1?$SafeMap_Lock@PAVPushSubscription@@UEmpty@@V?$SafeMap_Iterator@PAVPushSubscription@@UEmpty@@@@@@QAA@XZ
??1?$SafeMap_Lock@PAXUEmpty@@V?$SafeMap_Iterator@PAXUEmpty@@@@@@QAA@XZ
??1?$SafeMap_Lock@PAXUEmpty@@V?$SafeSet_Iterator@PAX@@@@QAA@XZ
??1?$SafeMap_Lock@UPluginKey@@KV?$SafeMap_Iterator@UPluginKey@@K@@@@QAA@XZ
??1?$SafeMap_Lock@UUserKey@@PAVBlockedRecord@@V?$SafeMap_Iterator@UUserKey@@PAVBlockedRecord@@@@@@QAA@XZ
??1?$SafeMap_Lock@VCertThumbprintKey@@VCertThumbprintMappedSet@CServiceConfigSettings@@V?$SafeMap_Iterator@VCertThumbprintKey@@VCertThumbprintMappedSet@CServiceConfigSettings@@@@@@QAA@XZ
??1?$SafeMap_Lock@VGuidKey@@PAVCListenerCommand@@V?$SafeMap_Iterator@VGuidKey@@PAVCListenerCommand@@@@@@QAA@XZ
??1?$SafeMap_Lock@VKey@Locale@@KV?$SafeMap_Iterator@VKey@Locale@@K@@@@QAA@XZ
??1?$SafeMap_Lock@VStringKeyCI@@KV?$SafeMap_Iterator@VStringKeyCI@@K@@@@QAA@XZ
??1?$SafeMap_Lock@VStringKeyCI@@UEmpty@@V?$SafeMap_Iterator@VStringKeyCI@@UEmpty@@@@@@QAA@XZ
??1?$SafeMap_Lock@VStringKeyCI@@UEmpty@@V?$SafeSet_Iterator@VStringKeyCI@@@@@@QAA@XZ
??1?$SafeMap_Lock@VStringKeyCI@@UUSER_CONTEXT_INFO@WSManHttpListener@@V?$SafeMap_Iterator@VStringKeyCI@@UUSER_CONTEXT_INFO@WSManHttpListener@@@@@@QAA@XZ
??1?$SafeMap_Lock@VStringKeyStore@@PAVExpiredOperationIdRecord@@V?$SafeMap_Iterator@VStringKeyStore@@PAVExpiredOperationIdRecord@@@@@@QAA@XZ
??1?$SafeMap_Lock@VStringKeyStore@@PAVServerFullDuplexChannel@@V?$SafeMap_Iterator@VStringKeyStore@@PAVServerFullDuplexChannel@@@@@@QAA@XZ
??1?$SafeMap_Lock@W4WSManSessionOption@@PAVOptionValue@SessionOptions@Client@WSMan@@V?$SafeMap_Iterator@W4WSManSessionOption@@PAVOptionValue@SessionOptions@Client@WSMan@@@@@@QAA@XZ
??1?$SafeMap_Lock@_KPAVSendPacketArgs@RobustConnectionBuffer@@V?$SafeMap_Iterator@_KPAVSendPacketArgs@RobustConnectionBuffer@@@@@@QAA@XZ
??1?$SafeSet@PAVCCertMapping@@@@QAA@XZ
??1?$SafeSet@PAVCListenerOperation@@@@QAA@XZ
??1?$SafeSet@PAVCShellUriSettings@@@@QAA@XZ
??1?$SafeSet@PAVCollector@@@@QAA@XZ
??1?$SafeSet@PAVHostOperation@@@@QAA@XZ
??1?$SafeSet@PAVIOperation@@@@QAA@XZ
??1?$SafeSet@PAVListenerSourceSubscription@@@@QAA@XZ
??1?$SafeSet@PAVPushSubscription@@@@QAA@XZ
??1?$SafeSet@PAX@@QAA@XZ
??1?$SafeSet@VStringKeyCI@@@@QAA@XZ
??1?$SafeSet_Iterator@PAVCCertMapping@@@@QAA@XZ
??1?$SafeSet_Iterator@PAVCListenerOperation@@@@QAA@XZ
??1?$SafeSet_Iterator@PAVCShellUriSettings@@@@QAA@XZ
??1?$SafeSet_Iterator@PAVCollector@@@@QAA@XZ
??1?$SafeSet_Iterator@PAVHostOperation@@@@QAA@XZ
??1?$SafeSet_Iterator@PAVIOperation@@@@QAA@XZ
??1?$SafeSet_Iterator@PAVListenerSourceSubscription@@@@QAA@XZ
??1?$SafeSet_Iterator@PAVPushSubscription@@@@QAA@XZ
??1?$SafeSet_Iterator@PAX@@QAA@XZ
??1?$SafeSet_Iterator@VStringKeyCI@@@@QAA@XZ
??1?$SimpleQueue@T_LARGE_INTEGER@@@@QAA@XZ
??1AutoBstr@@QAA@XZ
??1AutoBstrNoAlloc@@QAA@XZ
??1AutoCertContext@@QAA@XZ
??1AutoChainContext@@QAA@XZ
??1AutoCoTaskMemFree@@QAA@XZ
??1AutoEnvironmentBlock@@QAA@XZ
??1AutoFwXmlCloseParser@@QAA@XZ
??1AutoHandle@@QAA@XZ
??1AutoImpersonateUser@@QAA@XZ
??1AutoLibrary@@QAA@XZ
??1AutoLocalFree@@QAA@XZ
??1AutoMIClass@@QAA@XZ
??1AutoMIInstance@@QAA@XZ
??1AutoObject@@QAA@XZ
??1AutoRegKey@@QAA@XZ
??1AutoSecurityDescriptor@@QAA@XZ
??1AutoWaitHandle@@QAA@XZ
??1BufferFormatter@@UAA@XZ
??1CBaseConfigCache@@UAA@XZ
??1CClientConfigCache@@UAA@XZ
??1CCommonConfigSettings@@UAA@XZ
??1CConfigManager@@UAA@XZ
??1CErrorContext@@UAA@XZ
??1CRequestContext@@UAA@XZ
??1CResourceAlias@@QAA@XZ
??1CServiceConfigCache@@EAA@XZ
??1CServiceWatcher@CServiceConfigCache@@QAA@XZ
??1CWSManCriticalSection@@QAA@XZ
??1CWSManCriticalSectionWithConditionVar@@QAA@XZ
??1CWSManEPR@@UAA@XZ
??1CWSManGroupPolicyManager@@EAA@XZ
??1CWSManResource@@UAA@XZ
??1CWSManResourceNoResourceUri@@UAA@XZ
??1CWSManSecurityUI@@QAA@XZ
??1CWinRSPluginConfigCache@@EAA@XZ
??1ChildLifeTimeManager@@QAA@XZ
??1CircularBufferFormatter@@UAA@XZ
??1ConfigRegistry@@IAA@XZ
??1EtwCorrelationHelper@@UAA@XZ
??1EventHandler@WSMan@@QAA@XZ
??1IConfigChangeObserver@@UAA@XZ
??1ILifeTimeMgmt@@UAA@XZ
??1IRequestContext@@UAA@XZ
??1IWSManGroupPolicyObserver@@UAA@XZ
??1IWSManGroupPolicyPublisher@@UAA@XZ
??1MessageId@PacketParser@@QAA@XZ
??1OnHTTPInitialize@@QAA@XZ
??1OperationId@PacketParser@@QAA@XZ
??1OwnLock@@QAA@XZ
??1PacketParser@@QAA@XZ
??1RBUFFER@@QAA@XZ
??1ReferenceParameters@PacketParser@@QAA@XZ
??1SBUFFER@@QAA@XZ
??1ShareLock@@QAA@XZ
??1SoapSemanticConverter@@QAA@XZ
??1TSTRBUFFER@@QAA@XZ
??1UserRecord@@QAA@XZ
??1XmlReader@@QAA@XZ
??4?$AutoCleanup@V?$AutoDelete@D@@PAD@@QAAAAV?$AutoDelete@D@@PAD@Z
??4?$AutoCleanup@V?$AutoDelete@G@@PAG@@QAAAAV?$AutoDelete@G@@PAG@Z
??4?$AutoCleanup@V?$AutoDelete@V?$SafeMap_Iterator@VStringKeyCI@@K@@@@PAV?$SafeMap_Iterator@VStringKeyCI@@K@@@@QAAAAV?$AutoDelete@V?$SafeMap_Iterator@VStringKeyCI@@K@@@@PAV?$SafeMap_Iterator@VStringKeyCI@@K@@@Z
??4?$AutoCleanup@V?$AutoDelete@V?$SafeMap_Iterator@W4WSManSessionOption@@PAVOptionValue@SessionOptions@Client@WSMan@@@@@@PAV?$SafeMap_Iterator@W4WSManSessionOption@@PAVOptionValue@SessionOptions@Client@WSMan@@@@@@QAAAAV?$AutoDelete@V?$SafeMap_Iterator@W4WSManSessionOption@@PAVOptionValue@SessionOptions@Client@WSMan@@@@@@PAV?$SafeMap_Iterator@W4WSManSessionOption@@PAVOptionValue@SessionOptions@Client@WSMan@@@@@Z
??4?$AutoCleanup@V?$AutoDelete@V?$SafeSet@PAVCCertMapping@@@@@@PAV?$SafeSet@PAVCCertMapping@@@@@@QAAAAV?$AutoDelete@V?$SafeSet@PAVCCertMapping@@@@@@PAV?$SafeSet@PAVCCertMapping@@@@@Z
??4?$AutoCleanup@V?$AutoDelete@V?$SafeSet@PAVCShellUriSettings@@@@@@PAV?$SafeSet@PAVCShellUriSettings@@@@@@QAAAAV?$AutoDelete@V?$SafeSet@PAVCShellUriSettings@@@@@@PAV?$SafeSet@PAVCShellUriSettings@@@@@Z
??4?$AutoCleanup@V?$AutoDelete@V?$SafeSet_Iterator@PAVCListenerOperation@@@@@@PAV?$SafeSet_Iterator@PAVCListenerOperation@@@@@@QAAAAV?$AutoDelete@V?$SafeSet_Iterator@PAVCListenerOperation@@@@@@PAV?$SafeSet_Iterator@PAVCListenerOperation@@@@@Z
??4?$AutoCleanup@V?$AutoDelete@V?$set@PAVCListenerSettings@@VCListenerSettingsLessFunctor@CServiceConfigSettings@@V?$transport_allocator@PAVCListenerSettings@@@@@std@@@@PAV?$set@PAVCListenerSettings@@VCListenerSettingsLessFunctor@CServiceConfigSettings@@V?$transport_allocator@PAVCListenerSettings@@@@@std@@@@QAAAAV?$AutoDelete@V?$set@PAVCListenerSettings@@VCListenerSettingsLessFunctor@CServiceConfigSettings@@V?$transport_allocator@PAVCListenerSettings@@@@@std@@@@PAV?$set@PAVCListenerSettings@@VCListenerSettingsLessFunctor@CServiceConfigSettings@@V?$transport_allocator@PAVCListenerSettings@@@@@std@@@Z
??4?$AutoCleanup@V?$AutoDelete@V?$set@Usockaddr_storage@@VSockAddrLessFunctor@CListenerSettings@@V?$transport_allocator@Usockaddr_storage@@@@@std@@@@PAV?$set@Usockaddr_storage@@VSockAddrLessFunctor@CListenerSettings@@V?$transport_allocator@Usockaddr_storage@@@@@std@@@@QAAAAV?$AutoDelete@V?$set@Usockaddr_storage@@VSockAddrLessFunctor@CListenerSettings@@V?$transport_allocator@Usockaddr_storage@@@@@std@@@@PAV?$set@Usockaddr_storage@@VSockAddrLessFunctor@CListenerSettings@@V?$transport_allocator@Usockaddr_storage@@@@@std@@@Z
??4?$AutoCleanup@V?$AutoDelete@V?$vector@PAVHandleImpl@Client@WSMan@@V?$transport_allocator@PAVHandleImpl@Client@WSMan@@@@@std@@@@PAV?$vector@PAVHandleImpl@Client@WSMan@@V?$transport_allocator@PAVHandleImpl@Client@WSMan@@@@@std@@@@QAAAAV?$AutoDelete@V?$vector@PAVHandleImpl@Client@WSMan@@V?$transport_allocator@PAVHandleImpl@Client@WSMan@@@@@std@@@@PAV?$vector@PAVHandleImpl@Client@WSMan@@V?$transport_allocator@PAVHandleImpl@Client@WSMan@@@@@std@@@Z
??4?$AutoCleanup@V?$AutoDelete@V?$vector@PAVIServiceConfigObserver@@V?$transport_allocator@PAVIServiceConfigObserver@@@@@std@@@@PAV?$vector@PAVIServiceConfigObserver@@V?$transport_allocator@PAVIServiceConfigObserver@@@@@std@@@@QAAAAV?$AutoDelete@V?$vector@PAVIServiceConfigObserver@@V?$transport_allocator@PAVIServiceConfigObserver@@@@@std@@@@PAV?$vector@PAVIServiceConfigObserver@@V?$transport_allocator@PAVIServiceConfigObserver@@@@@std@@@Z
??4?$AutoCleanup@V?$AutoDelete@VBlockedRecord@@@@PAVBlockedRecord@@@@QAAAAV?$AutoDelete@VBlockedRecord@@@@PAVBlockedRecord@@@Z
??4?$AutoCleanup@V?$AutoDelete@VCConfigChangeSource@@@@PAVCConfigChangeSource@@@@QAAAAV?$AutoDelete@VCConfigChangeSource@@@@PAVCConfigChangeSource@@@Z
??4?$AutoCleanup@V?$AutoDelete@VCObserverConfigChangeErrors@@@@PAVCObserverConfigChangeErrors@@@@QAAAAV?$AutoDelete@VCObserverConfigChangeErrors@@@@PAVCObserverConfigChangeErrors@@@Z
??4?$AutoCleanup@V?$AutoDelete@VCServiceWatcher@CServiceConfigCache@@@@PAVCServiceWatcher@CServiceConfigCache@@@@QAAAAV?$AutoDelete@VCServiceWatcher@CServiceConfigCache@@@@PAVCServiceWatcher@CServiceConfigCache@@@Z
??4?$AutoCleanup@V?$AutoDelete@VCWSManResource@@@@PAVCWSManResource@@@@QAAAAV?$AutoDelete@VCWSManResource@@@@PAVCWSManResource@@@Z
??4?$AutoCleanup@V?$AutoDelete@VCertHash@@@@PAVCertHash@@@@QAAAAV?$AutoDelete@VCertHash@@@@PAVCertHash@@@Z
??4?$AutoCleanup@V?$AutoDelete@VConfigUpdate@@@@PAVConfigUpdate@@@@QAAAAV?$AutoDelete@VConfigUpdate@@@@PAVConfigUpdate@@@Z
??4?$AutoCleanup@V?$AutoDelete@VEnumSinkEx@@@@PAVEnumSinkEx@@@@QAAAAV?$AutoDelete@VEnumSinkEx@@@@PAVEnumSinkEx@@@Z
??4?$AutoCleanup@V?$AutoDelete@VGPApiManager@@@@PAVGPApiManager@@@@QAAAAV?$AutoDelete@VGPApiManager@@@@PAVGPApiManager@@@Z
??4?$AutoCleanup@V?$AutoDelete@VGeneralSinkEx@@@@PAVGeneralSinkEx@@@@QAAAAV?$AutoDelete@VGeneralSinkEx@@@@PAVGeneralSinkEx@@@Z
??4?$AutoCleanup@V?$AutoDelete@VIChannelObserverFactory@@@@PAVIChannelObserverFactory@@@@QAAAAV?$AutoDelete@VIChannelObserverFactory@@@@PAVIChannelObserverFactory@@@Z
??4?$AutoCleanup@V?$AutoDelete@VIQueryDASHSMASHInterface@@@@PAVIQueryDASHSMASHInterface@@@@QAAAAV?$AutoDelete@VIQueryDASHSMASHInterface@@@@PAVIQueryDASHSMASHInterface@@@Z
??4?$AutoCleanup@V?$AutoDelete@VISpecification@@@@PAVISpecification@@@@QAAAAV?$AutoDelete@VISpecification@@@@PAVISpecification@@@Z
??4?$AutoCleanup@V?$AutoDelete@VPacketCreator@@@@PAVPacketCreator@@@@QAAAAV?$AutoDelete@VPacketCreator@@@@PAVPacketCreator@@@Z
??4?$AutoCleanup@V?$AutoDelete@VPacketParser@@@@PAVPacketParser@@@@QAAAAV?$AutoDelete@VPacketParser@@@@PAVPacketParser@@@Z
??4?$AutoCleanup@V?$AutoDelete@VRunAsConfiguration@@@@PAVRunAsConfiguration@@@@QAAAAV?$AutoDelete@VRunAsConfiguration@@@@PAVRunAsConfiguration@@@Z
??4?$AutoCleanup@V?$AutoDelete@VSecurityEntry@Catalog@@@@PAVSecurityEntry@Catalog@@@@QAAAAV?$AutoDelete@VSecurityEntry@Catalog@@@@PAVSecurityEntry@Catalog@@@Z
??4?$AutoCleanup@V?$AutoDelete@VServiceSoapProcessor@@@@PAVServiceSoapProcessor@@@@QAAAAV?$AutoDelete@VServiceSoapProcessor@@@@PAVServiceSoapProcessor@@@Z
??4?$AutoCleanup@V?$AutoDelete@VSubscriptionEnumerator@@@@PAVSubscriptionEnumerator@@@@QAAAAV?$AutoDelete@VSubscriptionEnumerator@@@@PAVSubscriptionEnumerator@@@Z
??4?$AutoCleanup@V?$AutoDelete@VTSTRBUFFER@@@@PAVTSTRBUFFER@@@@QAAAAV?$AutoDelete@VTSTRBUFFER@@@@PAVTSTRBUFFER@@@Z
??4?$AutoCleanup@V?$AutoDelete@VUniqueStringOverflow@@@@PAVUniqueStringOverflow@@@@QAAAAV?$AutoDelete@VUniqueStringOverflow@@@@PAVUniqueStringOverflow@@@Z
??4?$AutoCleanup@V?$AutoDelete@VWSMANCONFIGTABLE_IDENTITY@@@@PAVWSMANCONFIGTABLE_IDENTITY@@@@QAAAAV?$AutoDelete@VWSMANCONFIGTABLE_IDENTITY@@@@PAVWSMANCONFIGTABLE_IDENTITY@@@Z
??4?$AutoCleanup@V?$AutoDelete@VWmiEnumContext@@@@PAVWmiEnumContext@@@@QAAAAV?$AutoDelete@VWmiEnumContext@@@@PAVWmiEnumContext@@@Z
??4?$AutoCleanup@V?$AutoDelete@VXmlReader@@@@PAVXmlReader@@@@QAAAAV?$AutoDelete@VXmlReader@@@@PAVXmlReader@@@Z
??4?$AutoCleanup@V?$AutoDeleteVector@$$CBG@@PBG@@QAAAAV?$AutoDeleteVector@$$CBG@@PBG@Z
??4?$AutoCleanup@V?$AutoDeleteVector@D@@PAD@@QAAAAV?$AutoDeleteVector@D@@PAD@Z
??4?$AutoCleanup@V?$AutoDeleteVector@E@@PAE@@QAAAAV?$AutoDeleteVector@E@@PAE@Z
??4?$AutoCleanup@V?$AutoDeleteVector@G@@PAG@@QAAAAV?$AutoDeleteVector@G@@PAG@Z
??4?$AutoCleanup@V?$AutoDeleteVector@PAG@@PAPAG@@QAAAAV?$AutoDeleteVector@PAG@@PAPAG@Z
??4?$AutoCleanup@V?$AutoDeleteVector@PBG@@PAPBG@@QAAAAV?$AutoDeleteVector@PBG@@PAPBG@Z
??4?$AutoCleanup@V?$AutoDeleteVector@U_CONFIG_UPDATE@@@@PAU_CONFIG_UPDATE@@@@QAAAAV?$AutoDeleteVector@U_CONFIG_UPDATE@@@@PAU_CONFIG_UPDATE@@@Z
??4?$AutoCleanup@V?$AutoDeleteVector@U_WINRS_CREATE_SHELL_ENVIRONMENT_VARIABLE@@@@PAU_WINRS_CREATE_SHELL_ENVIRONMENT_VARIABLE@@@@QAAAAV?$AutoDeleteVector@U_WINRS_CREATE_SHELL_ENVIRONMENT_VARIABLE@@@@PAU_WINRS_CREATE_SHELL_ENVIRONMENT_VARIABLE@@@Z
??4?$AutoCleanup@V?$AutoDeleteVector@U_WINRS_RUN_COMMAND_ARG@@@@PAU_WINRS_RUN_COMMAND_ARG@@@@QAAAAV?$AutoDeleteVector@U_WINRS_RUN_COMMAND_ARG@@@@PAU_WINRS_RUN_COMMAND_ARG@@@Z
??4?$AutoCleanup@V?$AutoDeleteVector@U_WSMAN_OPTION@@@@PAU_WSMAN_OPTION@@@@QAAAAV?$AutoDeleteVector@U_WSMAN_OPTION@@@@PAU_WSMAN_OPTION@@@Z
??4?$AutoCleanup@V?$AutoDeleteVector@X@@PAX@@QAAAAV?$AutoDeleteVector@X@@PAX@Z
??4?$AutoCleanup@V?$AutoFree@E@@PAE@@QAAAAV?$AutoFree@E@@PAE@Z
??4?$AutoCleanup@V?$AutoLocklessItemRecycle@VPacket@@@@PAVPacket@@@@QAAAAV?$AutoLocklessItemRecycle@VPacket@@@@PAVPacket@@@Z
??4?$AutoCleanup@V?$AutoRelease@UIClientSecurity@@@@PAUIClientSecurity@@@@QAAAAV?$AutoRelease@UIClientSecurity@@@@PAUIClientSecurity@@@Z
??4?$AutoCleanup@V?$AutoRelease@UIEnumWbemClassObject@@@@PAUIEnumWbemClassObject@@@@QAAAAV?$AutoRelease@UIEnumWbemClassObject@@@@PAUIEnumWbemClassObject@@@Z
??4?$AutoCleanup@V?$AutoRelease@UIErrorInfo@@@@PAUIErrorInfo@@@@QAAAAV?$AutoRelease@UIErrorInfo@@@@PAUIErrorInfo@@@Z
??4?$AutoCleanup@V?$AutoRelease@UIUnknown@@@@PAUIUnknown@@@@QAAAAV?$AutoRelease@UIUnknown@@@@PAUIUnknown@@@Z
??4?$AutoCleanup@V?$AutoRelease@UIWbemClassObject@@@@PAUIWbemClassObject@@@@QAAAAV?$AutoRelease@UIWbemClassObject@@@@PAUIWbemClassObject@@@Z
??4?$AutoCleanup@V?$AutoRelease@UIWbemContext@@@@PAUIWbemContext@@@@QAAAAV?$AutoRelease@UIWbemContext@@@@PAUIWbemContext@@@Z
??4?$AutoCleanup@V?$AutoRelease@UIWbemLocator@@@@PAUIWbemLocator@@@@QAAAAV?$AutoRelease@UIWbemLocator@@@@PAUIWbemLocator@@@Z
??4?$AutoCleanup@V?$AutoRelease@UIWbemObjectTextSrc@@@@PAUIWbemObjectTextSrc@@@@QAAAAV?$AutoRelease@UIWbemObjectTextSrc@@@@PAUIWbemObjectTextSrc@@@Z
??4?$AutoCleanup@V?$AutoRelease@UIWbemPath@@@@PAUIWbemPath@@@@QAAAAV?$AutoRelease@UIWbemPath@@@@PAUIWbemPath@@@Z
??4?$AutoCleanup@V?$AutoRelease@UIWbemPathKeyList@@@@PAUIWbemPathKeyList@@@@QAAAAV?$AutoRelease@UIWbemPathKeyList@@@@PAUIWbemPathKeyList@@@Z
??4?$AutoCleanup@V?$AutoRelease@UIWbemQualifierSet@@@@PAUIWbemQualifierSet@@@@QAAAAV?$AutoRelease@UIWbemQualifierSet@@@@PAUIWbemQualifierSet@@@Z
??4?$AutoCleanup@V?$AutoRelease@UIWbemQuery@@@@PAUIWbemQuery@@@@QAAAAV?$AutoRelease@UIWbemQuery@@@@PAUIWbemQuery@@@Z
??4?$AutoCleanup@V?$AutoRelease@UIWbemServices@@@@PAUIWbemServices@@@@QAAAAV?$AutoRelease@UIWbemServices@@@@PAUIWbemServices@@@Z
??4?$AutoCleanup@V?$AutoRelease@VApplication@Client@WSMan@@@@PAVApplication@Client@WSMan@@@@QAAAAV?$AutoRelease@VApplication@Client@WSMan@@@@PAVApplication@Client@WSMan@@@Z
??4?$AutoCleanup@V?$AutoRelease@VCBaseConfigCache@@@@PAVCBaseConfigCache@@@@QAAAAV?$AutoRelease@VCBaseConfigCache@@@@PAVCBaseConfigCache@@@Z
??4?$AutoCleanup@V?$AutoRelease@VCClientConfigSettings@@@@PAVCClientConfigSettings@@@@QAAAAV?$AutoRelease@VCClientConfigSettings@@@@PAVCClientConfigSettings@@@Z
??4?$AutoCleanup@V?$AutoRelease@VCCommonConfigSettings@@@@PAVCCommonConfigSettings@@@@QAAAAV?$AutoRelease@VCCommonConfigSettings@@@@PAVCCommonConfigSettings@@@Z
??4?$AutoCleanup@V?$AutoRelease@VCConfigCacheMap@CBaseConfigCache@@@@PAVCConfigCacheMap@CBaseConfigCache@@@@QAAAAV?$AutoRelease@VCConfigCacheMap@CBaseConfigCache@@@@PAVCConfigCacheMap@CBaseConfigCache@@@Z
??4?$AutoCleanup@V?$AutoRelease@VCConfigManager@@@@PAVCConfigManager@@@@QAAAAV?$AutoRelease@VCConfigManager@@@@PAVCConfigManager@@@Z
??4?$AutoCleanup@V?$AutoRelease@VCRemoteOperation@@@@PAVCRemoteOperation@@@@QAAAAV?$AutoRelease@VCRemoteOperation@@@@PAVCRemoteOperation@@@Z
??4?$AutoCleanup@V?$AutoRelease@VCRemoteSession@@@@PAVCRemoteSession@@@@QAAAAV?$AutoRelease@VCRemoteSession@@@@PAVCRemoteSession@@@Z
??4?$AutoCleanup@V?$AutoRelease@VCRequestContext@@@@PAVCRequestContext@@@@QAAAAV?$AutoRelease@VCRequestContext@@@@PAVCRequestContext@@@Z
??4?$AutoCleanup@V?$AutoRelease@VCServiceCommonConfigSettings@@@@PAVCServiceCommonConfigSettings@@@@QAAAAV?$AutoRelease@VCServiceCommonConfigSettings@@@@PAVCServiceCommonConfigSettings@@@Z
??4?$AutoCleanup@V?$AutoRelease@VCServiceConfigCache@@@@PAVCServiceConfigCache@@@@QAAAAV?$AutoRelease@VCServiceConfigCache@@@@PAVCServiceConfigCache@@@Z
??4?$AutoCleanup@V?$AutoRelease@VCServiceConfigSettings@@@@PAVCServiceConfigSettings@@@@QAAAAV?$AutoRelease@VCServiceConfigSettings@@@@PAVCServiceConfigSettings@@@Z
??4?$AutoCleanup@V?$AutoRelease@VCWSManEPR@@@@PAVCWSManEPR@@@@QAAAAV?$AutoRelease@VCWSManEPR@@@@PAVCWSManEPR@@@Z
??4?$AutoCleanup@V?$AutoRelease@VCWSManGroupPolicyManager@@@@PAVCWSManGroupPolicyManager@@@@QAAAAV?$AutoRelease@VCWSManGroupPolicyManager@@@@PAVCWSManGroupPolicyManager@@@Z
??4?$AutoCleanup@V?$AutoRelease@VCWSManResource@@@@PAVCWSManResource@@@@QAAAAV?$AutoRelease@VCWSManResource@@@@PAVCWSManResource@@@Z
??4?$AutoCleanup@V?$AutoRelease@VCWinRSPluginConfigCache@@@@PAVCWinRSPluginConfigCache@@@@QAAAAV?$AutoRelease@VCWinRSPluginConfigCache@@@@PAVCWinRSPluginConfigCache@@@Z
??4?$AutoCleanup@V?$AutoRelease@VCWinRSPluginConfigSettings@@@@PAVCWinRSPluginConfigSettings@@@@QAAAAV?$AutoRelease@VCWinRSPluginConfigSettings@@@@PAVCWinRSPluginConfigSettings@@@Z
??4?$AutoCleanup@V?$AutoRelease@VEnumSinkEx@@@@PAVEnumSinkEx@@@@QAAAAV?$AutoRelease@VEnumSinkEx@@@@PAVEnumSinkEx@@@Z
??4?$AutoCleanup@V?$AutoRelease@VGeneralSinkEx@@@@PAVGeneralSinkEx@@@@QAAAAV?$AutoRelease@VGeneralSinkEx@@@@PAVGeneralSinkEx@@@Z
??4?$AutoCleanup@V?$AutoRelease@VIRequestContext@@@@PAVIRequestContext@@@@QAAAAV?$AutoRelease@VIRequestContext@@@@PAVIRequestContext@@@Z
??4?$AutoCleanup@V?$AutoRelease@VISubscription@@@@PAVISubscription@@@@QAAAAV?$AutoRelease@VISubscription@@@@PAVISubscription@@@Z
??4?$AutoCleanup@V?$AutoRelease@VInboundRequestDetails@@@@PAVInboundRequestDetails@@@@QAAAAV?$AutoRelease@VInboundRequestDetails@@@@PAVInboundRequestDetails@@@Z
??4?$AutoCleanup@V?$AutoRelease@VUserRecord@@@@PAVUserRecord@@@@QAAAAV?$AutoRelease@VUserRecord@@@@PAVUserRecord@@@Z
??4?$AutoCleanup@V?$AutoRelease@VWSManHttpListener@@@@PAVWSManHttpListener@@@@QAAAAV?$AutoRelease@VWSManHttpListener@@@@PAVWSManHttpListener@@@Z
??4?$AutoCleanup@V?$AutoReleaseEx@VShell@Client@WSMan@@@@PAVShell@Client@WSMan@@@@QAAAAV?$AutoReleaseEx@VShell@Client@WSMan@@@@PAVShell@Client@WSMan@@@Z
??4?$AutoCleanup@VAutoBstr@@PAG@@QAAAAVAutoBstr@@PAG@Z
??4?$AutoCleanup@VAutoBstrNoAlloc@@PAG@@QAAAAVAutoBstrNoAlloc@@PAG@Z
??4?$AutoCleanup@VAutoCertContext@@PBU_CERT_CONTEXT@@@@QAAAAVAutoCertContext@@PBU_CERT_CONTEXT@@@Z
??4?$AutoCleanup@VAutoChainContext@@PBU_CERT_CHAIN_CONTEXT@@@@QAAAAVAutoChainContext@@PBU_CERT_CHAIN_CONTEXT@@@Z
??4?$AutoCleanup@VAutoCoTaskMemFree@@PAX@@QAAAAVAutoCoTaskMemFree@@PAX@Z
??4?$AutoCleanup@VAutoEnvironmentBlock@@PAX@@QAAAAVAutoEnvironmentBlock@@PAX@Z
??4?$AutoCleanup@VAutoFwXmlCloseParser@@PAX@@QAAAAVAutoFwXmlCloseParser@@PAX@Z
??4?$AutoCleanup@VAutoHandle@@PAX@@QAAAAVAutoHandle@@PAX@Z
??4?$AutoCleanup@VAutoImpersonateUser@@PAX@@QAAAAVAutoImpersonateUser@@PAX@Z
??4?$AutoCleanup@VAutoLibrary@@PAUHINSTANCE__@@@@QAAAAVAutoLibrary@@PAUHINSTANCE__@@@Z
??4?$AutoCleanup@VAutoLocalFree@@PAX@@QAAAAVAutoLocalFree@@PAX@Z
??4?$AutoCleanup@VAutoMIClass@@PAU_MI_Class@@@@QAAAAVAutoMIClass@@PAU_MI_Class@@@Z
??4?$AutoCleanup@VAutoMIInstance@@PAU_MI_Instance@@@@QAAAAVAutoMIInstance@@PAU_MI_Instance@@@Z
??4?$AutoCleanup@VAutoObject@@PAUWSMAN_OBJECT@@@@QAAAAVAutoObject@@PAUWSMAN_OBJECT@@@Z
??4?$AutoCleanup@VAutoRegKey@@PAUHKEY__@@@@QAAAAVAutoRegKey@@PAUHKEY__@@@Z
??4?$AutoCleanup@VAutoSecurityDescriptor@@PAX@@QAAAAVAutoSecurityDescriptor@@PAX@Z
??4?$AutoCleanup@VAutoWaitHandle@@PAX@@QAAAAVAutoWaitHandle@@PAX@Z
??4?$AutoDelete@D@@QAAAAV0@PAD@Z
??4?$AutoDelete@G@@QAAAAV0@PAG@Z
??4?$AutoDelete@V?$SafeMap_Iterator@VStringKeyCI@@K@@@@QAAAAV0@PAV?$SafeMap_Iterator@VStringKeyCI@@K@@@Z
??4?$AutoDelete@V?$SafeMap_Iterator@W4WSManSessionOption@@PAVOptionValue@SessionOptions@Client@WSMan@@@@@@QAAAAV0@PAV?$SafeMap_Iterator@W4WSManSessionOption@@PAVOptionValue@SessionOptions@Client@WSMan@@@@@Z
??4?$AutoDelete@V?$SafeSet@PAVCCertMapping@@@@@@QAAAAV0@PAV?$SafeSet@PAVCCertMapping@@@@@Z
??4?$AutoDelete@V?$SafeSet@PAVCShellUriSettings@@@@@@QAAAAV0@PAV?$SafeSet@PAVCShellUriSettings@@@@@Z
??4?$AutoDelete@V?$SafeSet_Iterator@PAVCListenerOperation@@@@@@QAAAAV0@PAV?$SafeSet_Iterator@PAVCListenerOperation@@@@@Z
??4?$AutoDelete@V?$set@PAVCListenerSettings@@VCListenerSettingsLessFunctor@CServiceConfigSettings@@V?$transport_allocator@PAVCListenerSettings@@@@@std@@@@QAAAAV0@PAV?$set@PAVCListenerSettings@@VCListenerSettingsLessFunctor@CServiceConfigSettings@@V?$transport_allocator@PAVCListenerSettings@@@@@std@@@Z
??4?$AutoDelete@V?$set@Usockaddr_storage@@VSockAddrLessFunctor@CListenerSettings@@V?$transport_allocator@Usockaddr_storage@@@@@std@@@@QAAAAV0@PAV?$set@Usockaddr_storage@@VSockAddrLessFunctor@CListenerSettings@@V?$transport_allocator@Usockaddr_storage@@@@@std@@@Z
??4?$AutoDelete@V?$vector@PAVHandleImpl@Client@WSMan@@V?$transport_allocator@PAVHandleImpl@Client@WSMan@@@@@std@@@@QAAAAV0@PAV?$vector@PAVHandleImpl@Client@WSMan@@V?$transport_allocator@PAVHandleImpl@Client@WSMan@@@@@std@@@Z
??4?$AutoDelete@V?$vector@PAVIServiceConfigObserver@@V?$transport_allocator@PAVIServiceConfigObserver@@@@@std@@@@QAAAAV0@PAV?$vector@PAVIServiceConfigObserver@@V?$transport_allocator@PAVIServiceConfigObserver@@@@@std@@@Z
??4?$AutoDelete@VBlockedRecord@@@@QAAAAV0@PAVBlockedRecord@@@Z
??4?$AutoDelete@VCConfigChangeSource@@@@QAAAAV0@PAVCConfigChangeSource@@@Z
??4?$AutoDelete@VCObserverConfigChangeErrors@@@@QAAAAV0@PAVCObserverConfigChangeErrors@@@Z
??4?$AutoDelete@VCServiceWatcher@CServiceConfigCache@@@@QAAAAV0@PAVCServiceWatcher@CServiceConfigCache@@@Z
??4?$AutoDelete@VCWSManResource@@@@QAAAAV0@PAVCWSManResource@@@Z
??4?$AutoDelete@VCertHash@@@@QAAAAV0@PAVCertHash@@@Z
??4?$AutoDelete@VConfigUpdate@@@@QAAAAV0@PAVConfigUpdate@@@Z
??4?$AutoDelete@VEnumSinkEx@@@@QAAAAV0@PAVEnumSinkEx@@@Z
??4?$AutoDelete@VGPApiManager@@@@QAAAAV0@PAVGPApiManager@@@Z
??4?$AutoDelete@VGeneralSinkEx@@@@QAAAAV0@PAVGeneralSinkEx@@@Z
??4?$AutoDelete@VIChannelObserverFactory@@@@QAAAAV0@PAVIChannelObserverFactory@@@Z
??4?$AutoDelete@VIQueryDASHSMASHInterface@@@@QAAAAV0@PAVIQueryDASHSMASHInterface@@@Z
??4?$AutoDelete@VISpecification@@@@QAAAAV0@PAVISpecification@@@Z
??4?$AutoDelete@VPacketCreator@@@@QAAAAV0@PAVPacketCreator@@@Z
??4?$AutoDelete@VPacketParser@@@@QAAAAV0@PAVPacketParser@@@Z
??4?$AutoDelete@VRunAsConfiguration@@@@QAAAAV0@PAVRunAsConfiguration@@@Z
??4?$AutoDelete@VSecurityEntry@Catalog@@@@QAAAAV0@PAVSecurityEntry@Catalog@@@Z
??4?$AutoDelete@VServiceSoapProcessor@@@@QAAAAV0@PAVServiceSoapProcessor@@@Z
??4?$AutoDelete@VSubscriptionEnumerator@@@@QAAAAV0@PAVSubscriptionEnumerator@@@Z
??4?$AutoDelete@VTSTRBUFFER@@@@QAAAAV0@PAVTSTRBUFFER@@@Z
??4?$AutoDelete@VUniqueStringOverflow@@@@QAAAAV0@PAVUniqueStringOverflow@@@Z
??4?$AutoDelete@VWSMANCONFIGTABLE_IDENTITY@@@@QAAAAV0@PAVWSMANCONFIGTABLE_IDENTITY@@@Z
??4?$AutoDelete@VWmiEnumContext@@@@QAAAAV0@PAVWmiEnumContext@@@Z
??4?$AutoDelete@VXmlReader@@@@QAAAAV0@PAVXmlReader@@@Z
??4?$AutoDeleteVector@$$CBG@@QAAAAV0@PBG@Z
??4?$AutoDeleteVector@D@@QAAAAV0@PAD@Z
??4?$AutoDeleteVector@E@@QAAAAV0@PAE@Z
??4?$AutoDeleteVector@G@@QAAAAV0@PAG@Z
??4?$AutoDeleteVector@PAG@@QAAAAV0@PAPAG@Z
??4?$AutoDeleteVector@PBG@@QAAAAV0@PAPBG@Z
??4?$AutoDeleteVector@U_CONFIG_UPDATE@@@@QAAAAV0@PAU_CONFIG_UPDATE@@@Z
??4?$AutoDeleteVector@U_WINRS_CREATE_SHELL_ENVIRONMENT_VARIABLE@@@@QAAAAV0@PAU_WINRS_CREATE_SHELL_ENVIRONMENT_VARIABLE@@@Z
??4?$AutoDeleteVector@U_WINRS_RUN_COMMAND_ARG@@@@QAAAAV0@PAU_WINRS_RUN_COMMAND_ARG@@@Z
??4?$AutoDeleteVector@U_WSMAN_OPTION@@@@QAAAAV0@PAU_WSMAN_OPTION@@@Z
??4?$AutoDeleteVector@X@@QAAAAV0@PAX@Z
??4?$AutoFree@E@@QAAAAV0@PAE@Z
??4?$AutoLocklessItemRecycle@VPacket@@@@QAAAAV0@PAVPacket@@@Z
??4?$AutoRelease@UIClientSecurity@@@@QAAAAV0@PAUIClientSecurity@@@Z
??4?$AutoRelease@UIEnumWbemClassObject@@@@QAAAAV0@PAUIEnumWbemClassObject@@@Z
??4?$AutoRelease@UIErrorInfo@@@@QAAAAV0@PAUIErrorInfo@@@Z
??4?$AutoRelease@UIUnknown@@@@QAAAAV0@PAUIUnknown@@@Z
??4?$AutoRelease@UIWbemClassObject@@@@QAAAAV0@PAUIWbemClassObject@@@Z
??4?$AutoRelease@UIWbemContext@@@@QAAAAV0@PAUIWbemContext@@@Z
??4?$AutoRelease@UIWbemLocator@@@@QAAAAV0@PAUIWbemLocator@@@Z
??4?$AutoRelease@UIWbemObjectTextSrc@@@@QAAAAV0@PAUIWbemObjectTextSrc@@@Z
??4?$AutoRelease@UIWbemPath@@@@QAAAAV0@PAUIWbemPath@@@Z
??4?$AutoRelease@UIWbemPathKeyList@@@@QAAAAV0@PAUIWbemPathKeyList@@@Z
??4?$AutoRelease@UIWbemQualifierSet@@@@QAAAAV0@PAUIWbemQualifierSet@@@Z
??4?$AutoRelease@UIWbemQuery@@@@QAAAAV0@PAUIWbemQuery@@@Z
??4?$AutoRelease@UIWbemServices@@@@QAAAAV0@PAUIWbemServices@@@Z
??4?$AutoRelease@VApplication@Client@WSMan@@@@QAAAAV0@PAVApplication@Client@WSMan@@@Z
??4?$AutoRelease@VCBaseConfigCache@@@@QAAAAV0@PAVCBaseConfigCache@@@Z
??4?$AutoRelease@VCClientConfigSettings@@@@QAAAAV0@PAVCClientConfigSettings@@@Z
??4?$AutoRelease@VCCommonConfigSettings@@@@QAAAAV0@PAVCCommonConfigSettings@@@Z
??4?$AutoRelease@VCConfigCacheMap@CBaseConfigCache@@@@QAAAAV0@PAVCConfigCacheMap@CBaseConfigCache@@@Z
??4?$AutoRelease@VCConfigManager@@@@QAAAAV0@PAVCConfigManager@@@Z
??4?$AutoRelease@VCRemoteOperation@@@@QAAAAV0@PAVCRemoteOperation@@@Z
??4?$AutoRelease@VCRemoteSession@@@@QAAAAV0@PAVCRemoteSession@@@Z
??4?$AutoRelease@VCRequestContext@@@@QAAAAV0@PAVCRequestContext@@@Z
??4?$AutoRelease@VCServiceCommonConfigSettings@@@@QAAAAV0@PAVCServiceCommonConfigSettings@@@Z
??4?$AutoRelease@VCServiceConfigCache@@@@QAAAAV0@PAVCServiceConfigCache@@@Z
??4?$AutoRelease@VCServiceConfigSettings@@@@QAAAAV0@PAVCServiceConfigSettings@@@Z
??4?$AutoRelease@VCWSManEPR@@@@QAAAAV0@PAVCWSManEPR@@@Z
??4?$AutoRelease@VCWSManGroupPolicyManager@@@@QAAAAV0@PAVCWSManGroupPolicyManager@@@Z
??4?$AutoRelease@VCWSManResource@@@@QAAAAV0@PAVCWSManResource@@@Z
??4?$AutoRelease@VCWinRSPluginConfigCache@@@@QAAAAV0@PAVCWinRSPluginConfigCache@@@Z
??4?$AutoRelease@VCWinRSPluginConfigSettings@@@@QAAAAV0@PAVCWinRSPluginConfigSettings@@@Z
??4?$AutoRelease@VEnumSinkEx@@@@QAAAAV0@PAVEnumSinkEx@@@Z
??4?$AutoRelease@VGeneralSinkEx@@@@QAAAAV0@PAVGeneralSinkEx@@@Z
??4?$AutoRelease@VIRequestContext@@@@QAAAAV0@PAVIRequestContext@@@Z
??4?$AutoRelease@VISubscription@@@@QAAAAV0@PAVISubscription@@@Z
??4?$AutoRelease@VInboundRequestDetails@@@@QAAAAV0@PAVInboundRequestDetails@@@Z
??4?$AutoRelease@VUserRecord@@@@QAAAAV0@PAVUserRecord@@@Z
??4?$AutoRelease@VWSManHttpListener@@@@QAAAAV0@PAVWSManHttpListener@@@Z
??4?$AutoReleaseEx@VShell@Client@WSMan@@@@QAAAAV0@PAVShell@Client@WSMan@@@Z
??4?$PacketElement@K@PacketParser@@QAAAAV01@ABV01@@Z
??4?$PacketElement@PAU_FWXML_ELEMENT@@@PacketParser@@QAAAAV01@ABV01@@Z
??4?$PacketElement@PBG@PacketParser@@QAAAAV01@ABV01@@Z
??4?$PacketElement@_K@PacketParser@@QAAAAV01@ABV01@@Z
??4?$SimpleQueue@T_LARGE_INTEGER@@@@QAAAAV0@ABV0@@Z
??4AutoBstr@@QAAAAV0@PAG@Z
??4AutoBstrNoAlloc@@QAAAAV0@PAG@Z
??4AutoCertContext@@QAAAAV0@PBU_CERT_CONTEXT@@@Z
??4AutoChainContext@@QAAAAV0@PBU_CERT_CHAIN_CONTEXT@@@Z
??4AutoCoTaskMemFree@@QAAAAV0@PAX@Z
??4AutoEnvironmentBlock@@QAAAAV0@PAX@Z
??4AutoFwXmlCloseParser@@QAAAAV0@PAX@Z
??4AutoHandle@@QAAAAV0@PAX@Z
??4AutoImpersonateUser@@QAAAAV0@PAX@Z
??4AutoLibrary@@QAAAAV0@PAUHINSTANCE__@@@Z
??4AutoLocalFree@@QAAAAV0@PAX@Z
??4AutoMIClass@@QAAAAV0@PAU_MI_Class@@@Z
??4AutoMIInstance@@QAAAAV0@PAU_MI_Instance@@@Z
??4AutoObject@@QAAAAV0@PAUWSMAN_OBJECT@@@Z
??4AutoRegKey@@QAAAAV0@PAUHKEY__@@@Z
??4AutoSecurityDescriptor@@QAAAAV0@PAX@Z
??4AutoWaitHandle@@QAAAAV0@PAX@Z
??4ChildLifeTimeManager@@QAAAAV0@ABV0@@Z
??4ConfigRegistry@@QAAAAV0@ABV0@@Z
??4EtwCorrelationHelper@@QAAAAV0@ABV0@@Z
??4EventLog@@QAAAAV0@ABV0@@Z
??4ExtendedSemantic@@QAAAAV0@ABV0@@Z
??4FastLock@@QAAAAV0@ABV0@@Z
??4Fragment@PacketParser@@QAAAAV01@ABV01@@Z
??4IConfigChangeObserver@@QAAAAV0@ABV0@@Z
??4ILifeTimeMgmt@@QAAAAV0@ABV0@@Z
??4IWSManGroupPolicyObserver@@QAAAAV0@ABV0@@Z
??4IWSManGroupPolicyPublisher@@QAAAAV0@ABV0@@Z
??4Locale@@QAAAAV0@ABV0@@Z
??4NotUnderstandSoapHeader@PacketParser@@QAAAAV01@ABV01@@Z
??4PacketFormatter@@QAAAAV0@ABV0@@Z
??4RBUFFER@@QAAAAV0@ABV0@@Z
??4SBUFFER@@QAAAAV0@ABV0@@Z
??4SessionId@PacketParser@@QAAAAV01@ABV01@@Z
??4SoapSemanticConverter@@QAAAAV0@ABV0@@Z
??4UserAuthzRecord@@QAAAAV0@ABV0@@Z
??6BufferFormatter@@UAAAAV0@AAVBufferFormatterDataFormatDWORD@@@Z
??6BufferFormatter@@UAAAAV0@AAVBufferFormatterDataFormatULONGLONG@@@Z
??6BufferFormatter@@UAAAAV0@AAVBufferFormatterDataPCWSTR@@@Z
??6BufferFormatter@@UAAAAV0@AAVBufferFormatterDataPUCHAR@@@Z
??6BufferFormatter@@UAAAAV0@AAVBufferFormatterDataXmlEscape@@@Z
??6BufferFormatter@@UAAAAV0@K@Z
??6BufferFormatter@@UAAAAV0@PAU_FWXML_ELEMENT@@@Z
??7?$AutoCleanup@V?$AutoDelete@G@@PAG@@QBA_NXZ
??7?$AutoCleanup@V?$AutoDelete@V?$SafeSet@PAVCCertMapping@@@@@@PAV?$SafeSet@PAVCCertMapping@@@@@@QBA_NXZ
??7?$AutoCleanup@V?$AutoDelete@V?$SafeSet@PAVCShellUriSettings@@@@@@PAV?$SafeSet@PAVCShellUriSettings@@@@@@QBA_NXZ
??7?$AutoCleanup@V?$AutoDelete@V?$set@PAVCListenerSettings@@VCListenerSettingsLessFunctor@CServiceConfigSettings@@V?$transport_allocator@PAVCListenerSettings@@@@@std@@@@PAV?$set@PAVCListenerSettings@@VCListenerSettingsLessFunctor@CServiceConfigSettings@@V?$transport_allocator@PAVCListenerSettings@@@@@std@@@@QBA_NXZ
??7?$AutoCleanup@V?$AutoDelete@VConfigUpdate@@@@PAVConfigUpdate@@@@QBA_NXZ
??7?$AutoCleanup@V?$AutoDelete@VEnumSinkEx@@@@PAVEnumSinkEx@@@@QBA_NXZ
??7?$AutoCleanup@V?$AutoDelete@VGeneralSinkEx@@@@PAVGeneralSinkEx@@@@QBA_NXZ
??7?$AutoCleanup@V?$AutoDelete@VIQueryDASHSMASHInterface@@@@PAVIQueryDASHSMASHInterface@@@@QBA_NXZ
??7?$AutoCleanup@V?$AutoDelete@VISpecification@@@@PAVISpecification@@@@QBA_NXZ
??7?$AutoCleanup@V?$AutoDelete@VRunAsConfiguration@@@@PAVRunAsConfiguration@@@@QBA_NXZ
??7?$AutoCleanup@V?$AutoDelete@VSubscriptionEnumerator@@@@PAVSubscriptionEnumerator@@@@QBA_NXZ
??7?$AutoCleanup@V?$AutoDelete@VTSTRBUFFER@@@@PAVTSTRBUFFER@@@@QBA_NXZ
??7?$AutoCleanup@V?$AutoDelete@VWmiEnumContext@@@@PAVWmiEnumContext@@@@QBA_NXZ
??7?$AutoCleanup@V?$AutoDeleteVector@D@@PAD@@QBA_NXZ
??7?$AutoCleanup@V?$AutoDeleteVector@E@@PAE@@QBA_NXZ
??7?$AutoCleanup@V?$AutoDeleteVector@G@@PAG@@QBA_NXZ
??7?$AutoCleanup@V?$AutoDeleteVector@PAG@@PAPAG@@QBA_NXZ
??7?$AutoCleanup@V?$AutoDeleteVector@PBG@@PAPBG@@QBA_NXZ
??7?$AutoCleanup@V?$AutoDeleteVector@U_WINRS_CREATE_SHELL_ENVIRONMENT_VARIABLE@@@@PAU_WINRS_CREATE_SHELL_ENVIRONMENT_VARIABLE@@@@QBA_NXZ
??7?$AutoCleanup@V?$AutoDeleteVector@U_WINRS_RUN_COMMAND_ARG@@@@PAU_WINRS_RUN_COMMAND_ARG@@@@QBA_NXZ
??7?$AutoCleanup@V?$AutoDeleteVector@X@@PAX@@QBA_NXZ
??7?$AutoCleanup@V?$AutoRelease@UIClientSecurity@@@@PAUIClientSecurity@@@@QBA_NXZ
??7?$AutoCleanup@V?$AutoRelease@UIEnumWbemClassObject@@@@PAUIEnumWbemClassObject@@@@QBA_NXZ
??7?$AutoCleanup@V?$AutoRelease@UIErrorInfo@@@@PAUIErrorInfo@@@@QBA_NXZ
??7?$AutoCleanup@V?$AutoRelease@UIUnknown@@@@PAUIUnknown@@@@QBA_NXZ
??7?$AutoCleanup@V?$AutoRelease@UIWbemClassObject@@@@PAUIWbemClassObject@@@@QBA_NXZ
??7?$AutoCleanup@V?$AutoRelease@UIWbemContext@@@@PAUIWbemContext@@@@QBA_NXZ
??7?$AutoCleanup@V?$AutoRelease@UIWbemLocator@@@@PAUIWbemLocator@@@@QBA_NXZ
??7?$AutoCleanup@V?$AutoRelease@UIWbemObjectTextSrc@@@@PAUIWbemObjectTextSrc@@@@QBA_NXZ
??7?$AutoCleanup@V?$AutoRelease@UIWbemPath@@@@PAUIWbemPath@@@@QBA_NXZ
??7?$AutoCleanup@V?$AutoRelease@UIWbemPathKeyList@@@@PAUIWbemPathKeyList@@@@QBA_NXZ
??7?$AutoCleanup@V?$AutoRelease@UIWbemQualifierSet@@@@PAUIWbemQualifierSet@@@@QBA_NXZ
??7?$AutoCleanup@V?$AutoRelease@UIWbemQuery@@@@PAUIWbemQuery@@@@QBA_NXZ
??7?$AutoCleanup@V?$AutoRelease@UIWbemServices@@@@PAUIWbemServices@@@@QBA_NXZ
??7?$AutoCleanup@V?$AutoRelease@VCClientConfigSettings@@@@PAVCClientConfigSettings@@@@QBA_NXZ
??7?$AutoCleanup@V?$AutoRelease@VCConfigManager@@@@PAVCConfigManager@@@@QBA_NXZ
??7?$AutoCleanup@V?$AutoRelease@VCRemoteSession@@@@PAVCRemoteSession@@@@QBA_NXZ
??7?$AutoCleanup@V?$AutoRelease@VCRequestContext@@@@PAVCRequestContext@@@@QBA_NXZ
??7?$AutoCleanup@V?$AutoRelease@VCWSManEPR@@@@PAVCWSManEPR@@@@QBA_NXZ
??7?$AutoCleanup@V?$AutoRelease@VCWSManResource@@@@PAVCWSManResource@@@@QBA_NXZ
??7?$AutoCleanup@V?$AutoRelease@VCWinRSPluginConfigCache@@@@PAVCWinRSPluginConfigCache@@@@QBA_NXZ
??7?$AutoCleanup@V?$AutoRelease@VEnumSinkEx@@@@PAVEnumSinkEx@@@@QBA_NXZ
??7?$AutoCleanup@V?$AutoRelease@VGeneralSinkEx@@@@PAVGeneralSinkEx@@@@QBA_NXZ
??7?$AutoCleanup@V?$AutoRelease@VIRequestContext@@@@PAVIRequestContext@@@@QBA_NXZ
??7?$AutoCleanup@V?$AutoRelease@VInboundRequestDetails@@@@PAVInboundRequestDetails@@@@QBA_NXZ
??7?$AutoCleanup@VAutoBstrNoAlloc@@PAG@@QBA_NXZ
??7?$AutoCleanup@VAutoCertContext@@PBU_CERT_CONTEXT@@@@QBA_NXZ
??7?$AutoCleanup@VAutoHandle@@PAX@@QBA_NXZ
??7?$AutoCleanup@VAutoImpersonateUser@@PAX@@QBA_NXZ
??7?$AutoCleanup@VAutoMIClass@@PAU_MI_Class@@@@QBA_NXZ
??7?$AutoCleanup@VAutoRegKey@@PAUHKEY__@@@@QBA_NXZ
??7?$AutoCleanup@VAutoSecurityDescriptor@@PAX@@QBA_NXZ
??A?$SafeMap@UPluginKey@@KV?$SafeMap_Iterator@UPluginKey@@K@@@@QAAPAKABUPluginKey@@@Z
??A?$SafeMap@UUserKey@@PAVBlockedRecord@@V?$SafeMap_Iterator@UUserKey@@PAVBlockedRecord@@@@@@QAAPAPAVBlockedRecord@@ABUUserKey@@@Z
??A?$SafeMap@VCertThumbprintKey@@VCertThumbprintMappedSet@CServiceConfigSettings@@V?$SafeMap_Iterator@VCertThumbprintKey@@VCertThumbprintMappedSet@CServiceConfigSettings@@@@@@QAAPAVCertThumbprintMappedSet@CServiceConfigSettings@@ABVCertThumbprintKey@@@Z
??A?$SafeMap@VStringKeyCI@@KV?$SafeMap_Iterator@VStringKeyCI@@K@@@@QAAPAKABVStringKeyCI@@@Z
??A?$SafeMap@VStringKeyCI@@UUSER_CONTEXT_INFO@WSManHttpListener@@V?$SafeMap_Iterator@VStringKeyCI@@UUSER_CONTEXT_INFO@WSManHttpListener@@@@@@QAAPAUUSER_CONTEXT_INFO@WSManHttpListener@@ABVStringKeyCI@@@Z
??A?$SafeMap@VStringKeyStore@@PAVExpiredOperationIdRecord@@V?$SafeMap_Iterator@VStringKeyStore@@PAVExpiredOperationIdRecord@@@@@@QAAPAPAVExpiredOperationIdRecord@@ABVStringKeyStore@@@Z
??A?$SafeMap@VStringKeyStore@@PAVServerFullDuplexChannel@@V?$SafeMap_Iterator@VStringKeyStore@@PAVServerFullDuplexChannel@@@@@@QAAPAPAVServerFullDuplexChannel@@ABVStringKeyStore@@@Z
??A?$SafeMap@W4WSManSessionOption@@PAVOptionValue@SessionOptions@Client@WSMan@@V?$SafeMap_Iterator@W4WSManSessionOption@@PAVOptionValue@SessionOptions@Client@WSMan@@@@@@QAAPAPAVOptionValue@SessionOptions@Client@WSMan@@ABW4WSManSessionOption@@@Z
??A?$SafeMap@_KPAVSendPacketArgs@RobustConnectionBuffer@@V?$SafeMap_Iterator@_KPAVSendPacketArgs@RobustConnectionBuffer@@@@@@QAAPAPAVSendPacketArgs@RobustConnectionBuffer@@AB_K@Z
??A?$SafeSet@PAX@@QBAPBQAXABQAX@Z
??B?$AutoCleanup@V?$AutoDelete@D@@PAD@@QAAPADXZ
??B?$AutoCleanup@V?$AutoDelete@G@@PAG@@QAAPAGXZ
??B?$AutoCleanup@V?$AutoDelete@G@@PAG@@QBAQAGXZ
??B?$AutoCleanup@V?$AutoDelete@UIPRange@CWSManIPFilter@@@@PAUIPRange@CWSManIPFilter@@@@QAAPAUIPRange@CWSManIPFilter@@XZ
??B?$AutoCleanup@V?$AutoDelete@U_SID@@@@PAU_SID@@@@QAAPAU_SID@@XZ
??B?$AutoCleanup@V?$AutoDelete@U_WSMAN_STREAM_ID_SET@@@@PAU_WSMAN_STREAM_ID_SET@@@@QAAPAU_WSMAN_STREAM_ID_SET@@XZ
??B?$AutoCleanup@V?$AutoDelete@V?$Handle@VISubscription@@@@@@PAV?$Handle@VISubscription@@@@@@QAAPAV?$Handle@VISubscription@@@@XZ
??B?$AutoCleanup@V?$AutoDelete@V?$SafeMap_Iterator@VStringKeyCI@@K@@@@PAV?$SafeMap_Iterator@VStringKeyCI@@K@@@@QAAPAV?$SafeMap_Iterator@VStringKeyCI@@K@@XZ
??B?$AutoCleanup@V?$AutoDelete@V?$SafeMap_Iterator@W4WSManSessionOption@@PAVOptionValue@SessionOptions@Client@WSMan@@@@@@PAV?$SafeMap_Iterator@W4WSManSessionOption@@PAVOptionValue@SessionOptions@Client@WSMan@@@@@@QAAPAV?$SafeMap_Iterator@W4WSManSessionOption@@PAVOptionValue@SessionOptions@Client@WSMan@@@@XZ
??B?$AutoCleanup@V?$AutoDelete@V?$SafeSet@PAVCCertMapping@@@@@@PAV?$SafeSet@PAVCCertMapping@@@@@@QAAPAV?$SafeSet@PAVCCertMapping@@@@XZ
??B?$AutoCleanup@V?$AutoDelete@V?$SafeSet@PAVCShellUriSettings@@@@@@PAV?$SafeSet@PAVCShellUriSettings@@@@@@QAAPAV?$SafeSet@PAVCShellUriSettings@@@@XZ
??B?$AutoCleanup@V?$AutoDelete@V?$SafeSet_Iterator@PAVCListenerOperation@@@@@@PAV?$SafeSet_Iterator@PAVCListenerOperation@@@@@@QAAPAV?$SafeSet_Iterator@PAVCListenerOperation@@@@XZ
??B?$AutoCleanup@V?$AutoDelete@V?$set@PAVCListenerSettings@@VCListenerSettingsLessFunctor@CServiceConfigSettings@@V?$transport_allocator@PAVCListenerSettings@@@@@std@@@@PAV?$set@PAVCListenerSettings@@VCListenerSettingsLessFunctor@CServiceConfigSettings@@V?$transport_allocator@PAVCListenerSettings@@@@@std@@@@QAAPAV?$set@PAVCListenerSettings@@VCListenerSettingsLessFunctor@CServiceConfigSettings@@V?$transport_allocator@PAVCListenerSettings@@@@@std@@XZ
??B?$AutoCleanup@V?$AutoDelete@V?$set@Usockaddr_storage@@VSockAddrLessFunctor@CListenerSettings@@V?$transport_allocator@Usockaddr_storage@@@@@std@@@@PAV?$set@Usockaddr_storage@@VSockAddrLessFunctor@CListenerSettings@@V?$transport_allocator@Usockaddr_storage@@@@@std@@@@QAAPAV?$set@Usockaddr_storage@@VSockAddrLessFunctor@CListenerSettings@@V?$transport_allocator@Usockaddr_storage@@@@@std@@XZ
??B?$AutoCleanup@V?$AutoDelete@V?$vector@PAVHandleImpl@Client@WSMan@@V?$transport_allocator@PAVHandleImpl@Client@WSMan@@@@@std@@@@PAV?$vector@PAVHandleImpl@Client@WSMan@@V?$transport_allocator@PAVHandleImpl@Client@WSMan@@@@@std@@@@QAAPAV?$vector@PAVHandleImpl@Client@WSMan@@V?$transport_allocator@PAVHandleImpl@Client@WSMan@@@@@std@@XZ
??B?$AutoCleanup@V?$AutoDelete@V?$vector@PAVHandleImpl@Client@WSMan@@V?$transport_allocator@PAVHandleImpl@Client@WSMan@@@@@std@@@@PAV?$vector@PAVHandleImpl@Client@WSMan@@V?$transport_allocator@PAVHandleImpl@Client@WSMan@@@@@std@@@@QBAQAV?$vector@PAVHandleImpl@Client@WSMan@@V?$transport_allocator@PAVHandleImpl@Client@WSMan@@@@@std@@XZ
??B?$AutoCleanup@V?$AutoDelete@V?$vector@PAVIServiceConfigObserver@@V?$transport_allocator@PAVIServiceConfigObserver@@@@@std@@@@PAV?$vector@PAVIServiceConfigObserver@@V?$transport_allocator@PAVIServiceConfigObserver@@@@@std@@@@QAAPAV?$vector@PAVIServiceConfigObserver@@V?$transport_allocator@PAVIServiceConfigObserver@@@@@std@@XZ
??B?$AutoCleanup@V?$AutoDelete@VAdminSid@CSecurity@@@@PAVAdminSid@CSecurity@@@@QAAPAVAdminSid@CSecurity@@XZ
??B?$AutoCleanup@V?$AutoDelete@VBlockedRecord@@@@PAVBlockedRecord@@@@QAAPAVBlockedRecord@@XZ
??B?$AutoCleanup@V?$AutoDelete@VCBaseConfigCache@@@@PAVCBaseConfigCache@@@@QAAPAVCBaseConfigCache@@XZ
??B?$AutoCleanup@V?$AutoDelete@VCCertMapping@@@@PAVCCertMapping@@@@QAAPAVCCertMapping@@XZ
??B?$AutoCleanup@V?$AutoDelete@VCConfigChangeSource@@@@PAVCConfigChangeSource@@@@QAAPAVCConfigChangeSource@@XZ
??B?$AutoCleanup@V?$AutoDelete@VCListenerSettings@@@@PAVCListenerSettings@@@@QAAPAVCListenerSettings@@XZ
??B?$AutoCleanup@V?$AutoDelete@VCObserverConfigChangeErrors@@@@PAVCObserverConfigChangeErrors@@@@QAAPAVCObserverConfigChangeErrors@@XZ
??B?$AutoCleanup@V?$AutoDelete@VCServiceWatcher@CServiceConfigCache@@@@PAVCServiceWatcher@CServiceConfigCache@@@@QAAPAVCServiceWatcher@CServiceConfigCache@@XZ
??B?$AutoCleanup@V?$AutoDelete@VCShellUriSettings@@@@PAVCShellUriSettings@@@@QAAPAVCShellUriSettings@@XZ
??B?$AutoCleanup@V?$AutoDelete@VCWSManEPR@@@@PAVCWSManEPR@@@@QAAPAVCWSManEPR@@XZ
??B?$AutoCleanup@V?$AutoDelete@VCWSManResource@@@@PAVCWSManResource@@@@QAAPAVCWSManResource@@XZ
??B?$AutoCleanup@V?$AutoDelete@VCertHash@@@@PAVCertHash@@@@QAAPAVCertHash@@XZ
??B?$AutoCleanup@V?$AutoDelete@VConfigUpdate@@@@PAVConfigUpdate@@@@QAAPAVConfigUpdate@@XZ
??B?$AutoCleanup@V?$AutoDelete@VCredUIDllLoader@@@@PAVCredUIDllLoader@@@@QAAPAVCredUIDllLoader@@XZ
??B?$AutoCleanup@V?$AutoDelete@VEnumSinkEx@@@@PAVEnumSinkEx@@@@QAAPAVEnumSinkEx@@XZ
??B?$AutoCleanup@V?$AutoDelete@VEnumSinkEx@@@@PAVEnumSinkEx@@@@QBAQAVEnumSinkEx@@XZ
??B?$AutoCleanup@V?$AutoDelete@VEventHandler@WSMan@@@@PAVEventHandler@WSMan@@@@QAAPAVEventHandler@WSMan@@XZ
??B?$AutoCleanup@V?$AutoDelete@VExpiredOperationIdRecord@@@@PAVExpiredOperationIdRecord@@@@QAAPAVExpiredOperationIdRecord@@XZ
??B?$AutoCleanup@V?$AutoDelete@VGPApiManager@@@@PAVGPApiManager@@@@QAAPAVGPApiManager@@XZ
??B?$AutoCleanup@V?$AutoDelete@VGeneralSinkEx@@@@PAVGeneralSinkEx@@@@QAAPAVGeneralSinkEx@@XZ
??B?$AutoCleanup@V?$AutoDelete@VGeneralSinkEx@@@@PAVGeneralSinkEx@@@@QBAQAVGeneralSinkEx@@XZ
??B?$AutoCleanup@V?$AutoDelete@VIChannelObserverFactory@@@@PAVIChannelObserverFactory@@@@QAAPAVIChannelObserverFactory@@XZ
??B?$AutoCleanup@V?$AutoDelete@VIQueryDASHSMASHInterface@@@@PAVIQueryDASHSMASHInterface@@@@QAAPAVIQueryDASHSMASHInterface@@XZ
??B?$AutoCleanup@V?$AutoDelete@VIQueryDASHSMASHInterface@@@@PAVIQueryDASHSMASHInterface@@@@QBAQAVIQueryDASHSMASHInterface@@XZ
??B?$AutoCleanup@V?$AutoDelete@VISpecification@@@@PAVISpecification@@@@QAAPAVISpecification@@XZ
??B?$AutoCleanup@V?$AutoDelete@VISpecification@@@@PAVISpecification@@@@QBAQAVISpecification@@XZ
??B?$AutoCleanup@V?$AutoDelete@VInteractiveSid@CSecurity@@@@PAVInteractiveSid@CSecurity@@@@QAAPAVInteractiveSid@CSecurity@@XZ
??B?$AutoCleanup@V?$AutoDelete@VIpHlpApiDllLoader@@@@PAVIpHlpApiDllLoader@@@@QAAPAVIpHlpApiDllLoader@@XZ
??B?$AutoCleanup@V?$AutoDelete@VMachineName@@@@PAVMachineName@@@@QAAPAVMachineName@@XZ
??B?$AutoCleanup@V?$AutoDelete@VNetworkServiceSid@CSecurity@@@@PAVNetworkServiceSid@CSecurity@@@@QAAPAVNetworkServiceSid@CSecurity@@XZ
??B?$AutoCleanup@V?$AutoDelete@VNtDsApiDllLoader@@@@PAVNtDsApiDllLoader@@@@QAAPAVNtDsApiDllLoader@@XZ
??B?$AutoCleanup@V?$AutoDelete@VOptionValue@SessionOptions@Client@WSMan@@@@PAVOptionValue@SessionOptions@Client@WSMan@@@@QAAPAVOptionValue@SessionOptions@Client@WSMan@@XZ
??B?$AutoCleanup@V?$AutoDelete@VPacketCreator@@@@PAVPacketCreator@@@@QAAPAVPacketCreator@@XZ
??B?$AutoCleanup@V?$AutoDelete@VPacketParser@@@@PAVPacketParser@@@@QAAPAVPacketParser@@XZ
??B?$AutoCleanup@V?$AutoDelete@VResources@Locale@@@@PAVResources@Locale@@@@QAAPAVResources@Locale@@XZ
??B?$AutoCleanup@V?$AutoDelete@VSecurityEntry@Catalog@@@@PAVSecurityEntry@Catalog@@@@QAAPAVSecurityEntry@Catalog@@XZ
??B?$AutoCleanup@V?$AutoDelete@VServiceSoapProcessor@@@@PAVServiceSoapProcessor@@@@QAAPAVServiceSoapProcessor@@XZ
??B?$AutoCleanup@V?$AutoDelete@VShell32DllLoader@@@@PAVShell32DllLoader@@@@QAAPAVShell32DllLoader@@XZ
??B?$AutoCleanup@V?$AutoDelete@VShlWApiDllLoader@@@@PAVShlWApiDllLoader@@@@QAAPAVShlWApiDllLoader@@XZ
??B?$AutoCleanup@V?$AutoDelete@VSubscriptionManager@@@@PAVSubscriptionManager@@@@QAAPAVSubscriptionManager@@XZ
??B?$AutoCleanup@V?$AutoDelete@VTSTRBUFFER@@@@PAVTSTRBUFFER@@@@QAAPAVTSTRBUFFER@@XZ
??B?$AutoCleanup@V?$AutoDelete@VTSTRBUFFER@@@@PAVTSTRBUFFER@@@@QBAQAVTSTRBUFFER@@XZ
??B?$AutoCleanup@V?$AutoDelete@VUniqueStringOverflow@@@@PAVUniqueStringOverflow@@@@QAAPAVUniqueStringOverflow@@XZ
??B?$AutoCleanup@V?$AutoDelete@VUser32DllLoader@@@@PAVUser32DllLoader@@@@QAAPAVUser32DllLoader@@XZ
??B?$AutoCleanup@V?$AutoDelete@VWSMANCONFIGTABLE_IDENTITY@@@@PAVWSMANCONFIGTABLE_IDENTITY@@@@QAAPAVWSMANCONFIGTABLE_IDENTITY@@XZ
??B?$AutoCleanup@V?$AutoDelete@VWSManMemCryptManager@@@@PAVWSManMemCryptManager@@@@QAAPAVWSManMemCryptManager@@XZ
??B?$AutoCleanup@V?$AutoDelete@VWmiEnumContext@@@@PAVWmiEnumContext@@@@QAAPAVWmiEnumContext@@XZ
??B?$AutoCleanup@V?$AutoDelete@VWmiEnumContext@@@@PAVWmiEnumContext@@@@QBAQAVWmiEnumContext@@XZ
??B?$AutoCleanup@V?$AutoDelete@VXmlReader@@@@PAVXmlReader@@@@QAAPAVXmlReader@@XZ
??B?$AutoCleanup@V?$AutoDeleteVector@$$CBG@@PBG@@QAAPBGXZ
??B?$AutoCleanup@V?$AutoDeleteVector@D@@PAD@@QAAPADXZ
??B?$AutoCleanup@V?$AutoDeleteVector@E@@PAE@@QAAPAEXZ
??B?$AutoCleanup@V?$AutoDeleteVector@E@@PAE@@QBAQAEXZ
??B?$AutoCleanup@V?$AutoDeleteVector@G@@PAG@@QAAPAGXZ
??B?$AutoCleanup@V?$AutoDeleteVector@G@@PAG@@QBAQAGXZ
??B?$AutoCleanup@V?$AutoDeleteVector@H@@PAH@@QAAPAHXZ
??B?$AutoCleanup@V?$AutoDeleteVector@PAG@@PAPAG@@QAAPAPAGXZ
??B?$AutoCleanup@V?$AutoDeleteVector@PAG@@PAPAG@@QBAQAPAGXZ
??B?$AutoCleanup@V?$AutoDeleteVector@PBG@@PAPBG@@QAAPAPBGXZ
??B?$AutoCleanup@V?$AutoDeleteVector@PBG@@PAPBG@@QBAQAPBGXZ
??B?$AutoCleanup@V?$AutoDeleteVector@U_CONFIG_UPDATE@@@@PAU_CONFIG_UPDATE@@@@QAAPAU_CONFIG_UPDATE@@XZ
??B?$AutoCleanup@V?$AutoDeleteVector@U_WINRS_CREATE_SHELL_ENVIRONMENT_VARIABLE@@@@PAU_WINRS_CREATE_SHELL_ENVIRONMENT_VARIABLE@@@@QAAPAU_WINRS_CREATE_SHELL_ENVIRONMENT_VARIABLE@@XZ
??B?$AutoCleanup@V?$AutoDeleteVector@U_WINRS_CREATE_SHELL_ENVIRONMENT_VARIABLE@@@@PAU_WINRS_CREATE_SHELL_ENVIRONMENT_VARIABLE@@@@QBAQAU_WINRS_CREATE_SHELL_ENVIRONMENT_VARIABLE@@XZ
??B?$AutoCleanup@V?$AutoDeleteVector@U_WINRS_RUN_COMMAND_ARG@@@@PAU_WINRS_RUN_COMMAND_ARG@@@@QAAPAU_WINRS_RUN_COMMAND_ARG@@XZ
??B?$AutoCleanup@V?$AutoDeleteVector@U_WINRS_RUN_COMMAND_ARG@@@@PAU_WINRS_RUN_COMMAND_ARG@@@@QBAQAU_WINRS_RUN_COMMAND_ARG@@XZ
??B?$AutoCleanup@V?$AutoDeleteVector@U_WSMAN_OPTION@@@@PAU_WSMAN_OPTION@@@@QAAPAU_WSMAN_OPTION@@XZ
??B?$AutoCleanup@V?$AutoDeleteVector@X@@PAX@@QAAPAXXZ
??B?$AutoCleanup@V?$AutoFree@E@@PAE@@QAAPAEXZ
??B?$AutoCleanup@V?$AutoFree@E@@PAE@@QBAQAEXZ
??B?$AutoCleanup@V?$AutoLocklessItemRecycle@VPacket@@@@PAVPacket@@@@QAAPAVPacket@@XZ
??B?$AutoCleanup@V?$AutoRelease@UIAppHostChildElementCollection@@@@PAUIAppHostChildElementCollection@@@@QAAPAUIAppHostChildElementCollection@@XZ
??B?$AutoCleanup@V?$AutoRelease@UIAppHostElement@@@@PAUIAppHostElement@@@@QAAPAUIAppHostElement@@XZ
??B?$AutoCleanup@V?$AutoRelease@UIAppHostElementCollection@@@@PAUIAppHostElementCollection@@@@QAAPAUIAppHostElementCollection@@XZ
??B?$AutoCleanup@V?$AutoRelease@UIClientSecurity@@@@PAUIClientSecurity@@@@QAAPAUIClientSecurity@@XZ
??B?$AutoCleanup@V?$AutoRelease@UIClientSecurity@@@@PAUIClientSecurity@@@@QBAQAUIClientSecurity@@XZ
??B?$AutoCleanup@V?$AutoRelease@UIEnumWbemClassObject@@@@PAUIEnumWbemClassObject@@@@QAAPAUIEnumWbemClassObject@@XZ
??B?$AutoCleanup@V?$AutoRelease@UIEnumWbemClassObject@@@@PAUIEnumWbemClassObject@@@@QBAQAUIEnumWbemClassObject@@XZ
??B?$AutoCleanup@V?$AutoRelease@UIErrorInfo@@@@PAUIErrorInfo@@@@QAAPAUIErrorInfo@@XZ
??B?$AutoCleanup@V?$AutoRelease@UIErrorInfo@@@@PAUIErrorInfo@@@@QBAQAUIErrorInfo@@XZ
??B?$AutoCleanup@V?$AutoRelease@UIUnknown@@@@PAUIUnknown@@@@QAAPAUIUnknown@@XZ
??B?$AutoCleanup@V?$AutoRelease@UIUnknown@@@@PAUIUnknown@@@@QBAQAUIUnknown@@XZ
??B?$AutoCleanup@V?$AutoRelease@UIWbemClassObject@@@@PAUIWbemClassObject@@@@QAAPAUIWbemClassObject@@XZ
??B?$AutoCleanup@V?$AutoRelease@UIWbemClassObject@@@@PAUIWbemClassObject@@@@QBAQAUIWbemClassObject@@XZ
??B?$AutoCleanup@V?$AutoRelease@UIWbemContext@@@@PAUIWbemContext@@@@QAAPAUIWbemContext@@XZ
??B?$AutoCleanup@V?$AutoRelease@UIWbemContext@@@@PAUIWbemContext@@@@QBAQAUIWbemContext@@XZ
??B?$AutoCleanup@V?$AutoRelease@UIWbemLocator@@@@PAUIWbemLocator@@@@QAAPAUIWbemLocator@@XZ
??B?$AutoCleanup@V?$AutoRelease@UIWbemLocator@@@@PAUIWbemLocator@@@@QBAQAUIWbemLocator@@XZ
??B?$AutoCleanup@V?$AutoRelease@UIWbemObjectTextSrc@@@@PAUIWbemObjectTextSrc@@@@QAAPAUIWbemObjectTextSrc@@XZ
??B?$AutoCleanup@V?$AutoRelease@UIWbemObjectTextSrc@@@@PAUIWbemObjectTextSrc@@@@QBAQAUIWbemObjectTextSrc@@XZ
??B?$AutoCleanup@V?$AutoRelease@UIWbemPath@@@@PAUIWbemPath@@@@QAAPAUIWbemPath@@XZ
??B?$AutoCleanup@V?$AutoRelease@UIWbemPath@@@@PAUIWbemPath@@@@QBAQAUIWbemPath@@XZ
??B?$AutoCleanup@V?$AutoRelease@UIWbemPathKeyList@@@@PAUIWbemPathKeyList@@@@QAAPAUIWbemPathKeyList@@XZ
??B?$AutoCleanup@V?$AutoRelease@UIWbemPathKeyList@@@@PAUIWbemPathKeyList@@@@QBAQAUIWbemPathKeyList@@XZ
??B?$AutoCleanup@V?$AutoRelease@UIWbemQualifierSet@@@@PAUIWbemQualifierSet@@@@QAAPAUIWbemQualifierSet@@XZ
??B?$AutoCleanup@V?$AutoRelease@UIWbemQualifierSet@@@@PAUIWbemQualifierSet@@@@QBAQAUIWbemQualifierSet@@XZ
??B?$AutoCleanup@V?$AutoRelease@UIWbemQuery@@@@PAUIWbemQuery@@@@QAAPAUIWbemQuery@@XZ
??B?$AutoCleanup@V?$AutoRelease@UIWbemQuery@@@@PAUIWbemQuery@@@@QBAQAUIWbemQuery@@XZ
??B?$AutoCleanup@V?$AutoRelease@UIWbemServices@@@@PAUIWbemServices@@@@QAAPAUIWbemServices@@XZ
??B?$AutoCleanup@V?$AutoRelease@UIWbemServices@@@@PAUIWbemServices@@@@QBAQAUIWbemServices@@XZ
??B?$AutoCleanup@V?$AutoRelease@VCBaseConfigCache@@@@PAVCBaseConfigCache@@@@QAAPAVCBaseConfigCache@@XZ
??B?$AutoCleanup@V?$AutoRelease@VCClientConfigSettings@@@@PAVCClientConfigSettings@@@@QAAPAVCClientConfigSettings@@XZ
??B?$AutoCleanup@V?$AutoRelease@VCCommonConfigSettings@@@@PAVCCommonConfigSettings@@@@QAAPAVCCommonConfigSettings@@XZ
??B?$AutoCleanup@V?$AutoRelease@VCConfigCacheMap@CBaseConfigCache@@@@PAVCConfigCacheMap@CBaseConfigCache@@@@QAAPAVCConfigCacheMap@CBaseConfigCache@@XZ
??B?$AutoCleanup@V?$AutoRelease@VCConfigManager@@@@PAVCConfigManager@@@@QAAPAVCConfigManager@@XZ
??B?$AutoCleanup@V?$AutoRelease@VCRemoteSession@@@@PAVCRemoteSession@@@@QAAPAVCRemoteSession@@XZ
??B?$AutoCleanup@V?$AutoRelease@VCRequestContext@@@@PAVCRequestContext@@@@QAAPAVCRequestContext@@XZ
??B?$AutoCleanup@V?$AutoRelease@VCServiceCommonConfigSettings@@@@PAVCServiceCommonConfigSettings@@@@QAAPAVCServiceCommonConfigSettings@@XZ
??B?$AutoCleanup@V?$AutoRelease@VCServiceConfigCache@@@@PAVCServiceConfigCache@@@@QAAPAVCServiceConfigCache@@XZ
??B?$AutoCleanup@V?$AutoRelease@VCServiceConfigSettings@@@@PAVCServiceConfigSettings@@@@QAAPAVCServiceConfigSettings@@XZ
??B?$AutoCleanup@V?$AutoRelease@VCWSManEPR@@@@PAVCWSManEPR@@@@QAAPAVCWSManEPR@@XZ
??B?$AutoCleanup@V?$AutoRelease@VCWSManEPR@@@@PAVCWSManEPR@@@@QBAQAVCWSManEPR@@XZ
??B?$AutoCleanup@V?$AutoRelease@VCWSManGroupPolicyCache@@@@PAVCWSManGroupPolicyCache@@@@QAAPAVCWSManGroupPolicyCache@@XZ
??B?$AutoCleanup@V?$AutoRelease@VCWSManGroupPolicyManager@@@@PAVCWSManGroupPolicyManager@@@@QAAPAVCWSManGroupPolicyManager@@XZ
??B?$AutoCleanup@V?$AutoRelease@VCWSManObject@@@@PAVCWSManObject@@@@QAAPAVCWSManObject@@XZ
??B?$AutoCleanup@V?$AutoRelease@VCWSManResource@@@@PAVCWSManResource@@@@QAAPAVCWSManResource@@XZ
??B?$AutoCleanup@V?$AutoRelease@VCWSManResource@@@@PAVCWSManResource@@@@QBAQAVCWSManResource@@XZ
??B?$AutoCleanup@V?$AutoRelease@VCWinRSPluginConfigCache@@@@PAVCWinRSPluginConfigCache@@@@QAAPAVCWinRSPluginConfigCache@@XZ
??B?$AutoCleanup@V?$AutoRelease@VCWinRSPluginConfigCache@@@@PAVCWinRSPluginConfigCache@@@@QBAQAVCWinRSPluginConfigCache@@XZ
??B?$AutoCleanup@V?$AutoRelease@VCWinRSPluginConfigSettings@@@@PAVCWinRSPluginConfigSettings@@@@QAAPAVCWinRSPluginConfigSettings@@XZ
??B?$AutoCleanup@V?$AutoRelease@VCommand@Client@WSMan@@@@PAVCommand@Client@WSMan@@@@QAAPAVCommand@Client@WSMan@@XZ
??B?$AutoCleanup@V?$AutoRelease@VConfigNotification@@@@PAVConfigNotification@@@@QAAPAVConfigNotification@@XZ
??B?$AutoCleanup@V?$AutoRelease@VConnectShellOperation@Client@WSMan@@@@PAVConnectShellOperation@Client@WSMan@@@@QAAPAVConnectShellOperation@Client@WSMan@@XZ
??B?$AutoCleanup@V?$AutoRelease@VCreateShellOperation@Client@WSMan@@@@PAVCreateShellOperation@Client@WSMan@@@@QAAPAVCreateShellOperation@Client@WSMan@@XZ
??B?$AutoCleanup@V?$AutoRelease@VDeleteShellOperation@Client@WSMan@@@@PAVDeleteShellOperation@Client@WSMan@@@@QAAPAVDeleteShellOperation@Client@WSMan@@XZ
??B?$AutoCleanup@V?$AutoRelease@VDisconnectOperation@Client@WSMan@@@@PAVDisconnectOperation@Client@WSMan@@@@QAAPAVDisconnectOperation@Client@WSMan@@XZ
??B?$AutoCleanup@V?$AutoRelease@VEnumSinkEx@@@@PAVEnumSinkEx@@@@QAAPAVEnumSinkEx@@XZ
??B?$AutoCleanup@V?$AutoRelease@VEnumSinkEx@@@@PAVEnumSinkEx@@@@QBAQAVEnumSinkEx@@XZ
??B?$AutoCleanup@V?$AutoRelease@VGeneralSinkEx@@@@PAVGeneralSinkEx@@@@QAAPAVGeneralSinkEx@@XZ
??B?$AutoCleanup@V?$AutoRelease@VGeneralSinkEx@@@@PAVGeneralSinkEx@@@@QBAQAVGeneralSinkEx@@XZ
??B?$AutoCleanup@V?$AutoRelease@VIISConfigSettings@@@@PAVIISConfigSettings@@@@QAAPAVIISConfigSettings@@XZ
??B?$AutoCleanup@V?$AutoRelease@VIPCSoapProcessor@@@@PAVIPCSoapProcessor@@@@QAAPAVIPCSoapProcessor@@XZ
??B?$AutoCleanup@V?$AutoRelease@VIRequestContext@@@@PAVIRequestContext@@@@QAAPAVIRequestContext@@XZ
??B?$AutoCleanup@V?$AutoRelease@VIRequestContext@@@@PAVIRequestContext@@@@QBAQAVIRequestContext@@XZ
??B?$AutoCleanup@V?$AutoRelease@VISubscription@@@@PAVISubscription@@@@QAAPAVISubscription@@XZ
??B?$AutoCleanup@V?$AutoRelease@VInboundRequestDetails@@@@PAVInboundRequestDetails@@@@QAAPAVInboundRequestDetails@@XZ
??B?$AutoCleanup@V?$AutoRelease@VInboundRequestDetails@@@@PAVInboundRequestDetails@@@@QBAQAVInboundRequestDetails@@XZ
??B?$AutoCleanup@V?$AutoRelease@VReceiveOperation@Client@WSMan@@@@PAVReceiveOperation@Client@WSMan@@@@QAAPAVReceiveOperation@Client@WSMan@@XZ
??B?$AutoCleanup@V?$AutoRelease@VReconnectOperation@Client@WSMan@@@@PAVReconnectOperation@Client@WSMan@@@@QAAPAVReconnectOperation@Client@WSMan@@XZ
??B?$AutoCleanup@V?$AutoRelease@VSendOperation@Client@WSMan@@@@PAVSendOperation@Client@WSMan@@@@QAAPAVSendOperation@Client@WSMan@@XZ
??B?$AutoCleanup@V?$AutoRelease@VShell@Client@WSMan@@@@PAVShell@Client@WSMan@@@@QAAPAVShell@Client@WSMan@@XZ
??B?$AutoCleanup@V?$AutoRelease@VShell@Client@WSMan@@@@PAVShell@Client@WSMan@@@@QBAQAVShell@Client@WSMan@@XZ
??B?$AutoCleanup@V?$AutoRelease@VSignalOperation@Client@WSMan@@@@PAVSignalOperation@Client@WSMan@@@@QAAPAVSignalOperation@Client@WSMan@@XZ
??B?$AutoCleanup@V?$AutoRelease@VUserRecord@@@@PAVUserRecord@@@@QAAPAVUserRecord@@XZ
??B?$AutoCleanup@V?$AutoRelease@VUserRecord@@@@PAVUserRecord@@@@QBAQAVUserRecord@@XZ
??B?$AutoCleanup@VAutoBstr@@PAG@@QAAPAGXZ
??B?$AutoCleanup@VAutoBstrNoAlloc@@PAG@@QAAPAGXZ
??B?$AutoCleanup@VAutoBstrNoAlloc@@PAG@@QBAQAGXZ
??B?$AutoCleanup@VAutoCertContext@@PBU_CERT_CONTEXT@@@@QAAPBU_CERT_CONTEXT@@XZ
??B?$AutoCleanup@VAutoHandle@@PAX@@QAAPAXXZ
??B?$AutoCleanup@VAutoHandle@@PAX@@QBAQAXXZ
??B?$AutoCleanup@VAutoImpersonateUser@@PAX@@QAAPAXXZ
??B?$AutoCleanup@VAutoImpersonateUser@@PAX@@QBAQAXXZ
??B?$AutoCleanup@VAutoLibrary@@PAUHINSTANCE__@@@@QAAPAUHINSTANCE__@@XZ
??B?$AutoCleanup@VAutoLocalFree@@PAX@@QAAPAXXZ
??B?$AutoCleanup@VAutoMIClass@@PAU_MI_Class@@@@QAAPAU_MI_Class@@XZ
??B?$AutoCleanup@VAutoMIInstance@@PAU_MI_Instance@@@@QAAPAU_MI_Instance@@XZ
??B?$AutoCleanup@VAutoRegKey@@PAUHKEY__@@@@QAAPAUHKEY__@@XZ
??B?$AutoCleanup@VAutoSecurityDescriptor@@PAX@@QAAPAXXZ
??B?$SafeMap_Iterator@PAVCCertMapping@@UEmpty@@@@QBA_NXZ
??B?$SafeMap_Iterator@PAVCListenerOperation@@UEmpty@@@@QBA_NXZ
??B?$SafeMap_Iterator@PAVCShellUriSettings@@UEmpty@@@@QBA_NXZ
??B?$SafeMap_Iterator@VCertThumbprintKey@@VCertThumbprintMappedSet@CServiceConfigSettings@@@@QBA_NXZ
??B?$SafeMap_Iterator@VKey@Locale@@K@@QBA_NXZ
??B?$SafeMap_Iterator@VStringKeyCI@@K@@QBA_NXZ
??B?$SafeMap_Iterator@VStringKeyCI@@UUSER_CONTEXT_INFO@WSManHttpListener@@@@QBA_NXZ
??B?$SafeMap_Iterator@VStringKeyStore@@PAVExpiredOperationIdRecord@@@@QBA_NXZ
??B?$SafeMap_Iterator@W4WSManSessionOption@@PAVOptionValue@SessionOptions@Client@WSMan@@@@QBA_NXZ
??C?$AutoCleanup@V?$AutoDelete@U_WSMAN_STREAM_ID_SET@@@@PAU_WSMAN_STREAM_ID_SET@@@@QAAPAU_WSMAN_STREAM_ID_SET@@XZ
??C?$AutoCleanup@V?$AutoDelete@V?$Handle@VISubscription@@@@@@PAV?$Handle@VISubscription@@@@@@QAAPAV?$Handle@VISubscription@@@@XZ
??C?$AutoCleanup@V?$AutoDelete@V?$SafeMap_Iterator@VStringKeyCI@@K@@@@PAV?$SafeMap_Iterator@VStringKeyCI@@K@@@@QAAPAV?$SafeMap_Iterator@VStringKeyCI@@K@@XZ
??C?$AutoCleanup@V?$AutoDelete@V?$SafeMap_Iterator@W4WSManSessionOption@@PAVOptionValue@SessionOptions@Client@WSMan@@@@@@PAV?$SafeMap_Iterator@W4WSManSessionOption@@PAVOptionValue@SessionOptions@Client@WSMan@@@@@@QAAPAV?$SafeMap_Iterator@W4WSManSessionOption@@PAVOptionValue@SessionOptions@Client@WSMan@@@@XZ
??C?$AutoCleanup@V?$AutoDelete@V?$SafeSet@PAVCCertMapping@@@@@@PAV?$SafeSet@PAVCCertMapping@@@@@@QAAPAV?$SafeSet@PAVCCertMapping@@@@XZ
??C?$AutoCleanup@V?$AutoDelete@V?$SafeSet@PAVCShellUriSettings@@@@@@PAV?$SafeSet@PAVCShellUriSettings@@@@@@QAAPAV?$SafeSet@PAVCShellUriSettings@@@@XZ
??C?$AutoCleanup@V?$AutoDelete@V?$SafeSet_Iterator@PAVCListenerOperation@@@@@@PAV?$SafeSet_Iterator@PAVCListenerOperation@@@@@@QAAPAV?$SafeSet_Iterator@PAVCListenerOperation@@@@XZ
??C?$AutoCleanup@V?$AutoDelete@V?$set@PAVCListenerSettings@@VCListenerSettingsLessFunctor@CServiceConfigSettings@@V?$transport_allocator@PAVCListenerSettings@@@@@std@@@@PAV?$set@PAVCListenerSettings@@VCListenerSettingsLessFunctor@CServiceConfigSettings@@V?$transport_allocator@PAVCListenerSettings@@@@@std@@@@QAAPAV?$set@PAVCListenerSettings@@VCListenerSettingsLessFunctor@CServiceConfigSettings@@V?$transport_allocator@PAVCListenerSettings@@@@@std@@XZ
??C?$AutoCleanup@V?$AutoDelete@V?$set@Usockaddr_storage@@VSockAddrLessFunctor@CListenerSettings@@V?$transport_allocator@Usockaddr_storage@@@@@std@@@@PAV?$set@Usockaddr_storage@@VSockAddrLessFunctor@CListenerSettings@@V?$transport_allocator@Usockaddr_storage@@@@@std@@@@QAAPAV?$set@Usockaddr_storage@@VSockAddrLessFunctor@CListenerSettings@@V?$transport_allocator@Usockaddr_storage@@@@@std@@XZ
??C?$AutoCleanup@V?$AutoDelete@V?$vector@PAVHandleImpl@Client@WSMan@@V?$transport_allocator@PAVHandleImpl@Client@WSMan@@@@@std@@@@PAV?$vector@PAVHandleImpl@Client@WSMan@@V?$transport_allocator@PAVHandleImpl@Client@WSMan@@@@@std@@@@QAAPAV?$vector@PAVHandleImpl@Client@WSMan@@V?$transport_allocator@PAVHandleImpl@Client@WSMan@@@@@std@@XZ
??C?$AutoCleanup@V?$AutoDelete@V?$vector@PAVIServiceConfigObserver@@V?$transport_allocator@PAVIServiceConfigObserver@@@@@std@@@@PAV?$vector@PAVIServiceConfigObserver@@V?$transport_allocator@PAVIServiceConfigObserver@@@@@std@@@@QAAPAV?$vector@PAVIServiceConfigObserver@@V?$transport_allocator@PAVIServiceConfigObserver@@@@@std@@XZ
??C?$AutoCleanup@V?$AutoDelete@VBlockedRecord@@@@PAVBlockedRecord@@@@QAAPAVBlockedRecord@@XZ
??C?$AutoCleanup@V?$AutoDelete@VCBaseConfigCache@@@@PAVCBaseConfigCache@@@@QAAPAVCBaseConfigCache@@XZ
??C?$AutoCleanup@V?$AutoDelete@VCCertMapping@@@@PAVCCertMapping@@@@QAAPAVCCertMapping@@XZ
??C?$AutoCleanup@V?$AutoDelete@VCConfigChangeSource@@@@PAVCConfigChangeSource@@@@QAAPAVCConfigChangeSource@@XZ
??C?$AutoCleanup@V?$AutoDelete@VCListenerSettings@@@@PAVCListenerSettings@@@@QAAPAVCListenerSettings@@XZ
??C?$AutoCleanup@V?$AutoDelete@VCServiceWatcher@CServiceConfigCache@@@@PAVCServiceWatcher@CServiceConfigCache@@@@QAAPAVCServiceWatcher@CServiceConfigCache@@XZ
??C?$AutoCleanup@V?$AutoDelete@VCShellUriSettings@@@@PAVCShellUriSettings@@@@QAAPAVCShellUriSettings@@XZ
??C?$AutoCleanup@V?$AutoDelete@VCWSManEPR@@@@PAVCWSManEPR@@@@QAAPAVCWSManEPR@@XZ
??C?$AutoCleanup@V?$AutoDelete@VCWSManResource@@@@PAVCWSManResource@@@@QAAPAVCWSManResource@@XZ
??C?$AutoCleanup@V?$AutoDelete@VCertHash@@@@PAVCertHash@@@@QAAPAVCertHash@@XZ
??C?$AutoCleanup@V?$AutoDelete@VConfigUpdate@@@@PAVConfigUpdate@@@@QAAPAVConfigUpdate@@XZ
??C?$AutoCleanup@V?$AutoDelete@VEnumSinkEx@@@@PAVEnumSinkEx@@@@QAAPAVEnumSinkEx@@XZ
??C?$AutoCleanup@V?$AutoDelete@VEnumSinkEx@@@@PAVEnumSinkEx@@@@QBAQAVEnumSinkEx@@XZ
??C?$AutoCleanup@V?$AutoDelete@VExpiredOperationIdRecord@@@@PAVExpiredOperationIdRecord@@@@QAAPAVExpiredOperationIdRecord@@XZ
??C?$AutoCleanup@V?$AutoDelete@VGPApiManager@@@@PAVGPApiManager@@@@QAAPAVGPApiManager@@XZ
??C?$AutoCleanup@V?$AutoDelete@VGeneralSinkEx@@@@PAVGeneralSinkEx@@@@QAAPAVGeneralSinkEx@@XZ
??C?$AutoCleanup@V?$AutoDelete@VGeneralSinkEx@@@@PAVGeneralSinkEx@@@@QBAQAVGeneralSinkEx@@XZ
??C?$AutoCleanup@V?$AutoDelete@VIChannelObserverFactory@@@@PAVIChannelObserverFactory@@@@QAAPAVIChannelObserverFactory@@XZ
??C?$AutoCleanup@V?$AutoDelete@VIQueryDASHSMASHInterface@@@@PAVIQueryDASHSMASHInterface@@@@QAAPAVIQueryDASHSMASHInterface@@XZ
??C?$AutoCleanup@V?$AutoDelete@VIQueryDASHSMASHInterface@@@@PAVIQueryDASHSMASHInterface@@@@QBAQAVIQueryDASHSMASHInterface@@XZ
??C?$AutoCleanup@V?$AutoDelete@VISpecification@@@@PAVISpecification@@@@QAAPAVISpecification@@XZ
??C?$AutoCleanup@V?$AutoDelete@VISpecification@@@@PAVISpecification@@@@QBAQAVISpecification@@XZ
??C?$AutoCleanup@V?$AutoDelete@VMasterReceiveData@CListenerReceive@@@@PAVMasterReceiveData@CListenerReceive@@@@QAAPAVMasterReceiveData@CListenerReceive@@XZ
??C?$AutoCleanup@V?$AutoDelete@VOptionValue@SessionOptions@Client@WSMan@@@@PAVOptionValue@SessionOptions@Client@WSMan@@@@QAAPAVOptionValue@SessionOptions@Client@WSMan@@XZ
??C?$AutoCleanup@V?$AutoDelete@VPacketCreator@@@@PAVPacketCreator@@@@QAAPAVPacketCreator@@XZ
??C?$AutoCleanup@V?$AutoDelete@VPacketParser@@@@PAVPacketParser@@@@QAAPAVPacketParser@@XZ
??C?$AutoCleanup@V?$AutoDelete@VRunAsConfiguration@@@@PAVRunAsConfiguration@@@@QAAPAVRunAsConfiguration@@XZ
??C?$AutoCleanup@V?$AutoDelete@VSecurityEntry@Catalog@@@@PAVSecurityEntry@Catalog@@@@QAAPAVSecurityEntry@Catalog@@XZ
??C?$AutoCleanup@V?$AutoDelete@VSendPacketArgs@RobustConnectionBuffer@@@@PAVSendPacketArgs@RobustConnectionBuffer@@@@QAAPAVSendPacketArgs@RobustConnectionBuffer@@XZ
??C?$AutoCleanup@V?$AutoDelete@VServiceSoapProcessor@@@@PAVServiceSoapProcessor@@@@QAAPAVServiceSoapProcessor@@XZ
??C?$AutoCleanup@V?$AutoDelete@VSubscriptionEnumerator@@@@PAVSubscriptionEnumerator@@@@QAAPAVSubscriptionEnumerator@@XZ
??C?$AutoCleanup@V?$AutoDelete@VTSTRBUFFER@@@@PAVTSTRBUFFER@@@@QAAPAVTSTRBUFFER@@XZ
??C?$AutoCleanup@V?$AutoDelete@VTSTRBUFFER@@@@PAVTSTRBUFFER@@@@QBAQAVTSTRBUFFER@@XZ
??C?$AutoCleanup@V?$AutoDelete@VUniqueStringOverflow@@@@PAVUniqueStringOverflow@@@@QAAPAVUniqueStringOverflow@@XZ
??C?$AutoCleanup@V?$AutoDelete@VWSMANCONFIGTABLE_IDENTITY@@@@PAVWSMANCONFIGTABLE_IDENTITY@@@@QAAPAVWSMANCONFIGTABLE_IDENTITY@@XZ
??C?$AutoCleanup@V?$AutoDelete@VWmiEnumContext@@@@PAVWmiEnumContext@@@@QAAPAVWmiEnumContext@@XZ
??C?$AutoCleanup@V?$AutoDelete@VWmiEnumContext@@@@PAVWmiEnumContext@@@@QBAQAVWmiEnumContext@@XZ
??C?$AutoCleanup@V?$AutoDelete@VXmlReader@@@@PAVXmlReader@@@@QAAPAVXmlReader@@XZ
??C?$AutoCleanup@V?$AutoDeleteVector@E@@PAE@@QAAPAEXZ
??C?$AutoCleanup@V?$AutoDeleteVector@E@@PAE@@QBAQAEXZ
??C?$AutoCleanup@V?$AutoDeleteVector@G@@PAG@@QAAPAGXZ
??C?$AutoCleanup@V?$AutoDeleteVector@G@@PAG@@QBAQAGXZ
??C?$AutoCleanup@V?$AutoDeleteVector@PAG@@PAPAG@@QAAPAPAGXZ
??C?$AutoCleanup@V?$AutoDeleteVector@PAG@@PAPAG@@QBAQAPAGXZ
??C?$AutoCleanup@V?$AutoDeleteVector@PBG@@PAPBG@@QAAPAPBGXZ
??C?$AutoCleanup@V?$AutoDeleteVector@PBG@@PAPBG@@QBAQAPBGXZ
??C?$AutoCleanup@V?$AutoDeleteVector@U_WINRS_CREATE_SHELL_ENVIRONMENT_VARIABLE@@@@PAU_WINRS_CREATE_SHELL_ENVIRONMENT_VARIABLE@@@@QAAPAU_WINRS_CREATE_SHELL_ENVIRONMENT_VARIABLE@@XZ
??C?$AutoCleanup@V?$AutoDeleteVector@U_WINRS_CREATE_SHELL_ENVIRONMENT_VARIABLE@@@@PAU_WINRS_CREATE_SHELL_ENVIRONMENT_VARIABLE@@@@QBAQAU_WINRS_CREATE_SHELL_ENVIRONMENT_VARIABLE@@XZ
??C?$AutoCleanup@V?$AutoDeleteVector@U_WINRS_RUN_COMMAND_ARG@@@@PAU_WINRS_RUN_COMMAND_ARG@@@@QAAPAU_WINRS_RUN_COMMAND_ARG@@XZ
??C?$AutoCleanup@V?$AutoDeleteVector@U_WINRS_RUN_COMMAND_ARG@@@@PAU_WINRS_RUN_COMMAND_ARG@@@@QBAQAU_WINRS_RUN_COMMAND_ARG@@XZ
??C?$AutoCleanup@V?$AutoRelease@UIAppHostChildElementCollection@@@@PAUIAppHostChildElementCollection@@@@QAAPAUIAppHostChildElementCollection@@XZ
??C?$AutoCleanup@V?$AutoRelease@UIAppHostElementCollection@@@@PAUIAppHostElementCollection@@@@QAAPAUIAppHostElementCollection@@XZ
??C?$AutoCleanup@V?$AutoRelease@UIAppHostProperty@@@@PAUIAppHostProperty@@@@QAAPAUIAppHostProperty@@XZ
??C?$AutoCleanup@V?$AutoRelease@UIAppHostPropertyCollection@@@@PAUIAppHostPropertyCollection@@@@QAAPAUIAppHostPropertyCollection@@XZ
??C?$AutoCleanup@V?$AutoRelease@UIClientSecurity@@@@PAUIClientSecurity@@@@QAAPAUIClientSecurity@@XZ
??C?$AutoCleanup@V?$AutoRelease@UIClientSecurity@@@@PAUIClientSecurity@@@@QBAQAUIClientSecurity@@XZ
??C?$AutoCleanup@V?$AutoRelease@UIEnumWbemClassObject@@@@PAUIEnumWbemClassObject@@@@QAAPAUIEnumWbemClassObject@@XZ
??C?$AutoCleanup@V?$AutoRelease@UIEnumWbemClassObject@@@@PAUIEnumWbemClassObject@@@@QBAQAUIEnumWbemClassObject@@XZ
??C?$AutoCleanup@V?$AutoRelease@UIErrorInfo@@@@PAUIErrorInfo@@@@QAAPAUIErrorInfo@@XZ
??C?$AutoCleanup@V?$AutoRelease@UIErrorInfo@@@@PAUIErrorInfo@@@@QBAQAUIErrorInfo@@XZ
??C?$AutoCleanup@V?$AutoRelease@UIUnknown@@@@PAUIUnknown@@@@QAAPAUIUnknown@@XZ
??C?$AutoCleanup@V?$AutoRelease@UIUnknown@@@@PAUIUnknown@@@@QBAQAUIUnknown@@XZ
??C?$AutoCleanup@V?$AutoRelease@UIWbemClassObject@@@@PAUIWbemClassObject@@@@QAAPAUIWbemClassObject@@XZ
??C?$AutoCleanup@V?$AutoRelease@UIWbemClassObject@@@@PAUIWbemClassObject@@@@QBAQAUIWbemClassObject@@XZ
??C?$AutoCleanup@V?$AutoRelease@UIWbemContext@@@@PAUIWbemContext@@@@QAAPAUIWbemContext@@XZ
??C?$AutoCleanup@V?$AutoRelease@UIWbemContext@@@@PAUIWbemContext@@@@QBAQAUIWbemContext@@XZ
??C?$AutoCleanup@V?$AutoRelease@UIWbemLocator@@@@PAUIWbemLocator@@@@QAAPAUIWbemLocator@@XZ
??C?$AutoCleanup@V?$AutoRelease@UIWbemLocator@@@@PAUIWbemLocator@@@@QBAQAUIWbemLocator@@XZ
??C?$AutoCleanup@V?$AutoRelease@UIWbemObjectTextSrc@@@@PAUIWbemObjectTextSrc@@@@QAAPAUIWbemObjectTextSrc@@XZ
??C?$AutoCleanup@V?$AutoRelease@UIWbemObjectTextSrc@@@@PAUIWbemObjectTextSrc@@@@QBAQAUIWbemObjectTextSrc@@XZ
??C?$AutoCleanup@V?$AutoRelease@UIWbemPath@@@@PAUIWbemPath@@@@QAAPAUIWbemPath@@XZ
??C?$AutoCleanup@V?$AutoRelease@UIWbemPath@@@@PAUIWbemPath@@@@QBAQAUIWbemPath@@XZ
??C?$AutoCleanup@V?$AutoRelease@UIWbemPathKeyList@@@@PAUIWbemPathKeyList@@@@QAAPAUIWbemPathKeyList@@XZ
??C?$AutoCleanup@V?$AutoRelease@UIWbemPathKeyList@@@@PAUIWbemPathKeyList@@@@QBAQAUIWbemPathKeyList@@XZ
??C?$AutoCleanup@V?$AutoRelease@UIWbemQualifierSet@@@@PAUIWbemQualifierSet@@@@QAAPAUIWbemQualifierSet@@XZ
??C?$AutoCleanup@V?$AutoRelease@UIWbemQualifierSet@@@@PAUIWbemQualifierSet@@@@QBAQAUIWbemQualifierSet@@XZ
??C?$AutoCleanup@V?$AutoRelease@UIWbemQuery@@@@PAUIWbemQuery@@@@QAAPAUIWbemQuery@@XZ
??C?$AutoCleanup@V?$AutoRelease@UIWbemQuery@@@@PAUIWbemQuery@@@@QBAQAUIWbemQuery@@XZ
??C?$AutoCleanup@V?$AutoRelease@UIWbemServices@@@@PAUIWbemServices@@@@QAAPAUIWbemServices@@XZ
??C?$AutoCleanup@V?$AutoRelease@UIWbemServices@@@@PAUIWbemServices@@@@QBAQAUIWbemServices@@XZ
??C?$AutoCleanup@V?$AutoRelease@VCBaseConfigCache@@@@PAVCBaseConfigCache@@@@QAAPAVCBaseConfigCache@@XZ
??C?$AutoCleanup@V?$AutoRelease@VCClientConfigSettings@@@@PAVCClientConfigSettings@@@@QAAPAVCClientConfigSettings@@XZ
??C?$AutoCleanup@V?$AutoRelease@VCConfigCacheMap@CBaseConfigCache@@@@PAVCConfigCacheMap@CBaseConfigCache@@@@QAAPAVCConfigCacheMap@CBaseConfigCache@@XZ
??C?$AutoCleanup@V?$AutoRelease@VCConfigManager@@@@PAVCConfigManager@@@@QAAPAVCConfigManager@@XZ
??C?$AutoCleanup@V?$AutoRelease@VCListenerReceive@@@@PAVCListenerReceive@@@@QAAPAVCListenerReceive@@XZ
??C?$AutoCleanup@V?$AutoRelease@VCRemoteSession@@@@PAVCRemoteSession@@@@QAAPAVCRemoteSession@@XZ
??C?$AutoCleanup@V?$AutoRelease@VCRemoteSession@@@@PAVCRemoteSession@@@@QBAQAVCRemoteSession@@XZ
??C?$AutoCleanup@V?$AutoRelease@VCRequestContext@@@@PAVCRequestContext@@@@QAAPAVCRequestContext@@XZ
??C?$AutoCleanup@V?$AutoRelease@VCServiceCommonConfigSettings@@@@PAVCServiceCommonConfigSettings@@@@QAAPAVCServiceCommonConfigSettings@@XZ
??C?$AutoCleanup@V?$AutoRelease@VCServiceConfigCache@@@@PAVCServiceConfigCache@@@@QAAPAVCServiceConfigCache@@XZ
??C?$AutoCleanup@V?$AutoRelease@VCServiceConfigSettings@@@@PAVCServiceConfigSettings@@@@QAAPAVCServiceConfigSettings@@XZ
??C?$AutoCleanup@V?$AutoRelease@VCWSManEPR@@@@PAVCWSManEPR@@@@QAAPAVCWSManEPR@@XZ
??C?$AutoCleanup@V?$AutoRelease@VCWSManEPR@@@@PAVCWSManEPR@@@@QBAQAVCWSManEPR@@XZ
??C?$AutoCleanup@V?$AutoRelease@VCWSManGroupPolicyCache@@@@PAVCWSManGroupPolicyCache@@@@QAAPAVCWSManGroupPolicyCache@@XZ
??C?$AutoCleanup@V?$AutoRelease@VCWSManGroupPolicyManager@@@@PAVCWSManGroupPolicyManager@@@@QAAPAVCWSManGroupPolicyManager@@XZ
??C?$AutoCleanup@V?$AutoRelease@VCWSManObject@@@@PAVCWSManObject@@@@QAAPAVCWSManObject@@XZ
??C?$AutoCleanup@V?$AutoRelease@VCWSManResource@@@@PAVCWSManResource@@@@QAAPAVCWSManResource@@XZ
??C?$AutoCleanup@V?$AutoRelease@VCWinRSPluginConfigCache@@@@PAVCWinRSPluginConfigCache@@@@QAAPAVCWinRSPluginConfigCache@@XZ
??C?$AutoCleanup@V?$AutoRelease@VCWinRSPluginConfigCache@@@@PAVCWinRSPluginConfigCache@@@@QBAQAVCWinRSPluginConfigCache@@XZ
??C?$AutoCleanup@V?$AutoRelease@VCWinRSPluginConfigSettings@@@@PAVCWinRSPluginConfigSettings@@@@QAAPAVCWinRSPluginConfigSettings@@XZ
??C?$AutoCleanup@V?$AutoRelease@VCommand@Client@WSMan@@@@PAVCommand@Client@WSMan@@@@QAAPAVCommand@Client@WSMan@@XZ
??C?$AutoCleanup@V?$AutoRelease@VConfigNotification@@@@PAVConfigNotification@@@@QAAPAVConfigNotification@@XZ
??C?$AutoCleanup@V?$AutoRelease@VConnectShellOperation@Client@WSMan@@@@PAVConnectShellOperation@Client@WSMan@@@@QAAPAVConnectShellOperation@Client@WSMan@@XZ
??C?$AutoCleanup@V?$AutoRelease@VCreateShellOperation@Client@WSMan@@@@PAVCreateShellOperation@Client@WSMan@@@@QAAPAVCreateShellOperation@Client@WSMan@@XZ
??C?$AutoCleanup@V?$AutoRelease@VDeleteShellOperation@Client@WSMan@@@@PAVDeleteShellOperation@Client@WSMan@@@@QAAPAVDeleteShellOperation@Client@WSMan@@XZ
??C?$AutoCleanup@V?$AutoRelease@VDisconnectOperation@Client@WSMan@@@@PAVDisconnectOperation@Client@WSMan@@@@QAAPAVDisconnectOperation@Client@WSMan@@XZ
??C?$AutoCleanup@V?$AutoRelease@VEnumSinkEx@@@@PAVEnumSinkEx@@@@QAAPAVEnumSinkEx@@XZ
??C?$AutoCleanup@V?$AutoRelease@VEnumSinkEx@@@@PAVEnumSinkEx@@@@QBAQAVEnumSinkEx@@XZ
??C?$AutoCleanup@V?$AutoRelease@VGeneralSinkEx@@@@PAVGeneralSinkEx@@@@QAAPAVGeneralSinkEx@@XZ
??C?$AutoCleanup@V?$AutoRelease@VGeneralSinkEx@@@@PAVGeneralSinkEx@@@@QBAQAVGeneralSinkEx@@XZ
??C?$AutoCleanup@V?$AutoRelease@VIPCSoapProcessor@@@@PAVIPCSoapProcessor@@@@QAAPAVIPCSoapProcessor@@XZ
??C?$AutoCleanup@V?$AutoRelease@VIRequestContext@@@@PAVIRequestContext@@@@QAAPAVIRequestContext@@XZ
??C?$AutoCleanup@V?$AutoRelease@VIRequestContext@@@@PAVIRequestContext@@@@QBAQAVIRequestContext@@XZ
??C?$AutoCleanup@V?$AutoRelease@VInboundRequestDetails@@@@PAVInboundRequestDetails@@@@QAAPAVInboundRequestDetails@@XZ
??C?$AutoCleanup@V?$AutoRelease@VInboundRequestDetails@@@@PAVInboundRequestDetails@@@@QBAQAVInboundRequestDetails@@XZ
??C?$AutoCleanup@V?$AutoRelease@VReceiveOperation@Client@WSMan@@@@PAVReceiveOperation@Client@WSMan@@@@QAAPAVReceiveOperation@Client@WSMan@@XZ
??C?$AutoCleanup@V?$AutoRelease@VReconnectOperation@Client@WSMan@@@@PAVReconnectOperation@Client@WSMan@@@@QAAPAVReconnectOperation@Client@WSMan@@XZ
??C?$AutoCleanup@V?$AutoRelease@VSendOperation@Client@WSMan@@@@PAVSendOperation@Client@WSMan@@@@QAAPAVSendOperation@Client@WSMan@@XZ
??C?$AutoCleanup@V?$AutoRelease@VShell@Client@WSMan@@@@PAVShell@Client@WSMan@@@@QAAPAVShell@Client@WSMan@@XZ
??C?$AutoCleanup@V?$AutoRelease@VShell@Client@WSMan@@@@PAVShell@Client@WSMan@@@@QBAQAVShell@Client@WSMan@@XZ
??C?$AutoCleanup@V?$AutoRelease@VSignalOperation@Client@WSMan@@@@PAVSignalOperation@Client@WSMan@@@@QAAPAVSignalOperation@Client@WSMan@@XZ
??C?$AutoCleanup@V?$AutoRelease@VUserRecord@@@@PAVUserRecord@@@@QAAPAVUserRecord@@XZ
??C?$AutoCleanup@V?$AutoRelease@VWSManHttpListener@@@@PAVWSManHttpListener@@@@QAAPAVWSManHttpListener@@XZ
??C?$AutoCleanup@VAutoBstrNoAlloc@@PAG@@QAAPAGXZ
??C?$AutoCleanup@VAutoBstrNoAlloc@@PAG@@QBAQAGXZ
??C?$AutoCleanup@VAutoChainContext@@PBU_CERT_CHAIN_CONTEXT@@@@QAAPBU_CERT_CHAIN_CONTEXT@@XZ
??C?$AutoCleanup@VAutoImpersonateUser@@PAX@@QAAPAXXZ
??C?$AutoCleanup@VAutoImpersonateUser@@PAX@@QBAQAXXZ
??C?$AutoCleanup@VAutoMIClass@@PAU_MI_Class@@@@QAAPAU_MI_Class@@XZ
??C?$SafeMap_Iterator@VStringKeyStore@@PAVExpiredOperationIdRecord@@@@QBAAAPAVExpiredOperationIdRecord@@XZ
??C?$SafeSet_Iterator@PAVCListenerOperation@@@@QBAABQAVCListenerOperation@@XZ
??D?$SafeMap_Iterator@VCertThumbprintKey@@VCertThumbprintMappedSet@CServiceConfigSettings@@@@QBAAAVCertThumbprintMappedSet@CServiceConfigSettings@@XZ
??D?$SafeMap_Iterator@VKey@Locale@@K@@QBAAAKXZ
??D?$SafeMap_Iterator@VStringKeyStore@@PAVExpiredOperationIdRecord@@@@QBAAAPAVExpiredOperationIdRecord@@XZ
??D?$SafeMap_Iterator@W4WSManSessionOption@@PAVOptionValue@SessionOptions@Client@WSMan@@@@QBAAAPAVOptionValue@SessionOptions@Client@WSMan@@XZ
??D?$SafeSet_Iterator@PAVCCertMapping@@@@QBAABQAVCCertMapping@@XZ
??D?$SafeSet_Iterator@PAVCListenerOperation@@@@QBAABQAVCListenerOperation@@XZ
??D?$SafeSet_Iterator@PAVCShellUriSettings@@@@QBAABQAVCShellUriSettings@@XZ
??E?$SafeMap_Iterator@PAVCCertMapping@@UEmpty@@@@QAAXH@Z
??E?$SafeMap_Iterator@PAVCListenerOperation@@UEmpty@@@@QAAXH@Z
??E?$SafeMap_Iterator@PAVCShellUriSettings@@UEmpty@@@@QAAXH@Z
??E?$SafeMap_Iterator@VCertThumbprintKey@@VCertThumbprintMappedSet@CServiceConfigSettings@@@@QAAXH@Z
??E?$SafeMap_Iterator@VStringKeyCI@@K@@QAAXH@Z
??E?$SafeMap_Iterator@VStringKeyCI@@UUSER_CONTEXT_INFO@WSManHttpListener@@@@QAAXH@Z
??E?$SafeMap_Iterator@VStringKeyStore@@PAVExpiredOperationIdRecord@@@@QAAXH@Z
??E?$SafeMap_Iterator@W4WSManSessionOption@@PAVOptionValue@SessionOptions@Client@WSMan@@@@QAAXH@Z
??_7?$SafeMap@PAVCCertMapping@@UEmpty@@V?$SafeSet_Iterator@PAVCCertMapping@@@@@@6B@ DATA
??_7?$SafeMap@PAVCListenerOperation@@UEmpty@@V?$SafeSet_Iterator@PAVCListenerOperation@@@@@@6B@ DATA
??_7?$SafeMap@PAVCShellUriSettings@@UEmpty@@V?$SafeSet_Iterator@PAVCShellUriSettings@@@@@@6B@ DATA
??_7?$SafeMap@PAVCollector@@UEmpty@@V?$SafeSet_Iterator@PAVCollector@@@@@@6B@ DATA
??_7?$SafeMap@PAVHostOperation@@UEmpty@@V?$SafeSet_Iterator@PAVHostOperation@@@@@@6B@ DATA
??_7?$SafeMap@PAVIOperation@@UEmpty@@V?$SafeSet_Iterator@PAVIOperation@@@@@@6B@ DATA
??_7?$SafeMap@PAVListenerSourceSubscription@@UEmpty@@V?$SafeSet_Iterator@PAVListenerSourceSubscription@@@@@@6B@ DATA
??_7?$SafeMap@PAVPushSubscription@@UEmpty@@V?$SafeSet_Iterator@PAVPushSubscription@@@@@@6B@ DATA
??_7?$SafeMap@PAXUEmpty@@V?$SafeSet_Iterator@PAX@@@@6B@ DATA
??_7?$SafeMap@UPluginKey@@KV?$SafeMap_Iterator@UPluginKey@@K@@@@6B@ DATA
??_7?$SafeMap@UUserKey@@PAVBlockedRecord@@V?$SafeMap_Iterator@UUserKey@@PAVBlockedRecord@@@@@@6B@ DATA
??_7?$SafeMap@VCertThumbprintKey@@VCertThumbprintMappedSet@CServiceConfigSettings@@V?$SafeMap_Iterator@VCertThumbprintKey@@VCertThumbprintMappedSet@CServiceConfigSettings@@@@@@6B@ DATA
??_7?$SafeMap@VKey@Locale@@KV?$SafeMap_Iterator@VKey@Locale@@K@@@@6B@ DATA
??_7?$SafeMap@VStringKeyCI@@KV?$SafeMap_Iterator@VStringKeyCI@@K@@@@6B@ DATA
??_7?$SafeMap@VStringKeyCI@@UEmpty@@V?$SafeSet_Iterator@VStringKeyCI@@@@@@6B@ DATA
??_7?$SafeMap@VStringKeyCI@@UUSER_CONTEXT_INFO@WSManHttpListener@@V?$SafeMap_Iterator@VStringKeyCI@@UUSER_CONTEXT_INFO@WSManHttpListener@@@@@@6B@ DATA
??_7?$SafeMap@VStringKeyStore@@PAVExpiredOperationIdRecord@@V?$SafeMap_Iterator@VStringKeyStore@@PAVExpiredOperationIdRecord@@@@@@6B@ DATA
??_7?$SafeMap@VStringKeyStore@@PAVServerFullDuplexChannel@@V?$SafeMap_Iterator@VStringKeyStore@@PAVServerFullDuplexChannel@@@@@@6B@ DATA
??_7?$SafeMap@W4WSManSessionOption@@PAVOptionValue@SessionOptions@Client@WSMan@@V?$SafeMap_Iterator@W4WSManSessionOption@@PAVOptionValue@SessionOptions@Client@WSMan@@@@@@6B@ DATA
??_7?$SafeMap@_KPAVSendPacketArgs@RobustConnectionBuffer@@V?$SafeMap_Iterator@_KPAVSendPacketArgs@RobustConnectionBuffer@@@@@@6B@ DATA
??_7?$SafeSet@PAVCCertMapping@@@@6B@ DATA
??_7?$SafeSet@PAVCListenerOperation@@@@6B@ DATA
??_7?$SafeSet@PAVCShellUriSettings@@@@6B@ DATA
??_7?$SafeSet@PAX@@6B@ DATA
??_7BufferFormatter@@6B@ DATA
??_7CBaseConfigCache@@6BIConfigChangeObserver@@@ DATA
??_7CBaseConfigCache@@6BILifeTimeMgmt@@@ DATA
??_7CClientConfigCache@@6BIConfigChangeObserver@@@ DATA
??_7CClientConfigCache@@6BILifeTimeMgmt@@@ DATA
??_7CConfigManager@@6B@ DATA
??_7CErrorContext@@6B@ DATA
??_7CRequestContext@@6BCErrorContext@@@ DATA
??_7CRequestContext@@6BEtwCorrelationHelper@@@ DATA
??_7CServiceConfigCache@@6BIConfigChangeObserver@@@ DATA
??_7CServiceConfigCache@@6BILifeTimeMgmt@@@ DATA
??_7CWSManEPR@@6B@ DATA
??_7CWSManGroupPolicyManager@@6B@ DATA
??_7CWSManResource@@6B@ DATA
??_7CWSManResourceNoResourceUri@@6B@ DATA
??_7CWSManSecurityUI@@6B@ DATA
??_7CWinRSPluginConfigCache@@6BIConfigChangeObserver@@@ DATA
??_7CWinRSPluginConfigCache@@6BILifeTimeMgmt@@@ DATA
??_7CircularBufferFormatter@@6B@ DATA
??_7EtwCorrelationHelper@@6B@ DATA
??_7IConfigChangeObserver@@6B@ DATA
??_7ILifeTimeMgmt@@6B@ DATA
??_7IRequestContext@@6B@ DATA
??_7IWSManGroupPolicyObserver@@6B@ DATA
??_7IWSManGroupPolicyPublisher@@6B@ DATA
??_7PacketParser@@6B@ DATA
??_7UserAuthzRecord@@6B@ DATA
??_7UserRecord@@6B@ DATA
??_FCErrorContext@@QAAXXZ
??_FRBUFFER@@QAAXXZ
?Acquire@?$SafeMap@PAVCCertMapping@@UEmpty@@V?$SafeMap_Iterator@PAVCCertMapping@@UEmpty@@@@@@UBAXXZ
?Acquire@?$SafeMap@PAVCCertMapping@@UEmpty@@V?$SafeSet_Iterator@PAVCCertMapping@@@@@@UBAXXZ
?Acquire@?$SafeMap@PAVCListenerConnect@@PAV1@V?$SafeMap_Iterator@PAVCListenerConnect@@PAV1@@@@@UBAXXZ
?Acquire@?$SafeMap@PAVCListenerOperation@@UEmpty@@V?$SafeMap_Iterator@PAVCListenerOperation@@UEmpty@@@@@@UBAXXZ
?Acquire@?$SafeMap@PAVCListenerOperation@@UEmpty@@V?$SafeSet_Iterator@PAVCListenerOperation@@@@@@UBAXXZ
?Acquire@?$SafeMap@PAVCListenerReceive@@PAV1@V?$SafeMap_Iterator@PAVCListenerReceive@@PAV1@@@@@UBAXXZ
?Acquire@?$SafeMap@PAVCListenerSend@@PAV1@V?$SafeMap_Iterator@PAVCListenerSend@@PAV1@@@@@UBAXXZ
?Acquire@?$SafeMap@PAVCListenerSignal@@PAV1@V?$SafeMap_Iterator@PAVCListenerSignal@@PAV1@@@@@UBAXXZ
?Acquire@?$SafeMap@PAVCShellUriSettings@@UEmpty@@V?$SafeSet_Iterator@PAVCShellUriSettings@@@@@@UBAXXZ
?Acquire@?$SafeMap@PAVCollector@@UEmpty@@V?$SafeMap_Iterator@PAVCollector@@UEmpty@@@@@@UBAXXZ
?Acquire@?$SafeMap@PAVCollector@@UEmpty@@V?$SafeSet_Iterator@PAVCollector@@@@@@UBAXXZ
?Acquire@?$SafeMap@PAVHostOperation@@UEmpty@@V?$SafeMap_Iterator@PAVHostOperation@@UEmpty@@@@@@UBAXXZ
?Acquire@?$SafeMap@PAVHostOperation@@UEmpty@@V?$SafeSet_Iterator@PAVHostOperation@@@@@@UBAXXZ
?Acquire@?$SafeMap@PAVIOperation@@UEmpty@@V?$SafeMap_Iterator@PAVIOperation@@UEmpty@@@@@@UBAXXZ
?Acquire@?$SafeMap@PAVIOperation@@UEmpty@@V?$SafeSet_Iterator@PAVIOperation@@@@@@UBAXXZ
?Acquire@?$SafeMap@PAVListenerSourceSubscription@@UEmpty@@V?$SafeMap_Iterator@PAVListenerSourceSubscription@@UEmpty@@@@@@UBAXXZ
?Acquire@?$SafeMap@PAVListenerSourceSubscription@@UEmpty@@V?$SafeSet_Iterator@PAVListenerSourceSubscription@@@@@@UBAXXZ
?Acquire@?$SafeMap@PAVPushSubscription@@UEmpty@@V?$SafeMap_Iterator@PAVPushSubscription@@UEmpty@@@@@@UBAXXZ
?Acquire@?$SafeMap@PAVPushSubscription@@UEmpty@@V?$SafeSet_Iterator@PAVPushSubscription@@@@@@UBAXXZ
?Acquire@?$SafeMap@PAXUEmpty@@V?$SafeSet_Iterator@PAX@@@@UBAXXZ
?Acquire@?$SafeMap@UPluginKey@@KV?$SafeMap_Iterator@UPluginKey@@K@@@@UBAXXZ
?Acquire@?$SafeMap@UUserKey@@PAVBlockedRecord@@V?$SafeMap_Iterator@UUserKey@@PAVBlockedRecord@@@@@@UBAXXZ
?Acquire@?$SafeMap@VCertThumbprintKey@@VCertThumbprintMappedSet@CServiceConfigSettings@@V?$SafeMap_Iterator@VCertThumbprintKey@@VCertThumbprintMappedSet@CServiceConfigSettings@@@@@@UBAXXZ
?Acquire@?$SafeMap@VGuidKey@@PAVCListenerCommand@@V?$SafeMap_Iterator@VGuidKey@@PAVCListenerCommand@@@@@@UBAXXZ
?Acquire@?$SafeMap@VKey@CWmiPtrCache@@VMapping@2@V?$SafeMap_Iterator@VKey@CWmiPtrCache@@VMapping@2@@@@@UBAXXZ
?Acquire@?$SafeMap@VKey@Locale@@KV?$SafeMap_Iterator@VKey@Locale@@K@@@@UBAXXZ
?Acquire@?$SafeMap@VStringKey@@PAVListenerEvents@@V?$SafeMap_Iterator@VStringKey@@PAVListenerEvents@@@@@@UBAXXZ
?Acquire@?$SafeMap@VStringKey@@PAVListenerSourceSubscription@@V?$SafeMap_Iterator@VStringKey@@PAVListenerSourceSubscription@@@@@@UBAXXZ
?Acquire@?$SafeMap@VStringKey@@UOption@WinRM_OperationOptions@@V?$SafeMap_Iterator@VStringKey@@UOption@WinRM_OperationOptions@@@@@@UBAXXZ
?Acquire@?$SafeMap@VStringKeyCI@@KV?$SafeMap_Iterator@VStringKeyCI@@K@@@@UBAXXZ
?Acquire@?$SafeMap@VStringKeyCI@@PAVIISEndpoint@@V?$SafeMap_Iterator@VStringKeyCI@@PAVIISEndpoint@@@@@@UBAXXZ
?Acquire@?$SafeMap@VStringKeyCI@@UEmpty@@V?$SafeMap_Iterator@VStringKeyCI@@UEmpty@@@@@@UBAXXZ
?Acquire@?$SafeMap@VStringKeyCI@@UEmpty@@V?$SafeSet_Iterator@VStringKeyCI@@@@@@UBAXXZ
?Acquire@?$SafeMap@VStringKeyCI@@UUSER_CONTEXT_INFO@WSManHttpListener@@V?$SafeMap_Iterator@VStringKeyCI@@UUSER_CONTEXT_INFO@WSManHttpListener@@@@@@UBAXXZ
?Acquire@?$SafeMap@VStringKeyStore@@PAVExpiredOperationIdRecord@@V?$SafeMap_Iterator@VStringKeyStore@@PAVExpiredOperationIdRecord@@@@@@UBAXXZ
?Acquire@?$SafeMap@VStringKeyStore@@PAVServerFullDuplexChannel@@V?$SafeMap_Iterator@VStringKeyStore@@PAVServerFullDuplexChannel@@@@@@UBAXXZ
?Acquire@?$SafeMap@VTokenCacheKey@ServiceSoapProcessor@@VTokenCacheMapping@2@V?$SafeMap_Iterator@VTokenCacheKey@ServiceSoapProcessor@@VTokenCacheMapping@2@@@@@UBAXXZ
?Acquire@?$SafeMap@W4WSManSessionOption@@PAVOptionValue@SessionOptions@Client@WSMan@@V?$SafeMap_Iterator@W4WSManSessionOption@@PAVOptionValue@SessionOptions@Client@WSMan@@@@@@UBAXXZ
?Acquire@?$SafeMap@_KPAVSendPacketArgs@RobustConnectionBuffer@@V?$SafeMap_Iterator@_KPAVSendPacketArgs@RobustConnectionBuffer@@@@@@UBAXXZ
?Acquire@?$SafeMap_Lock@PAVCCertMapping@@UEmpty@@V?$SafeMap_Iterator@PAVCCertMapping@@UEmpty@@@@@@QAAXXZ
?Acquire@?$SafeMap_Lock@PAVCCertMapping@@UEmpty@@V?$SafeSet_Iterator@PAVCCertMapping@@@@@@QAAXXZ
?Acquire@?$SafeMap_Lock@PAVCListenerOperation@@UEmpty@@V?$SafeMap_Iterator@PAVCListenerOperation@@UEmpty@@@@@@QAAXXZ
?Acquire@?$SafeMap_Lock@PAVCListenerOperation@@UEmpty@@V?$SafeSet_Iterator@PAVCListenerOperation@@@@@@QAAXXZ
?Acquire@?$SafeMap_Lock@PAVCShellUriSettings@@UEmpty@@V?$SafeMap_Iterator@PAVCShellUriSettings@@UEmpty@@@@@@QAAXXZ
?Acquire@?$SafeMap_Lock@PAVCShellUriSettings@@UEmpty@@V?$SafeSet_Iterator@PAVCShellUriSettings@@@@@@QAAXXZ
?Acquire@?$SafeMap_Lock@PAXUEmpty@@V?$SafeMap_Iterator@PAXUEmpty@@@@@@QAAXXZ
?Acquire@?$SafeMap_Lock@PAXUEmpty@@V?$SafeSet_Iterator@PAX@@@@QAAXXZ
?Acquire@?$SafeMap_Lock@UPluginKey@@KV?$SafeMap_Iterator@UPluginKey@@K@@@@QAAXXZ
?Acquire@?$SafeMap_Lock@UUserKey@@PAVBlockedRecord@@V?$SafeMap_Iterator@UUserKey@@PAVBlockedRecord@@@@@@QAAXXZ
?Acquire@?$SafeMap_Lock@VCertThumbprintKey@@VCertThumbprintMappedSet@CServiceConfigSettings@@V?$SafeMap_Iterator@VCertThumbprintKey@@VCertThumbprintMappedSet@CServiceConfigSettings@@@@@@QAAXXZ
?Acquire@?$SafeMap_Lock@VKey@Locale@@KV?$SafeMap_Iterator@VKey@Locale@@K@@@@QAAXXZ
?Acquire@?$SafeMap_Lock@VStringKeyCI@@KV?$SafeMap_Iterator@VStringKeyCI@@K@@@@QAAXXZ
?Acquire@?$SafeMap_Lock@VStringKeyCI@@UEmpty@@V?$SafeSet_Iterator@VStringKeyCI@@@@@@QAAXXZ
?Acquire@?$SafeMap_Lock@VStringKeyCI@@UUSER_CONTEXT_INFO@WSManHttpListener@@V?$SafeMap_Iterator@VStringKeyCI@@UUSER_CONTEXT_INFO@WSManHttpListener@@@@@@QAAXXZ
?Acquire@?$SafeMap_Lock@VStringKeyStore@@PAVExpiredOperationIdRecord@@V?$SafeMap_Iterator@VStringKeyStore@@PAVExpiredOperationIdRecord@@@@@@QAAXXZ
?Acquire@?$SafeMap_Lock@VStringKeyStore@@PAVServerFullDuplexChannel@@V?$SafeMap_Iterator@VStringKeyStore@@PAVServerFullDuplexChannel@@@@@@QAAXXZ
?Acquire@?$SafeMap_Lock@W4WSManSessionOption@@PAVOptionValue@SessionOptions@Client@WSMan@@V?$SafeMap_Iterator@W4WSManSessionOption@@PAVOptionValue@SessionOptions@Client@WSMan@@@@@@QAAXXZ
?Acquire@?$SafeMap_Lock@_KPAVSendPacketArgs@RobustConnectionBuffer@@V?$SafeMap_Iterator@_KPAVSendPacketArgs@RobustConnectionBuffer@@@@@@QAAXXZ
?Acquire@CWSManCriticalSection@@QAAXXZ
?AcquireExclusive@FastLock@@QAAXXZ
?AcquireShared@FastLock@@QAAXXZ
?Acquired@?$SafeMap_Lock@PAVCCertMapping@@UEmpty@@V?$SafeMap_Iterator@PAVCCertMapping@@UEmpty@@@@@@QAA_NXZ
?Acquired@?$SafeMap_Lock@PAVCListenerConnect@@PAV1@V?$SafeMap_Iterator@PAVCListenerConnect@@PAV1@@@@@QAA_NXZ
?Acquired@?$SafeMap_Lock@PAVCListenerOperation@@UEmpty@@V?$SafeMap_Iterator@PAVCListenerOperation@@UEmpty@@@@@@QAA_NXZ
?Acquired@?$SafeMap_Lock@PAVCListenerReceive@@PAV1@V?$SafeMap_Iterator@PAVCListenerReceive@@PAV1@@@@@QAA_NXZ
?Acquired@?$SafeMap_Lock@PAVCListenerSend@@PAV1@V?$SafeMap_Iterator@PAVCListenerSend@@PAV1@@@@@QAA_NXZ
?Acquired@?$SafeMap_Lock@PAVCListenerSignal@@PAV1@V?$SafeMap_Iterator@PAVCListenerSignal@@PAV1@@@@@QAA_NXZ
?Acquired@?$SafeMap_Lock@PAVCShellUriSettings@@UEmpty@@V?$SafeMap_Iterator@PAVCShellUriSettings@@UEmpty@@@@@@QAA_NXZ
?Acquired@?$SafeMap_Lock@PAVCollector@@UEmpty@@V?$SafeMap_Iterator@PAVCollector@@UEmpty@@@@@@QAA_NXZ
?Acquired@?$SafeMap_Lock@PAVHostOperation@@UEmpty@@V?$SafeMap_Iterator@PAVHostOperation@@UEmpty@@@@@@QAA_NXZ
?Acquired@?$SafeMap_Lock@PAVIOperation@@UEmpty@@V?$SafeMap_Iterator@PAVIOperation@@UEmpty@@@@@@QAA_NXZ
?Acquired@?$SafeMap_Lock@PAVListenerSourceSubscription@@UEmpty@@V?$SafeMap_Iterator@PAVListenerSourceSubscription@@UEmpty@@@@@@QAA_NXZ
?Acquired@?$SafeMap_Lock@PAVPushSubscription@@UEmpty@@V?$SafeMap_Iterator@PAVPushSubscription@@UEmpty@@@@@@QAA_NXZ
?Acquired@?$SafeMap_Lock@PAXUEmpty@@V?$SafeMap_Iterator@PAXUEmpty@@@@@@QAA_NXZ
?Acquired@?$SafeMap_Lock@UPluginKey@@KV?$SafeMap_Iterator@UPluginKey@@K@@@@QAA_NXZ
?Acquired@?$SafeMap_Lock@UUserKey@@PAVBlockedRecord@@V?$SafeMap_Iterator@UUserKey@@PAVBlockedRecord@@@@@@QAA_NXZ
?Acquired@?$SafeMap_Lock@VCertThumbprintKey@@VCertThumbprintMappedSet@CServiceConfigSettings@@V?$SafeMap_Iterator@VCertThumbprintKey@@VCertThumbprintMappedSet@CServiceConfigSettings@@@@@@QAA_NXZ
?Acquired@?$SafeMap_Lock@VGuidKey@@PAVCListenerCommand@@V?$SafeMap_Iterator@VGuidKey@@PAVCListenerCommand@@@@@@QAA_NXZ
?Acquired@?$SafeMap_Lock@VKey@Locale@@KV?$SafeMap_Iterator@VKey@Locale@@K@@@@QAA_NXZ
?Acquired@?$SafeMap_Lock@VStringKeyCI@@KV?$SafeMap_Iterator@VStringKeyCI@@K@@@@QAA_NXZ
?Acquired@?$SafeMap_Lock@VStringKeyCI@@UEmpty@@V?$SafeMap_Iterator@VStringKeyCI@@UEmpty@@@@@@QAA_NXZ
?Acquired@?$SafeMap_Lock@VStringKeyCI@@UUSER_CONTEXT_INFO@WSManHttpListener@@V?$SafeMap_Iterator@VStringKeyCI@@UUSER_CONTEXT_INFO@WSManHttpListener@@@@@@QAA_NXZ
?Acquired@?$SafeMap_Lock@VStringKeyStore@@PAVExpiredOperationIdRecord@@V?$SafeMap_Iterator@VStringKeyStore@@PAVExpiredOperationIdRecord@@@@@@QAA_NXZ
?Acquired@?$SafeMap_Lock@VStringKeyStore@@PAVServerFullDuplexChannel@@V?$SafeMap_Iterator@VStringKeyStore@@PAVServerFullDuplexChannel@@@@@@QAA_NXZ
?Acquired@?$SafeMap_Lock@W4WSManSessionOption@@PAVOptionValue@SessionOptions@Client@WSMan@@V?$SafeMap_Iterator@W4WSManSessionOption@@PAVOptionValue@SessionOptions@Client@WSMan@@@@@@QAA_NXZ
?Acquired@?$SafeMap_Lock@_KPAVSendPacketArgs@RobustConnectionBuffer@@V?$SafeMap_Iterator@_KPAVSendPacketArgs@RobustConnectionBuffer@@@@@@QAA_NXZ
?Add@?$SafeMap@PAVCCertMapping@@UEmpty@@V?$SafeSet_Iterator@PAVCCertMapping@@@@@@QAA_NABQAVCCertMapping@@ABUEmpty@@AAVIRequestContext@@@Z
?Add@?$SafeMap@PAVCListenerOperation@@UEmpty@@V?$SafeSet_Iterator@PAVCListenerOperation@@@@@@QAA_NABQAVCListenerOperation@@ABUEmpty@@AAVIRequestContext@@@Z
?Add@?$SafeMap@PAVCShellUriSettings@@UEmpty@@V?$SafeSet_Iterator@PAVCShellUriSettings@@@@@@QAA_NABQAVCShellUriSettings@@ABUEmpty@@AAVIRequestContext@@@Z
?Add@?$SafeMap@PAXUEmpty@@V?$SafeSet_Iterator@PAX@@@@QAA_NABQAXABUEmpty@@AAVIRequestContext@@@Z
?Add@?$SafeMap@UPluginKey@@KV?$SafeMap_Iterator@UPluginKey@@K@@@@QAA_NABUPluginKey@@ABKAAVIRequestContext@@@Z
?Add@?$SafeMap@UUserKey@@PAVBlockedRecord@@V?$SafeMap_Iterator@UUserKey@@PAVBlockedRecord@@@@@@QAA_NABUUserKey@@ABQAVBlockedRecord@@AAVIRequestContext@@@Z
?Add@?$SafeMap@VCertThumbprintKey@@VCertThumbprintMappedSet@CServiceConfigSettings@@V?$SafeMap_Iterator@VCertThumbprintKey@@VCertThumbprintMappedSet@CServiceConfigSettings@@@@@@QAA_NABVCertThumbprintKey@@ABVCertThumbprintMappedSet@CServiceConfigSettings@@AAVIRequestContext@@@Z
?Add@?$SafeMap@VKey@Locale@@KV?$SafeMap_Iterator@VKey@Locale@@K@@@@QAA_NABVKey@Locale@@ABKAAVIRequestContext@@@Z
?Add@?$SafeMap@VStringKeyCI@@KV?$SafeMap_Iterator@VStringKeyCI@@K@@@@QAA_NABVStringKeyCI@@ABKAAVIRequestContext@@@Z
?Add@?$SafeMap@VStringKeyCI@@UEmpty@@V?$SafeSet_Iterator@VStringKeyCI@@@@@@QAA_NABVStringKeyCI@@ABUEmpty@@AAVIRequestContext@@@Z
?Add@?$SafeMap@VStringKeyCI@@UUSER_CONTEXT_INFO@WSManHttpListener@@V?$SafeMap_Iterator@VStringKeyCI@@UUSER_CONTEXT_INFO@WSManHttpListener@@@@@@QAA_NABVStringKeyCI@@ABUUSER_CONTEXT_INFO@WSManHttpListener@@AAVIRequestContext@@@Z
?Add@?$SafeMap@VStringKeyStore@@PAVExpiredOperationIdRecord@@V?$SafeMap_Iterator@VStringKeyStore@@PAVExpiredOperationIdRecord@@@@@@QAA_NABVStringKeyStore@@ABQAVExpiredOperationIdRecord@@AAVIRequestContext@@@Z
?Add@?$SafeMap@VStringKeyStore@@PAVServerFullDuplexChannel@@V?$SafeMap_Iterator@VStringKeyStore@@PAVServerFullDuplexChannel@@@@@@QAA_NABVStringKeyStore@@ABQAVServerFullDuplexChannel@@AAVIRequestContext@@@Z
?Add@?$SafeMap@W4WSManSessionOption@@PAVOptionValue@SessionOptions@Client@WSMan@@V?$SafeMap_Iterator@W4WSManSessionOption@@PAVOptionValue@SessionOptions@Client@WSMan@@@@@@QAA_NABW4WSManSessionOption@@ABQAVOptionValue@SessionOptions@Client@WSMan@@AAVIRequestContext@@@Z
?Add@?$SafeMap@_KPAVSendPacketArgs@RobustConnectionBuffer@@V?$SafeMap_Iterator@_KPAVSendPacketArgs@RobustConnectionBuffer@@@@@@QAA_NAB_KABQAVSendPacketArgs@RobustConnectionBuffer@@AAVIRequestContext@@@Z
?Add@?$SafeSet@PAVCCertMapping@@@@QAA_NABQAVCCertMapping@@AAVIRequestContext@@@Z
?Add@?$SafeSet@PAVCListenerOperation@@@@QAA_NABQAVCListenerOperation@@AAVIRequestContext@@@Z
?Add@?$SafeSet@PAVCShellUriSettings@@@@QAA_NABQAVCShellUriSettings@@AAVIRequestContext@@@Z
?Add@?$SafeSet@PAX@@QAA_NABQAXAAVIRequestContext@@@Z
?Add@?$SafeSet@VStringKeyCI@@@@QAA_NABVStringKeyCI@@AAVIRequestContext@@@Z
?AddDefaultPlugins@ConfigUpdate@@SAHPAVIRequestContext@@H@Z
?AddKey@CWSManResourceNoResourceUri@@QAAHPBG0PAVIRequestContext@@@Z
?AddMessage@CRequestContext@@AAAHPBGPAPAD1@Z
?AddOption@CWSManResourceNoResourceUri@@QAAHPBG0HPAVIRequestContext@@@Z
?AddOptionSet@CWSManResourceNoResourceUri@@QAAHPAU_WSMAN_OPTION_SET@@PAVIRequestContext@@@Z
?AddPacket@PacketParser@@QAA_NPAVPacket@@_N11@Z
?AddRef@CWSManSecurityUI@@UAAKXZ
?AddRef@ILifeTimeMgmt@@UAAJXZ
?AddRef@UserRecord@@QAA_NAAVIRequestContext@@@Z
?AddSource@CBaseConfigCache@@IAAHPAVIRequestContext@@PAVCConfigChangeSource@@@Z
?AddToMap@CBaseConfigCache@@AAAHPAVIRequestContext@@AAVAutoLocalFree@@@Z
?Alloc@WSManMemory@@SAPAXIHW4_NitsFaultMode@@@Z
?AllocBstr@WSManMemory@@SAPAGPBGHH@Z
?AllocBstrLen@WSManMemory@@SAPAGPBGIHH@Z
?AllocCache@CClientConfigCache@@CAPAVCBaseConfigCache@@XZ
?AllocCache@CServiceConfigCache@@CAPAVCBaseConfigCache@@XZ
?AllocCache@CWinRSPluginConfigCache@@CAPAVCBaseConfigCache@@XZ
?AllocSysString@TSTRBUFFER@@QBAJPAPAG@Z
?AllowBasic@CCommonConfigSettings@@UBAHXZ
?AllowClientCertificate@CCommonConfigSettings@@UBAHXZ
?AllowCredSsp@CCommonConfigSettings@@UBAHXZ
?AllowKerberos@CCommonConfigSettings@@UBAHXZ
?AllowNegotiate@CCommonConfigSettings@@UBAHXZ
?AllowUnencrypted@CCommonConfigSettings@@UBAHXZ
?Append@SBUFFER@@QAAJPAEI@Z
?Append@SBUFFER@@QAAJPAV1@@Z
?Append@TSTRBUFFER@@QAAJPBG@Z
?Append@TSTRBUFFER@@QAAJPBGII@Z
?AppendChar@TSTRBUFFER@@QAAJG@Z
?AppendEscapeXmlAttribute@TSTRBUFFER@@QAAJPBGG@Z
?AppendEscapeXmlContent@TSTRBUFFER@@QAAJPBG_N@Z
?AppendXmlElem@TSTRBUFFER@@QAAJPBG0HKPAU_XML_ATTRIB@@@Z
?AppendXmlElemWithNamespace@TSTRBUFFER@@QAAJPBG00HKPAU_XML_ATTRIB@@@Z
?AppendXmlElemWithNamespaceAndPrefix@TSTRBUFFER@@QAAJPBG000HKPAU_XML_ATTRIB@@@Z
?AppendXmlElemWithPrefix@TSTRBUFFER@@QAAJPBG00HKPAU_XML_ATTRIB@@@Z
?AppendXmlEndElem@TSTRBUFFER@@QAAJPBG@Z
?AppendXmlEndElemWithPrefix@TSTRBUFFER@@QAAJPBG0@Z
?AppendXmlEndFragment@TSTRBUFFER@@QAAJXZ
?AppendXmlEndItem@TSTRBUFFER@@QAAJXZ
?AppendXmlStartElem@TSTRBUFFER@@QAAJPBGHKPAU_XML_ATTRIB@@@Z
?AppendXmlStartElemWithNamespace@TSTRBUFFER@@QAAJPBG0HKPAU_XML_ATTRIB@@@Z
?AppendXmlStartElemWithNamespaceAndPrefix@TSTRBUFFER@@QAAJPBG00HKPAU_XML_ATTRIB@@@Z
?AppendXmlStartElemWithNamespaces@TSTRBUFFER@@QAAJPBGKPAU_XML_NAMESPACE_PREFIX@@HKPAU_XML_ATTRIB@@@Z
?AppendXmlStartElemWithNamespacesAndPrefixes@TSTRBUFFER@@QAAJPBG0KPAU_XML_NAMESPACE_PREFIX@@HKPAU_XML_ATTRIB@@@Z
?AppendXmlStartElemWithPrefix@TSTRBUFFER@@QAAJPBG0HKPAU_XML_ATTRIB@@@Z
?AppendXmlStartFragment@TSTRBUFFER@@QAAJXZ
?AppendXmlStartItem@TSTRBUFFER@@QAAJXZ
?ApplyQuota@UserRecord@@QAA_NW4OperationType@@AAVIRequestContext@@PBVProvider@Catalog@@PAVCServiceConfigSettings@@@Z
?ApplySecurity@ConfigRegistry@@IAAHPAVIRequestContext@@PAUHKEY__@@PBG2@Z
?AsReference@?$SafeMap@PAVCCertMapping@@UEmpty@@V?$SafeSet_Iterator@PAVCCertMapping@@@@@@QAAAAV1@XZ
?AsReference@?$SafeMap@PAVCListenerOperation@@UEmpty@@V?$SafeSet_Iterator@PAVCListenerOperation@@@@@@QAAAAV1@XZ
?AsReference@?$SafeMap@PAVCShellUriSettings@@UEmpty@@V?$SafeSet_Iterator@PAVCShellUriSettings@@@@@@QAAAAV1@XZ
?AsReference@?$SafeMap@PAXUEmpty@@V?$SafeSet_Iterator@PAX@@@@QAAAAV1@XZ
?AsReference@?$SafeMap@UPluginKey@@KV?$SafeMap_Iterator@UPluginKey@@K@@@@QAAAAV1@XZ
?AsReference@?$SafeMap@UUserKey@@PAVBlockedRecord@@V?$SafeMap_Iterator@UUserKey@@PAVBlockedRecord@@@@@@QAAAAV1@XZ
?AsReference@?$SafeMap@VCertThumbprintKey@@VCertThumbprintMappedSet@CServiceConfigSettings@@V?$SafeMap_Iterator@VCertThumbprintKey@@VCertThumbprintMappedSet@CServiceConfigSettings@@@@@@QAAAAV1@XZ
?AsReference@?$SafeMap@VKey@Locale@@KV?$SafeMap_Iterator@VKey@Locale@@K@@@@QAAAAV1@XZ
?AsReference@?$SafeMap@VStringKeyCI@@KV?$SafeMap_Iterator@VStringKeyCI@@K@@@@QAAAAV1@XZ
?AsReference@?$SafeMap@VStringKeyCI@@UUSER_CONTEXT_INFO@WSManHttpListener@@V?$SafeMap_Iterator@VStringKeyCI@@UUSER_CONTEXT_INFO@WSManHttpListener@@@@@@QAAAAV1@XZ
?AsReference@?$SafeMap@VStringKeyStore@@PAVExpiredOperationIdRecord@@V?$SafeMap_Iterator@VStringKeyStore@@PAVExpiredOperationIdRecord@@@@@@QAAAAV1@XZ
?AsReference@?$SafeMap@VStringKeyStore@@PAVServerFullDuplexChannel@@V?$SafeMap_Iterator@VStringKeyStore@@PAVServerFullDuplexChannel@@@@@@QAAAAV1@XZ
?AsReference@?$SafeMap@W4WSManSessionOption@@PAVOptionValue@SessionOptions@Client@WSMan@@V?$SafeMap_Iterator@W4WSManSessionOption@@PAVOptionValue@SessionOptions@Client@WSMan@@@@@@QAAAAV1@XZ
?AsReference@?$SafeMap@_KPAVSendPacketArgs@RobustConnectionBuffer@@V?$SafeMap_Iterator@_KPAVSendPacketArgs@RobustConnectionBuffer@@@@@@QAAAAV1@XZ
?AuthzComplete@UserRecord@@UAAKPAX0W4AdministratorType@UserAuthzRecord@@KPBG@Z
?BOMS@PacketFormatter@@0QBUBOMInfo@1@B DATA
?BeginRevertToSelf@CSecurity@@SAHPAPAXK@Z
?BuildFragmentTransfer@CWSManResourceNoResourceUri@@UAAHAAVBufferFormatter@@@Z
?BuildOptionSet@CWSManResourceNoResourceUri@@QAAHAAVBufferFormatter@@@Z
?BuildSelectorSet@CWSManEPR@@UAAHAAVBufferFormatter@@@Z
?BuildSelectorSet@CWSManResourceNoResourceUri@@UAAHAAVBufferFormatter@@@Z
?CHARSETS@PacketFormatter@@0QBUCharsetInfo@1@B DATA
?ChangeLogging@CServiceConfigCache@@QAAXW4ErrorLogging@@@Z
?CheckSharedSSLConfiguration@ConfigRegistry@@IAAHPAVIRequestContext@@PBG1HPAH@Z
?Clear@?$SafeMap@UPluginKey@@KV?$SafeMap_Iterator@UPluginKey@@K@@@@QAAXXZ
?Clear@?$SafeMap@VStringKeyCI@@KV?$SafeMap_Iterator@VStringKeyCI@@K@@@@QAAXXZ
?Clear@?$SafeMap@VStringKeyCI@@UUSER_CONTEXT_INFO@WSManHttpListener@@V?$SafeMap_Iterator@VStringKeyCI@@UUSER_CONTEXT_INFO@WSManHttpListener@@@@@@QAAXXZ
?Clear@?$SafeMap@VStringKeyStore@@PAVExpiredOperationIdRecord@@V?$SafeMap_Iterator@VStringKeyStore@@PAVExpiredOperationIdRecord@@@@@@QAAXXZ
?ClearKeys@CWSManResourceNoResourceUri@@QAAHXZ
?ClearOptions@CWSManResourceNoResourceUri@@QAAHXZ
?ClearRegistryKeys@ConfigRegistry@@IAAHPAVIRequestContext@@@Z
?ClearSubKeys@@YAHPAUHKEY__@@PAVIRequestContext@@@Z
?CompleteWithErrorContext@CRequestContext@@QAAXPAU_WSMAN_PLUGIN_REQUEST@@@Z
?Confirm@ExtendedSemantic@@2KB
?Copy@TSTRBUFFER@@QAAJPBG@Z
?CopyString@@YAPAGPAVIRequestContext@@W4CallSiteId@@PBG@Z
?CopyString@@YAPAGPBGABHAAVIRequestContext@@@Z
?CopyString@MessageId@PacketParser@@QAAKPBGH@Z
?CopyTo@CErrorContext@@UBAXPAVIRequestContext@@@Z
?CopyTo@CRequestContext@@UBAXPAVIRequestContext@@@Z
?CreateActivityId@EventHandler@WSMan@@SAXAAU_GUID@@@Z
?CreateAnEvent@SoapSemanticConverter@@QAAKKPAVSemanticMessage@@AAVBufferFormatter@@PAVIRequestContext@@@Z
?CreateAutoConfiguredListener@CConfigManager@@AAAHPAVIRequestContext@@PAVLISTENER_IDENTITY@@@Z
?CreateInstance@?$ILoader@VAdminSid@CSecurity@@@@IAA_NAAVIRequestContext@@@Z
?CreateInstance@?$ILoader@VCredUIDllLoader@@@@IAA_NAAVIRequestContext@@@Z
?CreateInstance@?$ILoader@VEventHandler@WSMan@@@@IAA_NAAVIRequestContext@@@Z
?CreateInstance@?$ILoader@VInteractiveSid@CSecurity@@@@IAA_NAAVIRequestContext@@@Z
?CreateInstance@?$ILoader@VIpHlpApiDllLoader@@@@IAA_NAAVIRequestContext@@@Z
?CreateInstance@?$ILoader@VMachineName@@@@IAA_NAAVIRequestContext@@@Z
?CreateInstance@?$ILoader@VNetworkServiceSid@CSecurity@@@@IAA_NAAVIRequestContext@@@Z
?CreateInstance@?$ILoader@VNtDsApiDllLoader@@@@IAA_NAAVIRequestContext@@@Z
?CreateInstance@?$ILoader@VResources@Locale@@@@IAA_NAAVIRequestContext@@@Z
?CreateInstance@?$ILoader@VShell32DllLoader@@@@IAA_NAAVIRequestContext@@@Z
?CreateInstance@?$ILoader@VShlWApiDllLoader@@@@IAA_NAAVIRequestContext@@@Z
?CreateInstance@?$ILoader@VSubscriptionManager@@@@IAA_NAAVIRequestContext@@@Z
?CreateInstance@?$ILoader@VUser32DllLoader@@@@IAA_NAAVIRequestContext@@@Z
?CreateInstance@?$ILoader@VWSManMemCryptManager@@@@IAA_NAAVIRequestContext@@@Z
?CreateKey@ConfigRegistry@@IAAHPAVIRequestContext@@PBGPAPAUHKEY__@@1KPAK@Z
?CreateNew@CBaseConfigCache@@CAPAV1@PAVIRequestContext@@PAVCConfigCacheMap@1@P6APAV1@XZW4ErrorLogging@@H@Z
CreateProvHost
?CreateRenderingInformation@CWSManSecurityUI@@AAAHPAVIRequestContext@@@Z
?CreateResponse@SoapSemanticConverter@@QAAKKW4_MI_OperationCallback_ResponseType@@AAVBufferFormatter@@PAVIRequestContext@@@Z
?CreateSessionGuid@SessionId@PacketParser@@QAAKPBGH@Z
?Data@?$SafeMap_Iterator@PAVCCertMapping@@UEmpty@@@@IBAAAV?$STLMap@PAVCCertMapping@@UEmpty@@@@XZ
?Data@?$SafeMap_Iterator@PAVCListenerOperation@@UEmpty@@@@IBAAAV?$STLMap@PAVCListenerOperation@@UEmpty@@@@XZ
?Data@?$SafeMap_Iterator@PAVCShellUriSettings@@UEmpty@@@@IBAAAV?$STLMap@PAVCShellUriSettings@@UEmpty@@@@XZ
?Data@?$SafeMap_Iterator@PAXUEmpty@@@@IBAAAV?$STLMap@PAXUEmpty@@@@XZ
?Data@?$SafeMap_Iterator@UPluginKey@@K@@IBAAAV?$STLMap@UPluginKey@@K@@XZ
?Data@?$SafeMap_Iterator@UUserKey@@PAVBlockedRecord@@@@IBAAAV?$STLMap@UUserKey@@PAVBlockedRecord@@@@XZ
?Data@?$SafeMap_Iterator@VCertThumbprintKey@@VCertThumbprintMappedSet@CServiceConfigSettings@@@@IBAAAV?$STLMap@VCertThumbprintKey@@VCertThumbprintMappedSet@CServiceConfigSettings@@@@XZ
?Data@?$SafeMap_Iterator@VKey@Locale@@K@@IBAAAV?$STLMap@VKey@Locale@@K@@XZ
?Data@?$SafeMap_Iterator@VStringKeyCI@@K@@IBAAAV?$STLMap@VStringKeyCI@@K@@XZ
?Data@?$SafeMap_Iterator@VStringKeyCI@@UUSER_CONTEXT_INFO@WSManHttpListener@@@@IBAAAV?$STLMap@VStringKeyCI@@UUSER_CONTEXT_INFO@WSManHttpListener@@@@XZ
?Data@?$SafeMap_Iterator@VStringKeyStore@@PAVExpiredOperationIdRecord@@@@IBAAAV?$STLMap@VStringKeyStore@@PAVExpiredOperationIdRecord@@@@XZ
?Data@?$SafeMap_Iterator@VStringKeyStore@@PAVServerFullDuplexChannel@@@@IBAAAV?$STLMap@VStringKeyStore@@PAVServerFullDuplexChannel@@@@XZ
?Data@?$SafeMap_Iterator@W4WSManSessionOption@@PAVOptionValue@SessionOptions@Client@WSMan@@@@IBAAAV?$STLMap@W4WSManSessionOption@@PAVOptionValue@SessionOptions@Client@WSMan@@@@XZ
?Data@?$SafeMap_Iterator@_KPAVSendPacketArgs@RobustConnectionBuffer@@@@IBAAAV?$STLMap@_KPAVSendPacketArgs@RobustConnectionBuffer@@@@XZ
?DeInitialize@?$SafeMap@PAVCCertMapping@@UEmpty@@V?$SafeMap_Iterator@PAVCCertMapping@@UEmpty@@@@@@UAA_NAAVIRequestContext@@@Z
?DeInitialize@?$SafeMap@PAVCCertMapping@@UEmpty@@V?$SafeSet_Iterator@PAVCCertMapping@@@@@@UAA_NAAVIRequestContext@@@Z
?DeInitialize@?$SafeMap@PAVCListenerConnect@@PAV1@V?$SafeMap_Iterator@PAVCListenerConnect@@PAV1@@@@@UAA_NAAVIRequestContext@@@Z
?DeInitialize@?$SafeMap@PAVCListenerOperation@@UEmpty@@V?$SafeMap_Iterator@PAVCListenerOperation@@UEmpty@@@@@@UAA_NAAVIRequestContext@@@Z
?DeInitialize@?$SafeMap@PAVCListenerOperation@@UEmpty@@V?$SafeSet_Iterator@PAVCListenerOperation@@@@@@UAA_NAAVIRequestContext@@@Z
?DeInitialize@?$SafeMap@PAVCListenerReceive@@PAV1@V?$SafeMap_Iterator@PAVCListenerReceive@@PAV1@@@@@UAA_NAAVIRequestContext@@@Z
?DeInitialize@?$SafeMap@PAVCListenerSend@@PAV1@V?$SafeMap_Iterator@PAVCListenerSend@@PAV1@@@@@UAA_NAAVIRequestContext@@@Z
?DeInitialize@?$SafeMap@PAVCListenerSignal@@PAV1@V?$SafeMap_Iterator@PAVCListenerSignal@@PAV1@@@@@UAA_NAAVIRequestContext@@@Z
?DeInitialize@?$SafeMap@PAVCShellUriSettings@@UEmpty@@V?$SafeSet_Iterator@PAVCShellUriSettings@@@@@@UAA_NAAVIRequestContext@@@Z
?DeInitialize@?$SafeMap@PAVCollector@@UEmpty@@V?$SafeMap_Iterator@PAVCollector@@UEmpty@@@@@@UAA_NAAVIRequestContext@@@Z
?DeInitialize@?$SafeMap@PAVCollector@@UEmpty@@V?$SafeSet_Iterator@PAVCollector@@@@@@UAA_NAAVIRequestContext@@@Z
?DeInitialize@?$SafeMap@PAVHostOperation@@UEmpty@@V?$SafeMap_Iterator@PAVHostOperation@@UEmpty@@@@@@UAA_NAAVIRequestContext@@@Z
?DeInitialize@?$SafeMap@PAVHostOperation@@UEmpty@@V?$SafeSet_Iterator@PAVHostOperation@@@@@@UAA_NAAVIRequestContext@@@Z
?DeInitialize@?$SafeMap@PAVIOperation@@UEmpty@@V?$SafeMap_Iterator@PAVIOperation@@UEmpty@@@@@@UAA_NAAVIRequestContext@@@Z
?DeInitialize@?$SafeMap@PAVIOperation@@UEmpty@@V?$SafeSet_Iterator@PAVIOperation@@@@@@UAA_NAAVIRequestContext@@@Z
?DeInitialize@?$SafeMap@PAVListenerSourceSubscription@@UEmpty@@V?$SafeMap_Iterator@PAVListenerSourceSubscription@@UEmpty@@@@@@UAA_NAAVIRequestContext@@@Z
?DeInitialize@?$SafeMap@PAVListenerSourceSubscription@@UEmpty@@V?$SafeSet_Iterator@PAVListenerSourceSubscription@@@@@@UAA_NAAVIRequestContext@@@Z
?DeInitialize@?$SafeMap@PAVPushSubscription@@UEmpty@@V?$SafeMap_Iterator@PAVPushSubscription@@UEmpty@@@@@@UAA_NAAVIRequestContext@@@Z
?DeInitialize@?$SafeMap@PAVPushSubscription@@UEmpty@@V?$SafeSet_Iterator@PAVPushSubscription@@@@@@UAA_NAAVIRequestContext@@@Z
?DeInitialize@?$SafeMap@PAXUEmpty@@V?$SafeSet_Iterator@PAX@@@@UAA_NAAVIRequestContext@@@Z
?DeInitialize@?$SafeMap@UPluginKey@@KV?$SafeMap_Iterator@UPluginKey@@K@@@@UAA_NAAVIRequestContext@@@Z
?DeInitialize@?$SafeMap@UUserKey@@PAVBlockedRecord@@V?$SafeMap_Iterator@UUserKey@@PAVBlockedRecord@@@@@@UAA_NAAVIRequestContext@@@Z
?DeInitialize@?$SafeMap@VCertThumbprintKey@@VCertThumbprintMappedSet@CServiceConfigSettings@@V?$SafeMap_Iterator@VCertThumbprintKey@@VCertThumbprintMappedSet@CServiceConfigSettings@@@@@@UAA_NAAVIRequestContext@@@Z
?DeInitialize@?$SafeMap@VGuidKey@@PAVCListenerCommand@@V?$SafeMap_Iterator@VGuidKey@@PAVCListenerCommand@@@@@@UAA_NAAVIRequestContext@@@Z
?DeInitialize@?$SafeMap@VKey@CWmiPtrCache@@VMapping@2@V?$SafeMap_Iterator@VKey@CWmiPtrCache@@VMapping@2@@@@@UAA_NAAVIRequestContext@@@Z
?DeInitialize@?$SafeMap@VKey@Locale@@KV?$SafeMap_Iterator@VKey@Locale@@K@@@@UAA_NAAVIRequestContext@@@Z
?DeInitialize@?$SafeMap@VStringKey@@PAVListenerEvents@@V?$SafeMap_Iterator@VStringKey@@PAVListenerEvents@@@@@@UAA_NAAVIRequestContext@@@Z
?DeInitialize@?$SafeMap@VStringKey@@PAVListenerSourceSubscription@@V?$SafeMap_Iterator@VStringKey@@PAVListenerSourceSubscription@@@@@@UAA_NAAVIRequestContext@@@Z
?DeInitialize@?$SafeMap@VStringKey@@UOption@WinRM_OperationOptions@@V?$SafeMap_Iterator@VStringKey@@UOption@WinRM_OperationOptions@@@@@@UAA_NAAVIRequestContext@@@Z
?DeInitialize@?$SafeMap@VStringKeyCI@@KV?$SafeMap_Iterator@VStringKeyCI@@K@@@@UAA_NAAVIRequestContext@@@Z
?DeInitialize@?$SafeMap@VStringKeyCI@@PAVIISEndpoint@@V?$SafeMap_Iterator@VStringKeyCI@@PAVIISEndpoint@@@@@@UAA_NAAVIRequestContext@@@Z
?DeInitialize@?$SafeMap@VStringKeyCI@@UEmpty@@V?$SafeMap_Iterator@VStringKeyCI@@UEmpty@@@@@@UAA_NAAVIRequestContext@@@Z
?DeInitialize@?$SafeMap@VStringKeyCI@@UEmpty@@V?$SafeSet_Iterator@VStringKeyCI@@@@@@UAA_NAAVIRequestContext@@@Z
?DeInitialize@?$SafeMap@VStringKeyCI@@UUSER_CONTEXT_INFO@WSManHttpListener@@V?$SafeMap_Iterator@VStringKeyCI@@UUSER_CONTEXT_INFO@WSManHttpListener@@@@@@UAA_NAAVIRequestContext@@@Z
?DeInitialize@?$SafeMap@VStringKeyStore@@PAVExpiredOperationIdRecord@@V?$SafeMap_Iterator@VStringKeyStore@@PAVExpiredOperationIdRecord@@@@@@UAA_NAAVIRequestContext@@@Z
?DeInitialize@?$SafeMap@VStringKeyStore@@PAVServerFullDuplexChannel@@V?$SafeMap_Iterator@VStringKeyStore@@PAVServerFullDuplexChannel@@@@@@UAA_NAAVIRequestContext@@@Z
?DeInitialize@?$SafeMap@VTokenCacheKey@ServiceSoapProcessor@@VTokenCacheMapping@2@V?$SafeMap_Iterator@VTokenCacheKey@ServiceSoapProcessor@@VTokenCacheMapping@2@@@@@UAA_NAAVIRequestContext@@@Z
?DeInitialize@?$SafeMap@W4WSManSessionOption@@PAVOptionValue@SessionOptions@Client@WSMan@@V?$SafeMap_Iterator@W4WSManSessionOption@@PAVOptionValue@SessionOptions@Client@WSMan@@@@@@UAA_NAAVIRequestContext@@@Z
?DeInitialize@?$SafeMap@_KPAVSendPacketArgs@RobustConnectionBuffer@@V?$SafeMap_Iterator@_KPAVSendPacketArgs@RobustConnectionBuffer@@@@@@UAA_NAAVIRequestContext@@@Z
?DeInitialize@CWSManGroupPolicyManager@@AAAHXZ
?DeInitialize@EventHandler@WSMan@@QAA_NAAVIRequestContext@@@Z
?Debug@ExtendedSemantic@@2KB
?Decode@PacketFormatter@@QBAKPAPAVPacket@@@Z
?DecodeFaultObject@CRequestContext@@AAAKPAU_FWXML_ELEMENT@@AAPBG11@Z
?DecodeFaultObject@CRequestContext@@AAAKPBGKAAPBG11@Z
?DecodeFaultObjectProvider@CRequestContext@@AAAKPAU_FWXML_ELEMENT@@AAPBG1@Z
?DecodeFaultObjectProviderMessage@CRequestContext@@AAAKPAU_FWXML_ELEMENT@@AAPBG@Z
?DecodeFaultReason@CRequestContext@@AAAKPAU_FWXML_ELEMENT@@AAPBG@Z
?DecreaseProfileCount@UserRecord@@QAAXXZ
?DeleteConfigKey@ConfigRegistry@@KAHPAVIRequestContext@@PBG1H@Z
?DeleteCredentialsFromCredmanStore@CConfigManager@@SAHPAVIRequestContext@@PAG@Z
?DeleteKey@@YAHPAVIRequestContext@@PBG1@Z
?DeleteKey@ConfigRegistry@@KAHPAVIRequestContext@@PBGH@Z
?DeleteSubkeys@ConfigRegistry@@KAHPAVIRequestContext@@PAUHKEY__@@PBGHH@Z
?DeleteValues@ConfigRegistry@@KAHPAVIRequestContext@@PAUHKEY__@@@Z
?Detach@?$AutoCleanup@V?$AutoDelete@G@@PAG@@QAAPAGXZ
?Detach@?$AutoCleanup@V?$AutoDelete@UIPRange@CWSManIPFilter@@@@PAUIPRange@CWSManIPFilter@@@@QAAPAUIPRange@CWSManIPFilter@@XZ
?Detach@?$AutoCleanup@V?$AutoDelete@U_WSMAN_STREAM_ID_SET@@@@PAU_WSMAN_STREAM_ID_SET@@@@QAAPAU_WSMAN_STREAM_ID_SET@@XZ
?Detach@?$AutoCleanup@V?$AutoDelete@V?$Handle@VISubscription@@@@@@PAV?$Handle@VISubscription@@@@@@QAAPAV?$Handle@VISubscription@@@@XZ
?Detach@?$AutoCleanup@V?$AutoDelete@V?$SafeSet@PAVCCertMapping@@@@@@PAV?$SafeSet@PAVCCertMapping@@@@@@QAAPAV?$SafeSet@PAVCCertMapping@@@@XZ
?Detach@?$AutoCleanup@V?$AutoDelete@V?$SafeSet@PAVCShellUriSettings@@@@@@PAV?$SafeSet@PAVCShellUriSettings@@@@@@QAAPAV?$SafeSet@PAVCShellUriSettings@@@@XZ
?Detach@?$AutoCleanup@V?$AutoDelete@V?$set@PAVCListenerSettings@@VCListenerSettingsLessFunctor@CServiceConfigSettings@@V?$transport_allocator@PAVCListenerSettings@@@@@std@@@@PAV?$set@PAVCListenerSettings@@VCListenerSettingsLessFunctor@CServiceConfigSettings@@V?$transport_allocator@PAVCListenerSettings@@@@@std@@@@QAAPAV?$set@PAVCListenerSettings@@VCListenerSettingsLessFunctor@CServiceConfigSettings@@V?$transport_allocator@PAVCListenerSettings@@@@@std@@XZ
?Detach@?$AutoCleanup@V?$AutoDelete@VAdminSid@CSecurity@@@@PAVAdminSid@CSecurity@@@@QAAPAVAdminSid@CSecurity@@XZ
?Detach@?$AutoCleanup@V?$AutoDelete@VBlockedRecord@@@@PAVBlockedRecord@@@@QAAPAVBlockedRecord@@XZ
?Detach@?$AutoCleanup@V?$AutoDelete@VCBaseConfigCache@@@@PAVCBaseConfigCache@@@@QAAPAVCBaseConfigCache@@XZ
?Detach@?$AutoCleanup@V?$AutoDelete@VCCertMapping@@@@PAVCCertMapping@@@@QAAPAVCCertMapping@@XZ
?Detach@?$AutoCleanup@V?$AutoDelete@VCListenerSettings@@@@PAVCListenerSettings@@@@QAAPAVCListenerSettings@@XZ
?Detach@?$AutoCleanup@V?$AutoDelete@VCServiceWatcher@CServiceConfigCache@@@@PAVCServiceWatcher@CServiceConfigCache@@@@QAAPAVCServiceWatcher@CServiceConfigCache@@XZ
?Detach@?$AutoCleanup@V?$AutoDelete@VCShellUriSettings@@@@PAVCShellUriSettings@@@@QAAPAVCShellUriSettings@@XZ
?Detach@?$AutoCleanup@V?$AutoDelete@VCWSManEPR@@@@PAVCWSManEPR@@@@QAAPAVCWSManEPR@@XZ
?Detach@?$AutoCleanup@V?$AutoDelete@VCWSManResource@@@@PAVCWSManResource@@@@QAAPAVCWSManResource@@XZ
?Detach@?$AutoCleanup@V?$AutoDelete@VCertHash@@@@PAVCertHash@@@@QAAPAVCertHash@@XZ
?Detach@?$AutoCleanup@V?$AutoDelete@VConfigUpdate@@@@PAVConfigUpdate@@@@QAAPAVConfigUpdate@@XZ
?Detach@?$AutoCleanup@V?$AutoDelete@VCredUIDllLoader@@@@PAVCredUIDllLoader@@@@QAAPAVCredUIDllLoader@@XZ
?Detach@?$AutoCleanup@V?$AutoDelete@VEnumSinkEx@@@@PAVEnumSinkEx@@@@QAAPAVEnumSinkEx@@XZ
?Detach@?$AutoCleanup@V?$AutoDelete@VEventHandler@WSMan@@@@PAVEventHandler@WSMan@@@@QAAPAVEventHandler@WSMan@@XZ
?Detach@?$AutoCleanup@V?$AutoDelete@VExpiredOperationIdRecord@@@@PAVExpiredOperationIdRecord@@@@QAAPAVExpiredOperationIdRecord@@XZ
?Detach@?$AutoCleanup@V?$AutoDelete@VGeneralSinkEx@@@@PAVGeneralSinkEx@@@@QAAPAVGeneralSinkEx@@XZ
?Detach@?$AutoCleanup@V?$AutoDelete@VIQueryDASHSMASHInterface@@@@PAVIQueryDASHSMASHInterface@@@@QAAPAVIQueryDASHSMASHInterface@@XZ
?Detach@?$AutoCleanup@V?$AutoDelete@VISpecification@@@@PAVISpecification@@@@QAAPAVISpecification@@XZ
?Detach@?$AutoCleanup@V?$AutoDelete@VInteractiveSid@CSecurity@@@@PAVInteractiveSid@CSecurity@@@@QAAPAVInteractiveSid@CSecurity@@XZ
?Detach@?$AutoCleanup@V?$AutoDelete@VIpHlpApiDllLoader@@@@PAVIpHlpApiDllLoader@@@@QAAPAVIpHlpApiDllLoader@@XZ
?Detach@?$AutoCleanup@V?$AutoDelete@VMachineName@@@@PAVMachineName@@@@QAAPAVMachineName@@XZ
?Detach@?$AutoCleanup@V?$AutoDelete@VNetworkServiceSid@CSecurity@@@@PAVNetworkServiceSid@CSecurity@@@@QAAPAVNetworkServiceSid@CSecurity@@XZ
?Detach@?$AutoCleanup@V?$AutoDelete@VNtDsApiDllLoader@@@@PAVNtDsApiDllLoader@@@@QAAPAVNtDsApiDllLoader@@XZ
?Detach@?$AutoCleanup@V?$AutoDelete@VOptionValue@SessionOptions@Client@WSMan@@@@PAVOptionValue@SessionOptions@Client@WSMan@@@@QAAPAVOptionValue@SessionOptions@Client@WSMan@@XZ
?Detach@?$AutoCleanup@V?$AutoDelete@VResources@Locale@@@@PAVResources@Locale@@@@QAAPAVResources@Locale@@XZ
?Detach@?$AutoCleanup@V?$AutoDelete@VSecurityEntry@Catalog@@@@PAVSecurityEntry@Catalog@@@@QAAPAVSecurityEntry@Catalog@@XZ
?Detach@?$AutoCleanup@V?$AutoDelete@VServiceSoapProcessor@@@@PAVServiceSoapProcessor@@@@QAAPAVServiceSoapProcessor@@XZ
?Detach@?$AutoCleanup@V?$AutoDelete@VShell32DllLoader@@@@PAVShell32DllLoader@@@@QAAPAVShell32DllLoader@@XZ
?Detach@?$AutoCleanup@V?$AutoDelete@VShlWApiDllLoader@@@@PAVShlWApiDllLoader@@@@QAAPAVShlWApiDllLoader@@XZ
?Detach@?$AutoCleanup@V?$AutoDelete@VSubscriptionManager@@@@PAVSubscriptionManager@@@@QAAPAVSubscriptionManager@@XZ
?Detach@?$AutoCleanup@V?$AutoDelete@VTSTRBUFFER@@@@PAVTSTRBUFFER@@@@QAAPAVTSTRBUFFER@@XZ
?Detach@?$AutoCleanup@V?$AutoDelete@VUser32DllLoader@@@@PAVUser32DllLoader@@@@QAAPAVUser32DllLoader@@XZ
?Detach@?$AutoCleanup@V?$AutoDelete@VWSManMemCryptManager@@@@PAVWSManMemCryptManager@@@@QAAPAVWSManMemCryptManager@@XZ
?Detach@?$AutoCleanup@V?$AutoDelete@VWmiEnumContext@@@@PAVWmiEnumContext@@@@QAAPAVWmiEnumContext@@XZ
?Detach@?$AutoCleanup@V?$AutoDelete@VXmlReader@@@@PAVXmlReader@@@@QAAPAVXmlReader@@XZ
?Detach@?$AutoCleanup@V?$AutoDeleteVector@$$CBG@@PBG@@QAAPBGXZ
?Detach@?$AutoCleanup@V?$AutoDeleteVector@D@@PAD@@QAAPADXZ
?Detach@?$AutoCleanup@V?$AutoDeleteVector@E@@PAE@@QAAPAEXZ
?Detach@?$AutoCleanup@V?$AutoDeleteVector@G@@PAG@@QAAPAGXZ
?Detach@?$AutoCleanup@V?$AutoDeleteVector@PAG@@PAPAG@@QAAPAPAGXZ
?Detach@?$AutoCleanup@V?$AutoDeleteVector@PBG@@PAPBG@@QAAPAPBGXZ
?Detach@?$AutoCleanup@V?$AutoDeleteVector@U_WINRS_CREATE_SHELL_ENVIRONMENT_VARIABLE@@@@PAU_WINRS_CREATE_SHELL_ENVIRONMENT_VARIABLE@@@@QAAPAU_WINRS_CREATE_SHELL_ENVIRONMENT_VARIABLE@@XZ
?Detach@?$AutoCleanup@V?$AutoDeleteVector@U_WINRS_RUN_COMMAND_ARG@@@@PAU_WINRS_RUN_COMMAND_ARG@@@@QAAPAU_WINRS_RUN_COMMAND_ARG@@XZ
?Detach@?$AutoCleanup@V?$AutoDeleteVector@U_WSMAN_OPTION@@@@PAU_WSMAN_OPTION@@@@QAAPAU_WSMAN_OPTION@@XZ
?Detach@?$AutoCleanup@V?$AutoFree@E@@PAE@@QAAPAEXZ
?Detach@?$AutoCleanup@V?$AutoLocklessItemRecycle@VPacket@@@@PAVPacket@@@@QAAPAVPacket@@XZ
?Detach@?$AutoCleanup@V?$AutoRelease@UIClientSecurity@@@@PAUIClientSecurity@@@@QAAPAUIClientSecurity@@XZ
?Detach@?$AutoCleanup@V?$AutoRelease@UIEnumWbemClassObject@@@@PAUIEnumWbemClassObject@@@@QAAPAUIEnumWbemClassObject@@XZ
?Detach@?$AutoCleanup@V?$AutoRelease@UIErrorInfo@@@@PAUIErrorInfo@@@@QAAPAUIErrorInfo@@XZ
?Detach@?$AutoCleanup@V?$AutoRelease@UIUnknown@@@@PAUIUnknown@@@@QAAPAUIUnknown@@XZ
?Detach@?$AutoCleanup@V?$AutoRelease@UIWbemClassObject@@@@PAUIWbemClassObject@@@@QAAPAUIWbemClassObject@@XZ
?Detach@?$AutoCleanup@V?$AutoRelease@UIWbemContext@@@@PAUIWbemContext@@@@QAAPAUIWbemContext@@XZ
?Detach@?$AutoCleanup@V?$AutoRelease@UIWbemLocator@@@@PAUIWbemLocator@@@@QAAPAUIWbemLocator@@XZ
?Detach@?$AutoCleanup@V?$AutoRelease@UIWbemObjectTextSrc@@@@PAUIWbemObjectTextSrc@@@@QAAPAUIWbemObjectTextSrc@@XZ
?Detach@?$AutoCleanup@V?$AutoRelease@UIWbemPath@@@@PAUIWbemPath@@@@QAAPAUIWbemPath@@XZ
?Detach@?$AutoCleanup@V?$AutoRelease@UIWbemPathKeyList@@@@PAUIWbemPathKeyList@@@@QAAPAUIWbemPathKeyList@@XZ
?Detach@?$AutoCleanup@V?$AutoRelease@UIWbemQualifierSet@@@@PAUIWbemQualifierSet@@@@QAAPAUIWbemQualifierSet@@XZ
?Detach@?$AutoCleanup@V?$AutoRelease@UIWbemQuery@@@@PAUIWbemQuery@@@@QAAPAUIWbemQuery@@XZ
?Detach@?$AutoCleanup@V?$AutoRelease@UIWbemServices@@@@PAUIWbemServices@@@@QAAPAUIWbemServices@@XZ
?Detach@?$AutoCleanup@V?$AutoRelease@VApplication@Client@WSMan@@@@PAVApplication@Client@WSMan@@@@QAAPAVApplication@Client@WSMan@@XZ
?Detach@?$AutoCleanup@V?$AutoRelease@VCBaseConfigCache@@@@PAVCBaseConfigCache@@@@QAAPAVCBaseConfigCache@@XZ
?Detach@?$AutoCleanup@V?$AutoRelease@VCClientConfigSettings@@@@PAVCClientConfigSettings@@@@QAAPAVCClientConfigSettings@@XZ
?Detach@?$AutoCleanup@V?$AutoRelease@VCCommonConfigSettings@@@@PAVCCommonConfigSettings@@@@QAAPAVCCommonConfigSettings@@XZ
?Detach@?$AutoCleanup@V?$AutoRelease@VCConfigManager@@@@PAVCConfigManager@@@@QAAPAVCConfigManager@@XZ
?Detach@?$AutoCleanup@V?$AutoRelease@VCRemoteSession@@@@PAVCRemoteSession@@@@QAAPAVCRemoteSession@@XZ
?Detach@?$AutoCleanup@V?$AutoRelease@VCRequestContext@@@@PAVCRequestContext@@@@QAAPAVCRequestContext@@XZ
?Detach@?$AutoCleanup@V?$AutoRelease@VCServiceConfigSettings@@@@PAVCServiceConfigSettings@@@@QAAPAVCServiceConfigSettings@@XZ
?Detach@?$AutoCleanup@V?$AutoRelease@VCWSManEPR@@@@PAVCWSManEPR@@@@QAAPAVCWSManEPR@@XZ
?Detach@?$AutoCleanup@V?$AutoRelease@VCWSManGroupPolicyCache@@@@PAVCWSManGroupPolicyCache@@@@QAAPAVCWSManGroupPolicyCache@@XZ
?Detach@?$AutoCleanup@V?$AutoRelease@VCWSManGroupPolicyManager@@@@PAVCWSManGroupPolicyManager@@@@QAAPAVCWSManGroupPolicyManager@@XZ
?Detach@?$AutoCleanup@V?$AutoRelease@VCWSManObject@@@@PAVCWSManObject@@@@QAAPAVCWSManObject@@XZ
?Detach@?$AutoCleanup@V?$AutoRelease@VCWinRSPluginConfigCache@@@@PAVCWinRSPluginConfigCache@@@@QAAPAVCWinRSPluginConfigCache@@XZ
?Detach@?$AutoCleanup@V?$AutoRelease@VCWinRSPluginConfigSettings@@@@PAVCWinRSPluginConfigSettings@@@@QAAPAVCWinRSPluginConfigSettings@@XZ
?Detach@?$AutoCleanup@V?$AutoRelease@VCommand@Client@WSMan@@@@PAVCommand@Client@WSMan@@@@QAAPAVCommand@Client@WSMan@@XZ
?Detach@?$AutoCleanup@V?$AutoRelease@VEnumSinkEx@@@@PAVEnumSinkEx@@@@QAAPAVEnumSinkEx@@XZ
?Detach@?$AutoCleanup@V?$AutoRelease@VGeneralSinkEx@@@@PAVGeneralSinkEx@@@@QAAPAVGeneralSinkEx@@XZ
?Detach@?$AutoCleanup@V?$AutoRelease@VIPCSoapProcessor@@@@PAVIPCSoapProcessor@@@@QAAPAVIPCSoapProcessor@@XZ
?Detach@?$AutoCleanup@V?$AutoRelease@VIRequestContext@@@@PAVIRequestContext@@@@QAAPAVIRequestContext@@XZ
?Detach@?$AutoCleanup@V?$AutoRelease@VReceiveOperation@Client@WSMan@@@@PAVReceiveOperation@Client@WSMan@@@@QAAPAVReceiveOperation@Client@WSMan@@XZ
?Detach@?$AutoCleanup@V?$AutoRelease@VSendOperation@Client@WSMan@@@@PAVSendOperation@Client@WSMan@@@@QAAPAVSendOperation@Client@WSMan@@XZ
?Detach@?$AutoCleanup@V?$AutoRelease@VShell@Client@WSMan@@@@PAVShell@Client@WSMan@@@@QAAPAVShell@Client@WSMan@@XZ
?Detach@?$AutoCleanup@V?$AutoRelease@VSignalOperation@Client@WSMan@@@@PAVSignalOperation@Client@WSMan@@@@QAAPAVSignalOperation@Client@WSMan@@XZ
?Detach@?$AutoCleanup@VAutoBstrNoAlloc@@PAG@@QAAPAGXZ
?Detach@?$AutoCleanup@VAutoCertContext@@PBU_CERT_CONTEXT@@@@QAAPBU_CERT_CONTEXT@@XZ
?Detach@?$AutoCleanup@VAutoHandle@@PAX@@QAAPAXXZ
?Detach@?$AutoCleanup@VAutoImpersonateUser@@PAX@@QAAPAXXZ
?Detach@?$AutoCleanup@VAutoLocalFree@@PAX@@QAAPAXXZ
?Detach@?$AutoCleanup@VAutoMIClass@@PAU_MI_Class@@@@QAAPAU_MI_Class@@XZ
?Detach@?$AutoCleanup@VAutoMIInstance@@PAU_MI_Instance@@@@QAAPAU_MI_Instance@@XZ
?Detach@?$AutoCleanup@VAutoRegKey@@PAUHKEY__@@@@QAAPAUHKEY__@@XZ
?Detach@?$AutoCleanup@VAutoSecurityDescriptor@@PAX@@QAAPAXXZ
?Detach@?$AutoCleanup@VAutoWaitHandle@@PAX@@QAAPAXXZ
?Detach@BufferFormatter@@QAAPAEXZ
?Discard@CServiceWatcher@CServiceConfigCache@@QAAXXZ
?DoOnChange@CBaseConfigCache@@IAAXW4ConfigChangeSources@@KW4ConfigChangeSeverityType@@@Z
?DoesThreadOwnLock@CWSManCriticalSection@@QAAHXZ
?Down@?$LoaderSerializer@VSubscriptionManager@@$01@@AAAJXZ
?DropData@CircularBufferFormatter@@QAAXK@Z
?DuplicateCurrentToken@CSecurity@@SAHPAPAXKPAU_SECURITY_ATTRIBUTES@@W4_SECURITY_IMPERSONATION_LEVEL@@W4_TOKEN_TYPE@@H@Z
?EnableAllPrivileges@@YAHPAPAE@Z
?Encode@PacketFormatter@@QBAKPAPAVPacket@@@Z
?Encode@PacketFormatter@@QBAKPBGKPAEKPAPAEPAK_N@Z
?EndOfStream@PacketParser@@QAAXK@Z
?EndRevertToSelf@CSecurity@@SAHPAX@Z
?EnsureActivityIdOnThread@EventHandler@WSMan@@SAXXZ
?EnsureNoActiveCaches@CClientConfigCache@@SAXXZ
?EnsureNoActiveCaches@CServiceConfigCache@@SAXXZ
?Error@EventLog@@SAXK@Z
?Error@EventLog@@SAXKGPAPBG@Z
?Error@EventLog@@SAXKPBG@Z
?ErrorAction@ExtendedSemantic@@2KB
?EventEnabled@EventHandler@WSMan@@AAA_NABU_EVENT_DESCRIPTOR@@@Z
?EventProviderEnabled@EventHandler@WSMan@@AAA_NXZ
?EventWrite@EventHandler@WSMan@@AAAXABU_EVENT_DESCRIPTOR@@KPAU_EVENT_DATA_DESCRIPTOR@@@Z
?ExtractContextId@PacketParser@@QAAHPAPBGKPBG@Z
?ExtractShellId@PacketParser@@QAAHPAVCRequestContext@@PAGK@Z
?ExtractSidFromToken@CSecurity@@SAHPAVIRequestContext@@PAXAAVAutoLocalFree@@@Z
?FindExisting@CBaseConfigCache@@CAPAV1@PAVCConfigCacheMap@1@PBGW4ErrorLogging@@@Z
?FindMatch@CResourceAlias@@AAAPAU_ALIAS_INFORMATION@@PBG@Z
?First@TSTRBUFFER@@QBAPBGXZ
?Format@Locale@@ABA_NKPAPADPAPAXPAGKGW4CallSiteId@@@Z
?FormatDataDescriptor@EventHandler@WSMan@@SAXAAU_EVENT_DATA_DESCRIPTOR@@AAG@Z
?FormatDataDescriptor@EventHandler@WSMan@@SAXAAU_EVENT_DATA_DESCRIPTOR@@AAJ@Z
?FormatDataDescriptor@EventHandler@WSMan@@SAXAAU_EVENT_DATA_DESCRIPTOR@@AAK@Z
?FormatDataDescriptor@EventHandler@WSMan@@SAXAAU_EVENT_DATA_DESCRIPTOR@@PBD@Z
?FormatDataDescriptor@EventHandler@WSMan@@SAXAAU_EVENT_DATA_DESCRIPTOR@@PBG@Z
?FormatWithFallback@Locale@@ABA_NKPAPAD0PAPAXPAGK@Z
?Free@WSManMemory@@SAXPAXH@Z
?FreeBstr@WSManMemory@@SAXPAGHH@Z
?FreeInstance@?$ILoader@VAdminSid@CSecurity@@@@QAA_NAAVIRequestContext@@_N@Z
?FreeInstance@?$ILoader@VCredUIDllLoader@@@@QAA_NAAVIRequestContext@@_N@Z
?FreeInstance@?$ILoader@VEventHandler@WSMan@@@@QAA_NAAVIRequestContext@@_N@Z
?FreeInstance@?$ILoader@VInteractiveSid@CSecurity@@@@QAA_NAAVIRequestContext@@_N@Z
?FreeInstance@?$ILoader@VIpHlpApiDllLoader@@@@QAA_NAAVIRequestContext@@_N@Z
?FreeInstance@?$ILoader@VMachineName@@@@QAA_NAAVIRequestContext@@_N@Z
?FreeInstance@?$ILoader@VNetworkServiceSid@CSecurity@@@@QAA_NAAVIRequestContext@@_N@Z
?FreeInstance@?$ILoader@VNtDsApiDllLoader@@@@QAA_NAAVIRequestContext@@_N@Z
?FreeInstance@?$ILoader@VResources@Locale@@@@QAA_NAAVIRequestContext@@_N@Z
?FreeInstance@?$ILoader@VShell32DllLoader@@@@QAA_NAAVIRequestContext@@_N@Z
?FreeInstance@?$ILoader@VShlWApiDllLoader@@@@QAA_NAAVIRequestContext@@_N@Z
?FreeInstance@?$ILoader@VSubscriptionManager@@@@QAA_NAAVIRequestContext@@_N@Z
?FreeInstance@?$ILoader@VUser32DllLoader@@@@QAA_NAAVIRequestContext@@_N@Z
?FreeInstance@?$ILoader@VWSManMemCryptManager@@@@QAA_NAAVIRequestContext@@_N@Z
?FreeInstance@?$LoaderSerializer@VSubscriptionManager@@$01@@QAA_NAAVIRequestContext@@_N@Z
?FreeMemory@RBUFFER@@QAAXXZ
?FreeMemory@SBUFFER@@QAAXXZ
?FreePacket@PacketParser@@QAAXXZ
?FreeXmlStructure@PacketParser@@QAAXXZ
?GenerateTransferId@EventHandler@WSMan@@SAXABU_EVENT_DESCRIPTOR@@PBU_GUID@@1@Z
?GenerateTransferIdImp@EventHandler@WSMan@@AAAXABU_EVENT_DESCRIPTOR@@PBU_GUID@@1@Z
?GetAccessRights@CWSManSecurityUI@@UAAJPBU_GUID@@KPAPAU_SI_ACCESS@@PAK2@Z
?GetAction@PacketParser@@QBAABV?$PacketElement@PBG@1@XZ
?GetActionType@SoapSemanticConverter@@AAA_NPBGPAW4_MI_OperationCallback_ResponseType@@PAW4_MI_CallbackMode@@PAVIRequestContext@@@Z
?GetActivityIdOnCurrentThread@EventHandler@WSMan@@SAXAAU_GUID@@@Z
?GetBaseUri@CWSManResource@@QAAPBGXZ
?GetBomIndex@PacketFormatter@@QBA?AW4Charset@1@XZ
?GetBookmarkXml@PacketParser@@QAAABV?$PacketElement@PAU_FWXML_ELEMENT@@@1@XZ
?GetBool@CConfigManager@@QAAHPAVIRequestContext@@W4ConfigSetting@@PAHPAW4WSManConfigSource@@@Z
?GetBool@CWSManGroupPolicyManager@@QAAHPAVIRequestContext@@W4WSManGroupPolicySetting@@PAHPAW4WSManGroupPolicySettingState@@@Z
?GetBuffer@BufferFormatter@@UAAPAEXZ
?GetBuffer@BufferFormatter@@UBAPBEXZ
?GetBuffer@CircularBufferFormatter@@UAAPAEXZ
?GetBuffer@CircularBufferFormatter@@UBAPBEXZ
?GetBuffer@XmlReader@@QAAPBGXZ
?GetBufferLength@PacketParser@@UAAKXZ
?GetBufferPtr@PacketParser@@UAAPAPAGXZ
?GetBufferSize@BufferFormatter@@QBAKXZ
?GetCacheCount@CClientConfigCache@@SAKXZ
?GetCacheCount@CServiceConfigCache@@SAKXZ
?GetCalculationSize@BufferFormatter@@UBAK_N@Z
?GetCalculationSize@CircularBufferFormatter@@UBAK_N@Z
?GetCharInUse@TSTRBUFFER@@QBAIXZ
?GetCharset@PacketFormatter@@QBA?AW4Charset@1@XZ
?GetCharsetLen@PacketFormatter@@QBAKXZ
?GetCharsetName@PacketFormatter@@QBAPBDXZ
?GetChildCount@ChildLifeTimeManager@@QBAJXZ
?GetConfigCache@CBaseConfigCache@@KAPAV1@PAVIRequestContext@@W4ErrorLogging@@P6APAV1@XZPAVFastLock@@AAV?$AutoRelease@VCConfigCacheMap@CBaseConfigCache@@@@H@Z
?GetConfigCache@CClientConfigCache@@SAPAV1@PAVIRequestContext@@H@Z
?GetConfigCache@CServiceConfigCache@@SAPAV1@PAVIRequestContext@@W4ErrorLogging@@H@Z
?GetConfigCache@CWinRSPluginConfigCache@@SAPAV1@PAVIRequestContext@@W4ErrorLogging@@H@Z
?GetConfigManager@CConfigManager@@SAPAV1@XZ
?GetConfigManagerForCertMapping@CConfigManager@@SAPAV1@PAVCERTMAPPING_IDENTITY@@PAVIRequestContext@@@Z
?GetConfigManagerForListener@CConfigManager@@SAPAV1@PAVLISTENER_IDENTITY@@PAVIRequestContext@@@Z
?GetConfigManagerForShellUri@CConfigManager@@SAPAV1@PAVSHELLURI_IDENTITY@@PAVIRequestContext@@@Z
?GetConfigManagerForTable@CConfigManager@@SAPAV1@PAVWSMANCONFIGTABLE_IDENTITY@@PAVIRequestContext@@@Z
?GetConfigXml@CConfigManager@@QAAHPAVIRequestContext@@PAPBGPAPAVXmlReader@@PAH@Z
?GetCorrelationId@PacketParser@@QAAAAU_GUID@@XZ
?GetCurrentCertMappingIdentity@CConfigManager@@QAAHPAVCERTMAPPING_IDENTITY@@PAVIRequestContext@@@Z
?GetCurrentListenerIdentity@CConfigManager@@QAAHPAVLISTENER_IDENTITY@@PAVIRequestContext@@@Z
?GetCurrentSettings@CBaseConfigCache@@IAAPAVCCommonConfigSettings@@PAVIRequestContext@@@Z
?GetCurrentSettings@CClientConfigCache@@QAAPAVCClientConfigSettings@@PAVIRequestContext@@@Z
?GetCurrentSettings@CServiceConfigCache@@QAAPAVCServiceConfigSettings@@PAVIRequestContext@@@Z
?GetCurrentSettings@CWinRSPluginConfigCache@@QAAPAVCWinRSPluginConfigSettings@@PAVIRequestContext@@@Z
?GetCurrentShellUriIdentity@CConfigManager@@QAAHPAVSHELLURI_IDENTITY@@PAVIRequestContext@@@Z
?GetCurrentTableIdentity@CConfigManager@@QAAHPAVWSMANCONFIGTABLE_IDENTITY@@PAVIRequestContext@@@Z
?GetDataLocale@PacketParser@@QBAABV?$PacketElement@PBG@1@XZ
?GetDataLocaleHelper@PacketParser@@QAAAAVLocale@@XZ
?GetDescriptionElement@SoapSemanticConverter@@QAAPAU_FWXML_ELEMENT@@PAU2@PAVIRequestContext@@@Z
?GetDestructorIter@?$SafeMap@PAVCCertMapping@@UEmpty@@V?$SafeSet_Iterator@PAVCCertMapping@@@@@@QAAAAV?$SafeSet_Iterator@PAVCCertMapping@@@@XZ
?GetDestructorIter@?$SafeMap@PAVCShellUriSettings@@UEmpty@@V?$SafeSet_Iterator@PAVCShellUriSettings@@@@@@QAAAAV?$SafeSet_Iterator@PAVCShellUriSettings@@@@XZ
?GetDestructorIter@?$SafeMap@VCertThumbprintKey@@VCertThumbprintMappedSet@CServiceConfigSettings@@V?$SafeMap_Iterator@VCertThumbprintKey@@VCertThumbprintMappedSet@CServiceConfigSettings@@@@@@QAAAAV?$SafeMap_Iterator@VCertThumbprintKey@@VCertThumbprintMappedSet@CServiceConfigSettings@@@@XZ
?GetDestructorIter@?$SafeMap@VStringKeyStore@@PAVExpiredOperationIdRecord@@V?$SafeMap_Iterator@VStringKeyStore@@PAVExpiredOperationIdRecord@@@@@@QAAAAV?$SafeMap_Iterator@VStringKeyStore@@PAVExpiredOperationIdRecord@@@@XZ
?GetDestructorIter@?$SafeMap@W4WSManSessionOption@@PAVOptionValue@SessionOptions@Client@WSMan@@V?$SafeMap_Iterator@W4WSManSessionOption@@PAVOptionValue@SessionOptions@Client@WSMan@@@@@@QAAAAV?$SafeMap_Iterator@W4WSManSessionOption@@PAVOptionValue@SessionOptions@Client@WSMan@@@@XZ
?GetDialect@Fragment@PacketParser@@QBAPBGXZ
?GetError@BufferFormatter@@QBAKXZ
?GetErrorCode@CErrorContext@@UBAKXZ
?GetEventType@SoapSemanticConverter@@AAAKPBGPAVIRequestContext@@@Z
?GetEventTypeAndResponseElement@SoapSemanticConverter@@AAAPAU_FWXML_ELEMENT@@PAU2@PAKPAVIRequestContext@@@Z
?GetExtendedErrorString@CErrorContext@@UAAPAGXZ
?GetExtendedErrorString@CRequestContext@@UAAPAGXZ
?GetFaultToXml@PacketParser@@QBAABVReferenceParameters@1@XZ
?GetFaultXML@CErrorContext@@UBAPBGXZ
?GetFaultXML@CRequestContext@@UBAPBGXZ
?GetFaultXMLPrivate@CRequestContext@@AAAXPAPAD0KHKKPBG11@Z
?GetFirstConfigManagerForCertMapping@CConfigManager@@SAPAV1@PBG@Z
?GetFirstConfigManagerForListener@CConfigManager@@SAPAV1@PBG@Z
?GetFirstConfigManagerForShellUri@CConfigManager@@SAPAV1@PBG@Z
?GetFirstConfigManagerForTable@CConfigManager@@SAPAV1@W4WSMANTableConfigType@@PBG@Z
?GetFormat@PacketFormatter@@QBA?AW4Charset@1@XZ
?GetFormatterMode@BufferFormatter@@QAA?AW4Charset@PacketFormatter@@XZ
?GetFragment@PacketParser@@QBAABVFragment@1@XZ
?GetFragmentDialect@CWSManResourceNoResourceUri@@QAAPBGXZ
?GetFragmentPath@CWSManResourceNoResourceUri@@QAAPBGXZ
?GetGroupPolicyManager@CWSManGroupPolicyManager@@SAPAV1@PAVIRequestContext@@PBG@Z
?GetHeap@WSManMemory@@SAPAXXZ
?GetIISConfiguration@CConfigManager@@SAHPAVIRequestContext@@PBGPAPAVXmlReader@@@Z
?GetImpersonationToken@UserRecord@@QAAPAXXZ
?GetInheritTypes@CWSManSecurityUI@@UAAJPAPAU_SI_INHERIT_TYPE@@PAK@Z
?GetInitError@CWSManCriticalSection@@QBAKXZ
?GetInstance@?$LoaderSerializer@VAdminSid@CSecurity@@$00@@QAAPAVAdminSid@CSecurity@@AAVIRequestContext@@@Z
?GetInstance@?$LoaderSerializer@VCredUIDllLoader@@$00@@QAAPAVCredUIDllLoader@@AAVIRequestContext@@@Z
?GetInstance@?$LoaderSerializer@VEventHandler@WSMan@@$00@@QAAPAVEventHandler@WSMan@@AAVIRequestContext@@@Z
?GetInstance@?$LoaderSerializer@VInteractiveSid@CSecurity@@$00@@QAAPAVInteractiveSid@CSecurity@@AAVIRequestContext@@@Z
?GetInstance@?$LoaderSerializer@VIpHlpApiDllLoader@@$00@@QAAPAVIpHlpApiDllLoader@@AAVIRequestContext@@@Z
?GetInstance@?$LoaderSerializer@VMachineName@@$00@@QAAPAVMachineName@@AAVIRequestContext@@@Z
?GetInstance@?$LoaderSerializer@VNetworkServiceSid@CSecurity@@$00@@QAAPAVNetworkServiceSid@CSecurity@@AAVIRequestContext@@@Z
?GetInstance@?$LoaderSerializer@VNtDsApiDllLoader@@$00@@QAAPAVNtDsApiDllLoader@@AAVIRequestContext@@@Z
?GetInstance@?$LoaderSerializer@VResources@Locale@@$0A@@@QAAPAVResources@Locale@@AAVIRequestContext@@@Z
?GetInstance@?$LoaderSerializer@VShell32DllLoader@@$00@@QAAPAVShell32DllLoader@@AAVIRequestContext@@@Z
?GetInstance@?$LoaderSerializer@VShlWApiDllLoader@@$00@@QAAPAVShlWApiDllLoader@@AAVIRequestContext@@@Z
?GetInstance@?$LoaderSerializer@VSubscriptionManager@@$01@@QAAPAVSubscriptionManager@@AAVIRequestContext@@@Z
?GetInstance@?$LoaderSerializer@VUser32DllLoader@@$00@@QAAPAVUser32DllLoader@@AAVIRequestContext@@@Z
?GetInstance@?$LoaderSerializer@VWSManMemCryptManager@@$00@@QAAPAVWSManMemCryptManager@@AAVIRequestContext@@@Z
?GetInt@CConfigManager@@QAAHPAVIRequestContext@@W4ConfigSetting@@PAKPAW4WSManConfigSource@@@Z
?GetInt@CWSManGroupPolicyManager@@QAAHPAVIRequestContext@@W4WSManGroupPolicySetting@@PAKPAW4WSManGroupPolicySettingState@@@Z
?GetKey@UserRecord@@QBA?AUUserKey@@XZ
?GetKeyCount@CWSManResourceNoResourceUri@@QAAKXZ
?GetKeyValue@CWSManResourceNoResourceUri@@QAAPBGPBG@Z
?GetKeys@CWSManResourceNoResourceUri@@QAAPAU_WSMAN_KEY@@XZ
?GetLCID@Locale@@QAAKXZ
?GetLength@XmlReader@@QAAIXZ
?GetLocale@CRequestContext@@QAAAAVLocale@@XZ
?GetLocale@PacketParser@@QBAABV?$PacketElement@PBG@1@XZ
?GetLocaleHelper@PacketParser@@QAAAAVLocale@@XZ
?GetLocaleString@CRequestContext@@QAAPBGXZ
?GetLocator@CWSManResource@@QAAPAU_WSMAN_RESOURCE_LOCATOR@@XZ
?GetMachineId@PacketParser@@QBAABV?$PacketElement@PBG@1@XZ
?GetMap@?$SafeMap_Iterator@PAVCCertMapping@@UEmpty@@@@QBAAAV?$SafeMap@PAVCCertMapping@@UEmpty@@V?$SafeMap_Iterator@PAVCCertMapping@@UEmpty@@@@@@XZ
?GetMap@?$SafeMap_Iterator@PAVCListenerConnect@@PAV1@@@QBAAAV?$SafeMap@PAVCListenerConnect@@PAV1@V?$SafeMap_Iterator@PAVCListenerConnect@@PAV1@@@@@XZ
?GetMap@?$SafeMap_Iterator@PAVCListenerOperation@@UEmpty@@@@QBAAAV?$SafeMap@PAVCListenerOperation@@UEmpty@@V?$SafeMap_Iterator@PAVCListenerOperation@@UEmpty@@@@@@XZ
?GetMap@?$SafeMap_Iterator@PAVCListenerReceive@@PAV1@@@QBAAAV?$SafeMap@PAVCListenerReceive@@PAV1@V?$SafeMap_Iterator@PAVCListenerReceive@@PAV1@@@@@XZ
?GetMap@?$SafeMap_Iterator@PAVCListenerSend@@PAV1@@@QBAAAV?$SafeMap@PAVCListenerSend@@PAV1@V?$SafeMap_Iterator@PAVCListenerSend@@PAV1@@@@@XZ
?GetMap@?$SafeMap_Iterator@PAVCListenerSignal@@PAV1@@@QBAAAV?$SafeMap@PAVCListenerSignal@@PAV1@V?$SafeMap_Iterator@PAVCListenerSignal@@PAV1@@@@@XZ
?GetMap@?$SafeMap_Iterator@PAVCShellUriSettings@@UEmpty@@@@QBAAAV?$SafeMap@PAVCShellUriSettings@@UEmpty@@V?$SafeMap_Iterator@PAVCShellUriSettings@@UEmpty@@@@@@XZ
?GetMap@?$SafeMap_Iterator@PAVCollector@@UEmpty@@@@QBAAAV?$SafeMap@PAVCollector@@UEmpty@@V?$SafeMap_Iterator@PAVCollector@@UEmpty@@@@@@XZ
?GetMap@?$SafeMap_Iterator@PAVHostOperation@@UEmpty@@@@QBAAAV?$SafeMap@PAVHostOperation@@UEmpty@@V?$SafeMap_Iterator@PAVHostOperation@@UEmpty@@@@@@XZ
?GetMap@?$SafeMap_Iterator@PAVIOperation@@UEmpty@@@@QBAAAV?$SafeMap@PAVIOperation@@UEmpty@@V?$SafeMap_Iterator@PAVIOperation@@UEmpty@@@@@@XZ
?GetMap@?$SafeMap_Iterator@PAVListenerSourceSubscription@@UEmpty@@@@QBAAAV?$SafeMap@PAVListenerSourceSubscription@@UEmpty@@V?$SafeMap_Iterator@PAVListenerSourceSubscription@@UEmpty@@@@@@XZ
?GetMap@?$SafeMap_Iterator@PAVPushSubscription@@UEmpty@@@@QBAAAV?$SafeMap@PAVPushSubscription@@UEmpty@@V?$SafeMap_Iterator@PAVPushSubscription@@UEmpty@@@@@@XZ
?GetMap@?$SafeMap_Iterator@PAXUEmpty@@@@QBAAAV?$SafeMap@PAXUEmpty@@V?$SafeMap_Iterator@PAXUEmpty@@@@@@XZ
?GetMap@?$SafeMap_Iterator@UPluginKey@@K@@QBAAAV?$SafeMap@UPluginKey@@KV?$SafeMap_Iterator@UPluginKey@@K@@@@XZ
?GetMap@?$SafeMap_Iterator@UUserKey@@PAVBlockedRecord@@@@QBAAAV?$SafeMap@UUserKey@@PAVBlockedRecord@@V?$SafeMap_Iterator@UUserKey@@PAVBlockedRecord@@@@@@XZ
?GetMap@?$SafeMap_Iterator@VCertThumbprintKey@@VCertThumbprintMappedSet@CServiceConfigSettings@@@@QBAAAV?$SafeMap@VCertThumbprintKey@@VCertThumbprintMappedSet@CServiceConfigSettings@@V?$SafeMap_Iterator@VCertThumbprintKey@@VCertThumbprintMappedSet@CServiceConfigSettings@@@@@@XZ
?GetMap@?$SafeMap_Iterator@VGuidKey@@PAVCListenerCommand@@@@QBAAAV?$SafeMap@VGuidKey@@PAVCListenerCommand@@V?$SafeMap_Iterator@VGuidKey@@PAVCListenerCommand@@@@@@XZ
?GetMap@?$SafeMap_Iterator@VKey@Locale@@K@@QBAAAV?$SafeMap@VKey@Locale@@KV?$SafeMap_Iterator@VKey@Locale@@K@@@@XZ
?GetMap@?$SafeMap_Iterator@VStringKeyCI@@K@@QBAAAV?$SafeMap@VStringKeyCI@@KV?$SafeMap_Iterator@VStringKeyCI@@K@@@@XZ
?GetMap@?$SafeMap_Iterator@VStringKeyCI@@UEmpty@@@@QBAAAV?$SafeMap@VStringKeyCI@@UEmpty@@V?$SafeMap_Iterator@VStringKeyCI@@UEmpty@@@@@@XZ
?GetMap@?$SafeMap_Iterator@VStringKeyCI@@UUSER_CONTEXT_INFO@WSManHttpListener@@@@QBAAAV?$SafeMap@VStringKeyCI@@UUSER_CONTEXT_INFO@WSManHttpListener@@V?$SafeMap_Iterator@VStringKeyCI@@UUSER_CONTEXT_INFO@WSManHttpListener@@@@@@XZ
?GetMap@?$SafeMap_Iterator@VStringKeyStore@@PAVExpiredOperationIdRecord@@@@QBAAAV?$SafeMap@VStringKeyStore@@PAVExpiredOperationIdRecord@@V?$SafeMap_Iterator@VStringKeyStore@@PAVExpiredOperationIdRecord@@@@@@XZ
?GetMap@?$SafeMap_Iterator@VStringKeyStore@@PAVServerFullDuplexChannel@@@@QBAAAV?$SafeMap@VStringKeyStore@@PAVServerFullDuplexChannel@@V?$SafeMap_Iterator@VStringKeyStore@@PAVServerFullDuplexChannel@@@@@@XZ
?GetMap@?$SafeMap_Iterator@W4WSManSessionOption@@PAVOptionValue@SessionOptions@Client@WSMan@@@@QBAAAV?$SafeMap@W4WSManSessionOption@@PAVOptionValue@SessionOptions@Client@WSMan@@V?$SafeMap_Iterator@W4WSManSessionOption@@PAVOptionValue@SessionOptions@Client@WSMan@@@@@@XZ
?GetMap@?$SafeMap_Iterator@_KPAVSendPacketArgs@RobustConnectionBuffer@@@@QBAAAV?$SafeMap@_KPAVSendPacketArgs@RobustConnectionBuffer@@V?$SafeMap_Iterator@_KPAVSendPacketArgs@RobustConnectionBuffer@@@@@@XZ
?GetMap@?$SafeMap_Lock@PAVCCertMapping@@UEmpty@@V?$SafeMap_Iterator@PAVCCertMapping@@UEmpty@@@@@@QBAABV?$SafeMap@PAVCCertMapping@@UEmpty@@V?$SafeMap_Iterator@PAVCCertMapping@@UEmpty@@@@@@XZ
?GetMap@?$SafeMap_Lock@PAVCListenerConnect@@PAV1@V?$SafeMap_Iterator@PAVCListenerConnect@@PAV1@@@@@QBAABV?$SafeMap@PAVCListenerConnect@@PAV1@V?$SafeMap_Iterator@PAVCListenerConnect@@PAV1@@@@@XZ
?GetMap@?$SafeMap_Lock@PAVCListenerOperation@@UEmpty@@V?$SafeMap_Iterator@PAVCListenerOperation@@UEmpty@@@@@@QBAABV?$SafeMap@PAVCListenerOperation@@UEmpty@@V?$SafeMap_Iterator@PAVCListenerOperation@@UEmpty@@@@@@XZ
?GetMap@?$SafeMap_Lock@PAVCListenerReceive@@PAV1@V?$SafeMap_Iterator@PAVCListenerReceive@@PAV1@@@@@QBAABV?$SafeMap@PAVCListenerReceive@@PAV1@V?$SafeMap_Iterator@PAVCListenerReceive@@PAV1@@@@@XZ
?GetMap@?$SafeMap_Lock@PAVCListenerSend@@PAV1@V?$SafeMap_Iterator@PAVCListenerSend@@PAV1@@@@@QBAABV?$SafeMap@PAVCListenerSend@@PAV1@V?$SafeMap_Iterator@PAVCListenerSend@@PAV1@@@@@XZ
?GetMap@?$SafeMap_Lock@PAVCListenerSignal@@PAV1@V?$SafeMap_Iterator@PAVCListenerSignal@@PAV1@@@@@QBAABV?$SafeMap@PAVCListenerSignal@@PAV1@V?$SafeMap_Iterator@PAVCListenerSignal@@PAV1@@@@@XZ
?GetMap@?$SafeMap_Lock@PAVCShellUriSettings@@UEmpty@@V?$SafeMap_Iterator@PAVCShellUriSettings@@UEmpty@@@@@@QBAABV?$SafeMap@PAVCShellUriSettings@@UEmpty@@V?$SafeMap_Iterator@PAVCShellUriSettings@@UEmpty@@@@@@XZ
?GetMap@?$SafeMap_Lock@PAVCollector@@UEmpty@@V?$SafeMap_Iterator@PAVCollector@@UEmpty@@@@@@QBAABV?$SafeMap@PAVCollector@@UEmpty@@V?$SafeMap_Iterator@PAVCollector@@UEmpty@@@@@@XZ
?GetMap@?$SafeMap_Lock@PAVHostOperation@@UEmpty@@V?$SafeMap_Iterator@PAVHostOperation@@UEmpty@@@@@@QBAABV?$SafeMap@PAVHostOperation@@UEmpty@@V?$SafeMap_Iterator@PAVHostOperation@@UEmpty@@@@@@XZ
?GetMap@?$SafeMap_Lock@PAVIOperation@@UEmpty@@V?$SafeMap_Iterator@PAVIOperation@@UEmpty@@@@@@QBAABV?$SafeMap@PAVIOperation@@UEmpty@@V?$SafeMap_Iterator@PAVIOperation@@UEmpty@@@@@@XZ
?GetMap@?$SafeMap_Lock@PAVListenerSourceSubscription@@UEmpty@@V?$SafeMap_Iterator@PAVListenerSourceSubscription@@UEmpty@@@@@@QBAABV?$SafeMap@PAVListenerSourceSubscription@@UEmpty@@V?$SafeMap_Iterator@PAVListenerSourceSubscription@@UEmpty@@@@@@XZ
?GetMap@?$SafeMap_Lock@PAVPushSubscription@@UEmpty@@V?$SafeMap_Iterator@PAVPushSubscription@@UEmpty@@@@@@QBAABV?$SafeMap@PAVPushSubscription@@UEmpty@@V?$SafeMap_Iterator@PAVPushSubscription@@UEmpty@@@@@@XZ
?GetMap@?$SafeMap_Lock@PAXUEmpty@@V?$SafeMap_Iterator@PAXUEmpty@@@@@@QBAABV?$SafeMap@PAXUEmpty@@V?$SafeMap_Iterator@PAXUEmpty@@@@@@XZ
?GetMap@?$SafeMap_Lock@UPluginKey@@KV?$SafeMap_Iterator@UPluginKey@@K@@@@QBAABV?$SafeMap@UPluginKey@@KV?$SafeMap_Iterator@UPluginKey@@K@@@@XZ
?GetMap@?$SafeMap_Lock@UUserKey@@PAVBlockedRecord@@V?$SafeMap_Iterator@UUserKey@@PAVBlockedRecord@@@@@@QBAABV?$SafeMap@UUserKey@@PAVBlockedRecord@@V?$SafeMap_Iterator@UUserKey@@PAVBlockedRecord@@@@@@XZ
?GetMap@?$SafeMap_Lock@VCertThumbprintKey@@VCertThumbprintMappedSet@CServiceConfigSettings@@V?$SafeMap_Iterator@VCertThumbprintKey@@VCertThumbprintMappedSet@CServiceConfigSettings@@@@@@QBAABV?$SafeMap@VCertThumbprintKey@@VCertThumbprintMappedSet@CServiceConfigSettings@@V?$SafeMap_Iterator@VCertThumbprintKey@@VCertThumbprintMappedSet@CServiceConfigSettings@@@@@@XZ
?GetMap@?$SafeMap_Lock@VGuidKey@@PAVCListenerCommand@@V?$SafeMap_Iterator@VGuidKey@@PAVCListenerCommand@@@@@@QBAABV?$SafeMap@VGuidKey@@PAVCListenerCommand@@V?$SafeMap_Iterator@VGuidKey@@PAVCListenerCommand@@@@@@XZ
?GetMap@?$SafeMap_Lock@VKey@Locale@@KV?$SafeMap_Iterator@VKey@Locale@@K@@@@QBAABV?$SafeMap@VKey@Locale@@KV?$SafeMap_Iterator@VKey@Locale@@K@@@@XZ
?GetMap@?$SafeMap_Lock@VStringKeyCI@@KV?$SafeMap_Iterator@VStringKeyCI@@K@@@@QBAABV?$SafeMap@VStringKeyCI@@KV?$SafeMap_Iterator@VStringKeyCI@@K@@@@XZ
?GetMap@?$SafeMap_Lock@VStringKeyCI@@UEmpty@@V?$SafeMap_Iterator@VStringKeyCI@@UEmpty@@@@@@QBAABV?$SafeMap@VStringKeyCI@@UEmpty@@V?$SafeMap_Iterator@VStringKeyCI@@UEmpty@@@@@@XZ
?GetMap@?$SafeMap_Lock@VStringKeyCI@@UUSER_CONTEXT_INFO@WSManHttpListener@@V?$SafeMap_Iterator@VStringKeyCI@@UUSER_CONTEXT_INFO@WSManHttpListener@@@@@@QBAABV?$SafeMap@VStringKeyCI@@UUSER_CONTEXT_INFO@WSManHttpListener@@V?$SafeMap_Iterator@VStringKeyCI@@UUSER_CONTEXT_INFO@WSManHttpListener@@@@@@XZ
?GetMap@?$SafeMap_Lock@VStringKeyStore@@PAVExpiredOperationIdRecord@@V?$SafeMap_Iterator@VStringKeyStore@@PAVExpiredOperationIdRecord@@@@@@QBAABV?$SafeMap@VStringKeyStore@@PAVExpiredOperationIdRecord@@V?$SafeMap_Iterator@VStringKeyStore@@PAVExpiredOperationIdRecord@@@@@@XZ
?GetMap@?$SafeMap_Lock@VStringKeyStore@@PAVServerFullDuplexChannel@@V?$SafeMap_Iterator@VStringKeyStore@@PAVServerFullDuplexChannel@@@@@@QBAABV?$SafeMap@VStringKeyStore@@PAVServerFullDuplexChannel@@V?$SafeMap_Iterator@VStringKeyStore@@PAVServerFullDuplexChannel@@@@@@XZ
?GetMap@?$SafeMap_Lock@W4WSManSessionOption@@PAVOptionValue@SessionOptions@Client@WSMan@@V?$SafeMap_Iterator@W4WSManSessionOption@@PAVOptionValue@SessionOptions@Client@WSMan@@@@@@QBAABV?$SafeMap@W4WSManSessionOption@@PAVOptionValue@SessionOptions@Client@WSMan@@V?$SafeMap_Iterator@W4WSManSessionOption@@PAVOptionValue@SessionOptions@Client@WSMan@@@@@@XZ
?GetMap@?$SafeMap_Lock@_KPAVSendPacketArgs@RobustConnectionBuffer@@V?$SafeMap_Iterator@_KPAVSendPacketArgs@RobustConnectionBuffer@@@@@@QBAABV?$SafeMap@_KPAVSendPacketArgs@RobustConnectionBuffer@@V?$SafeMap_Iterator@_KPAVSendPacketArgs@RobustConnectionBuffer@@@@@@XZ
?GetMaxBatchItems@CCommonConfigSettings@@UAAKXZ
?GetMaxBatchSize@CCommonConfigSettings@@UAAKXZ
?GetMaxEnvelopeSize@CCommonConfigSettings@@UAAKXZ
?GetMaxEnvelopeSize@PacketParser@@QBAABV?$PacketElement@K@1@XZ
?GetMaxTimeOut@CCommonConfigSettings@@UAAKXZ
?GetMessageAlloc@Locale@@QBAPBGAAVAutoLocalFree@@KZZ
?GetMessageEmpty@Locale@@QBAPBGAAVAutoLocalFree@@K@Z
?GetMessageId@CErrorContext@@UBAKXZ
?GetMessageId@CRequestContext@@UBAKXZ
?GetMessageId@PacketParser@@QBAABV?$PacketElement@PBG@1@XZ
?GetMessageW@Locale@@QBA_NKPAPAD0PAGK@Z
?GetMinBatchItems@CCommonConfigSettings@@UAAKXZ
?GetMinBatchSize@CCommonConfigSettings@@UAAKXZ
?GetMinBatchTimeout@CCommonConfigSettings@@UAAKXZ
?GetMinEnvelopeSize@CCommonConfigSettings@@UAAKXZ
?GetMinTimeOut@CCommonConfigSettings@@UAAKXZ
?GetNamespacePrefix@NotUnderstandSoapHeader@PacketParser@@QBAPBGXZ
?GetNamespaceUrl@NotUnderstandSoapHeader@PacketParser@@QBAPBGXZ
?GetNewStorage@RBUFFER@@IAAHI@Z
?GetNotUnderstandHeader@PacketParser@@QBAABVNotUnderstandSoapHeader@1@XZ
?GetObjectInformation@CWSManSecurityUI@@UAAJPAU_SI_OBJECT_INFO@@@Z
?GetObjectW@?$ILoader@VAdminSid@CSecurity@@@@IBAPAVAdminSid@CSecurity@@XZ
?GetObjectW@?$ILoader@VCredUIDllLoader@@@@IBAPAVCredUIDllLoader@@XZ
?GetObjectW@?$ILoader@VEventHandler@WSMan@@@@IBAPAVEventHandler@WSMan@@XZ
?GetObjectW@?$ILoader@VInteractiveSid@CSecurity@@@@IBAPAVInteractiveSid@CSecurity@@XZ
?GetObjectW@?$ILoader@VIpHlpApiDllLoader@@@@IBAPAVIpHlpApiDllLoader@@XZ
?GetObjectW@?$ILoader@VMachineName@@@@IBAPAVMachineName@@XZ
?GetObjectW@?$ILoader@VNetworkServiceSid@CSecurity@@@@IBAPAVNetworkServiceSid@CSecurity@@XZ
?GetObjectW@?$ILoader@VNtDsApiDllLoader@@@@IBAPAVNtDsApiDllLoader@@XZ
?GetObjectW@?$ILoader@VResources@Locale@@@@IBAPAVResources@Locale@@XZ
?GetObjectW@?$ILoader@VShell32DllLoader@@@@IBAPAVShell32DllLoader@@XZ
?GetObjectW@?$ILoader@VShlWApiDllLoader@@@@IBAPAVShlWApiDllLoader@@XZ
?GetObjectW@?$ILoader@VSubscriptionManager@@@@IBAPAVSubscriptionManager@@XZ
?GetObjectW@?$ILoader@VUser32DllLoader@@@@IBAPAVUser32DllLoader@@XZ
?GetObjectW@?$ILoader@VWSManMemCryptManager@@@@IBAPAVWSManMemCryptManager@@XZ
?GetOperationId@PacketParser@@QBAABV?$PacketElement@PBG@1@XZ
?GetOptionCount@CWSManResourceNoResourceUri@@QAAKXZ
?GetOptionTypes@CWSManResourceNoResourceUri@@QAAPAPBGXZ
?GetOptionValue@CWSManResourceNoResourceUri@@QAAPBGPBG@Z
?GetOptions@CWSManResourceNoResourceUri@@QAAPAU_WSMAN_OPTION@@XZ
?GetOptionsMustUnderstandValue@CWSManResourceNoResourceUri@@QAAHXZ
?GetOptionsSetXml@PacketParser@@QAAABV?$PacketElement@PAU_FWXML_ELEMENT@@@1@XZ
?GetOriginalUri@CWSManResource@@QAAPBGXZ
?GetPacket@PacketParser@@QAAPAVPacket@@XZ
?GetPacketPool@PacketParser@@QAAAAVPacketPool@@XZ
?GetParser@XmlReader@@QAAPAXXZ
?GetPath@Fragment@PacketParser@@QBAPBGXZ
?GetPolicyLocation@CWSManGroupPolicyManager@@AAAPBGPBU_WSMAN_POLICY_INFO@@@Z
?GetPolicyValueForConfigSetting@CConfigManager@@AAAJW4ConfigSetting@@KPAGPAKPAW4WSManGroupPolicySettingState@@PAVIRequestContext@@@Z
?GetPolicyValueForConfigSetting@CConfigManager@@AAAJW4ConfigSetting@@PAKPAW4WSManGroupPolicySettingState@@PAVIRequestContext@@@Z
?GetProfileCount@UserRecord@@QAAJXZ
?GetProfileHandle@UserRecord@@QAA_JXZ
?GetPromptType@SoapSemanticConverter@@AAA_NPBGPAW4_MI_PromptType@@PAVIRequestContext@@@Z
?GetQuotaRecord@UserRecord@@QBAPBVQuotaRecord@@XZ
?GetRefCount@ILifeTimeMgmt@@QAAJXZ
?GetReferenceParameters@ReferenceParameters@PacketParser@@QBAPBGXZ
?GetReferenceProperties@ReferenceParameters@PacketParser@@QBAPBGXZ
?GetRemainderPacket@PacketParser@@QAAPAVPacket@@PAVIRequestContext@@@Z
?GetReplyToXml@PacketParser@@QBAABVReferenceParameters@1@XZ
?GetRequestedDataLocale@PacketParser@@QBAABV?$PacketElement@PBG@1@XZ
?GetRequestedLocale@PacketParser@@QBAABV?$PacketElement@PBG@1@XZ
?GetResourceUri@PacketParser@@QBAABV?$PacketElement@PBG@1@XZ
?GetRoot@XmlReader@@QAAPAU_FWXML_ELEMENT@@XZ
?GetSecurity@CWSManSecurityUI@@UAAJKPAPAXH@Z
?GetSecurityDescriptor@CConfigManager@@QAAHPAVIRequestContext@@W4ConfigSetting@@PAPAXPAW4WSManConfigSource@@@Z
?GetSelectorSetXml@PacketParser@@QAAABV?$PacketElement@PAU_FWXML_ELEMENT@@@1@XZ
?GetSequenceId@PacketParser@@QBAABV?$PacketElement@_K@1@XZ
?GetServiceCatalog@@YAPAVCatalog@@XZ
?GetSessionId@PacketParser@@QBAABV?$PacketElement@PBG@1@XZ
?GetSessionIdGuid@PacketParser@@QAAAAU_GUID@@XZ
?GetSessionIdGuid@SessionId@PacketParser@@QAAAAU_GUID@@XZ
?GetSetting@CConfigManager@@QAAHPAVIRequestContext@@W4ConfigSetting@@KPAGPAKPAW4WSManConfigSource@@@Z
?GetShellCompressionType@PacketParser@@QBAABV?$PacketElement@PBG@1@XZ
?GetSid@CSecurity@@SAPAXXZ
?GetSizeInUse@SBUFFER@@QBAIXZ
?GetSoapBody@PacketParser@@QAAPAU_FWXML_ELEMENT@@XZ
?GetSoapHeaders@PacketParser@@QAAPAU_FWXML_ELEMENT@@XZ
?GetSourceSubscriptionId@PacketParser@@QBAABV?$PacketElement@PBG@1@XZ
?GetSpaceUsed@BufferFormatter@@UBAK_N@Z
?GetSpaceUsed@CircularBufferFormatter@@UBAK_N@Z
?GetStrPtr@TSTRBUFFER@@QAAPAGXZ
?GetString@CConfigManager@@QAAHPAVIRequestContext@@W4ConfigSetting@@KPAGPAKPAW4WSManConfigSource@@@Z
?GetString@CWSManGroupPolicyManager@@QAAHPAVIRequestContext@@W4WSManGroupPolicySetting@@KPAGPAKPAW4WSManGroupPolicySettingState@@@Z
?GetString@Locale@@QAAPBGXZ
?GetStringInternal@CConfigManager@@AAAHPAVIRequestContext@@W4ConfigSetting@@KKPAGPAKPAW4WSManConfigSource@@@Z
?GetStringInternal@CWSManGroupPolicyManager@@AAAHPAVIRequestContext@@W4WSManGroupPolicySetting@@KKPAGPAKPAW4WSManGroupPolicySettingState@@@Z
?GetSubscriptionId@PacketParser@@QBAABV?$PacketElement@PBG@1@XZ
?GetSuccessCode@OnHTTPInitialize@@QBAKXZ
?GetTimeout@PacketParser@@QBAABV?$PacketElement@K@1@XZ
?GetTo@PacketParser@@QBAABV?$PacketElement@PBG@1@XZ
?GetToken@CSecurity@@SAPAXXZ
?GetToken@UserRecord@@QAAPAXXZ
?GetUpdatedSDDL@CWSManSecurityUI@@QAAPAGPAVIRequestContext@@@Z
?GetUri@CWSManResource@@QAAPBGXZ
?GetUserAdministratorType@UserRecord@@QBA?AW4AdministratorType@UserAuthzRecord@@XZ
?GetUserNameW@UserRecord@@QAAPBGXZ
?GetValue@?$PacketElement@K@PacketParser@@QBAKXZ
?GetValue@?$PacketElement@PAU_FWXML_ELEMENT@@@PacketParser@@QBAPAU_FWXML_ELEMENT@@XZ
?GetValue@?$PacketElement@PBG@PacketParser@@QBAPBGXZ
?GetValue@?$PacketElement@_K@PacketParser@@QBA_KXZ
?GetWsmanData@TSTRBUFFER@@QAAXPAU_WSMAN_DATA@@@Z
?GetXmlDoc@PacketParser@@QAAPAUFWXML_DOCUMENT@@XZ
?GrowBuffer@BufferFormatter@@UAAKK@Z
?GrowBuffer@BufferFormatter@@UAAKXZ
?GrowBuffer@CircularBufferFormatter@@UAAKK@Z
?GrowBuffer@CircularBufferFormatter@@UAAKXZ
?HandleAutoConfiguredListener@CConfigManager@@QAAHPAVIRequestContext@@PAVLISTENER_IDENTITY@@@Z
?HandleMigration@@YAHPAVWSManMigrationContext@@@Z
?HasFaultXML@CRequestContext@@QBAHXZ
?HasHtmlError@CRequestContext@@ABAHXZ
?HasOption@CWSManResourceNoResourceUri@@QAAHPBG@Z
?ImpersonateUserOrSelf@CSecurity@@SAHW4CallSiteId@@PAX@Z
?IncreaseProfileCount@UserRecord@@QAAXXZ
?Info@EventLog@@SAXK@Z
?Info@EventLog@@SAXKGPAPBG@Z
?Info@EventLog@@SAXKPBG@Z
?Init@CBaseConfigCache@@IAAHPAVIRequestContext@@H@Z
?Init@CWSManSecurityUI@@QAAHPAG0PAVIRequestContext@@@Z
?Init@ConfigRegistry@@IAAHXZ
?Init@XmlReader@@QAAHPAVIRequestContext@@PAUWSMAN_OBJECT@@@Z
?Init@XmlReader@@QAAHPAVIRequestContext@@PBG@Z
?InitCfgMgr@CConfigManager@@AAAHPAVWSMANCONFIGTABLE_IDENTITY@@@Z
?InitCfgMgr@CConfigManager@@AAAHPAVWSMANCONFIGTABLE_IDENTITY@@PAUHKEY__@@1@Z
?InitMap@CBaseConfigCache@@CAHPAVIRequestContext@@AAV?$AutoRelease@VCConfigCacheMap@CBaseConfigCache@@@@@Z
?Initialize@?$SafeMap@PAVCCertMapping@@UEmpty@@V?$SafeMap_Iterator@PAVCCertMapping@@UEmpty@@@@@@UAA_NAAVIRequestContext@@@Z
?Initialize@?$SafeMap@PAVCCertMapping@@UEmpty@@V?$SafeSet_Iterator@PAVCCertMapping@@@@@@UAA_NAAVIRequestContext@@@Z
?Initialize@?$SafeMap@PAVCListenerConnect@@PAV1@V?$SafeMap_Iterator@PAVCListenerConnect@@PAV1@@@@@UAA_NAAVIRequestContext@@@Z
?Initialize@?$SafeMap@PAVCListenerOperation@@UEmpty@@V?$SafeMap_Iterator@PAVCListenerOperation@@UEmpty@@@@@@UAA_NAAVIRequestContext@@@Z
?Initialize@?$SafeMap@PAVCListenerOperation@@UEmpty@@V?$SafeSet_Iterator@PAVCListenerOperation@@@@@@UAA_NAAVIRequestContext@@@Z
?Initialize@?$SafeMap@PAVCListenerReceive@@PAV1@V?$SafeMap_Iterator@PAVCListenerReceive@@PAV1@@@@@UAA_NAAVIRequestContext@@@Z
?Initialize@?$SafeMap@PAVCListenerSend@@PAV1@V?$SafeMap_Iterator@PAVCListenerSend@@PAV1@@@@@UAA_NAAVIRequestContext@@@Z
?Initialize@?$SafeMap@PAVCListenerSignal@@PAV1@V?$SafeMap_Iterator@PAVCListenerSignal@@PAV1@@@@@UAA_NAAVIRequestContext@@@Z
?Initialize@?$SafeMap@PAVCShellUriSettings@@UEmpty@@V?$SafeSet_Iterator@PAVCShellUriSettings@@@@@@UAA_NAAVIRequestContext@@@Z
?Initialize@?$SafeMap@PAVCollector@@UEmpty@@V?$SafeMap_Iterator@PAVCollector@@UEmpty@@@@@@UAA_NAAVIRequestContext@@@Z
?Initialize@?$SafeMap@PAVCollector@@UEmpty@@V?$SafeSet_Iterator@PAVCollector@@@@@@UAA_NAAVIRequestContext@@@Z
?Initialize@?$SafeMap@PAVHostOperation@@UEmpty@@V?$SafeMap_Iterator@PAVHostOperation@@UEmpty@@@@@@UAA_NAAVIRequestContext@@@Z
?Initialize@?$SafeMap@PAVHostOperation@@UEmpty@@V?$SafeSet_Iterator@PAVHostOperation@@@@@@UAA_NAAVIRequestContext@@@Z
?Initialize@?$SafeMap@PAVIOperation@@UEmpty@@V?$SafeMap_Iterator@PAVIOperation@@UEmpty@@@@@@UAA_NAAVIRequestContext@@@Z
?Initialize@?$SafeMap@PAVIOperation@@UEmpty@@V?$SafeSet_Iterator@PAVIOperation@@@@@@UAA_NAAVIRequestContext@@@Z
?Initialize@?$SafeMap@PAVListenerSourceSubscription@@UEmpty@@V?$SafeMap_Iterator@PAVListenerSourceSubscription@@UEmpty@@@@@@UAA_NAAVIRequestContext@@@Z
?Initialize@?$SafeMap@PAVListenerSourceSubscription@@UEmpty@@V?$SafeSet_Iterator@PAVListenerSourceSubscription@@@@@@UAA_NAAVIRequestContext@@@Z
?Initialize@?$SafeMap@PAVPushSubscription@@UEmpty@@V?$SafeMap_Iterator@PAVPushSubscription@@UEmpty@@@@@@UAA_NAAVIRequestContext@@@Z
?Initialize@?$SafeMap@PAVPushSubscription@@UEmpty@@V?$SafeSet_Iterator@PAVPushSubscription@@@@@@UAA_NAAVIRequestContext@@@Z
?Initialize@?$SafeMap@PAXUEmpty@@V?$SafeSet_Iterator@PAX@@@@UAA_NAAVIRequestContext@@@Z
?Initialize@?$SafeMap@UPluginKey@@KV?$SafeMap_Iterator@UPluginKey@@K@@@@UAA_NAAVIRequestContext@@@Z
?Initialize@?$SafeMap@UUserKey@@PAVBlockedRecord@@V?$SafeMap_Iterator@UUserKey@@PAVBlockedRecord@@@@@@UAA_NAAVIRequestContext@@@Z
?Initialize@?$SafeMap@VCertThumbprintKey@@VCertThumbprintMappedSet@CServiceConfigSettings@@V?$SafeMap_Iterator@VCertThumbprintKey@@VCertThumbprintMappedSet@CServiceConfigSettings@@@@@@UAA_NAAVIRequestContext@@@Z
?Initialize@?$SafeMap@VGuidKey@@PAVCListenerCommand@@V?$SafeMap_Iterator@VGuidKey@@PAVCListenerCommand@@@@@@UAA_NAAVIRequestContext@@@Z
?Initialize@?$SafeMap@VKey@CWmiPtrCache@@VMapping@2@V?$SafeMap_Iterator@VKey@CWmiPtrCache@@VMapping@2@@@@@UAA_NAAVIRequestContext@@@Z
?Initialize@?$SafeMap@VKey@Locale@@KV?$SafeMap_Iterator@VKey@Locale@@K@@@@UAA_NAAVIRequestContext@@@Z
?Initialize@?$SafeMap@VStringKey@@PAVListenerEvents@@V?$SafeMap_Iterator@VStringKey@@PAVListenerEvents@@@@@@UAA_NAAVIRequestContext@@@Z
?Initialize@?$SafeMap@VStringKey@@PAVListenerSourceSubscription@@V?$SafeMap_Iterator@VStringKey@@PAVListenerSourceSubscription@@@@@@UAA_NAAVIRequestContext@@@Z
?Initialize@?$SafeMap@VStringKey@@UOption@WinRM_OperationOptions@@V?$SafeMap_Iterator@VStringKey@@UOption@WinRM_OperationOptions@@@@@@UAA_NAAVIRequestContext@@@Z
?Initialize@?$SafeMap@VStringKeyCI@@KV?$SafeMap_Iterator@VStringKeyCI@@K@@@@UAA_NAAVIRequestContext@@@Z
?Initialize@?$SafeMap@VStringKeyCI@@PAVIISEndpoint@@V?$SafeMap_Iterator@VStringKeyCI@@PAVIISEndpoint@@@@@@UAA_NAAVIRequestContext@@@Z
?Initialize@?$SafeMap@VStringKeyCI@@UEmpty@@V?$SafeMap_Iterator@VStringKeyCI@@UEmpty@@@@@@UAA_NAAVIRequestContext@@@Z
?Initialize@?$SafeMap@VStringKeyCI@@UEmpty@@V?$SafeSet_Iterator@VStringKeyCI@@@@@@UAA_NAAVIRequestContext@@@Z
?Initialize@?$SafeMap@VStringKeyCI@@UUSER_CONTEXT_INFO@WSManHttpListener@@V?$SafeMap_Iterator@VStringKeyCI@@UUSER_CONTEXT_INFO@WSManHttpListener@@@@@@UAA_NAAVIRequestContext@@@Z
?Initialize@?$SafeMap@VStringKeyStore@@PAVExpiredOperationIdRecord@@V?$SafeMap_Iterator@VStringKeyStore@@PAVExpiredOperationIdRecord@@@@@@UAA_NAAVIRequestContext@@@Z
?Initialize@?$SafeMap@VStringKeyStore@@PAVServerFullDuplexChannel@@V?$SafeMap_Iterator@VStringKeyStore@@PAVServerFullDuplexChannel@@@@@@UAA_NAAVIRequestContext@@@Z
?Initialize@?$SafeMap@VTokenCacheKey@ServiceSoapProcessor@@VTokenCacheMapping@2@V?$SafeMap_Iterator@VTokenCacheKey@ServiceSoapProcessor@@VTokenCacheMapping@2@@@@@UAA_NAAVIRequestContext@@@Z
?Initialize@?$SafeMap@W4WSManSessionOption@@PAVOptionValue@SessionOptions@Client@WSMan@@V?$SafeMap_Iterator@W4WSManSessionOption@@PAVOptionValue@SessionOptions@Client@WSMan@@@@@@UAA_NAAVIRequestContext@@@Z
?Initialize@?$SafeMap@_KPAVSendPacketArgs@RobustConnectionBuffer@@V?$SafeMap_Iterator@_KPAVSendPacketArgs@RobustConnectionBuffer@@@@@@UAA_NAAVIRequestContext@@@Z
?Initialize@?$SafeMap_Iterator@PAVCCertMapping@@UEmpty@@@@QAAAAV1@XZ
?Initialize@?$SafeMap_Iterator@PAVCListenerOperation@@UEmpty@@@@QAAAAV1@XZ
?Initialize@?$SafeMap_Iterator@PAVCShellUriSettings@@UEmpty@@@@QAAAAV1@XZ
?Initialize@?$SafeMap_Iterator@VCertThumbprintKey@@VCertThumbprintMappedSet@CServiceConfigSettings@@@@QAAAAV1@XZ
?Initialize@?$SafeMap_Iterator@VStringKeyCI@@K@@QAAAAV1@XZ
?Initialize@?$SafeMap_Iterator@VStringKeyStore@@PAVExpiredOperationIdRecord@@@@QAAAAV1@XZ
?Initialize@?$SafeMap_Iterator@W4WSManSessionOption@@PAVOptionValue@SessionOptions@Client@WSMan@@@@QAAAAV1@XZ
?Initialize@CWSManGroupPolicyManager@@AAAHPAVIRequestContext@@PBG@Z
?Initialize@EventHandler@WSMan@@QAA_NAAVIRequestContext@@@Z
?Initialize@UserRecord@@SAXAAV1@ABUInitializer@1@@Z
?InitializeSources@CBaseConfigCache@@IAAHPAVIRequestContext@@HH@Z
?InitializeSourcesHelper@CBaseConfigCache@@MAAHPAVIRequestContext@@H@Z
?InitializeSourcesHelper@CClientConfigCache@@EAAHPAVIRequestContext@@H@Z
?InsertAtPosition@TSTRBUFFER@@QAAJPBGI@Z
?InternalFailure@CErrorContext@@UAAXKZZ
?InternalFailure@CRequestContext@@UAAXKZZ
?InternalHResult@CErrorContext@@UAAXKKZZ
?InternalHResult@CRequestContext@@UAAXKKZZ
?InternalParse@CWSManEPR@@MAAHPAVIRequestContext@@@Z
?InternalParse@CWSManResource@@MAAHPAVIRequestContext@@@Z
?IsActive@ChildLifeTimeManager@@QAA_NXZ
?IsAdmin@UserRecord@@QBA_NXZ
?IsAutoListenerConfigurationOn@CConfigManager@@SAHPAVIRequestContext@@PAH@Z
?IsCIM_Error@CRequestContext@@QAAHXZ
?IsCurrentListenerAutoConfigured@CConfigManager@@QAAHPAVIRequestContext@@PAH@Z
?IsCurrentListenerCompat@CConfigManager@@QBA_NXZ
?IsDynAlloced@RBUFFER@@IBAHXZ
?IsEPR@CWSManEPR@@UAAHXZ
?IsEPR@CWSManResourceNoResourceUri@@UAAHXZ
?IsEmpty@?$ILoader@VAdminSid@CSecurity@@@@QBA_NXZ
?IsEmpty@?$ILoader@VCredUIDllLoader@@@@QBA_NXZ
?IsEmpty@?$ILoader@VEventHandler@WSMan@@@@QBA_NXZ
?IsEmpty@?$ILoader@VInteractiveSid@CSecurity@@@@QBA_NXZ
?IsEmpty@?$ILoader@VIpHlpApiDllLoader@@@@QBA_NXZ
?IsEmpty@?$ILoader@VMachineName@@@@QBA_NXZ
?IsEmpty@?$ILoader@VNetworkServiceSid@CSecurity@@@@QBA_NXZ
?IsEmpty@?$ILoader@VNtDsApiDllLoader@@@@QBA_NXZ
?IsEmpty@?$ILoader@VResources@Locale@@@@QBA_NXZ
?IsEmpty@?$ILoader@VShell32DllLoader@@@@QBA_NXZ
?IsEmpty@?$ILoader@VShlWApiDllLoader@@@@QBA_NXZ
?IsEmpty@?$ILoader@VSubscriptionManager@@@@QBA_NXZ
?IsEmpty@?$ILoader@VUser32DllLoader@@@@QBA_NXZ
?IsEmpty@?$ILoader@VWSManMemCryptManager@@@@QBA_NXZ
?IsEmpty@?$SafeMap@PAVCListenerOperation@@UEmpty@@V?$SafeSet_Iterator@PAVCListenerOperation@@@@@@QBA_NXZ
?IsEmpty@?$SafeMap@VStringKeyCI@@KV?$SafeMap_Iterator@VStringKeyCI@@K@@@@QBA_NXZ
?IsEmpty@?$SafeMap@VStringKeyCI@@UEmpty@@V?$SafeSet_Iterator@VStringKeyCI@@@@@@QBA_NXZ
?IsEvent@SoapSemanticConverter@@QAA_NPAU_FWXML_ELEMENT@@@Z
?IsEventEnabled@EventHandler@WSMan@@SA_NABU_EVENT_DESCRIPTOR@@@Z
?IsEventProviderEnabled@EventHandler@WSMan@@SA_NXZ
?IsFound@?$PacketElement@K@PacketParser@@QBAHXZ
?IsFound@?$PacketElement@PAU_FWXML_ELEMENT@@@PacketParser@@QBAHXZ
?IsFound@?$PacketElement@PBG@PacketParser@@QBAHXZ
?IsFound@?$PacketElement@_K@PacketParser@@QBAHXZ
?IsGeneratingError@CErrorContext@@UBA_NXZ
?IsIdentifyPacket@PacketParser@@QBAHXZ
?IsInCommitMode@BufferFormatter@@QAA_NXZ
?IsInteractive@UserRecord@@QBA_NXZ
?IsLocalSystemSid@CSecurity@@SAHPAX@Z
?IsMustUnderstand@?$PacketElement@PBG@PacketParser@@QBAHXZ
?IsNonOperativePacket@PacketParser@@QBAHXZ
?IsPolicyControlledSetting@CConfigManager@@QAAHPAVIRequestContext@@W4ConfigSetting@@PAH@Z
?IsRobustConnectionPacket@PacketParser@@QBAHXZ
?IsStreamingEvent@SoapSemanticConverter@@QAA_NPAU_FWXML_ELEMENT@@PAVIRequestContext@@@Z
?IsStringNullOrEmpty@@YAHPBG@Z
?IsValid@?$SafeMap@PAVCListenerOperation@@UEmpty@@V?$SafeSet_Iterator@PAVCListenerOperation@@@@@@QBA_NXZ
?IsValid@?$SafeMap@UPluginKey@@KV?$SafeMap_Iterator@UPluginKey@@K@@@@QBA_NXZ
?IsValid@?$SafeMap@VStringKeyCI@@KV?$SafeMap_Iterator@VStringKeyCI@@K@@@@QBA_NXZ
?IsValid@?$SafeMap@VStringKeyCI@@UUSER_CONTEXT_INFO@WSManHttpListener@@V?$SafeMap_Iterator@VStringKeyCI@@UUSER_CONTEXT_INFO@WSManHttpListener@@@@@@QBA_NXZ
?IsValid@?$SafeMap@VStringKeyStore@@PAVServerFullDuplexChannel@@V?$SafeMap_Iterator@VStringKeyStore@@PAVServerFullDuplexChannel@@@@@@QBA_NXZ
?IsValid@?$SafeMap@W4WSManSessionOption@@PAVOptionValue@SessionOptions@Client@WSMan@@V?$SafeMap_Iterator@W4WSManSessionOption@@PAVOptionValue@SessionOptions@Client@WSMan@@@@@@QBA_NXZ
?IsValid@?$SafeMap_Iterator@PAVCCertMapping@@UEmpty@@@@QBA_NXZ
?IsValid@?$SafeMap_Iterator@PAVCListenerConnect@@PAV1@@@QBA_NXZ
?IsValid@?$SafeMap_Iterator@PAVCListenerOperation@@UEmpty@@@@QBA_NXZ
?IsValid@?$SafeMap_Iterator@PAVCListenerReceive@@PAV1@@@QBA_NXZ
?IsValid@?$SafeMap_Iterator@PAVCListenerSend@@PAV1@@@QBA_NXZ
?IsValid@?$SafeMap_Iterator@PAVCListenerSignal@@PAV1@@@QBA_NXZ
?IsValid@?$SafeMap_Iterator@PAVCShellUriSettings@@UEmpty@@@@QBA_NXZ
?IsValid@?$SafeMap_Iterator@PAVCollector@@UEmpty@@@@QBA_NXZ
?IsValid@?$SafeMap_Iterator@PAVHostOperation@@UEmpty@@@@QBA_NXZ
?IsValid@?$SafeMap_Iterator@PAVIOperation@@UEmpty@@@@QBA_NXZ
?IsValid@?$SafeMap_Iterator@PAVListenerSourceSubscription@@UEmpty@@@@QBA_NXZ
?IsValid@?$SafeMap_Iterator@PAVPushSubscription@@UEmpty@@@@QBA_NXZ
?IsValid@?$SafeMap_Iterator@PAXUEmpty@@@@QBA_NXZ
?IsValid@?$SafeMap_Iterator@UPluginKey@@K@@QBA_NXZ
?IsValid@?$SafeMap_Iterator@UUserKey@@PAVBlockedRecord@@@@QBA_NXZ
?IsValid@?$SafeMap_Iterator@VCertThumbprintKey@@VCertThumbprintMappedSet@CServiceConfigSettings@@@@QBA_NXZ
?IsValid@?$SafeMap_Iterator@VGuidKey@@PAVCListenerCommand@@@@QBA_NXZ
?IsValid@?$SafeMap_Iterator@VKey@CWmiPtrCache@@VMapping@2@@@QBA_NXZ
?IsValid@?$SafeMap_Iterator@VKey@Locale@@K@@QBA_NXZ
?IsValid@?$SafeMap_Iterator@VStringKey@@PAVListenerEvents@@@@QBA_NXZ
?IsValid@?$SafeMap_Iterator@VStringKey@@PAVListenerSourceSubscription@@@@QBA_NXZ
?IsValid@?$SafeMap_Iterator@VStringKey@@UOption@WinRM_OperationOptions@@@@QBA_NXZ
?IsValid@?$SafeMap_Iterator@VStringKeyCI@@K@@QBA_NXZ
?IsValid@?$SafeMap_Iterator@VStringKeyCI@@PAVIISEndpoint@@@@QBA_NXZ
?IsValid@?$SafeMap_Iterator@VStringKeyCI@@UEmpty@@@@QBA_NXZ
?IsValid@?$SafeMap_Iterator@VStringKeyCI@@UUSER_CONTEXT_INFO@WSManHttpListener@@@@QBA_NXZ
?IsValid@?$SafeMap_Iterator@VStringKeyStore@@PAVExpiredOperationIdRecord@@@@QBA_NXZ
?IsValid@?$SafeMap_Iterator@VStringKeyStore@@PAVServerFullDuplexChannel@@@@QBA_NXZ
?IsValid@?$SafeMap_Iterator@VTokenCacheKey@ServiceSoapProcessor@@VTokenCacheMapping@2@@@QBA_NXZ
?IsValid@?$SafeMap_Iterator@W4WSManSessionOption@@PAVOptionValue@SessionOptions@Client@WSMan@@@@QBA_NXZ
?IsValid@?$SafeMap_Iterator@_KPAVSendPacketArgs@RobustConnectionBuffer@@@@QBA_NXZ
?IsValid@CWSManCriticalSection@@QBAHXZ
?IsValid@RBUFFER@@IBAHXZ
?Key@?$SafeMap@VStringKeyCI@@KV?$SafeMap_Iterator@VStringKeyCI@@K@@@@QBAPBVStringKeyCI@@ABV2@@Z
?Key@?$SafeMap@VStringKeyCI@@UUSER_CONTEXT_INFO@WSManHttpListener@@V?$SafeMap_Iterator@VStringKeyCI@@UUSER_CONTEXT_INFO@WSManHttpListener@@@@@@QBAPBVStringKeyCI@@ABV2@@Z
?Key@?$SafeMap_Iterator@VKey@Locale@@K@@QBAABV0Locale@@XZ
?Key@?$SafeMap_Iterator@VStringKeyCI@@K@@QBAABVStringKeyCI@@XZ
?Key@?$SafeMap_Iterator@VStringKeyCI@@UUSER_CONTEXT_INFO@WSManHttpListener@@@@QBAABVStringKeyCI@@XZ
?LogError@CBaseConfigCache@@UAAXKK@Z
?LogErrorCode@CErrorContext@@QAAXXZ
?LogErrorCode@CRequestContext@@QAAXXZ
?LogErrorMessage@CRequestContext@@QAAXXZ
?LogNotificationEvent@CWSManGroupPolicyManager@@CAXK@Z
?LogReadErrors@CBaseConfigCache@@IAA?AW4ErrorLogging@@W4ConfigChangeSources@@@Z
?LowerBound@?$SafeMap_Iterator@VKey@Locale@@K@@QAAXABVKey@Locale@@@Z
?MakeUrlBinding@@YAHKPAGPAKPBG222@Z
?MakeUrlBinding@@YAPAGPAVIRequestContext@@PBG111@Z
?MapGeneric@CWSManSecurityUI@@UAAJPBU_GUID@@PAEPAK@Z
?Me@?$AutoCleanup@V?$AutoDelete@D@@PAD@@AAAAAV?$AutoDelete@D@@XZ
?Me@?$AutoCleanup@V?$AutoDelete@G@@PAG@@AAAAAV?$AutoDelete@G@@XZ
?Me@?$AutoCleanup@V?$AutoDelete@UIPRange@CWSManIPFilter@@@@PAUIPRange@CWSManIPFilter@@@@AAAAAV?$AutoDelete@UIPRange@CWSManIPFilter@@@@XZ
?Me@?$AutoCleanup@V?$AutoDelete@U_SID@@@@PAU_SID@@@@AAAAAV?$AutoDelete@U_SID@@@@XZ
?Me@?$AutoCleanup@V?$AutoDelete@U_WSMAN_STREAM_ID_SET@@@@PAU_WSMAN_STREAM_ID_SET@@@@AAAAAV?$AutoDelete@U_WSMAN_STREAM_ID_SET@@@@XZ
?Me@?$AutoCleanup@V?$AutoDelete@V?$Handle@VISubscription@@@@@@PAV?$Handle@VISubscription@@@@@@AAAAAV?$AutoDelete@V?$Handle@VISubscription@@@@@@XZ
?Me@?$AutoCleanup@V?$AutoDelete@V?$SafeMap_Iterator@PAVCListenerConnect@@PAV1@@@@@PAV?$SafeMap_Iterator@PAVCListenerConnect@@PAV1@@@@@AAAAAV?$AutoDelete@V?$SafeMap_Iterator@PAVCListenerConnect@@PAV1@@@@@XZ
?Me@?$AutoCleanup@V?$AutoDelete@V?$SafeMap_Iterator@PAVCListenerReceive@@PAV1@@@@@PAV?$SafeMap_Iterator@PAVCListenerReceive@@PAV1@@@@@AAAAAV?$AutoDelete@V?$SafeMap_Iterator@PAVCListenerReceive@@PAV1@@@@@XZ
?Me@?$AutoCleanup@V?$AutoDelete@V?$SafeMap_Iterator@PAVCListenerSend@@PAV1@@@@@PAV?$SafeMap_Iterator@PAVCListenerSend@@PAV1@@@@@AAAAAV?$AutoDelete@V?$SafeMap_Iterator@PAVCListenerSend@@PAV1@@@@@XZ
?Me@?$AutoCleanup@V?$AutoDelete@V?$SafeMap_Iterator@PAVCListenerSignal@@PAV1@@@@@PAV?$SafeMap_Iterator@PAVCListenerSignal@@PAV1@@@@@AAAAAV?$AutoDelete@V?$SafeMap_Iterator@PAVCListenerSignal@@PAV1@@@@@XZ
?Me@?$AutoCleanup@V?$AutoDelete@V?$SafeMap_Iterator@VGuidKey@@PAVCListenerCommand@@@@@@PAV?$SafeMap_Iterator@VGuidKey@@PAVCListenerCommand@@@@@@AAAAAV?$AutoDelete@V?$SafeMap_Iterator@VGuidKey@@PAVCListenerCommand@@@@@@XZ
?Me@?$AutoCleanup@V?$AutoDelete@V?$SafeMap_Iterator@VStringKeyCI@@K@@@@PAV?$SafeMap_Iterator@VStringKeyCI@@K@@@@AAAAAV?$AutoDelete@V?$SafeMap_Iterator@VStringKeyCI@@K@@@@XZ
?Me@?$AutoCleanup@V?$AutoDelete@V?$SafeMap_Iterator@W4WSManSessionOption@@PAVOptionValue@SessionOptions@Client@WSMan@@@@@@PAV?$SafeMap_Iterator@W4WSManSessionOption@@PAVOptionValue@SessionOptions@Client@WSMan@@@@@@AAAAAV?$AutoDelete@V?$SafeMap_Iterator@W4WSManSessionOption@@PAVOptionValue@SessionOptions@Client@WSMan@@@@@@XZ
?Me@?$AutoCleanup@V?$AutoDelete@V?$SafeSet@PAVCCertMapping@@@@@@PAV?$SafeSet@PAVCCertMapping@@@@@@AAAAAV?$AutoDelete@V?$SafeSet@PAVCCertMapping@@@@@@XZ
?Me@?$AutoCleanup@V?$AutoDelete@V?$SafeSet@PAVCShellUriSettings@@@@@@PAV?$SafeSet@PAVCShellUriSettings@@@@@@AAAAAV?$AutoDelete@V?$SafeSet@PAVCShellUriSettings@@@@@@XZ
?Me@?$AutoCleanup@V?$AutoDelete@V?$SafeSet_Iterator@PAVCListenerOperation@@@@@@PAV?$SafeSet_Iterator@PAVCListenerOperation@@@@@@AAAAAV?$AutoDelete@V?$SafeSet_Iterator@PAVCListenerOperation@@@@@@XZ
?Me@?$AutoCleanup@V?$AutoDelete@V?$SafeSet_Iterator@PAVCollector@@@@@@PAV?$SafeSet_Iterator@PAVCollector@@@@@@AAAAAV?$AutoDelete@V?$SafeSet_Iterator@PAVCollector@@@@@@XZ
?Me@?$AutoCleanup@V?$AutoDelete@V?$SafeSet_Iterator@PAVHostOperation@@@@@@PAV?$SafeSet_Iterator@PAVHostOperation@@@@@@AAAAAV?$AutoDelete@V?$SafeSet_Iterator@PAVHostOperation@@@@@@XZ
?Me@?$AutoCleanup@V?$AutoDelete@V?$SafeSet_Iterator@PAVListenerSourceSubscription@@@@@@PAV?$SafeSet_Iterator@PAVListenerSourceSubscription@@@@@@AAAAAV?$AutoDelete@V?$SafeSet_Iterator@PAVListenerSourceSubscription@@@@@@XZ
?Me@?$AutoCleanup@V?$AutoDelete@V?$SimpleStack@VCListenerOperation@@@@@@PAV?$SimpleStack@VCListenerOperation@@@@@@AAAAAV?$AutoDelete@V?$SimpleStack@VCListenerOperation@@@@@@XZ
?Me@?$AutoCleanup@V?$AutoDelete@V?$SimpleStack@VShellHostEntry@@@@@@PAV?$SimpleStack@VShellHostEntry@@@@@@AAAAAV?$AutoDelete@V?$SimpleStack@VShellHostEntry@@@@@@XZ
?Me@?$AutoCleanup@V?$AutoDelete@V?$queue@PAU_WSMAN_PUBLISHER_EVENT_STRUCT@@V?$deque@PAU_WSMAN_PUBLISHER_EVENT_STRUCT@@V?$transport_allocator@PAU_WSMAN_PUBLISHER_EVENT_STRUCT@@@@@std@@@std@@@@PAV?$queue@PAU_WSMAN_PUBLISHER_EVENT_STRUCT@@V?$deque@PAU_WSMAN_PUBLISHER_EVENT_STRUCT@@V?$transport_allocator@PAU_WSMAN_PUBLISHER_EVENT_STRUCT@@@@@std@@@std@@@@AAAAAV?$AutoDelete@V?$queue@PAU_WSMAN_PUBLISHER_EVENT_STRUCT@@V?$deque@PAU_WSMAN_PUBLISHER_EVENT_STRUCT@@V?$transport_allocator@PAU_WSMAN_PUBLISHER_EVENT_STRUCT@@@@@std@@@std@@@@XZ
?Me@?$AutoCleanup@V?$AutoDelete@V?$set@PAVCListenerSettings@@VCListenerSettingsLessFunctor@CServiceConfigSettings@@V?$transport_allocator@PAVCListenerSettings@@@@@std@@@@PAV?$set@PAVCListenerSettings@@VCListenerSettingsLessFunctor@CServiceConfigSettings@@V?$transport_allocator@PAVCListenerSettings@@@@@std@@@@AAAAAV?$AutoDelete@V?$set@PAVCListenerSettings@@VCListenerSettingsLessFunctor@CServiceConfigSettings@@V?$transport_allocator@PAVCListenerSettings@@@@@std@@@@XZ
?Me@?$AutoCleanup@V?$AutoDelete@V?$set@Usockaddr_storage@@VSockAddrLessFunctor@CListenerSettings@@V?$transport_allocator@Usockaddr_storage@@@@@std@@@@PAV?$set@Usockaddr_storage@@VSockAddrLessFunctor@CListenerSettings@@V?$transport_allocator@Usockaddr_storage@@@@@std@@@@AAAAAV?$AutoDelete@V?$set@Usockaddr_storage@@VSockAddrLessFunctor@CListenerSettings@@V?$transport_allocator@Usockaddr_storage@@@@@std@@@@XZ
?Me@?$AutoCleanup@V?$AutoDelete@V?$vector@PAVCWSManRequest@@V?$transport_allocator@PAVCWSManRequest@@@@@std@@@@PAV?$vector@PAVCWSManRequest@@V?$transport_allocator@PAVCWSManRequest@@@@@std@@@@AAAAAV?$AutoDelete@V?$vector@PAVCWSManRequest@@V?$transport_allocator@PAVCWSManRequest@@@@@std@@@@XZ
?Me@?$AutoCleanup@V?$AutoDelete@V?$vector@PAVHandleImpl@Client@WSMan@@V?$transport_allocator@PAVHandleImpl@Client@WSMan@@@@@std@@@@PAV?$vector@PAVHandleImpl@Client@WSMan@@V?$transport_allocator@PAVHandleImpl@Client@WSMan@@@@@std@@@@AAAAAV?$AutoDelete@V?$vector@PAVHandleImpl@Client@WSMan@@V?$transport_allocator@PAVHandleImpl@Client@WSMan@@@@@std@@@@XZ
?Me@?$AutoCleanup@V?$AutoDelete@V?$vector@PAVIServiceConfigObserver@@V?$transport_allocator@PAVIServiceConfigObserver@@@@@std@@@@PAV?$vector@PAVIServiceConfigObserver@@V?$transport_allocator@PAVIServiceConfigObserver@@@@@std@@@@AAAAAV?$AutoDelete@V?$vector@PAVIServiceConfigObserver@@V?$transport_allocator@PAVIServiceConfigObserver@@@@@std@@@@XZ
?Me@?$AutoCleanup@V?$AutoDelete@V?$vector@PAVWSManHttpSenderConnection@@V?$transport_allocator@PAVWSManHttpSenderConnection@@@@@std@@@@PAV?$vector@PAVWSManHttpSenderConnection@@V?$transport_allocator@PAVWSManHttpSenderConnection@@@@@std@@@@AAAAAV?$AutoDelete@V?$vector@PAVWSManHttpSenderConnection@@V?$transport_allocator@PAVWSManHttpSenderConnection@@@@@std@@@@XZ
?Me@?$AutoCleanup@V?$AutoDelete@VAdminSid@CSecurity@@@@PAVAdminSid@CSecurity@@@@AAAAAV?$AutoDelete@VAdminSid@CSecurity@@@@XZ
?Me@?$AutoCleanup@V?$AutoDelete@VBlockedRecord@@@@PAVBlockedRecord@@@@AAAAAV?$AutoDelete@VBlockedRecord@@@@XZ
?Me@?$AutoCleanup@V?$AutoDelete@VCBaseConfigCache@@@@PAVCBaseConfigCache@@@@AAAAAV?$AutoDelete@VCBaseConfigCache@@@@XZ
?Me@?$AutoCleanup@V?$AutoDelete@VCCertMapping@@@@PAVCCertMapping@@@@AAAAAV?$AutoDelete@VCCertMapping@@@@XZ
?Me@?$AutoCleanup@V?$AutoDelete@VCConfigChangeSource@@@@PAVCConfigChangeSource@@@@AAAAAV?$AutoDelete@VCConfigChangeSource@@@@XZ
?Me@?$AutoCleanup@V?$AutoDelete@VCListenerSettings@@@@PAVCListenerSettings@@@@AAAAAV?$AutoDelete@VCListenerSettings@@@@XZ
?Me@?$AutoCleanup@V?$AutoDelete@VCObserverConfigChangeErrors@@@@PAVCObserverConfigChangeErrors@@@@AAAAAV?$AutoDelete@VCObserverConfigChangeErrors@@@@XZ
?Me@?$AutoCleanup@V?$AutoDelete@VCServiceWatcher@CServiceConfigCache@@@@PAVCServiceWatcher@CServiceConfigCache@@@@AAAAAV?$AutoDelete@VCServiceWatcher@CServiceConfigCache@@@@XZ
?Me@?$AutoCleanup@V?$AutoDelete@VCShellUriSettings@@@@PAVCShellUriSettings@@@@AAAAAV?$AutoDelete@VCShellUriSettings@@@@XZ
?Me@?$AutoCleanup@V?$AutoDelete@VCWSManEPR@@@@PAVCWSManEPR@@@@AAAAAV?$AutoDelete@VCWSManEPR@@@@XZ
?Me@?$AutoCleanup@V?$AutoDelete@VCWSManResource@@@@PAVCWSManResource@@@@AAAAAV?$AutoDelete@VCWSManResource@@@@XZ
?Me@?$AutoCleanup@V?$AutoDelete@VCertHash@@@@PAVCertHash@@@@AAAAAV?$AutoDelete@VCertHash@@@@XZ
?Me@?$AutoCleanup@V?$AutoDelete@VConfigUpdate@@@@PAVConfigUpdate@@@@AAAAAV?$AutoDelete@VConfigUpdate@@@@XZ
?Me@?$AutoCleanup@V?$AutoDelete@VCredUIDllLoader@@@@PAVCredUIDllLoader@@@@AAAAAV?$AutoDelete@VCredUIDllLoader@@@@XZ
?Me@?$AutoCleanup@V?$AutoDelete@VEnumSinkEx@@@@PAVEnumSinkEx@@@@AAAAAV?$AutoDelete@VEnumSinkEx@@@@XZ
?Me@?$AutoCleanup@V?$AutoDelete@VEventHandler@WSMan@@@@PAVEventHandler@WSMan@@@@AAAAAV?$AutoDelete@VEventHandler@WSMan@@@@XZ
?Me@?$AutoCleanup@V?$AutoDelete@VExpiredOperationIdRecord@@@@PAVExpiredOperationIdRecord@@@@AAAAAV?$AutoDelete@VExpiredOperationIdRecord@@@@XZ
?Me@?$AutoCleanup@V?$AutoDelete@VGPApiManager@@@@PAVGPApiManager@@@@AAAAAV?$AutoDelete@VGPApiManager@@@@XZ
?Me@?$AutoCleanup@V?$AutoDelete@VGeneralSinkEx@@@@PAVGeneralSinkEx@@@@AAAAAV?$AutoDelete@VGeneralSinkEx@@@@XZ
?Me@?$AutoCleanup@V?$AutoDelete@VIChannelObserverFactory@@@@PAVIChannelObserverFactory@@@@AAAAAV?$AutoDelete@VIChannelObserverFactory@@@@XZ
?Me@?$AutoCleanup@V?$AutoDelete@VIQueryDASHSMASHInterface@@@@PAVIQueryDASHSMASHInterface@@@@AAAAAV?$AutoDelete@VIQueryDASHSMASHInterface@@@@XZ
?Me@?$AutoCleanup@V?$AutoDelete@VISpecification@@@@PAVISpecification@@@@AAAAAV?$AutoDelete@VISpecification@@@@XZ
?Me@?$AutoCleanup@V?$AutoDelete@VInteractiveSid@CSecurity@@@@PAVInteractiveSid@CSecurity@@@@AAAAAV?$AutoDelete@VInteractiveSid@CSecurity@@@@XZ
?Me@?$AutoCleanup@V?$AutoDelete@VIpHlpApiDllLoader@@@@PAVIpHlpApiDllLoader@@@@AAAAAV?$AutoDelete@VIpHlpApiDllLoader@@@@XZ
?Me@?$AutoCleanup@V?$AutoDelete@VMachineName@@@@PAVMachineName@@@@AAAAAV?$AutoDelete@VMachineName@@@@XZ
?Me@?$AutoCleanup@V?$AutoDelete@VMasterReceiveData@CListenerReceive@@@@PAVMasterReceiveData@CListenerReceive@@@@AAAAAV?$AutoDelete@VMasterReceiveData@CListenerReceive@@@@XZ
?Me@?$AutoCleanup@V?$AutoDelete@VNetworkServiceSid@CSecurity@@@@PAVNetworkServiceSid@CSecurity@@@@AAAAAV?$AutoDelete@VNetworkServiceSid@CSecurity@@@@XZ
?Me@?$AutoCleanup@V?$AutoDelete@VNtDsApiDllLoader@@@@PAVNtDsApiDllLoader@@@@AAAAAV?$AutoDelete@VNtDsApiDllLoader@@@@XZ
?Me@?$AutoCleanup@V?$AutoDelete@VOptionValue@SessionOptions@Client@WSMan@@@@PAVOptionValue@SessionOptions@Client@WSMan@@@@AAAAAV?$AutoDelete@VOptionValue@SessionOptions@Client@WSMan@@@@XZ
?Me@?$AutoCleanup@V?$AutoDelete@VPacketCreator@@@@PAVPacketCreator@@@@AAAAAV?$AutoDelete@VPacketCreator@@@@XZ
?Me@?$AutoCleanup@V?$AutoDelete@VPacketParser@@@@PAVPacketParser@@@@AAAAAV?$AutoDelete@VPacketParser@@@@XZ
?Me@?$AutoCleanup@V?$AutoDelete@VResources@Locale@@@@PAVResources@Locale@@@@AAAAAV?$AutoDelete@VResources@Locale@@@@XZ
?Me@?$AutoCleanup@V?$AutoDelete@VRunAsConfiguration@@@@PAVRunAsConfiguration@@@@AAAAAV?$AutoDelete@VRunAsConfiguration@@@@XZ
?Me@?$AutoCleanup@V?$AutoDelete@VSecurityEntry@Catalog@@@@PAVSecurityEntry@Catalog@@@@AAAAAV?$AutoDelete@VSecurityEntry@Catalog@@@@XZ
?Me@?$AutoCleanup@V?$AutoDelete@VSendPacketArgs@RobustConnectionBuffer@@@@PAVSendPacketArgs@RobustConnectionBuffer@@@@AAAAAV?$AutoDelete@VSendPacketArgs@RobustConnectionBuffer@@@@XZ
?Me@?$AutoCleanup@V?$AutoDelete@VServiceSoapProcessor@@@@PAVServiceSoapProcessor@@@@AAAAAV?$AutoDelete@VServiceSoapProcessor@@@@XZ
?Me@?$AutoCleanup@V?$AutoDelete@VShell32DllLoader@@@@PAVShell32DllLoader@@@@AAAAAV?$AutoDelete@VShell32DllLoader@@@@XZ
?Me@?$AutoCleanup@V?$AutoDelete@VShlWApiDllLoader@@@@PAVShlWApiDllLoader@@@@AAAAAV?$AutoDelete@VShlWApiDllLoader@@@@XZ
?Me@?$AutoCleanup@V?$AutoDelete@VSubscriptionEnumerator@@@@PAVSubscriptionEnumerator@@@@AAAAAV?$AutoDelete@VSubscriptionEnumerator@@@@XZ
?Me@?$AutoCleanup@V?$AutoDelete@VSubscriptionManager@@@@PAVSubscriptionManager@@@@AAAAAV?$AutoDelete@VSubscriptionManager@@@@XZ
?Me@?$AutoCleanup@V?$AutoDelete@VTSTRBUFFER@@@@PAVTSTRBUFFER@@@@AAAAAV?$AutoDelete@VTSTRBUFFER@@@@XZ
?Me@?$AutoCleanup@V?$AutoDelete@VUniqueStringOverflow@@@@PAVUniqueStringOverflow@@@@AAAAAV?$AutoDelete@VUniqueStringOverflow@@@@XZ
?Me@?$AutoCleanup@V?$AutoDelete@VUser32DllLoader@@@@PAVUser32DllLoader@@@@AAAAAV?$AutoDelete@VUser32DllLoader@@@@XZ
?Me@?$AutoCleanup@V?$AutoDelete@VWSMANCONFIGTABLE_IDENTITY@@@@PAVWSMANCONFIGTABLE_IDENTITY@@@@AAAAAV?$AutoDelete@VWSMANCONFIGTABLE_IDENTITY@@@@XZ
?Me@?$AutoCleanup@V?$AutoDelete@VWSManMemCryptManager@@@@PAVWSManMemCryptManager@@@@AAAAAV?$AutoDelete@VWSManMemCryptManager@@@@XZ
?Me@?$AutoCleanup@V?$AutoDelete@VWmiEnumContext@@@@PAVWmiEnumContext@@@@AAAAAV?$AutoDelete@VWmiEnumContext@@@@XZ
?Me@?$AutoCleanup@V?$AutoDelete@VXmlReader@@@@PAVXmlReader@@@@AAAAAV?$AutoDelete@VXmlReader@@@@XZ
?Me@?$AutoCleanup@V?$AutoDeleteVector@$$CBG@@PBG@@AAAAAV?$AutoDeleteVector@$$CBG@@XZ
?Me@?$AutoCleanup@V?$AutoDeleteVector@D@@PAD@@AAAAAV?$AutoDeleteVector@D@@XZ
?Me@?$AutoCleanup@V?$AutoDeleteVector@E@@PAE@@AAAAAV?$AutoDeleteVector@E@@XZ
?Me@?$AutoCleanup@V?$AutoDeleteVector@G@@PAG@@AAAAAV?$AutoDeleteVector@G@@XZ
?Me@?$AutoCleanup@V?$AutoDeleteVector@H@@PAH@@AAAAAV?$AutoDeleteVector@H@@XZ
?Me@?$AutoCleanup@V?$AutoDeleteVector@PAG@@PAPAG@@AAAAAV?$AutoDeleteVector@PAG@@XZ
?Me@?$AutoCleanup@V?$AutoDeleteVector@PBG@@PAPBG@@AAAAAV?$AutoDeleteVector@PBG@@XZ
?Me@?$AutoCleanup@V?$AutoDeleteVector@U_CONFIG_UPDATE@@@@PAU_CONFIG_UPDATE@@@@AAAAAV?$AutoDeleteVector@U_CONFIG_UPDATE@@@@XZ
?Me@?$AutoCleanup@V?$AutoDeleteVector@U_WINRS_CREATE_SHELL_ENVIRONMENT_VARIABLE@@@@PAU_WINRS_CREATE_SHELL_ENVIRONMENT_VARIABLE@@@@AAAAAV?$AutoDeleteVector@U_WINRS_CREATE_SHELL_ENVIRONMENT_VARIABLE@@@@XZ
?Me@?$AutoCleanup@V?$AutoDeleteVector@U_WINRS_RUN_COMMAND_ARG@@@@PAU_WINRS_RUN_COMMAND_ARG@@@@AAAAAV?$AutoDeleteVector@U_WINRS_RUN_COMMAND_ARG@@@@XZ
?Me@?$AutoCleanup@V?$AutoDeleteVector@U_WSMAN_OPTION@@@@PAU_WSMAN_OPTION@@@@AAAAAV?$AutoDeleteVector@U_WSMAN_OPTION@@@@XZ
?Me@?$AutoCleanup@V?$AutoDeleteVector@X@@PAX@@AAAAAV?$AutoDeleteVector@X@@XZ
?Me@?$AutoCleanup@V?$AutoFree@E@@PAE@@AAAAAV?$AutoFree@E@@XZ
?Me@?$AutoCleanup@V?$AutoLocklessItemRecycle@VPacket@@@@PAVPacket@@@@AAAAAV?$AutoLocklessItemRecycle@VPacket@@@@XZ
?Me@?$AutoCleanup@V?$AutoRelease@UIAppHostChildElementCollection@@@@PAUIAppHostChildElementCollection@@@@AAAAAV?$AutoRelease@UIAppHostChildElementCollection@@@@XZ
?Me@?$AutoCleanup@V?$AutoRelease@UIAppHostElement@@@@PAUIAppHostElement@@@@AAAAAV?$AutoRelease@UIAppHostElement@@@@XZ
?Me@?$AutoCleanup@V?$AutoRelease@UIAppHostElementCollection@@@@PAUIAppHostElementCollection@@@@AAAAAV?$AutoRelease@UIAppHostElementCollection@@@@XZ
?Me@?$AutoCleanup@V?$AutoRelease@UIAppHostProperty@@@@PAUIAppHostProperty@@@@AAAAAV?$AutoRelease@UIAppHostProperty@@@@XZ
?Me@?$AutoCleanup@V?$AutoRelease@UIAppHostPropertyCollection@@@@PAUIAppHostPropertyCollection@@@@AAAAAV?$AutoRelease@UIAppHostPropertyCollection@@@@XZ
?Me@?$AutoCleanup@V?$AutoRelease@UIClientSecurity@@@@PAUIClientSecurity@@@@AAAAAV?$AutoRelease@UIClientSecurity@@@@XZ
?Me@?$AutoCleanup@V?$AutoRelease@UIEnumWbemClassObject@@@@PAUIEnumWbemClassObject@@@@AAAAAV?$AutoRelease@UIEnumWbemClassObject@@@@XZ
?Me@?$AutoCleanup@V?$AutoRelease@UIErrorInfo@@@@PAUIErrorInfo@@@@AAAAAV?$AutoRelease@UIErrorInfo@@@@XZ
?Me@?$AutoCleanup@V?$AutoRelease@UIUnknown@@@@PAUIUnknown@@@@AAAAAV?$AutoRelease@UIUnknown@@@@XZ
?Me@?$AutoCleanup@V?$AutoRelease@UIWbemClassObject@@@@PAUIWbemClassObject@@@@AAAAAV?$AutoRelease@UIWbemClassObject@@@@XZ
?Me@?$AutoCleanup@V?$AutoRelease@UIWbemContext@@@@PAUIWbemContext@@@@AAAAAV?$AutoRelease@UIWbemContext@@@@XZ
?Me@?$AutoCleanup@V?$AutoRelease@UIWbemLocator@@@@PAUIWbemLocator@@@@AAAAAV?$AutoRelease@UIWbemLocator@@@@XZ
?Me@?$AutoCleanup@V?$AutoRelease@UIWbemObjectTextSrc@@@@PAUIWbemObjectTextSrc@@@@AAAAAV?$AutoRelease@UIWbemObjectTextSrc@@@@XZ
?Me@?$AutoCleanup@V?$AutoRelease@UIWbemPath@@@@PAUIWbemPath@@@@AAAAAV?$AutoRelease@UIWbemPath@@@@XZ
?Me@?$AutoCleanup@V?$AutoRelease@UIWbemPathKeyList@@@@PAUIWbemPathKeyList@@@@AAAAAV?$AutoRelease@UIWbemPathKeyList@@@@XZ
?Me@?$AutoCleanup@V?$AutoRelease@UIWbemQualifierSet@@@@PAUIWbemQualifierSet@@@@AAAAAV?$AutoRelease@UIWbemQualifierSet@@@@XZ
?Me@?$AutoCleanup@V?$AutoRelease@UIWbemQuery@@@@PAUIWbemQuery@@@@AAAAAV?$AutoRelease@UIWbemQuery@@@@XZ
?Me@?$AutoCleanup@V?$AutoRelease@UIWbemServices@@@@PAUIWbemServices@@@@AAAAAV?$AutoRelease@UIWbemServices@@@@XZ
?Me@?$AutoCleanup@V?$AutoRelease@VApplication@Client@WSMan@@@@PAVApplication@Client@WSMan@@@@AAAAAV?$AutoRelease@VApplication@Client@WSMan@@@@XZ
?Me@?$AutoCleanup@V?$AutoRelease@VCBaseConfigCache@@@@PAVCBaseConfigCache@@@@AAAAAV?$AutoRelease@VCBaseConfigCache@@@@XZ
?Me@?$AutoCleanup@V?$AutoRelease@VCClientConfigCache@@@@PAVCClientConfigCache@@@@AAAAAV?$AutoRelease@VCClientConfigCache@@@@XZ
?Me@?$AutoCleanup@V?$AutoRelease@VCClientConfigSettings@@@@PAVCClientConfigSettings@@@@AAAAAV?$AutoRelease@VCClientConfigSettings@@@@XZ
?Me@?$AutoCleanup@V?$AutoRelease@VCCommonConfigSettings@@@@PAVCCommonConfigSettings@@@@AAAAAV?$AutoRelease@VCCommonConfigSettings@@@@XZ
?Me@?$AutoCleanup@V?$AutoRelease@VCConfigCacheMap@CBaseConfigCache@@@@PAVCConfigCacheMap@CBaseConfigCache@@@@AAAAAV?$AutoRelease@VCConfigCacheMap@CBaseConfigCache@@@@XZ
?Me@?$AutoCleanup@V?$AutoRelease@VCConfigManager@@@@PAVCConfigManager@@@@AAAAAV?$AutoRelease@VCConfigManager@@@@XZ
?Me@?$AutoCleanup@V?$AutoRelease@VCListenerCommand@@@@PAVCListenerCommand@@@@AAAAAV?$AutoRelease@VCListenerCommand@@@@XZ
?Me@?$AutoCleanup@V?$AutoRelease@VCListenerMasterOperation@@@@PAVCListenerMasterOperation@@@@AAAAAV?$AutoRelease@VCListenerMasterOperation@@@@XZ
?Me@?$AutoCleanup@V?$AutoRelease@VCListenerReceive@@@@PAVCListenerReceive@@@@AAAAAV?$AutoRelease@VCListenerReceive@@@@XZ
?Me@?$AutoCleanup@V?$AutoRelease@VCListenerShell@@@@PAVCListenerShell@@@@AAAAAV?$AutoRelease@VCListenerShell@@@@XZ
?Me@?$AutoCleanup@V?$AutoRelease@VCRemoteOperation@@@@PAVCRemoteOperation@@@@AAAAAV?$AutoRelease@VCRemoteOperation@@@@XZ
?Me@?$AutoCleanup@V?$AutoRelease@VCRemoteSession@@@@PAVCRemoteSession@@@@AAAAAV?$AutoRelease@VCRemoteSession@@@@XZ
?Me@?$AutoCleanup@V?$AutoRelease@VCRequestContext@@@@PAVCRequestContext@@@@AAAAAV?$AutoRelease@VCRequestContext@@@@XZ
?Me@?$AutoCleanup@V?$AutoRelease@VCServiceCommonConfigSettings@@@@PAVCServiceCommonConfigSettings@@@@AAAAAV?$AutoRelease@VCServiceCommonConfigSettings@@@@XZ
?Me@?$AutoCleanup@V?$AutoRelease@VCServiceConfigCache@@@@PAVCServiceConfigCache@@@@AAAAAV?$AutoRelease@VCServiceConfigCache@@@@XZ
?Me@?$AutoCleanup@V?$AutoRelease@VCServiceConfigSettings@@@@PAVCServiceConfigSettings@@@@AAAAAV?$AutoRelease@VCServiceConfigSettings@@@@XZ
?Me@?$AutoCleanup@V?$AutoRelease@VCWSManEPR@@@@PAVCWSManEPR@@@@AAAAAV?$AutoRelease@VCWSManEPR@@@@XZ
?Me@?$AutoCleanup@V?$AutoRelease@VCWSManGroupPolicyCache@@@@PAVCWSManGroupPolicyCache@@@@AAAAAV?$AutoRelease@VCWSManGroupPolicyCache@@@@XZ
?Me@?$AutoCleanup@V?$AutoRelease@VCWSManGroupPolicyManager@@@@PAVCWSManGroupPolicyManager@@@@AAAAAV?$AutoRelease@VCWSManGroupPolicyManager@@@@XZ
?Me@?$AutoCleanup@V?$AutoRelease@VCWSManObject@@@@PAVCWSManObject@@@@AAAAAV?$AutoRelease@VCWSManObject@@@@XZ
?Me@?$AutoCleanup@V?$AutoRelease@VCWSManResource@@@@PAVCWSManResource@@@@AAAAAV?$AutoRelease@VCWSManResource@@@@XZ
?Me@?$AutoCleanup@V?$AutoRelease@VCWSManSession@@@@PAVCWSManSession@@@@AAAAAV?$AutoRelease@VCWSManSession@@@@XZ
?Me@?$AutoCleanup@V?$AutoRelease@VCWinRSPluginConfigCache@@@@PAVCWinRSPluginConfigCache@@@@AAAAAV?$AutoRelease@VCWinRSPluginConfigCache@@@@XZ
?Me@?$AutoCleanup@V?$AutoRelease@VCWinRSPluginConfigSettings@@@@PAVCWinRSPluginConfigSettings@@@@AAAAAV?$AutoRelease@VCWinRSPluginConfigSettings@@@@XZ
?Me@?$AutoCleanup@V?$AutoRelease@VCommand@Client@WSMan@@@@PAVCommand@Client@WSMan@@@@AAAAAV?$AutoRelease@VCommand@Client@WSMan@@@@XZ
?Me@?$AutoCleanup@V?$AutoRelease@VConfigNotification@@@@PAVConfigNotification@@@@AAAAAV?$AutoRelease@VConfigNotification@@@@XZ
?Me@?$AutoCleanup@V?$AutoRelease@VConnectShellOperation@Client@WSMan@@@@PAVConnectShellOperation@Client@WSMan@@@@AAAAAV?$AutoRelease@VConnectShellOperation@Client@WSMan@@@@XZ
?Me@?$AutoCleanup@V?$AutoRelease@VCreateShellOperation@Client@WSMan@@@@PAVCreateShellOperation@Client@WSMan@@@@AAAAAV?$AutoRelease@VCreateShellOperation@Client@WSMan@@@@XZ
?Me@?$AutoCleanup@V?$AutoRelease@VDeleteShellOperation@Client@WSMan@@@@PAVDeleteShellOperation@Client@WSMan@@@@AAAAAV?$AutoRelease@VDeleteShellOperation@Client@WSMan@@@@XZ
?Me@?$AutoCleanup@V?$AutoRelease@VDisconnectOperation@Client@WSMan@@@@PAVDisconnectOperation@Client@WSMan@@@@AAAAAV?$AutoRelease@VDisconnectOperation@Client@WSMan@@@@XZ
?Me@?$AutoCleanup@V?$AutoRelease@VEnumSinkEx@@@@PAVEnumSinkEx@@@@AAAAAV?$AutoRelease@VEnumSinkEx@@@@XZ
?Me@?$AutoCleanup@V?$AutoRelease@VGeneralSinkEx@@@@PAVGeneralSinkEx@@@@AAAAAV?$AutoRelease@VGeneralSinkEx@@@@XZ
?Me@?$AutoCleanup@V?$AutoRelease@VHostMappingTable@@@@PAVHostMappingTable@@@@AAAAAV?$AutoRelease@VHostMappingTable@@@@XZ
?Me@?$AutoCleanup@V?$AutoRelease@VIISConfigSettings@@@@PAVIISConfigSettings@@@@AAAAAV?$AutoRelease@VIISConfigSettings@@@@XZ
?Me@?$AutoCleanup@V?$AutoRelease@VIPCSoapProcessor@@@@PAVIPCSoapProcessor@@@@AAAAAV?$AutoRelease@VIPCSoapProcessor@@@@XZ
?Me@?$AutoCleanup@V?$AutoRelease@VIRequestContext@@@@PAVIRequestContext@@@@AAAAAV?$AutoRelease@VIRequestContext@@@@XZ
?Me@?$AutoCleanup@V?$AutoRelease@VISubscription@@@@PAVISubscription@@@@AAAAAV?$AutoRelease@VISubscription@@@@XZ
?Me@?$AutoCleanup@V?$AutoRelease@VInboundRequestDetails@@@@PAVInboundRequestDetails@@@@AAAAAV?$AutoRelease@VInboundRequestDetails@@@@XZ
?Me@?$AutoCleanup@V?$AutoRelease@VProxyManager@Client@WSMan@@@@PAVProxyManager@Client@WSMan@@@@AAAAAV?$AutoRelease@VProxyManager@Client@WSMan@@@@XZ
?Me@?$AutoCleanup@V?$AutoRelease@VProxySelection@Client@WSMan@@@@PAVProxySelection@Client@WSMan@@@@AAAAAV?$AutoRelease@VProxySelection@Client@WSMan@@@@XZ
?Me@?$AutoCleanup@V?$AutoRelease@VPushSubscribeOperation@@@@PAVPushSubscribeOperation@@@@AAAAAV?$AutoRelease@VPushSubscribeOperation@@@@XZ
?Me@?$AutoCleanup@V?$AutoRelease@VPushSubscription@@@@PAVPushSubscription@@@@AAAAAV?$AutoRelease@VPushSubscription@@@@XZ
?Me@?$AutoCleanup@V?$AutoRelease@VReceiveOperation@Client@WSMan@@@@PAVReceiveOperation@Client@WSMan@@@@AAAAAV?$AutoRelease@VReceiveOperation@Client@WSMan@@@@XZ
?Me@?$AutoCleanup@V?$AutoRelease@VReconnectOperation@Client@WSMan@@@@PAVReconnectOperation@Client@WSMan@@@@AAAAAV?$AutoRelease@VReconnectOperation@Client@WSMan@@@@XZ
?Me@?$AutoCleanup@V?$AutoRelease@VSendOperation@Client@WSMan@@@@PAVSendOperation@Client@WSMan@@@@AAAAAV?$AutoRelease@VSendOperation@Client@WSMan@@@@XZ
?Me@?$AutoCleanup@V?$AutoRelease@VShell@Client@WSMan@@@@PAVShell@Client@WSMan@@@@AAAAAV?$AutoRelease@VShell@Client@WSMan@@@@XZ
?Me@?$AutoCleanup@V?$AutoRelease@VShellInfo@@@@PAVShellInfo@@@@AAAAAV?$AutoRelease@VShellInfo@@@@XZ
?Me@?$AutoCleanup@V?$AutoRelease@VSignalOperation@Client@WSMan@@@@PAVSignalOperation@Client@WSMan@@@@AAAAAV?$AutoRelease@VSignalOperation@Client@WSMan@@@@XZ
?Me@?$AutoCleanup@V?$AutoRelease@VUserRecord@@@@PAVUserRecord@@@@AAAAAV?$AutoRelease@VUserRecord@@@@XZ
?Me@?$AutoCleanup@V?$AutoRelease@VWSManHttpListener@@@@PAVWSManHttpListener@@@@AAAAAV?$AutoRelease@VWSManHttpListener@@@@XZ
?Me@?$AutoCleanup@V?$AutoReleaseEx@VHostMappingTableEntry@@@@PAVHostMappingTableEntry@@@@AAAAAV?$AutoReleaseEx@VHostMappingTableEntry@@@@XZ
?Me@?$AutoCleanup@V?$AutoReleaseEx@VShell@Client@WSMan@@@@PAVShell@Client@WSMan@@@@AAAAAV?$AutoReleaseEx@VShell@Client@WSMan@@@@XZ
?Me@?$AutoCleanup@VAutoBstr@@PAG@@AAAAAVAutoBstr@@XZ
?Me@?$AutoCleanup@VAutoBstrNoAlloc@@PAG@@AAAAAVAutoBstrNoAlloc@@XZ
?Me@?$AutoCleanup@VAutoCertContext@@PBU_CERT_CONTEXT@@@@AAAAAVAutoCertContext@@XZ
?Me@?$AutoCleanup@VAutoChainContext@@PBU_CERT_CHAIN_CONTEXT@@@@AAAAAVAutoChainContext@@XZ
?Me@?$AutoCleanup@VAutoCoTaskMemFree@@PAX@@AAAAAVAutoCoTaskMemFree@@XZ
?Me@?$AutoCleanup@VAutoEnvironmentBlock@@PAX@@AAAAAVAutoEnvironmentBlock@@XZ
?Me@?$AutoCleanup@VAutoFwXmlCloseParser@@PAX@@AAAAAVAutoFwXmlCloseParser@@XZ
?Me@?$AutoCleanup@VAutoHandle@@PAX@@AAAAAVAutoHandle@@XZ
?Me@?$AutoCleanup@VAutoImpersonateUser@@PAX@@AAAAAVAutoImpersonateUser@@XZ
?Me@?$AutoCleanup@VAutoLibrary@@PAUHINSTANCE__@@@@AAAAAVAutoLibrary@@XZ
?Me@?$AutoCleanup@VAutoLocalFree@@PAX@@AAAAAVAutoLocalFree@@XZ
?Me@?$AutoCleanup@VAutoMIClass@@PAU_MI_Class@@@@AAAAAVAutoMIClass@@XZ
?Me@?$AutoCleanup@VAutoMIInstance@@PAU_MI_Instance@@@@AAAAAVAutoMIInstance@@XZ
?Me@?$AutoCleanup@VAutoObject@@PAUWSMAN_OBJECT@@@@AAAAAVAutoObject@@XZ
?Me@?$AutoCleanup@VAutoRegKey@@PAUHKEY__@@@@AAAAAVAutoRegKey@@XZ
?Me@?$AutoCleanup@VAutoSecurityDescriptor@@PAX@@AAAAAVAutoSecurityDescriptor@@XZ
?Me@?$AutoCleanup@VAutoWaitHandle@@PAX@@AAAAAVAutoWaitHandle@@XZ
?MoveSettingsToMigrationKey@@YAHPAVIRequestContext@@_N@Z
?NUM_BOMS@PacketFormatter@@0HB
?NUM_CHARSETS@PacketFormatter@@0HB
?Next@TSTRBUFFER@@QBAPBGPBG@Z
?NextCertMapping@CConfigManager@@QAAHXZ
?NextListener@CConfigManager@@QAAHXZ
?NextRow@CConfigManager@@QAAHXZ
?NextShellUri@CConfigManager@@QAAHXZ
?NoSemantics@ExtendedSemantic@@2KB
?NotifyObservers@CWSManGroupPolicyManager@@UAAHPAVIRequestContext@@PAVIWSManGroupPolicyCacheDataProvider@@@Z
?OnChange@CBaseConfigCache@@UAAXW4ConfigChangeSources@@KW4ConfigChangeSeverityType@@@Z
?OpenRegKey@ConfigRegistry@@IAAJPAU_CONFIG_INFO@@KPAVWSMANCONFIGTABLE_IDENTITY@@PAVAutoRegKey@@PAUHKEY__@@@Z
?OverrideMaxEnvelopeSize@PacketParser@@QAAXK@Z
?OverrideTimeout@PacketParser@@QAAXK@Z
?Parse@CWSManResource@@SAPAV1@PAVIRequestContext@@PBG11PAU_WSMAN_SELECTOR_SET@@PAU_WSMAN_OPTION_SET@@H@Z
?Parse@CWSManResource@@SAPAV1@PAVIRequestContext@@PBGH@Z
?Parse@XmlReader@@AAAHPAVIRequestContext@@@Z
?ParseAction@PacketParser@@AAAHPAVIRequestContext@@PAU_FWXML_ELEMENT@@_N@Z
?ParseActivityId@PacketParser@@AAAHPAVIRequestContext@@PAU_FWXML_ELEMENT@@H@Z
?ParseBookmark@PacketParser@@AAAHPAVIRequestContext@@PAU_FWXML_ELEMENT@@H@Z
?ParseDataLocale@PacketParser@@AAAHPAVIRequestContext@@PAU_FWXML_ELEMENT@@H@Z
?ParseEprElement@CWSManEPR@@SAPAV1@PAVIRequestContext@@PAU_FWXML_ELEMENT@@@Z
?ParseEvent@SoapSemanticConverter@@QAAPAVSemanticMessage@@PAU_FWXML_ELEMENT@@PAKPAVIRequestContext@@@Z
?ParseFaultTo@PacketParser@@AAAHPAVIRequestContext@@PAU_FWXML_ELEMENT@@H@Z
?ParseFragment@PacketParser@@AAAHPAVIRequestContext@@PAU_FWXML_ELEMENT@@H@Z
?ParseHeader@PacketParser@@AAAHPAVCRequestContext@@PAU_FWXML_ELEMENT@@HPAVCServiceCommonConfigSettings@@@Z
?ParseHeaders@CWSManResourceNoResourceUri@@QAAHPAVIRequestContext@@PAU_FWXML_ELEMENT@@11@Z
?ParseHeaders@PacketParser@@AAAHPAVCRequestContext@@PAVCServiceCommonConfigSettings@@@Z
?ParseLocale@PacketParser@@AAAHPAVIRequestContext@@PAU_FWXML_ELEMENT@@H@Z
?ParseMachineID@PacketParser@@AAAHPAVIRequestContext@@PAU_FWXML_ELEMENT@@@Z
?ParseMaxEnvelopeSize@PacketParser@@AAAHPAVIRequestContext@@PAU_FWXML_ELEMENT@@HPAVCServiceCommonConfigSettings@@@Z
?ParseMessageId@PacketParser@@AAAHPAVIRequestContext@@PAU_FWXML_ELEMENT@@_N@Z
?ParseOperationId@PacketParser@@AAAHPAVIRequestContext@@PAU_FWXML_ELEMENT@@H@Z
?ParseOptionSet@CWSManResourceNoResourceUri@@QAAHPAVIRequestContext@@PAU_FWXML_ELEMENT@@@Z
?ParseOptions@PacketParser@@AAAHPAVIRequestContext@@PAU_FWXML_ELEMENT@@H@Z
?ParsePacket@PacketParser@@QAAHPAVCRequestContext@@PAVPacket@@PAVCServiceCommonConfigSettings@@@Z
?ParsePacketInternal@PacketParser@@AAAHPAVCRequestContext@@PAU_FWXML_ELEMENT@@PAVCServiceCommonConfigSettings@@@Z
?ParseReplyTo@PacketParser@@AAAHPAVIRequestContext@@PAU_FWXML_ELEMENT@@@Z
?ParseResourceLocator@CWSManResource@@SAPAV1@PAVIRequestContext@@PAU_WSMAN_RESOURCE_LOCATOR@@@Z
?ParseResourceUri@PacketParser@@AAAHPAVIRequestContext@@PAU_FWXML_ELEMENT@@H@Z
?ParseResponse@SoapSemanticConverter@@QAA_NPAU_FWXML_ELEMENT@@PAKPA_NPAVIRequestContext@@@Z
?ParseRobustConnectionAckSequenceId@PacketParser@@AAAKPA_K@Z
?ParseRobustConnectionMessages@PacketParser@@QAAKPAW4PacketType@1@PA_NPA_K2@Z
?ParseSelectors@PacketParser@@AAAHPAVIRequestContext@@PAU_FWXML_ELEMENT@@H@Z
?ParseSequenceId@PacketParser@@AAAHPAVIRequestContext@@PAU_FWXML_ELEMENT@@@Z
?ParseSessionId@PacketParser@@AAAHPAVIRequestContext@@PAU_FWXML_ELEMENT@@H@Z
?ParseShellCompression@PacketParser@@AAAHPAVIRequestContext@@PAU_FWXML_ELEMENT@@H@Z
?ParseStream@PacketParser@@QAAXPAVCRequestContext@@PAVITransportReceiver@@PAVPacket@@PAVCServiceCommonConfigSettings@@@Z
?ParseSubscriptionAgentPacket@PacketParser@@QAAHPAVCRequestContext@@PAVPacket@@PAVCServiceConfigSettings@@@Z
?ParseSubscriptionID@PacketParser@@AAAHPAVIRequestContext@@PAU_FWXML_ELEMENT@@H@Z
?ParseTimeout@PacketParser@@AAAHPAVIRequestContext@@PAU_FWXML_ELEMENT@@HPAVCServiceCommonConfigSettings@@@Z
?ParseToAddress@PacketParser@@AAAHPAVCRequestContext@@PAU_FWXML_ELEMENT@@@Z
?Passed@CErrorContext@@UBAHXZ
?PolicyChanged@CWSManGroupPolicyManager@@AAAXE@Z
?PostChange@CBaseConfigCache@@MAAHPAVIRequestContext@@PAVCCommonConfigSettings@@1@Z
?PostChange@CServiceConfigCache@@EAAHPAVIRequestContext@@PAVCCommonConfigSettings@@1@Z
?PostError@CBaseConfigCache@@MAAXK@Z
?PostError@CServiceConfigCache@@EAAXK@Z
?PrepareToCommitWithSize@BufferFormatter@@UAAKK@Z
?PrepareToCommitWithSize@CircularBufferFormatter@@UAAKK@Z
?PrintHandleTrace@@YAXPAX@Z
?PrintReleaseTrace@@YAXPAXJ@Z
?PrintUnregisterWaitTrace@@YAXPAX@Z
?ProcessContext@CErrorContext@@UAAHHPAKPAU_WSMAN_FAULT_OBJECT@@@Z
?ProcessContext@CErrorContext@@UAAHHPAU_WSMAN_ERROR@@@Z
?ProcessContext@CRequestContext@@QAAHHPAU_WSMAN_ENUMERATOR_RESULT@@@Z
?ProcessContext@CRequestContext@@QAAHHPAU_WSMAN_EVENTS_RESULT@@@Z
?ProcessContext@CRequestContext@@QAAHHPAU_WSMAN_RESULT@@@Z
?ProcessContext@CRequestContext@@QAAHHPAU_WSMAN_STATUS@@@Z
?ProcessContext@CRequestContext@@UAAHHPAKPAU_WSMAN_FAULT_OBJECT@@@Z
?ProcessContext@CRequestContext@@UAAHHPAU_WSMAN_ERROR@@@Z
?ProcessEPR@CWSManEPR@@AAAHPAVIRequestContext@@PAU_FWXML_ELEMENT@@@Z
?ProcessFragmentDialect@CWSManResourceNoResourceUri@@IAAHPAVIRequestContext@@PBGK@Z
?ProcessFragmentPath@CWSManResourceNoResourceUri@@IAAHPAVIRequestContext@@PBGK@Z
?ProcessKey@CWSManResourceNoResourceUri@@IAAHPAVIRequestContext@@PBG1@Z
?ProcessNestedEPR@CWSManResourceNoResourceUri@@IAAHPAVIRequestContext@@PBGPAU_FWXML_ELEMENT@@@Z
?ProcessOption@CWSManResourceNoResourceUri@@IAAHPAVIRequestContext@@PBG11H@Z
?ProcessRefParameters@CWSManEPR@@AAAHPAVIRequestContext@@PAU_FWXML_ELEMENT@@@Z
?ProcessRefProperties@CWSManEPR@@AAAHPAVIRequestContext@@PAU_FWXML_ELEMENT@@@Z
?ProcessUri@CWSManResource@@QAAHPAVIRequestContext@@PBGK@Z
?Progress@ExtendedSemantic@@2KB
?PropertySheetPageCallback@CWSManSecurityUI@@UAAJPAUHWND__@@IW4_SI_PAGE_TYPE@@@Z
?ProviderFailure@CErrorContext@@UBAHXZ
?ProviderShutdownCleanup@CWinRSPluginConfigCache@@SAXXZ
?PutOverrideValue@?$PacketElement@K@PacketParser@@QAAXK@Z
?PutOverrideValue@?$PacketElement@PBG@PacketParser@@QAAXPBG@Z
?PutValue@?$PacketElement@K@PacketParser@@QAAXKH@Z
?PutValue@?$PacketElement@PAU_FWXML_ELEMENT@@@PacketParser@@QAAXPAU_FWXML_ELEMENT@@H@Z
?PutValue@?$PacketElement@PBG@PacketParser@@QAAXPBGH@Z
?PutValue@?$PacketElement@_K@PacketParser@@QAAX_KH@Z
?PutValue@Fragment@PacketParser@@QAAXPBG0H@Z
?PutValue@NotUnderstandSoapHeader@PacketParser@@QAAXPBG00@Z
?PutValue@ReferenceParameters@PacketParser@@QAAKPAU_FWXML_ELEMENT@@H@Z
?QueryInterface@CWSManSecurityUI@@UAAJABU_GUID@@PAPAX@Z
?QueryPtr@RBUFFER@@QBAPAXXZ
?QueryRegValue@CConfigManager@@AAAJPAU_CONFIG_INFO@@PAKKPAE1@Z
?QueryRegValue@CWSManGroupPolicyManager@@AAAJPAVIRequestContext@@PBU_WSMAN_POLICY_INFO@@PAKKPAE2@Z
?QuerySize@RBUFFER@@QBAIXZ
?QueryStr@TSTRBUFFER@@QBAPBGXZ
?QuotaComplete@UserRecord@@UAAXPAU_WSMAN_AUTHZ_QUOTA@@KPBG@Z
?ReAlloc@WSManMemory@@SAPAXPAXIHW4_NitsFaultMode@@@Z
?ReadCertMappingRegistryKey@CConfigManager@@SAHPAVIRequestContext@@PAVCERTMAPPING_IDENTITY@@PAG@Z
?ReadCredentialsFromCredmanStore@CConfigManager@@SAHPAVIRequestContext@@PAG1@Z
?ReadCurrentSettings@CClientConfigCache@@EAAPAVCCommonConfigSettings@@PAVIRequestContext@@W4ErrorLogging@@@Z
?ReadCurrentSettings@CServiceConfigCache@@EAAPAVCCommonConfigSettings@@PAVIRequestContext@@W4ErrorLogging@@@Z
?ReadCurrentSettings@CWinRSPluginConfigCache@@EAAPAVCCommonConfigSettings@@PAVIRequestContext@@W4ErrorLogging@@@Z
?ReadDefaultSettings@CClientConfigCache@@EAAPAVCCommonConfigSettings@@PAVIRequestContext@@@Z
?ReadDefaultSettings@CServiceConfigCache@@EAAPAVCCommonConfigSettings@@PAVIRequestContext@@@Z
?ReadDefaultSettings@CWinRSPluginConfigCache@@EAAPAVCCommonConfigSettings@@PAVIRequestContext@@@Z
?ReadShellUriRegistryKey@CConfigManager@@SAHPAVIRequestContext@@PAVSHELLURI_IDENTITY@@PAG@Z
?ReadTableRegistryKey@CConfigManager@@SAHPAVIRequestContext@@PAVWSMANCONFIGTABLE_IDENTITY@@PAG@Z
?ReallocStorage@RBUFFER@@IAAHI@Z
?RecordAccessDenied@CErrorContext@@UAAXXZ
?RecordAccessDenied@CRequestContext@@UAAXXZ
?RecordAccessDeniedWithDetail@CErrorContext@@UAAXKZZ
?RecordAccessDeniedWithDetail@CRequestContext@@UAAXKZZ
?RecordFailure@CErrorContext@@UAAXK@Z
?RecordFailure@CErrorContext@@UAAXKKZZ
?RecordFailure@CErrorContext@@UAAXPAU_WSMAN_FAULT_OBJECT@@@Z
?RecordFailure@CErrorContext@@UAAXW4_MI_Result@@KKZZ
?RecordFailure@CRequestContext@@AAAXKKPAPAD0@Z
?RecordFailure@CRequestContext@@UAAXK@Z
?RecordFailure@CRequestContext@@UAAXKKZZ
?RecordFailure@CRequestContext@@UAAXPAU_WSMAN_FAULT_OBJECT@@@Z
?RecordFailure@CRequestContext@@UAAXW4_MI_Result@@KKZZ
?RecordHresult@CErrorContext@@UAAXKKZZ
?RecordHresult@CRequestContext@@UAAXKKZZ
?RecordHtmlError@CRequestContext@@QAAHKPAU_FWXML_ELEMENT@@@Z
?RecordHtmlError@CRequestContext@@QAAHKPBGK@Z
?RecordMIFailure@IRequestContext@@QAAXW4_MI_Result@@K@Z
?RecordOutOfMemory@CErrorContext@@UAAXXZ
?RecordOutOfMemory@CRequestContext@@UAAXXZ
?RecordProviderFailure@CErrorContext@@UAAXPAU_WSMAN_FAULT_OBJECT@@PBG1@Z
?RecordProviderFailure@CRequestContext@@QAAXKHPBG00@Z
?RecordProviderFailure@CRequestContext@@UAAXPAU_WSMAN_FAULT_OBJECT@@PBG1@Z
?RecordSoapError@CErrorContext@@UAAHKPBG@Z
?RecordSoapError@CRequestContext@@QAAHKPAU_FWXML_ELEMENT@@@Z
?RecordSoapError@CRequestContext@@UAAHKPBG@Z
?RecordText@CRequestContext@@AAAHKPBGIK@Z
?RecordXml@CRequestContext@@AAAHKPAU_FWXML_ELEMENT@@K@Z
?Refresh@UserRecord@@QAAXXZ
?RegisterChild@ChildLifeTimeManager@@QAA_NXZ
?RegisterChunkBoundary@CircularBufferFormatter@@QAAKXZ
?RegisterConfigChangeNotification@CConfigManager@@QAAPAVConfigNotification@@PAX@Z
?RegisterForPolicyNotification@CWSManGroupPolicyManager@@AAAHPAVIRequestContext@@H@Z
RegisterModule
?Release@?$SafeMap@PAVCCertMapping@@UEmpty@@V?$SafeMap_Iterator@PAVCCertMapping@@UEmpty@@@@@@UBAXXZ
?Release@?$SafeMap@PAVCCertMapping@@UEmpty@@V?$SafeSet_Iterator@PAVCCertMapping@@@@@@UBAXXZ
?Release@?$SafeMap@PAVCListenerConnect@@PAV1@V?$SafeMap_Iterator@PAVCListenerConnect@@PAV1@@@@@UBAXXZ
?Release@?$SafeMap@PAVCListenerOperation@@UEmpty@@V?$SafeMap_Iterator@PAVCListenerOperation@@UEmpty@@@@@@UBAXXZ
?Release@?$SafeMap@PAVCListenerOperation@@UEmpty@@V?$SafeSet_Iterator@PAVCListenerOperation@@@@@@UBAXXZ
?Release@?$SafeMap@PAVCListenerReceive@@PAV1@V?$SafeMap_Iterator@PAVCListenerReceive@@PAV1@@@@@UBAXXZ
?Release@?$SafeMap@PAVCListenerSend@@PAV1@V?$SafeMap_Iterator@PAVCListenerSend@@PAV1@@@@@UBAXXZ
?Release@?$SafeMap@PAVCListenerSignal@@PAV1@V?$SafeMap_Iterator@PAVCListenerSignal@@PAV1@@@@@UBAXXZ
?Release@?$SafeMap@PAVCShellUriSettings@@UEmpty@@V?$SafeSet_Iterator@PAVCShellUriSettings@@@@@@UBAXXZ
?Release@?$SafeMap@PAVCollector@@UEmpty@@V?$SafeMap_Iterator@PAVCollector@@UEmpty@@@@@@UBAXXZ
?Release@?$SafeMap@PAVCollector@@UEmpty@@V?$SafeSet_Iterator@PAVCollector@@@@@@UBAXXZ
?Release@?$SafeMap@PAVHostOperation@@UEmpty@@V?$SafeMap_Iterator@PAVHostOperation@@UEmpty@@@@@@UBAXXZ
?Release@?$SafeMap@PAVHostOperation@@UEmpty@@V?$SafeSet_Iterator@PAVHostOperation@@@@@@UBAXXZ
?Release@?$SafeMap@PAVIOperation@@UEmpty@@V?$SafeMap_Iterator@PAVIOperation@@UEmpty@@@@@@UBAXXZ
?Release@?$SafeMap@PAVIOperation@@UEmpty@@V?$SafeSet_Iterator@PAVIOperation@@@@@@UBAXXZ
?Release@?$SafeMap@PAVListenerSourceSubscription@@UEmpty@@V?$SafeMap_Iterator@PAVListenerSourceSubscription@@UEmpty@@@@@@UBAXXZ
?Release@?$SafeMap@PAVListenerSourceSubscription@@UEmpty@@V?$SafeSet_Iterator@PAVListenerSourceSubscription@@@@@@UBAXXZ
?Release@?$SafeMap@PAVPushSubscription@@UEmpty@@V?$SafeMap_Iterator@PAVPushSubscription@@UEmpty@@@@@@UBAXXZ
?Release@?$SafeMap@PAVPushSubscription@@UEmpty@@V?$SafeSet_Iterator@PAVPushSubscription@@@@@@UBAXXZ
?Release@?$SafeMap@PAXUEmpty@@V?$SafeSet_Iterator@PAX@@@@UBAXXZ
?Release@?$SafeMap@UPluginKey@@KV?$SafeMap_Iterator@UPluginKey@@K@@@@UBAXXZ
?Release@?$SafeMap@UUserKey@@PAVBlockedRecord@@V?$SafeMap_Iterator@UUserKey@@PAVBlockedRecord@@@@@@UBAXXZ
?Release@?$SafeMap@VCertThumbprintKey@@VCertThumbprintMappedSet@CServiceConfigSettings@@V?$SafeMap_Iterator@VCertThumbprintKey@@VCertThumbprintMappedSet@CServiceConfigSettings@@@@@@UBAXXZ
?Release@?$SafeMap@VGuidKey@@PAVCListenerCommand@@V?$SafeMap_Iterator@VGuidKey@@PAVCListenerCommand@@@@@@UBAXXZ
?Release@?$SafeMap@VKey@CWmiPtrCache@@VMapping@2@V?$SafeMap_Iterator@VKey@CWmiPtrCache@@VMapping@2@@@@@UBAXXZ
?Release@?$SafeMap@VKey@Locale@@KV?$SafeMap_Iterator@VKey@Locale@@K@@@@UBAXXZ
?Release@?$SafeMap@VStringKey@@PAVListenerEvents@@V?$SafeMap_Iterator@VStringKey@@PAVListenerEvents@@@@@@UBAXXZ
?Release@?$SafeMap@VStringKey@@PAVListenerSourceSubscription@@V?$SafeMap_Iterator@VStringKey@@PAVListenerSourceSubscription@@@@@@UBAXXZ
?Release@?$SafeMap@VStringKey@@UOption@WinRM_OperationOptions@@V?$SafeMap_Iterator@VStringKey@@UOption@WinRM_OperationOptions@@@@@@UBAXXZ
?Release@?$SafeMap@VStringKeyCI@@KV?$SafeMap_Iterator@VStringKeyCI@@K@@@@UBAXXZ
?Release@?$SafeMap@VStringKeyCI@@PAVIISEndpoint@@V?$SafeMap_Iterator@VStringKeyCI@@PAVIISEndpoint@@@@@@UBAXXZ
?Release@?$SafeMap@VStringKeyCI@@UEmpty@@V?$SafeMap_Iterator@VStringKeyCI@@UEmpty@@@@@@UBAXXZ
?Release@?$SafeMap@VStringKeyCI@@UEmpty@@V?$SafeSet_Iterator@VStringKeyCI@@@@@@UBAXXZ
?Release@?$SafeMap@VStringKeyCI@@UUSER_CONTEXT_INFO@WSManHttpListener@@V?$SafeMap_Iterator@VStringKeyCI@@UUSER_CONTEXT_INFO@WSManHttpListener@@@@@@UBAXXZ
?Release@?$SafeMap@VStringKeyStore@@PAVExpiredOperationIdRecord@@V?$SafeMap_Iterator@VStringKeyStore@@PAVExpiredOperationIdRecord@@@@@@UBAXXZ
?Release@?$SafeMap@VStringKeyStore@@PAVServerFullDuplexChannel@@V?$SafeMap_Iterator@VStringKeyStore@@PAVServerFullDuplexChannel@@@@@@UBAXXZ
?Release@?$SafeMap@VTokenCacheKey@ServiceSoapProcessor@@VTokenCacheMapping@2@V?$SafeMap_Iterator@VTokenCacheKey@ServiceSoapProcessor@@VTokenCacheMapping@2@@@@@UBAXXZ
?Release@?$SafeMap@W4WSManSessionOption@@PAVOptionValue@SessionOptions@Client@WSMan@@V?$SafeMap_Iterator@W4WSManSessionOption@@PAVOptionValue@SessionOptions@Client@WSMan@@@@@@UBAXXZ
?Release@?$SafeMap@_KPAVSendPacketArgs@RobustConnectionBuffer@@V?$SafeMap_Iterator@_KPAVSendPacketArgs@RobustConnectionBuffer@@@@@@UBAXXZ
?Release@?$SafeMap_Iterator@PAVCCertMapping@@UEmpty@@@@QAAXXZ
?Release@?$SafeMap_Iterator@PAVCListenerOperation@@UEmpty@@@@QAAXXZ
?Release@?$SafeMap_Iterator@PAVCShellUriSettings@@UEmpty@@@@QAAXXZ
?Release@?$SafeMap_Iterator@VCertThumbprintKey@@VCertThumbprintMappedSet@CServiceConfigSettings@@@@QAAXXZ
?Release@?$SafeMap_Iterator@VStringKeyCI@@K@@QAAXXZ
?Release@?$SafeMap_Iterator@VStringKeyStore@@PAVExpiredOperationIdRecord@@@@QAAXXZ
?Release@?$SafeMap_Iterator@W4WSManSessionOption@@PAVOptionValue@SessionOptions@Client@WSMan@@@@QAAXXZ
?Release@?$SafeMap_Lock@PAVCCertMapping@@UEmpty@@V?$SafeMap_Iterator@PAVCCertMapping@@UEmpty@@@@@@QAAXXZ
?Release@?$SafeMap_Lock@PAVCListenerOperation@@UEmpty@@V?$SafeMap_Iterator@PAVCListenerOperation@@UEmpty@@@@@@QAAXXZ
?Release@?$SafeMap_Lock@PAVCShellUriSettings@@UEmpty@@V?$SafeMap_Iterator@PAVCShellUriSettings@@UEmpty@@@@@@QAAXXZ
?Release@?$SafeMap_Lock@VCertThumbprintKey@@VCertThumbprintMappedSet@CServiceConfigSettings@@V?$SafeMap_Iterator@VCertThumbprintKey@@VCertThumbprintMappedSet@CServiceConfigSettings@@@@@@QAAXXZ
?Release@?$SafeMap_Lock@VStringKeyCI@@KV?$SafeMap_Iterator@VStringKeyCI@@K@@@@QAAXXZ
?Release@?$SafeMap_Lock@VStringKeyStore@@PAVExpiredOperationIdRecord@@V?$SafeMap_Iterator@VStringKeyStore@@PAVExpiredOperationIdRecord@@@@@@QAAXXZ
?Release@?$SafeMap_Lock@W4WSManSessionOption@@PAVOptionValue@SessionOptions@Client@WSMan@@V?$SafeMap_Iterator@W4WSManSessionOption@@PAVOptionValue@SessionOptions@Client@WSMan@@@@@@QAAXXZ
?Release@CBaseConfigCache@@UAAJP6AXPAX@Z0@Z
?Release@CWSManCriticalSection@@QAAXXZ
?Release@CWSManSecurityUI@@UAAKXZ
?Release@ILifeTimeMgmt@@UAAJP6AXPAX@Z0@Z
?Release@UserRecord@@QAAJXZ
?ReleaseExclusive@FastLock@@QAAXXZ
?ReleasePtr@?$AutoCleanup@V?$AutoDelete@D@@PAD@@AAAXXZ
?ReleasePtr@?$AutoCleanup@V?$AutoDelete@G@@PAG@@AAAXXZ
?ReleasePtr@?$AutoCleanup@V?$AutoDelete@UIPRange@CWSManIPFilter@@@@PAUIPRange@CWSManIPFilter@@@@AAAXXZ
?ReleasePtr@?$AutoCleanup@V?$AutoDelete@U_SID@@@@PAU_SID@@@@AAAXXZ
?ReleasePtr@?$AutoCleanup@V?$AutoDelete@U_WSMAN_STREAM_ID_SET@@@@PAU_WSMAN_STREAM_ID_SET@@@@AAAXXZ
?ReleasePtr@?$AutoCleanup@V?$AutoDelete@V?$Handle@VISubscription@@@@@@PAV?$Handle@VISubscription@@@@@@AAAXXZ
?ReleasePtr@?$AutoCleanup@V?$AutoDelete@V?$SafeMap_Iterator@PAVCListenerConnect@@PAV1@@@@@PAV?$SafeMap_Iterator@PAVCListenerConnect@@PAV1@@@@@AAAXXZ
?ReleasePtr@?$AutoCleanup@V?$AutoDelete@V?$SafeMap_Iterator@PAVCListenerReceive@@PAV1@@@@@PAV?$SafeMap_Iterator@PAVCListenerReceive@@PAV1@@@@@AAAXXZ
?ReleasePtr@?$AutoCleanup@V?$AutoDelete@V?$SafeMap_Iterator@PAVCListenerSend@@PAV1@@@@@PAV?$SafeMap_Iterator@PAVCListenerSend@@PAV1@@@@@AAAXXZ
?ReleasePtr@?$AutoCleanup@V?$AutoDelete@V?$SafeMap_Iterator@PAVCListenerSignal@@PAV1@@@@@PAV?$SafeMap_Iterator@PAVCListenerSignal@@PAV1@@@@@AAAXXZ
?ReleasePtr@?$AutoCleanup@V?$AutoDelete@V?$SafeMap_Iterator@VGuidKey@@PAVCListenerCommand@@@@@@PAV?$SafeMap_Iterator@VGuidKey@@PAVCListenerCommand@@@@@@AAAXXZ
?ReleasePtr@?$AutoCleanup@V?$AutoDelete@V?$SafeMap_Iterator@VStringKeyCI@@K@@@@PAV?$SafeMap_Iterator@VStringKeyCI@@K@@@@AAAXXZ
?ReleasePtr@?$AutoCleanup@V?$AutoDelete@V?$SafeMap_Iterator@W4WSManSessionOption@@PAVOptionValue@SessionOptions@Client@WSMan@@@@@@PAV?$SafeMap_Iterator@W4WSManSessionOption@@PAVOptionValue@SessionOptions@Client@WSMan@@@@@@AAAXXZ
?ReleasePtr@?$AutoCleanup@V?$AutoDelete@V?$SafeSet@PAVCCertMapping@@@@@@PAV?$SafeSet@PAVCCertMapping@@@@@@AAAXXZ
?ReleasePtr@?$AutoCleanup@V?$AutoDelete@V?$SafeSet@PAVCShellUriSettings@@@@@@PAV?$SafeSet@PAVCShellUriSettings@@@@@@AAAXXZ
?ReleasePtr@?$AutoCleanup@V?$AutoDelete@V?$SafeSet_Iterator@PAVCListenerOperation@@@@@@PAV?$SafeSet_Iterator@PAVCListenerOperation@@@@@@AAAXXZ
?ReleasePtr@?$AutoCleanup@V?$AutoDelete@V?$SafeSet_Iterator@PAVCollector@@@@@@PAV?$SafeSet_Iterator@PAVCollector@@@@@@AAAXXZ
?ReleasePtr@?$AutoCleanup@V?$AutoDelete@V?$SafeSet_Iterator@PAVHostOperation@@@@@@PAV?$SafeSet_Iterator@PAVHostOperation@@@@@@AAAXXZ
?ReleasePtr@?$AutoCleanup@V?$AutoDelete@V?$SafeSet_Iterator@PAVListenerSourceSubscription@@@@@@PAV?$SafeSet_Iterator@PAVListenerSourceSubscription@@@@@@AAAXXZ
?ReleasePtr@?$AutoCleanup@V?$AutoDelete@V?$SimpleStack@VCListenerOperation@@@@@@PAV?$SimpleStack@VCListenerOperation@@@@@@AAAXXZ
?ReleasePtr@?$AutoCleanup@V?$AutoDelete@V?$SimpleStack@VShellHostEntry@@@@@@PAV?$SimpleStack@VShellHostEntry@@@@@@AAAXXZ
?ReleasePtr@?$AutoCleanup@V?$AutoDelete@V?$queue@PAU_WSMAN_PUBLISHER_EVENT_STRUCT@@V?$deque@PAU_WSMAN_PUBLISHER_EVENT_STRUCT@@V?$transport_allocator@PAU_WSMAN_PUBLISHER_EVENT_STRUCT@@@@@std@@@std@@@@PAV?$queue@PAU_WSMAN_PUBLISHER_EVENT_STRUCT@@V?$deque@PAU_WSMAN_PUBLISHER_EVENT_STRUCT@@V?$transport_allocator@PAU_WSMAN_PUBLISHER_EVENT_STRUCT@@@@@std@@@std@@@@AAAXXZ
?ReleasePtr@?$AutoCleanup@V?$AutoDelete@V?$set@PAVCListenerSettings@@VCListenerSettingsLessFunctor@CServiceConfigSettings@@V?$transport_allocator@PAVCListenerSettings@@@@@std@@@@PAV?$set@PAVCListenerSettings@@VCListenerSettingsLessFunctor@CServiceConfigSettings@@V?$transport_allocator@PAVCListenerSettings@@@@@std@@@@AAAXXZ
?ReleasePtr@?$AutoCleanup@V?$AutoDelete@V?$set@Usockaddr_storage@@VSockAddrLessFunctor@CListenerSettings@@V?$transport_allocator@Usockaddr_storage@@@@@std@@@@PAV?$set@Usockaddr_storage@@VSockAddrLessFunctor@CListenerSettings@@V?$transport_allocator@Usockaddr_storage@@@@@std@@@@AAAXXZ
?ReleasePtr@?$AutoCleanup@V?$AutoDelete@V?$vector@PAVCWSManRequest@@V?$transport_allocator@PAVCWSManRequest@@@@@std@@@@PAV?$vector@PAVCWSManRequest@@V?$transport_allocator@PAVCWSManRequest@@@@@std@@@@AAAXXZ
?ReleasePtr@?$AutoCleanup@V?$AutoDelete@V?$vector@PAVHandleImpl@Client@WSMan@@V?$transport_allocator@PAVHandleImpl@Client@WSMan@@@@@std@@@@PAV?$vector@PAVHandleImpl@Client@WSMan@@V?$transport_allocator@PAVHandleImpl@Client@WSMan@@@@@std@@@@AAAXXZ
?ReleasePtr@?$AutoCleanup@V?$AutoDelete@V?$vector@PAVIServiceConfigObserver@@V?$transport_allocator@PAVIServiceConfigObserver@@@@@std@@@@PAV?$vector@PAVIServiceConfigObserver@@V?$transport_allocator@PAVIServiceConfigObserver@@@@@std@@@@AAAXXZ
?ReleasePtr@?$AutoCleanup@V?$AutoDelete@V?$vector@PAVWSManHttpSenderConnection@@V?$transport_allocator@PAVWSManHttpSenderConnection@@@@@std@@@@PAV?$vector@PAVWSManHttpSenderConnection@@V?$transport_allocator@PAVWSManHttpSenderConnection@@@@@std@@@@AAAXXZ
?ReleasePtr@?$AutoCleanup@V?$AutoDelete@VAdminSid@CSecurity@@@@PAVAdminSid@CSecurity@@@@AAAXXZ
?ReleasePtr@?$AutoCleanup@V?$AutoDelete@VBlockedRecord@@@@PAVBlockedRecord@@@@AAAXXZ
?ReleasePtr@?$AutoCleanup@V?$AutoDelete@VCBaseConfigCache@@@@PAVCBaseConfigCache@@@@AAAXXZ
?ReleasePtr@?$AutoCleanup@V?$AutoDelete@VCCertMapping@@@@PAVCCertMapping@@@@AAAXXZ
?ReleasePtr@?$AutoCleanup@V?$AutoDelete@VCConfigChangeSource@@@@PAVCConfigChangeSource@@@@AAAXXZ
?ReleasePtr@?$AutoCleanup@V?$AutoDelete@VCListenerSettings@@@@PAVCListenerSettings@@@@AAAXXZ
?ReleasePtr@?$AutoCleanup@V?$AutoDelete@VCObserverConfigChangeErrors@@@@PAVCObserverConfigChangeErrors@@@@AAAXXZ
?ReleasePtr@?$AutoCleanup@V?$AutoDelete@VCServiceWatcher@CServiceConfigCache@@@@PAVCServiceWatcher@CServiceConfigCache@@@@AAAXXZ
?ReleasePtr@?$AutoCleanup@V?$AutoDelete@VCShellUriSettings@@@@PAVCShellUriSettings@@@@AAAXXZ
?ReleasePtr@?$AutoCleanup@V?$AutoDelete@VCWSManEPR@@@@PAVCWSManEPR@@@@AAAXXZ
?ReleasePtr@?$AutoCleanup@V?$AutoDelete@VCWSManResource@@@@PAVCWSManResource@@@@AAAXXZ
?ReleasePtr@?$AutoCleanup@V?$AutoDelete@VCertHash@@@@PAVCertHash@@@@AAAXXZ
?ReleasePtr@?$AutoCleanup@V?$AutoDelete@VConfigUpdate@@@@PAVConfigUpdate@@@@AAAXXZ
?ReleasePtr@?$AutoCleanup@V?$AutoDelete@VCredUIDllLoader@@@@PAVCredUIDllLoader@@@@AAAXXZ
?ReleasePtr@?$AutoCleanup@V?$AutoDelete@VEnumSinkEx@@@@PAVEnumSinkEx@@@@AAAXXZ
?ReleasePtr@?$AutoCleanup@V?$AutoDelete@VEventHandler@WSMan@@@@PAVEventHandler@WSMan@@@@AAAXXZ
?ReleasePtr@?$AutoCleanup@V?$AutoDelete@VExpiredOperationIdRecord@@@@PAVExpiredOperationIdRecord@@@@AAAXXZ
?ReleasePtr@?$AutoCleanup@V?$AutoDelete@VGPApiManager@@@@PAVGPApiManager@@@@AAAXXZ
?ReleasePtr@?$AutoCleanup@V?$AutoDelete@VGeneralSinkEx@@@@PAVGeneralSinkEx@@@@AAAXXZ
?ReleasePtr@?$AutoCleanup@V?$AutoDelete@VIChannelObserverFactory@@@@PAVIChannelObserverFactory@@@@AAAXXZ
?ReleasePtr@?$AutoCleanup@V?$AutoDelete@VIQueryDASHSMASHInterface@@@@PAVIQueryDASHSMASHInterface@@@@AAAXXZ
?ReleasePtr@?$AutoCleanup@V?$AutoDelete@VISpecification@@@@PAVISpecification@@@@AAAXXZ
?ReleasePtr@?$AutoCleanup@V?$AutoDelete@VInteractiveSid@CSecurity@@@@PAVInteractiveSid@CSecurity@@@@AAAXXZ
?ReleasePtr@?$AutoCleanup@V?$AutoDelete@VIpHlpApiDllLoader@@@@PAVIpHlpApiDllLoader@@@@AAAXXZ
?ReleasePtr@?$AutoCleanup@V?$AutoDelete@VMachineName@@@@PAVMachineName@@@@AAAXXZ
?ReleasePtr@?$AutoCleanup@V?$AutoDelete@VMasterReceiveData@CListenerReceive@@@@PAVMasterReceiveData@CListenerReceive@@@@AAAXXZ
?ReleasePtr@?$AutoCleanup@V?$AutoDelete@VNetworkServiceSid@CSecurity@@@@PAVNetworkServiceSid@CSecurity@@@@AAAXXZ
?ReleasePtr@?$AutoCleanup@V?$AutoDelete@VNtDsApiDllLoader@@@@PAVNtDsApiDllLoader@@@@AAAXXZ
?ReleasePtr@?$AutoCleanup@V?$AutoDelete@VOptionValue@SessionOptions@Client@WSMan@@@@PAVOptionValue@SessionOptions@Client@WSMan@@@@AAAXXZ
?ReleasePtr@?$AutoCleanup@V?$AutoDelete@VPacketCreator@@@@PAVPacketCreator@@@@AAAXXZ
?ReleasePtr@?$AutoCleanup@V?$AutoDelete@VPacketParser@@@@PAVPacketParser@@@@AAAXXZ
?ReleasePtr@?$AutoCleanup@V?$AutoDelete@VResources@Locale@@@@PAVResources@Locale@@@@AAAXXZ
?ReleasePtr@?$AutoCleanup@V?$AutoDelete@VRunAsConfiguration@@@@PAVRunAsConfiguration@@@@AAAXXZ
?ReleasePtr@?$AutoCleanup@V?$AutoDelete@VSecurityEntry@Catalog@@@@PAVSecurityEntry@Catalog@@@@AAAXXZ
?ReleasePtr@?$AutoCleanup@V?$AutoDelete@VSendPacketArgs@RobustConnectionBuffer@@@@PAVSendPacketArgs@RobustConnectionBuffer@@@@AAAXXZ
?ReleasePtr@?$AutoCleanup@V?$AutoDelete@VServiceSoapProcessor@@@@PAVServiceSoapProcessor@@@@AAAXXZ
?ReleasePtr@?$AutoCleanup@V?$AutoDelete@VShell32DllLoader@@@@PAVShell32DllLoader@@@@AAAXXZ
?ReleasePtr@?$AutoCleanup@V?$AutoDelete@VShlWApiDllLoader@@@@PAVShlWApiDllLoader@@@@AAAXXZ
?ReleasePtr@?$AutoCleanup@V?$AutoDelete@VSubscriptionEnumerator@@@@PAVSubscriptionEnumerator@@@@AAAXXZ
?ReleasePtr@?$AutoCleanup@V?$AutoDelete@VSubscriptionManager@@@@PAVSubscriptionManager@@@@AAAXXZ
?ReleasePtr@?$AutoCleanup@V?$AutoDelete@VTSTRBUFFER@@@@PAVTSTRBUFFER@@@@AAAXXZ
?ReleasePtr@?$AutoCleanup@V?$AutoDelete@VUniqueStringOverflow@@@@PAVUniqueStringOverflow@@@@AAAXXZ
?ReleasePtr@?$AutoCleanup@V?$AutoDelete@VUser32DllLoader@@@@PAVUser32DllLoader@@@@AAAXXZ
?ReleasePtr@?$AutoCleanup@V?$AutoDelete@VWSMANCONFIGTABLE_IDENTITY@@@@PAVWSMANCONFIGTABLE_IDENTITY@@@@AAAXXZ
?ReleasePtr@?$AutoCleanup@V?$AutoDelete@VWSManMemCryptManager@@@@PAVWSManMemCryptManager@@@@AAAXXZ
?ReleasePtr@?$AutoCleanup@V?$AutoDelete@VWmiEnumContext@@@@PAVWmiEnumContext@@@@AAAXXZ
?ReleasePtr@?$AutoCleanup@V?$AutoDelete@VXmlReader@@@@PAVXmlReader@@@@AAAXXZ
?ReleasePtr@?$AutoCleanup@V?$AutoDeleteVector@$$CBG@@PBG@@AAAXXZ
?ReleasePtr@?$AutoCleanup@V?$AutoDeleteVector@D@@PAD@@AAAXXZ
?ReleasePtr@?$AutoCleanup@V?$AutoDeleteVector@E@@PAE@@AAAXXZ
?ReleasePtr@?$AutoCleanup@V?$AutoDeleteVector@G@@PAG@@AAAXXZ
?ReleasePtr@?$AutoCleanup@V?$AutoDeleteVector@H@@PAH@@AAAXXZ
?ReleasePtr@?$AutoCleanup@V?$AutoDeleteVector@PAG@@PAPAG@@AAAXXZ
?ReleasePtr@?$AutoCleanup@V?$AutoDeleteVector@PBG@@PAPBG@@AAAXXZ
?ReleasePtr@?$AutoCleanup@V?$AutoDeleteVector@U_CONFIG_UPDATE@@@@PAU_CONFIG_UPDATE@@@@AAAXXZ
?ReleasePtr@?$AutoCleanup@V?$AutoDeleteVector@U_WINRS_CREATE_SHELL_ENVIRONMENT_VARIABLE@@@@PAU_WINRS_CREATE_SHELL_ENVIRONMENT_VARIABLE@@@@AAAXXZ
?ReleasePtr@?$AutoCleanup@V?$AutoDeleteVector@U_WINRS_RUN_COMMAND_ARG@@@@PAU_WINRS_RUN_COMMAND_ARG@@@@AAAXXZ
?ReleasePtr@?$AutoCleanup@V?$AutoDeleteVector@U_WSMAN_OPTION@@@@PAU_WSMAN_OPTION@@@@AAAXXZ
?ReleasePtr@?$AutoCleanup@V?$AutoDeleteVector@X@@PAX@@AAAXXZ
?ReleasePtr@?$AutoCleanup@V?$AutoFree@E@@PAE@@AAAXXZ
?ReleasePtr@?$AutoCleanup@V?$AutoLocklessItemRecycle@VPacket@@@@PAVPacket@@@@AAAXXZ
?ReleasePtr@?$AutoCleanup@V?$AutoRelease@UIAppHostChildElementCollection@@@@PAUIAppHostChildElementCollection@@@@AAAXXZ
?ReleasePtr@?$AutoCleanup@V?$AutoRelease@UIAppHostElement@@@@PAUIAppHostElement@@@@AAAXXZ
?ReleasePtr@?$AutoCleanup@V?$AutoRelease@UIAppHostElementCollection@@@@PAUIAppHostElementCollection@@@@AAAXXZ
?ReleasePtr@?$AutoCleanup@V?$AutoRelease@UIAppHostProperty@@@@PAUIAppHostProperty@@@@AAAXXZ
?ReleasePtr@?$AutoCleanup@V?$AutoRelease@UIAppHostPropertyCollection@@@@PAUIAppHostPropertyCollection@@@@AAAXXZ
?ReleasePtr@?$AutoCleanup@V?$AutoRelease@UIClientSecurity@@@@PAUIClientSecurity@@@@AAAXXZ
?ReleasePtr@?$AutoCleanup@V?$AutoRelease@UIEnumWbemClassObject@@@@PAUIEnumWbemClassObject@@@@AAAXXZ
?ReleasePtr@?$AutoCleanup@V?$AutoRelease@UIErrorInfo@@@@PAUIErrorInfo@@@@AAAXXZ
?ReleasePtr@?$AutoCleanup@V?$AutoRelease@UIUnknown@@@@PAUIUnknown@@@@AAAXXZ
?ReleasePtr@?$AutoCleanup@V?$AutoRelease@UIWbemClassObject@@@@PAUIWbemClassObject@@@@AAAXXZ
?ReleasePtr@?$AutoCleanup@V?$AutoRelease@UIWbemContext@@@@PAUIWbemContext@@@@AAAXXZ
?ReleasePtr@?$AutoCleanup@V?$AutoRelease@UIWbemLocator@@@@PAUIWbemLocator@@@@AAAXXZ
?ReleasePtr@?$AutoCleanup@V?$AutoRelease@UIWbemObjectTextSrc@@@@PAUIWbemObjectTextSrc@@@@AAAXXZ
?ReleasePtr@?$AutoCleanup@V?$AutoRelease@UIWbemPath@@@@PAUIWbemPath@@@@AAAXXZ
?ReleasePtr@?$AutoCleanup@V?$AutoRelease@UIWbemPathKeyList@@@@PAUIWbemPathKeyList@@@@AAAXXZ
?ReleasePtr@?$AutoCleanup@V?$AutoRelease@UIWbemQualifierSet@@@@PAUIWbemQualifierSet@@@@AAAXXZ
?ReleasePtr@?$AutoCleanup@V?$AutoRelease@UIWbemQuery@@@@PAUIWbemQuery@@@@AAAXXZ
?ReleasePtr@?$AutoCleanup@V?$AutoRelease@UIWbemServices@@@@PAUIWbemServices@@@@AAAXXZ
?ReleasePtr@?$AutoCleanup@V?$AutoRelease@VApplication@Client@WSMan@@@@PAVApplication@Client@WSMan@@@@AAAXXZ
?ReleasePtr@?$AutoCleanup@V?$AutoRelease@VCBaseConfigCache@@@@PAVCBaseConfigCache@@@@AAAXXZ
?ReleasePtr@?$AutoCleanup@V?$AutoRelease@VCClientConfigCache@@@@PAVCClientConfigCache@@@@AAAXXZ
?ReleasePtr@?$AutoCleanup@V?$AutoRelease@VCClientConfigSettings@@@@PAVCClientConfigSettings@@@@AAAXXZ
?ReleasePtr@?$AutoCleanup@V?$AutoRelease@VCCommonConfigSettings@@@@PAVCCommonConfigSettings@@@@AAAXXZ
?ReleasePtr@?$AutoCleanup@V?$AutoRelease@VCConfigCacheMap@CBaseConfigCache@@@@PAVCConfigCacheMap@CBaseConfigCache@@@@AAAXXZ
?ReleasePtr@?$AutoCleanup@V?$AutoRelease@VCConfigManager@@@@PAVCConfigManager@@@@AAAXXZ
?ReleasePtr@?$AutoCleanup@V?$AutoRelease@VCListenerCommand@@@@PAVCListenerCommand@@@@AAAXXZ
?ReleasePtr@?$AutoCleanup@V?$AutoRelease@VCListenerMasterOperation@@@@PAVCListenerMasterOperation@@@@AAAXXZ
?ReleasePtr@?$AutoCleanup@V?$AutoRelease@VCListenerReceive@@@@PAVCListenerReceive@@@@AAAXXZ
?ReleasePtr@?$AutoCleanup@V?$AutoRelease@VCListenerShell@@@@PAVCListenerShell@@@@AAAXXZ
?ReleasePtr@?$AutoCleanup@V?$AutoRelease@VCRemoteOperation@@@@PAVCRemoteOperation@@@@AAAXXZ
?ReleasePtr@?$AutoCleanup@V?$AutoRelease@VCRemoteSession@@@@PAVCRemoteSession@@@@AAAXXZ
?ReleasePtr@?$AutoCleanup@V?$AutoRelease@VCRequestContext@@@@PAVCRequestContext@@@@AAAXXZ
?ReleasePtr@?$AutoCleanup@V?$AutoRelease@VCServiceCommonConfigSettings@@@@PAVCServiceCommonConfigSettings@@@@AAAXXZ
?ReleasePtr@?$AutoCleanup@V?$AutoRelease@VCServiceConfigCache@@@@PAVCServiceConfigCache@@@@AAAXXZ
?ReleasePtr@?$AutoCleanup@V?$AutoRelease@VCServiceConfigSettings@@@@PAVCServiceConfigSettings@@@@AAAXXZ
?ReleasePtr@?$AutoCleanup@V?$AutoRelease@VCWSManEPR@@@@PAVCWSManEPR@@@@AAAXXZ
?ReleasePtr@?$AutoCleanup@V?$AutoRelease@VCWSManGroupPolicyCache@@@@PAVCWSManGroupPolicyCache@@@@AAAXXZ
?ReleasePtr@?$AutoCleanup@V?$AutoRelease@VCWSManGroupPolicyManager@@@@PAVCWSManGroupPolicyManager@@@@AAAXXZ
?ReleasePtr@?$AutoCleanup@V?$AutoRelease@VCWSManObject@@@@PAVCWSManObject@@@@AAAXXZ
?ReleasePtr@?$AutoCleanup@V?$AutoRelease@VCWSManResource@@@@PAVCWSManResource@@@@AAAXXZ
?ReleasePtr@?$AutoCleanup@V?$AutoRelease@VCWSManSession@@@@PAVCWSManSession@@@@AAAXXZ
?ReleasePtr@?$AutoCleanup@V?$AutoRelease@VCWinRSPluginConfigCache@@@@PAVCWinRSPluginConfigCache@@@@AAAXXZ
?ReleasePtr@?$AutoCleanup@V?$AutoRelease@VCWinRSPluginConfigSettings@@@@PAVCWinRSPluginConfigSettings@@@@AAAXXZ
?ReleasePtr@?$AutoCleanup@V?$AutoRelease@VCommand@Client@WSMan@@@@PAVCommand@Client@WSMan@@@@AAAXXZ
?ReleasePtr@?$AutoCleanup@V?$AutoRelease@VConfigNotification@@@@PAVConfigNotification@@@@AAAXXZ
?ReleasePtr@?$AutoCleanup@V?$AutoRelease@VConnectShellOperation@Client@WSMan@@@@PAVConnectShellOperation@Client@WSMan@@@@AAAXXZ
?ReleasePtr@?$AutoCleanup@V?$AutoRelease@VCreateShellOperation@Client@WSMan@@@@PAVCreateShellOperation@Client@WSMan@@@@AAAXXZ
?ReleasePtr@?$AutoCleanup@V?$AutoRelease@VDeleteShellOperation@Client@WSMan@@@@PAVDeleteShellOperation@Client@WSMan@@@@AAAXXZ
?ReleasePtr@?$AutoCleanup@V?$AutoRelease@VDisconnectOperation@Client@WSMan@@@@PAVDisconnectOperation@Client@WSMan@@@@AAAXXZ
?ReleasePtr@?$AutoCleanup@V?$AutoRelease@VEnumSinkEx@@@@PAVEnumSinkEx@@@@AAAXXZ
?ReleasePtr@?$AutoCleanup@V?$AutoRelease@VGeneralSinkEx@@@@PAVGeneralSinkEx@@@@AAAXXZ
?ReleasePtr@?$AutoCleanup@V?$AutoRelease@VHostMappingTable@@@@PAVHostMappingTable@@@@AAAXXZ
?ReleasePtr@?$AutoCleanup@V?$AutoRelease@VIISConfigSettings@@@@PAVIISConfigSettings@@@@AAAXXZ
?ReleasePtr@?$AutoCleanup@V?$AutoRelease@VIPCSoapProcessor@@@@PAVIPCSoapProcessor@@@@AAAXXZ
?ReleasePtr@?$AutoCleanup@V?$AutoRelease@VIRequestContext@@@@PAVIRequestContext@@@@AAAXXZ
?ReleasePtr@?$AutoCleanup@V?$AutoRelease@VISubscription@@@@PAVISubscription@@@@AAAXXZ
?ReleasePtr@?$AutoCleanup@V?$AutoRelease@VInboundRequestDetails@@@@PAVInboundRequestDetails@@@@AAAXXZ
?ReleasePtr@?$AutoCleanup@V?$AutoRelease@VProxyManager@Client@WSMan@@@@PAVProxyManager@Client@WSMan@@@@AAAXXZ
?ReleasePtr@?$AutoCleanup@V?$AutoRelease@VProxySelection@Client@WSMan@@@@PAVProxySelection@Client@WSMan@@@@AAAXXZ
?ReleasePtr@?$AutoCleanup@V?$AutoRelease@VPushSubscribeOperation@@@@PAVPushSubscribeOperation@@@@AAAXXZ
?ReleasePtr@?$AutoCleanup@V?$AutoRelease@VPushSubscription@@@@PAVPushSubscription@@@@AAAXXZ
?ReleasePtr@?$AutoCleanup@V?$AutoRelease@VReceiveOperation@Client@WSMan@@@@PAVReceiveOperation@Client@WSMan@@@@AAAXXZ
?ReleasePtr@?$AutoCleanup@V?$AutoRelease@VReconnectOperation@Client@WSMan@@@@PAVReconnectOperation@Client@WSMan@@@@AAAXXZ
?ReleasePtr@?$AutoCleanup@V?$AutoRelease@VSendOperation@Client@WSMan@@@@PAVSendOperation@Client@WSMan@@@@AAAXXZ
?ReleasePtr@?$AutoCleanup@V?$AutoRelease@VShell@Client@WSMan@@@@PAVShell@Client@WSMan@@@@AAAXXZ
?ReleasePtr@?$AutoCleanup@V?$AutoRelease@VShellInfo@@@@PAVShellInfo@@@@AAAXXZ
?ReleasePtr@?$AutoCleanup@V?$AutoRelease@VSignalOperation@Client@WSMan@@@@PAVSignalOperation@Client@WSMan@@@@AAAXXZ
?ReleasePtr@?$AutoCleanup@V?$AutoRelease@VUserRecord@@@@PAVUserRecord@@@@AAAXXZ
?ReleasePtr@?$AutoCleanup@V?$AutoRelease@VWSManHttpListener@@@@PAVWSManHttpListener@@@@AAAXXZ
?ReleasePtr@?$AutoCleanup@V?$AutoReleaseEx@VHostMappingTableEntry@@@@PAVHostMappingTableEntry@@@@AAAXXZ
?ReleasePtr@?$AutoCleanup@V?$AutoReleaseEx@VShell@Client@WSMan@@@@PAVShell@Client@WSMan@@@@AAAXXZ
?ReleasePtr@?$AutoCleanup@VAutoBstr@@PAG@@AAAXXZ
?ReleasePtr@?$AutoCleanup@VAutoBstrNoAlloc@@PAG@@AAAXXZ
?ReleasePtr@?$AutoCleanup@VAutoCertContext@@PBU_CERT_CONTEXT@@@@AAAXXZ
?ReleasePtr@?$AutoCleanup@VAutoChainContext@@PBU_CERT_CHAIN_CONTEXT@@@@AAAXXZ
?ReleasePtr@?$AutoCleanup@VAutoCoTaskMemFree@@PAX@@AAAXXZ
?ReleasePtr@?$AutoCleanup@VAutoEnvironmentBlock@@PAX@@AAAXXZ
?ReleasePtr@?$AutoCleanup@VAutoFwXmlCloseParser@@PAX@@AAAXXZ
?ReleasePtr@?$AutoCleanup@VAutoHandle@@PAX@@AAAXXZ
?ReleasePtr@?$AutoCleanup@VAutoImpersonateUser@@PAX@@AAAXXZ
?ReleasePtr@?$AutoCleanup@VAutoLibrary@@PAUHINSTANCE__@@@@AAAXXZ
?ReleasePtr@?$AutoCleanup@VAutoLocalFree@@PAX@@AAAXXZ
?ReleasePtr@?$AutoCleanup@VAutoMIClass@@PAU_MI_Class@@@@AAAXXZ
?ReleasePtr@?$AutoCleanup@VAutoMIInstance@@PAU_MI_Instance@@@@AAAXXZ
?ReleasePtr@?$AutoCleanup@VAutoObject@@PAUWSMAN_OBJECT@@@@AAAXXZ
?ReleasePtr@?$AutoCleanup@VAutoRegKey@@PAUHKEY__@@@@AAAXXZ
?ReleasePtr@?$AutoCleanup@VAutoSecurityDescriptor@@PAX@@AAAXXZ
?ReleasePtr@?$AutoCleanup@VAutoWaitHandle@@PAX@@AAAXXZ
?ReleaseQuota@UserRecord@@QAAXW4OperationType@@PBVProvider@Catalog@@@Z
?ReleaseShared@FastLock@@QAAXXZ
?Remove@?$SafeMap@PAVCListenerOperation@@UEmpty@@V?$SafeSet_Iterator@PAVCListenerOperation@@@@@@QAA_NABQAVCListenerOperation@@@Z
?Remove@?$SafeMap@UUserKey@@PAVBlockedRecord@@V?$SafeMap_Iterator@UUserKey@@PAVBlockedRecord@@@@@@QAA_NABUUserKey@@@Z
?Remove@?$SafeMap@VStringKeyCI@@KV?$SafeMap_Iterator@VStringKeyCI@@K@@@@QAA_NABVStringKeyCI@@@Z
?Remove@?$SafeMap@VStringKeyCI@@UUSER_CONTEXT_INFO@WSManHttpListener@@V?$SafeMap_Iterator@VStringKeyCI@@UUSER_CONTEXT_INFO@WSManHttpListener@@@@@@QAA_NABVStringKeyCI@@@Z
?Remove@?$SafeMap@VStringKeyStore@@PAVExpiredOperationIdRecord@@V?$SafeMap_Iterator@VStringKeyStore@@PAVExpiredOperationIdRecord@@@@@@QAA_NABVStringKeyStore@@@Z
?Remove@?$SafeMap@VStringKeyStore@@PAVServerFullDuplexChannel@@V?$SafeMap_Iterator@VStringKeyStore@@PAVServerFullDuplexChannel@@@@@@QAA_NABVStringKeyStore@@@Z
?Remove@?$SafeMap@_KPAVSendPacketArgs@RobustConnectionBuffer@@V?$SafeMap_Iterator@_KPAVSendPacketArgs@RobustConnectionBuffer@@@@@@QAA_NAB_K@Z
?RemoveAll@CBaseConfigCache@@KAXPAVFastLock@@AAV?$AutoRelease@VCConfigCacheMap@CBaseConfigCache@@@@@Z
?RemoveFromMap@CBaseConfigCache@@AAAHXZ
?RemoveHttpsBinding@@YAXPBG@Z
?RemoveHttpsCertificate@@YAXPBG0@Z
?RemoveObserver@CServiceConfigCache@@AAAHPAVIServiceConfigObserver@@@Z
?ReportEventW@EventLog@@SAXGKGPAPBG@Z
?Reset@?$PacketElement@K@PacketParser@@QAAX_N@Z
?Reset@?$PacketElement@PAU_FWXML_ELEMENT@@@PacketParser@@QAAX_N@Z
?Reset@?$PacketElement@PBG@PacketParser@@QAAX_N@Z
?Reset@?$PacketElement@_K@PacketParser@@QAAX_N@Z
?Reset@?$SafeMap_Iterator@PAVCCertMapping@@UEmpty@@@@QAAXXZ
?Reset@?$SafeMap_Iterator@PAVCListenerOperation@@UEmpty@@@@QAAXXZ
?Reset@?$SafeMap_Iterator@PAVCShellUriSettings@@UEmpty@@@@QAAXXZ
?Reset@?$SafeMap_Iterator@PAXUEmpty@@@@QAAXXZ
?Reset@?$SafeMap_Iterator@UPluginKey@@K@@QAAXXZ
?Reset@?$SafeMap_Iterator@UUserKey@@PAVBlockedRecord@@@@QAAXXZ
?Reset@?$SafeMap_Iterator@VCertThumbprintKey@@VCertThumbprintMappedSet@CServiceConfigSettings@@@@QAAXXZ
?Reset@?$SafeMap_Iterator@VKey@Locale@@K@@QAAXXZ
?Reset@?$SafeMap_Iterator@VStringKeyCI@@K@@QAAXXZ
?Reset@?$SafeMap_Iterator@VStringKeyCI@@UUSER_CONTEXT_INFO@WSManHttpListener@@@@QAAXXZ
?Reset@?$SafeMap_Iterator@VStringKeyStore@@PAVExpiredOperationIdRecord@@@@QAAXXZ
?Reset@?$SafeMap_Iterator@VStringKeyStore@@PAVServerFullDuplexChannel@@@@QAAXXZ
?Reset@?$SafeMap_Iterator@W4WSManSessionOption@@PAVOptionValue@SessionOptions@Client@WSMan@@@@QAAXXZ
?Reset@?$SafeMap_Iterator@_KPAVSendPacketArgs@RobustConnectionBuffer@@@@QAAXXZ
?Reset@BufferFormatter@@UAAXXZ
?Reset@CErrorContext@@UAAXH@Z
?Reset@CRequestContext@@UAAXH@Z
?Reset@CircularBufferFormatter@@UAAXXZ
?Reset@Locale@@QAAXXZ
?Reset@TSTRBUFFER@@QAAXXZ
?Reset@UserRecord@@QAAXXZ
?ResetProfileCount@UserRecord@@QAAXXZ
?ResetRobustConnectionHeaders@PacketParser@@AAAXXZ
?Resize@RBUFFER@@QAAHI@Z
?Resize@RBUFFER@@QAAHII@Z
?ResizeOptionList@CWSManResourceNoResourceUri@@IAA_NIAAVIRequestContext@@@Z
?RestoreAllPrivileges@@YAHPAU_TOKEN_PRIVILEGES@@@Z
?RetrieveCertMappingIdentity@CConfigManager@@AAAHPAUHKEY__@@PAVCERTMAPPING_IDENTITY@@@Z
?RetrieveListenerIdentity@CConfigManager@@AAAHPAUHKEY__@@PAGPAPAGPAVLISTENER_IDENTITY@@@Z
?RetrieveShellUriIdentity@CConfigManager@@AAAHPAUHKEY__@@PAVSHELLURI_IDENTITY@@@Z
?RetrieveTableIdentity@CConfigManager@@AAAHPAUHKEY__@@PAVWSMANCONFIGTABLE_IDENTITY@@@Z
?RevertToSelf@CSecurity@@SAHXZ
?RtlSecureZeroMemory@XmlReader@@QAAXXZ
?SafeStringToUI64@@YAJPBGEHPA_KPAVIRequestContext@@K@Z
?SetBOM@PacketFormatter@@QAA_NPAVPacket@@@Z
?SetBOM@PacketFormatter@@QAA_NPBEK@Z
?SetCIM_Error@CErrorContext@@UAAXXZ
?SetCIM_Error@CRequestContext@@UAAXXZ
?SetCharset@PacketFormatter@@QAAXW4Charset@1@@Z
?SetCharset@PacketFormatter@@QAA_NPBDK_NPA_N@Z
?SetCharsetAndBom@PacketFormatter@@QAAXW4Charset@1@0@Z
?SetConfigToUseDefaults@CErrorContext@@UAAXH@Z
?SetErrorAction@ExtendedSemantic@@QAAXW4_MI_OperationCallback_ResponseType@@W4_MI_CallbackMode@@@Z
?SetErrorState@CBaseConfigCache@@AAAXPAVCRequestContext@@K@Z
?SetExactCharSize@TSTRBUFFER@@QAAJI@Z
?SetExtendedErrorString@CErrorContext@@UAAXPAG@Z
?SetExtendedErrorString@CRequestContext@@UAAXPAG@Z
?SetExtraLogInfo@CErrorContext@@QAAXPBG000@Z
?SetFault@CErrorContext@@UAAXKKKPBG@Z
?SetFault@CRequestContext@@EAAXKKKPBG@Z
?SetFinishValue@ConfigRegistry@@IAAHPAVIRequestContext@@@Z
?SetFormatterMode@BufferFormatter@@QAAXW4Charset@PacketFormatter@@0@Z
?SetFragmentDialect@CWSManResourceNoResourceUri@@QAAHPBGPAVIRequestContext@@@Z
?SetFragmentPath@CWSManResourceNoResourceUri@@QAAHPBGPAVIRequestContext@@@Z
?SetGeneratingError@CErrorContext@@UAAXXZ
?SetLocale@CRequestContext@@QAA_NPBGK@Z
?SetLocale@Locale@@QAA_NKPBGPAVIRequestContext@@@Z
?SetMachineName@CRequestContext@@QAAKPBG@Z
?SetMachineName@CRequestContext@@QAAKPBGI@Z
?SetMachineName@CRequestContext@@QAAKXZ
?SetMaxEnvelopeSize@CircularBufferFormatter@@QAAXK@Z
?SetOptionsMustUnderstandValue@CWSManResourceNoResourceUri@@QAAXH@Z
?SetProfileHandle@UserRecord@@QAAX_J@Z
?SetProviderFailure@CErrorContext@@UAAXH@Z
?SetSecurity@CWSManSecurityUI@@UAAJKPAX@Z
?SetSize@TSTRBUFFER@@QAAJII@Z
?SetSizeInUse@SBUFFER@@QAAXI@Z
?SetThreadUILanguage@Locale@@QAA_NPAVIRequestContext@@@Z
?SetUpdateMode@BufferFormatter@@UAAXW4Mode@1@@Z
?SetUpdateMode@CircularBufferFormatter@@UAAXW4Mode@BufferFormatter@@@Z
?SetUri@CWSManResource@@QAAHPBGPAVIRequestContext@@@Z
?SetValid@RBUFFER@@IAAXH@Z
?SetXml@ReferenceParameters@PacketParser@@AAAKAAVBufferFormatter@@PAU_FWXML_ELEMENT@@@Z
?Shutdown@CBaseConfigCache@@IAAXXZ
?Shutdown@CConfigManager@@SAHXZ
?Shutdown@CWSManGroupPolicyManager@@SAHXZ
?Shutdown@ChildLifeTimeManager@@QAAXXZ
?ShutdownLocaleMap@Locale@@SAXXZ
?Size@?$SafeMap@PAVCListenerOperation@@UEmpty@@V?$SafeSet_Iterator@PAVCListenerOperation@@@@@@QBAHXZ
?Size@?$SafeMap@UUserKey@@PAVBlockedRecord@@V?$SafeMap_Iterator@UUserKey@@PAVBlockedRecord@@@@@@QBAHXZ
?Size@?$SafeMap@VCertThumbprintKey@@VCertThumbprintMappedSet@CServiceConfigSettings@@V?$SafeMap_Iterator@VCertThumbprintKey@@VCertThumbprintMappedSet@CServiceConfigSettings@@@@@@QBAHXZ
?Size@?$SafeMap@VStringKeyCI@@KV?$SafeMap_Iterator@VStringKeyCI@@K@@@@QBAHXZ
?Size@?$SafeMap@VStringKeyCI@@UEmpty@@V?$SafeSet_Iterator@VStringKeyCI@@@@@@QBAHXZ
?Size@?$SafeMap@VStringKeyStore@@PAVExpiredOperationIdRecord@@V?$SafeMap_Iterator@VStringKeyStore@@PAVExpiredOperationIdRecord@@@@@@QBAHXZ
?SkipOrphans@?$SafeMap_Iterator@PAVCCertMapping@@UEmpty@@@@IAAXXZ
?SkipOrphans@?$SafeMap_Iterator@PAVCListenerOperation@@UEmpty@@@@IAAXXZ
?SkipOrphans@?$SafeMap_Iterator@PAVCShellUriSettings@@UEmpty@@@@IAAXXZ
?SkipOrphans@?$SafeMap_Iterator@PAXUEmpty@@@@IAAXXZ
?SkipOrphans@?$SafeMap_Iterator@UPluginKey@@K@@IAAXXZ
?SkipOrphans@?$SafeMap_Iterator@UUserKey@@PAVBlockedRecord@@@@IAAXXZ
?SkipOrphans@?$SafeMap_Iterator@VCertThumbprintKey@@VCertThumbprintMappedSet@CServiceConfigSettings@@@@IAAXXZ
?SkipOrphans@?$SafeMap_Iterator@VKey@Locale@@K@@IAAXXZ
?SkipOrphans@?$SafeMap_Iterator@VStringKeyCI@@K@@IAAXXZ
?SkipOrphans@?$SafeMap_Iterator@VStringKeyCI@@UUSER_CONTEXT_INFO@WSManHttpListener@@@@IAAXXZ
?SkipOrphans@?$SafeMap_Iterator@VStringKeyStore@@PAVExpiredOperationIdRecord@@@@IAAXXZ
?SkipOrphans@?$SafeMap_Iterator@VStringKeyStore@@PAVServerFullDuplexChannel@@@@IAAXXZ
?SkipOrphans@?$SafeMap_Iterator@W4WSManSessionOption@@PAVOptionValue@SessionOptions@Client@WSMan@@@@IAAXXZ
?SkipOrphans@?$SafeMap_Iterator@_KPAVSendPacketArgs@RobustConnectionBuffer@@@@IAAXXZ
StartSoapProcessor
StopSoapProcessor
?Storage@?$AutoCleanup@V?$AutoDelete@G@@PAG@@QAAPAPAGXZ
?Storage@?$AutoCleanup@V?$AutoDelete@UIPRange@CWSManIPFilter@@@@PAUIPRange@CWSManIPFilter@@@@QAAPAPAUIPRange@CWSManIPFilter@@XZ
?Storage@?$AutoCleanup@V?$AutoDelete@VEnumSinkEx@@@@PAVEnumSinkEx@@@@QAAPAPAVEnumSinkEx@@XZ
?Storage@?$AutoCleanup@V?$AutoDelete@VGeneralSinkEx@@@@PAVGeneralSinkEx@@@@QAAPAPAVGeneralSinkEx@@XZ
?Storage@?$AutoCleanup@V?$AutoDelete@VIQueryDASHSMASHInterface@@@@PAVIQueryDASHSMASHInterface@@@@QAAPAPAVIQueryDASHSMASHInterface@@XZ
?Storage@?$AutoCleanup@V?$AutoDelete@VISpecification@@@@PAVISpecification@@@@QAAPAPAVISpecification@@XZ
?Storage@?$AutoCleanup@V?$AutoDelete@VPacketCreator@@@@PAVPacketCreator@@@@QAAPAPAVPacketCreator@@XZ
?Storage@?$AutoCleanup@V?$AutoDelete@VTSTRBUFFER@@@@PAVTSTRBUFFER@@@@QAAPAPAVTSTRBUFFER@@XZ
?Storage@?$AutoCleanup@V?$AutoDelete@VWmiEnumContext@@@@PAVWmiEnumContext@@@@QAAPAPAVWmiEnumContext@@XZ
?Storage@?$AutoCleanup@V?$AutoDelete@VXmlReader@@@@PAVXmlReader@@@@QAAPAPAVXmlReader@@XZ
?Storage@?$AutoCleanup@V?$AutoDeleteVector@$$CBG@@PBG@@QAAPAPBGXZ
?Storage@?$AutoCleanup@V?$AutoDeleteVector@E@@PAE@@QAAPAPAEXZ
?Storage@?$AutoCleanup@V?$AutoDeleteVector@G@@PAG@@QAAPAPAGXZ
?Storage@?$AutoCleanup@V?$AutoDeleteVector@PAG@@PAPAG@@QAAPAPAPAGXZ
?Storage@?$AutoCleanup@V?$AutoDeleteVector@PBG@@PAPBG@@QAAPAPAPBGXZ
?Storage@?$AutoCleanup@V?$AutoDeleteVector@U_WINRS_CREATE_SHELL_ENVIRONMENT_VARIABLE@@@@PAU_WINRS_CREATE_SHELL_ENVIRONMENT_VARIABLE@@@@QAAPAPAU_WINRS_CREATE_SHELL_ENVIRONMENT_VARIABLE@@XZ
?Storage@?$AutoCleanup@V?$AutoDeleteVector@U_WINRS_RUN_COMMAND_ARG@@@@PAU_WINRS_RUN_COMMAND_ARG@@@@QAAPAPAU_WINRS_RUN_COMMAND_ARG@@XZ
?Storage@?$AutoCleanup@V?$AutoDeleteVector@X@@PAX@@QAAPAPAXXZ
?Storage@?$AutoCleanup@V?$AutoFree@E@@PAE@@QAAPAPAEXZ
?Storage@?$AutoCleanup@V?$AutoLocklessItemRecycle@VPacket@@@@PAVPacket@@@@QAAPAPAVPacket@@XZ
?Storage@?$AutoCleanup@V?$AutoRelease@UIAppHostChildElementCollection@@@@PAUIAppHostChildElementCollection@@@@QAAPAPAUIAppHostChildElementCollection@@XZ
?Storage@?$AutoCleanup@V?$AutoRelease@UIAppHostElement@@@@PAUIAppHostElement@@@@QAAPAPAUIAppHostElement@@XZ
?Storage@?$AutoCleanup@V?$AutoRelease@UIAppHostElementCollection@@@@PAUIAppHostElementCollection@@@@QAAPAPAUIAppHostElementCollection@@XZ
?Storage@?$AutoCleanup@V?$AutoRelease@UIAppHostProperty@@@@PAUIAppHostProperty@@@@QAAPAPAUIAppHostProperty@@XZ
?Storage@?$AutoCleanup@V?$AutoRelease@UIAppHostPropertyCollection@@@@PAUIAppHostPropertyCollection@@@@QAAPAPAUIAppHostPropertyCollection@@XZ
?Storage@?$AutoCleanup@V?$AutoRelease@UIClientSecurity@@@@PAUIClientSecurity@@@@QAAPAPAUIClientSecurity@@XZ
?Storage@?$AutoCleanup@V?$AutoRelease@UIEnumWbemClassObject@@@@PAUIEnumWbemClassObject@@@@QAAPAPAUIEnumWbemClassObject@@XZ
?Storage@?$AutoCleanup@V?$AutoRelease@UIErrorInfo@@@@PAUIErrorInfo@@@@QAAPAPAUIErrorInfo@@XZ
?Storage@?$AutoCleanup@V?$AutoRelease@UIUnknown@@@@PAUIUnknown@@@@QAAPAPAUIUnknown@@XZ
?Storage@?$AutoCleanup@V?$AutoRelease@UIWbemClassObject@@@@PAUIWbemClassObject@@@@QAAPAPAUIWbemClassObject@@XZ
?Storage@?$AutoCleanup@V?$AutoRelease@UIWbemContext@@@@PAUIWbemContext@@@@QAAPAPAUIWbemContext@@XZ
?Storage@?$AutoCleanup@V?$AutoRelease@UIWbemLocator@@@@PAUIWbemLocator@@@@QAAPAPAUIWbemLocator@@XZ
?Storage@?$AutoCleanup@V?$AutoRelease@UIWbemObjectTextSrc@@@@PAUIWbemObjectTextSrc@@@@QAAPAPAUIWbemObjectTextSrc@@XZ
?Storage@?$AutoCleanup@V?$AutoRelease@UIWbemPath@@@@PAUIWbemPath@@@@QAAPAPAUIWbemPath@@XZ
?Storage@?$AutoCleanup@V?$AutoRelease@UIWbemPathKeyList@@@@PAUIWbemPathKeyList@@@@QAAPAPAUIWbemPathKeyList@@XZ
?Storage@?$AutoCleanup@V?$AutoRelease@UIWbemQualifierSet@@@@PAUIWbemQualifierSet@@@@QAAPAPAUIWbemQualifierSet@@XZ
?Storage@?$AutoCleanup@V?$AutoRelease@UIWbemQuery@@@@PAUIWbemQuery@@@@QAAPAPAUIWbemQuery@@XZ
?Storage@?$AutoCleanup@V?$AutoRelease@UIWbemServices@@@@PAUIWbemServices@@@@QAAPAPAUIWbemServices@@XZ
?Storage@?$AutoCleanup@V?$AutoRelease@VCWSManEPR@@@@PAVCWSManEPR@@@@QAAPAPAVCWSManEPR@@XZ
?Storage@?$AutoCleanup@V?$AutoRelease@VCWinRSPluginConfigCache@@@@PAVCWinRSPluginConfigCache@@@@QAAPAPAVCWinRSPluginConfigCache@@XZ
?Storage@?$AutoCleanup@V?$AutoRelease@VCommand@Client@WSMan@@@@PAVCommand@Client@WSMan@@@@QAAPAPAVCommand@Client@WSMan@@XZ
?Storage@?$AutoCleanup@V?$AutoRelease@VEnumSinkEx@@@@PAVEnumSinkEx@@@@QAAPAPAVEnumSinkEx@@XZ
?Storage@?$AutoCleanup@V?$AutoRelease@VGeneralSinkEx@@@@PAVGeneralSinkEx@@@@QAAPAPAVGeneralSinkEx@@XZ
?Storage@?$AutoCleanup@V?$AutoRelease@VIRequestContext@@@@PAVIRequestContext@@@@QAAPAPAVIRequestContext@@XZ
?Storage@?$AutoCleanup@V?$AutoRelease@VReceiveOperation@Client@WSMan@@@@PAVReceiveOperation@Client@WSMan@@@@QAAPAPAVReceiveOperation@Client@WSMan@@XZ
?Storage@?$AutoCleanup@V?$AutoRelease@VSendOperation@Client@WSMan@@@@PAVSendOperation@Client@WSMan@@@@QAAPAPAVSendOperation@Client@WSMan@@XZ
?Storage@?$AutoCleanup@V?$AutoRelease@VShell@Client@WSMan@@@@PAVShell@Client@WSMan@@@@QAAPAPAVShell@Client@WSMan@@XZ
?Storage@?$AutoCleanup@V?$AutoRelease@VSignalOperation@Client@WSMan@@@@PAVSignalOperation@Client@WSMan@@@@QAAPAPAVSignalOperation@Client@WSMan@@XZ
?Storage@?$AutoCleanup@VAutoBstr@@PAG@@QAAPAPAGXZ
?Storage@?$AutoCleanup@VAutoBstrNoAlloc@@PAG@@QAAPAPAGXZ
?Storage@?$AutoCleanup@VAutoCertContext@@PBU_CERT_CONTEXT@@@@QAAPAPBU_CERT_CONTEXT@@XZ
?Storage@?$AutoCleanup@VAutoChainContext@@PBU_CERT_CHAIN_CONTEXT@@@@QAAPAPBU_CERT_CHAIN_CONTEXT@@XZ
?Storage@?$AutoCleanup@VAutoHandle@@PAX@@QAAPAPAXXZ
?Storage@?$AutoCleanup@VAutoImpersonateUser@@PAX@@QAAPAPAXXZ
?Storage@?$AutoCleanup@VAutoLocalFree@@PAX@@QAAPAPAXXZ
?Storage@?$AutoCleanup@VAutoMIClass@@PAU_MI_Class@@@@QAAPAPAU_MI_Class@@XZ
?Storage@?$AutoCleanup@VAutoMIInstance@@PAU_MI_Instance@@@@QAAPAPAU_MI_Instance@@XZ
?Storage@?$AutoCleanup@VAutoRegKey@@PAUHKEY__@@@@QAAPAPAUHKEY__@@XZ
?Storage@?$AutoCleanup@VAutoSecurityDescriptor@@PAX@@QAAPAPAXXZ
?Storage@?$AutoCleanup@VAutoWaitHandle@@PAX@@QAAPAPAXXZ
?StoreData@CWSManResource@@AAAHPAVIRequestContext@@PBG11PAU_WSMAN_SELECTOR_SET@@PAU_WSMAN_OPTION_SET@@@Z
?StoreData@CWSManResource@@QAAHPAVIRequestContext@@PBG@Z
?StoreDataFromResourceLocator@CWSManResource@@AAAHPAVIRequestContext@@PAU_WSMAN_RESOURCE_LOCATOR@@@Z
?StoreExpansion@CResourceAlias@@AAAXPBGPAU_ALIAS_INFORMATION@@@Z
?StreamingOutput@ExtendedSemantic@@2KB
?StringCchEndsWithCI@@YAHPBG0@Z
?StringCchEquals@@YAHPBG0@Z
?StringCchEqualsCI@@YAHPBG0@Z
?StringCchStartsWith@@YAHPBG0@Z
?StringCchStartsWithCI@@YAHPBG0@Z
?StringConcatenate@CWSManResourceNoResourceUri@@IAAHAAPAGAAKKPAG@Z
?StringIsBlank@@YAHPBG@Z
?StringToDword@@YAHPBDPAK@Z
?StringToDword@@YAHPBGPAK@Z
?StringTrimWhitespace@@YAPAGPAG@Z
?Subscribe@CWSManGroupPolicyManager@@UAAHPAVIRequestContext@@PAVIWSManGroupPolicyObserver@@H@Z
?TruncateAt@TSTRBUFFER@@QAAXI@Z
?TryAcquire@CWSManCriticalSection@@QAAHXZ
?UnSubscribe@CWSManGroupPolicyManager@@UAAHPAVIRequestContext@@PAVIWSManGroupPolicyObserver@@@Z
?UninstallMigration@@YAHPAVIRequestContext@@@Z
?UnregisterChild@ChildLifeTimeManager@@QAAXXZ
?UnregisterPolicyNotification@CWSManGroupPolicyManager@@AAAHXZ
?Up@?$LoaderSerializer@VSubscriptionManager@@$01@@AAAJXZ
?UpdateCredentialsInCredmanStore@CConfigManager@@SAHPAVIRequestContext@@PAG1@Z
?UpdateHttpsBinding@@YAHPAVIRequestContext@@PBG1PAH@Z
?UpdateHttpsCertificate@@YAHPAVIRequestContext@@PBG11PAHHU_GUID@@@Z
?UpdateKey@CWSManResourceNoResourceUri@@QAAHPAVIRequestContext@@PBG1@Z
?Uri@CResourceAlias@@QAAPBGXZ
?UseClientToken@UserRecord@@QAA_NXZ
?UseDefaultConfig@CErrorContext@@UBAHXZ
?UsingDefaultLCID@Locale@@QAA_NXZ
?Validate@Locale@@SA_NPAU_WSMAN_DATA@@@Z
?Validate@Locale@@SA_NPBG@Z
?ValidateCBTHardeningLevel@ConfigRegistry@@IAAHPAVIRequestContext@@PBG@Z
?ValidateCertificateHash@ConfigRegistry@@IAAHPAVIRequestContext@@PBG111@Z
?ValidateHeaders@PacketParser@@QAAHPAVIRequestContext@@K@Z
?ValidateHostnameAndCertificateCN@ConfigRegistry@@IAAHPAVIRequestContext@@PBG1@Z
?ValidateIPFilter@ConfigRegistry@@IAAHPAVIRequestContext@@W4ConfigSetting@@PBG@Z
?ValidateInt@CWSManGroupPolicyManager@@AAAHPAVIRequestContext@@PBU_WSMAN_POLICY_INFO@@K@Z
?ValidateInt@ConfigRegistry@@IAAHPAVIRequestContext@@PAU_CONFIG_INFO@@KPBG@Z
?ValidateString@CWSManGroupPolicyManager@@AAAHPAVIRequestContext@@PBU_WSMAN_POLICY_INFO@@PBG@Z
?ValidateString@ConfigRegistry@@IAAHPAVIRequestContext@@PAU_CONFIG_INFO@@PBG@Z
?ValidateTrustedHosts@ConfigRegistry@@IAAHPAVIRequestContext@@PBG@Z
?ValidateUrlPrefix@ConfigRegistry@@IAAHPAVIRequestContext@@PBG@Z
?Verbose@ExtendedSemantic@@2KB
?VerifyState@RBUFFER@@IBAXXZ
?WSManError@@YAXPBGK0KPAVIRequestContext@@@Z
?WSManMemoryOperation@@YAHW4WSMANMEMOPERATION@@PAXKK@Z
?WSManPostThreadMessageW@@YAHKIIJ@Z
?WaitForAllChildrenToUnregister@ChildLifeTimeManager@@QAAXK@Z
?WaitForConditionVar@CWSManCriticalSectionWithConditionVar@@QAAKK@Z
?WaitForMore@PacketParser@@UAA_NXZ
?WakeAllWaitingForConditionVar@CWSManCriticalSectionWithConditionVar@@QAAXXZ
?WakeAllWaitingOnNoOfChildren@ChildLifeTimeManager@@AAAXXZ
?Warning@EventLog@@SAXK@Z
?Warning@EventLog@@SAXKGPAPBG@Z
?Warning@EventLog@@SAXKPBG@Z
?Warning@ExtendedSemantic@@2KB
?WatchForChanges@CServiceConfigCache@@QAAPAVCServiceWatcher@1@PAVIRequestContext@@PAVIServiceConfigObserver@@@Z
?WrapperCoSetProxyBlanket@@YAJPAUIUnknown@@KKPAGKKPAXKW4BehaviourForNoInterfaceError@@@Z
?Write@EventHandler@WSMan@@SAXABU_EVENT_DESCRIPTOR@@KPAU_EVENT_DATA_DESCRIPTOR@@@Z
?WriteCredentialsToCredmanStore@CConfigManager@@SAHPAVIRequestContext@@PAG1H@Z
?WriteSoapA@EventHandler@WSMan@@SAXABU_EVENT_DESCRIPTOR@@PBDK@Z
?WriteSoapMessageA@EventHandler@WSMan@@AAAXABU_EVENT_DESCRIPTOR@@PBDK@Z
?WriteSoapMessageW@EventHandler@WSMan@@AAAXABU_EVENT_DESCRIPTOR@@PBGK@Z
?WriteSoapMessageW_BE@EventHandler@WSMan@@AAAXABU_EVENT_DESCRIPTOR@@PBGK@Z
?WriteSoapW@EventHandler@WSMan@@SAXABU_EVENT_DESCRIPTOR@@PBGK@Z
?WriteSoapW_BE@EventHandler@WSMan@@SAXABU_EVENT_DESCRIPTOR@@PBGK@Z
?_PolicyChangedCallback@CWSManGroupPolicyManager@@CAXPAXE@Z
?back@?$SimpleQueue@T_LARGE_INTEGER@@@@QBA?BT_LARGE_INTEGER@@XZ
?empty@?$SimpleQueue@T_LARGE_INTEGER@@@@QBA_NXZ
?front@?$SimpleQueue@T_LARGE_INTEGER@@@@QBA?BT_LARGE_INTEGER@@XZ
?g_Resources@Locale@@0V?$Loader@VResources@Locale@@$0A@@@A DATA
?pop@?$SimpleQueue@T_LARGE_INTEGER@@@@QAAXXZ
?push@?$SimpleQueue@T_LARGE_INTEGER@@@@QAAKT_LARGE_INTEGER@@@Z
?s_cacheMap@CClientConfigCache@@0V?$AutoRelease@VCConfigCacheMap@CBaseConfigCache@@@@A DATA
?s_cacheMap@CServiceConfigCache@@0V?$AutoRelease@VCConfigCacheMap@CBaseConfigCache@@@@A DATA
?s_cacheMap@CWinRSPluginConfigCache@@0V?$AutoRelease@VCConfigCacheMap@CBaseConfigCache@@@@A DATA
?s_config@CConfigManager@@0V?$AutoRelease@VCConfigManager@@@@A DATA
?s_lock@CConfigManager@@0VFastLock@@A DATA
?s_lock@CWSManGroupPolicyManager@@0VFastLock@@A DATA
?s_mapLock@CClientConfigCache@@0VFastLock@@A DATA
?s_mapLock@CServiceConfigCache@@0VFastLock@@A DATA
?s_mapLock@CWinRSPluginConfigCache@@0VFastLock@@A DATA
?s_policyManager@CWSManGroupPolicyManager@@0V?$AutoRelease@VCWSManGroupPolicyManager@@@@A DATA
EnumServiceUserResources
FwGetParsedDocument
FwGetRootElement
FwIsXmlEscapedProperly
FwXmlAddAttributeToAttributeList
FwXmlCloseParser
FwXmlCompareAttributeName
FwXmlCompareAttributeNameEx
FwXmlCompareElementName
FwXmlCompareElementNameEx
FwXmlCompareElementNameLen
FwXmlCompareElementNameSpace
FwXmlCompareName
FwXmlCreateXmlFromElement
FwXmlDecodeXmlEscapes
FwXmlEncodeXmlEscapes
FwXmlFindAttribute
FwXmlFindAttributeEx
FwXmlFindChildElement
FwXmlFindChildElementEx
FwXmlGetAttribute
FwXmlGetAttributeNameEx
FwXmlGetAttributeNamespacePrefix
FwXmlGetAttributeValue
FwXmlGetAttributeValueDWord
FwXmlGetBooleanValue
FwXmlGetBuffer
FwXmlGetChild
FwXmlGetElementName
FwXmlGetElementNameEx
FwXmlGetElementNamespacePrefix
FwXmlGetElementNamespaceUrl
FwXmlGetEntryNameEx
FwXmlGetNamespaceForPrefix
FwXmlGetNormalizedString
FwXmlGetReferenceXmlFromElement
FwXmlGetRemainder
FwXmlGetSimpleContent
FwXmlGetSimpleContentEx
FwXmlGetSimpleContentEx2
FwXmlHasText
FwXmlIsEmpty
FwXmlIsMustUnderstand
FwXmlIsNull
FwXmlIsSimpleContent
FwXmlIsSimpleContentOrEmpty
FwXmlIsTrueValue
FwXmlNumAttributes
FwXmlNumChildren
FwXmlNumChildrenWithName
FwXmlNumConsecutiveChildrenWithName
FwXmlParsePrefixedXML
FwXmlParseStream
FwXmlParseText
FwXmlParserCreate
FwXmlUpdatePrefixes
GetServiceSecurity
MI_Application_InitializeV1
ServiceMain
SetServiceSecurity
SubscriptionsProvEnumerate
SvchostPushServiceGlobals
WSManAckEvents
WSManAddSubscriptionManagerInternal
WSManCloseCommand
WSManCloseEnumerationHandle
WSManCloseEnumeratorHandle
WSManCloseObjectHandle
WSManCloseOperation
WSManClosePublisherHandle
WSManCloseSession
WSManCloseSessionHandle
WSManCloseShell
WSManCloseSubscriptionHandle
WSManConnectShell
WSManConnectShellCommand
WSManConstructError
WSManCreateEnumeratorInternal
WSManCreateInternal
WSManCreateInternalEx
WSManCreatePullSubscription
WSManCreatePushSubscription
WSManCreateSession
WSManCreateSessionInternal
WSManCreateShell
WSManCreateShellEx
WSManDecodeObject
WSManDeinitialize
WSManDeleteInternal
WSManDeleteInternalEx
WSManDeliverEndSubscriptionNotification
WSManDeliverEvent
WSManDisconnectShell
WSManEncodeObject
WSManEncodeObjectEx
WSManEncodeObjectInternal
WSManEnumerateInternal
WSManEnumerateInternalEx
WSManEnumeratorAddEvent
WSManEnumeratorAddObject
WSManEnumeratorBatchPolicyViolated
WSManEnumeratorNextObject
WSManEnumeratorObjectCount
WSManGetErrorMessage
WSManGetInternal
WSManGetInternalEx
WSManGetSessionOptionAsDword
WSManGetSessionOptionAsString
WSManIdentifyInternal
WSManInitialize
WSManInvokeInternal
WSManInvokeInternalEx
WSManPluginAuthzOperationComplete
WSManPluginAuthzQueryQuotaComplete
WSManPluginAuthzUserComplete
WSManPluginFreeRequestDetails
WSManPluginGetConfiguration
WSManPluginGetOperationParameters
WSManPluginInteractiveCallback
WSManPluginObjectAndBookmarkResult
WSManPluginObjectAndEprResult
WSManPluginObjectResult
WSManPluginOperationComplete
WSManPluginReceiveResult
WSManPluginReportCompletion
WSManPluginReportContext
WSManPluginShutdown
WSManPluginStartup
WSManProvCreate
WSManProvDelete
WSManProvEnumerate
WSManProvGet
WSManProvInvoke
WSManProvPut
WSManPull
WSManPullEvents
WSManPutInternal
WSManPutInternalEx
WSManReceiveShellOutput
WSManReconnectShell
WSManReconnectShellCommand
WSManRemoveSubscriptionManagerInternal
WSManRunShellCommand
WSManRunShellCommandEx
WSManSendShellInput
WSManSetSessionOption
WSManSignalShell
mi_clientFT_V1 DATA
