;
; Definition file of WsmWmiPl.DLL
; Automatic generated by gendef
; written by Kai Tietz 2008-2014
;
LIBRARY "WsmWmiPl.DLL"
EXPORTS
??0?$SafeMap@VKey@Locale@@KV?$SafeMap_Iterator@VKey@Locale@@K@@@@QAA@XZ
??0?$SafeMap_Iterator@VKey@Locale@@K@@QAA@AAV?$SafeMap@VKey@Locale@@KV?$SafeMap_Iterator@VKey@Locale@@K@@@@_N@Z
??0?$SafeMap_Lock@VKey@Locale@@KV?$SafeMap_Iterator@VKey@Locale@@K@@@@QAA@ABV?$SafeMap@VKey@Locale@@KV?$SafeMap_Iterator@VKey@Locale@@K@@@@_N@Z
??1?$SafeMap@VKey@Locale@@KV?$SafeMap_Iterator@VKey@Locale@@K@@@@QAA@XZ
??1?$SafeMap_Iterator@VKey@Locale@@K@@QAA@XZ
??1?$SafeMap_Lock@VKey@Locale@@KV?$SafeMap_Iterator@VKey@Locale@@K@@@@QAA@XZ
??1CWSManCriticalSectionWithConditionVar@@QAA@XZ
??_7?$SafeMap@VKey@Locale@@KV?$SafeMap_Iterator@VKey@Locale@@K@@@@6B@ DATA
?Acquire@?$SafeMap@VKey@CWmiPtrCache@@VMapping@2@V?$SafeMap_Iterator@VKey@CWmiPtrCache@@VMapping@2@@@@@UBAXXZ
?Acquire@?$SafeMap@VKey@Locale@@KV?$SafeMap_Iterator@VKey@Locale@@K@@@@UBAXXZ
?Acquire@?$SafeMap_Lock@VKey@Locale@@KV?$SafeMap_Iterator@VKey@Locale@@K@@@@QAAXXZ
?Acquired@?$SafeMap_Lock@VKey@Locale@@KV?$SafeMap_Iterator@VKey@Locale@@K@@@@QAA_NXZ
?AsReference@?$SafeMap@VKey@Locale@@KV?$SafeMap_Iterator@VKey@Locale@@K@@@@QAAAAV1@XZ
?Data@?$SafeMap_Iterator@VKey@Locale@@K@@IBAAAV?$STLMap@VKey@Locale@@K@@XZ
?DeInitialize@?$SafeMap@VKey@CWmiPtrCache@@VMapping@2@V?$SafeMap_Iterator@VKey@CWmiPtrCache@@VMapping@2@@@@@UAA_NAAVIRequestContext@@@Z
?DeInitialize@?$SafeMap@VKey@Locale@@KV?$SafeMap_Iterator@VKey@Locale@@K@@@@UAA_NAAVIRequestContext@@@Z
?GetInitError@CWSManCriticalSection@@QBAKXZ
?GetMap@?$SafeMap_Iterator@VKey@Locale@@K@@QBAAAV?$SafeMap@VKey@Locale@@KV?$SafeMap_Iterator@VKey@Locale@@K@@@@XZ
?GetMap@?$SafeMap_Lock@VKey@Locale@@KV?$SafeMap_Iterator@VKey@Locale@@K@@@@QBAABV?$SafeMap@VKey@Locale@@KV?$SafeMap_Iterator@VKey@Locale@@K@@@@XZ
?Initialize@?$SafeMap@VKey@CWmiPtrCache@@VMapping@2@V?$SafeMap_Iterator@VKey@CWmiPtrCache@@VMapping@2@@@@@UAA_NAAVIRequestContext@@@Z
?Initialize@?$SafeMap@VKey@Locale@@KV?$SafeMap_Iterator@VKey@Locale@@K@@@@UAA_NAAVIRequestContext@@@Z
?IsValid@?$SafeMap_Iterator@VKey@CWmiPtrCache@@VMapping@2@@@QBA_NXZ
?IsValid@?$SafeMap_Iterator@VKey@Locale@@K@@QBA_NXZ
?Release@?$SafeMap@VKey@CWmiPtrCache@@VMapping@2@V?$SafeMap_Iterator@VKey@CWmiPtrCache@@VMapping@2@@@@@UBAXXZ
?Release@?$SafeMap@VKey@Locale@@KV?$SafeMap_Iterator@VKey@Locale@@K@@@@UBAXXZ
?Reset@?$SafeMap_Iterator@VKey@Locale@@K@@QAAXXZ
?SkipOrphans@?$SafeMap_Iterator@VKey@Locale@@K@@IAAXXZ
WSManPluginShutdown
WSManPluginStartup
WSManProvCreate
WSManProvDelete
WSManProvEnumerate
WSManProvGet
WSManProvIdentify
WSManProvInvoke
WSManProvPullEvents
WSManProvPut
WSManProvSubscribe
WSManProvUnsubscribe
