LIBRARY CMUTIL.DLL
EXPORTS
_WzToSzWithAlloc@4
_WzToSz@12
_UpdateFont@4
_SzToWzWithAlloc@4
_SzToWz@12
_ReleaseBold@4
_MakeBold@8
_IsLogonAsSystem
_IsFarEastNonOSR2Win95
_GetOSVersion
_GetOSMajorVersion
_GetOSBuildNumber
_CmWinHelp@20
_CmStrtokW@8
_CmStrtokA@8
_CmStrrchrW@8
_CmStrrchrA@8
_CmStripPathAndExtW@4
_CmStripFileNameW@8
_CmStrchrW@8
_CmStrchrA@8
_CmStrTrimW@4
_CmStrStrW@8
_CmStrStrA@8
_CmStrCpyAllocW@4
_CmStrCpyAllocA@4
_CmStrCharStuffingW@8
_CmStrCharStuffingA@8
_CmStrCharCountW@8
_CmStrCharCountA@8
_CmStrCatAllocW@8
_CmStrCatAllocA@8
_CmRealloc@8
_CmParsePathW@16
_CmMoveMemory@12
_CmMalloc@4
_CmLoadStringW@8
_CmLoadSmallIconW@8
_CmLoadSmallIconA@8
_CmLoadImageW@20
_CmLoadIconW@8
_CmLoadIconA@8
_CmIsSpaceW@4
_CmIsIPv6AddressW@4
_CmIsIPv6AddressA@4
_CmIsDigitW@4
_CmFree@4
_CmFmtMsgW
_CmFmtMsgA
_CmEndOfStrW@4
_CmConvertStrToIPv6AddrW@8
_CmConvertStrToIPv6AddrA@8
_CmConvertRelativePathW@8
_CmCompareStringW@8
_CmCompareStringA@8
_CmBuildFullPathFromRelativeW@8
_CmBuildFullPathFromRelativeA@8
_CmAtolW@4
_CmAtolA@4
?kMaxValueLength@CIniW@@2KB
?Write@CmLogFile@@AAEJPAG@Z
?WPPS@CIniW@@QAEXPBG00@Z
?WPPS@CIniA@@QAEXPBD00@Z
?WPPI@CIniW@@QAEXPBG0K@Z
?WPPI@CIniA@@QAEXPBD0K@Z
?WPPB@CIniW@@QAEXPBG0H@Z
?WPPB@CIniA@@QAEXPBD0H@Z
?Stop@CmLogFile@@QAEJXZ
?Start@CmLogFile@@QAEJH@Z
?SetWriteICSData@CIniW@@QAEXH@Z
?SetWriteICSData@CIniA@@QAEXH@Z
?SetSection@CIniW@@QAEXPBG@Z
?SetSection@CIniA@@QAEXPBD@Z
?SetRegPath@CIniW@@QAEXPBG@Z
?SetRegPath@CIniA@@QAEXPBD@Z
?SetReadICSData@CIniW@@QAEXH@Z
?SetReadICSData@CIniA@@QAEXH@Z
?SetPrimaryRegPath@CIniW@@QAEXPBG@Z
?SetPrimaryRegPath@CIniA@@QAEXPBD@Z
?SetPrimaryFile@CIniW@@QAEXPBG@Z
?SetPrimaryFile@CIniA@@QAEXPBD@Z
?SetParams@CmLogFile@@QAEJHKPBG@Z
?SetParams@CmLogFile@@QAEJHKPBD@Z
?SetICSDataPath@CIniW@@QAEXPBG@Z
?SetICSDataPath@CIniA@@QAEXPBD@Z
?SetHInst@CIniW@@QAEXPAUHINSTANCE__@@@Z
?SetHInst@CIniA@@QAEXPAUHINSTANCE__@@@Z
?SetFile@CIniW@@QAEXPBG@Z
?SetFile@CIniA@@QAEXPBD@Z
?SetEntryFromIdx@CIniW@@QAEXK@Z
?SetEntryFromIdx@CIniA@@QAEXK@Z
?SetEntry@CIniW@@QAEXPBG@Z
?SetEntry@CIniA@@QAEXPBD@Z
?OpenFile@CmLogFile@@AAEJXZ
?Log@CmLogFile@@QAAXW4_CMLOG_ITEM@@ZZ
?LoadSection@CIniW@@QBEPAGPBG@Z
?LoadSection@CIniA@@QBEPADPBD@Z
?LoadEntry@CIniW@@IBEPAGPBG@Z
?LoadEntry@CIniA@@IBEPADPBD@Z
?IsEnabled@CmLogFile@@QAEHXZ
?Init@CmLogFile@@QAEJPAUHINSTANCE__@@HPBG@Z
?Init@CmLogFile@@QAEJPAUHINSTANCE__@@HPBD@Z
?Init@CRandom@@QAEXK@Z
?GetSection@CIniW@@QBEPBGXZ
?GetSection@CIniA@@QBEPBDXZ
?GetRegPath@CIniW@@QBEPBGXZ
?GetRegPath@CIniA@@QBEPBDXZ
?GetPrimaryRegPath@CIniW@@QBEPBGXZ
?GetPrimaryRegPath@CIniA@@QBEPBDXZ
?GetPrimaryFile@CIniW@@QBEPBGXZ
?GetPrimaryFile@CIniA@@QBEPBDXZ
?GetLogFilePath@CmLogFile@@QAEPBGXZ
?GetHInst@CIniW@@QBEPAUHINSTANCE__@@XZ
?GetHInst@CIniA@@QBEPAUHINSTANCE__@@XZ
?GetFile@CIniW@@QBEPBGXZ
?GetFile@CIniA@@QBEPBDXZ
?Generate@CRandom@@QAEHXZ
?GPPS@CIniW@@QBEPAGPBG00@Z
?GPPS@CIniA@@QBEPADPBD00@Z
?GPPI@CIniW@@QBEKPBG0K@Z
?GPPI@CIniA@@QBEKPBD0K@Z
?GPPB@CIniW@@QBEHPBG0H@Z
?GPPB@CIniA@@QBEHPBD0H@Z
?FormatWrite@CmLogFile@@AAEXW4_CMLOG_ITEM@@PAG@Z
?DeInit@CmLogFile@@QAEJXZ
?CloseFile@CmLogFile@@AAEJXZ
?Clear@CmLogFile@@QAEXH@Z
?Clear@CIniW@@QAEXXZ
?Clear@CIniA@@QAEXXZ
?CIni_SetFile@CIniW@@KGXPAPAGPBG@Z
?CIni_SetFile@CIniA@@KGXPAPADPBD@Z
?CIniW_WriteEntryToReg@CIniW@@IBEHPAUHKEY__@@PBG1PBEKK@Z
?CIniW_GetEntryFromReg@CIniW@@IBEPAEPAUHKEY__@@PBG1KK@Z
?CIniW_DeleteEntryFromReg@CIniW@@IBEHPAUHKEY__@@PBG1@Z
?CIniA_WriteEntryToReg@CIniA@@IBEHPAUHKEY__@@PBD1PBEKK@Z
?CIniA_GetEntryFromReg@CIniA@@IBEPAEPAUHKEY__@@PBD1KK@Z
?CIniA_DeleteEntryFromReg@CIniA@@IBEHPAUHKEY__@@PBD1@Z
?Banner@CmLogFile@@QAEXXZ
??_FCIniW@@QAEXXZ
??_FCIniA@@QAEXXZ
??4CmLogFile@@QAEAAV0@ABV0@@Z
??4CRandom@@QAEAAV0@ABV0@@Z
??4CIniW@@QAEAAV0@ABV0@@Z
??4CIniA@@QAEAAV0@ABV0@@Z
??1CmLogFile@@QAE@XZ
??1CIniW@@QAE@XZ
??1CIniA@@QAE@XZ
??0CmLogFile@@QAE@XZ
??0CRandom@@QAE@XZ
??0CRandom@@QAE@I@Z
??0CIniW@@QAE@PAUHINSTANCE__@@PBG111@Z
??0CIniA@@QAE@PAUHINSTANCE__@@PBD111@Z
