LIBRARY MSVCP120_APP.DLL
EXPORTS
_xtime_get
___Wcrtomb_lk
__Xtime_get_ticks
__Xtime_diff_to_millis2
__Xtime_diff_to_millis
__Xp_subx
__Xp_sqrtx
__Xp_setw
__Xp_setn
__Xp_mulx
__Xp_mulh
__Xp_movx
__Xp_ldexpx
__Xp_invx
__Xp_getw
__Xp_addx
__Xp_addh
__Wcsxfrm
__Wcscoll
__Wcrtomb
__Unlock_shared_ptr_spin_lock
__Tss_set
__Tss_get
__Tss_delete
__Tss_create
__Towupper
__Towlower
__Toupper
__Tolower
__Thrd_yield
__Thrd_start
__Thrd_sleep
__Thrd_lt
__Thrd_join
__Thrd_exit
__Thrd_equal
__Thrd_detach
__Thrd_current
__Thrd_create
__Thrd_abort@0
__Strxfrm
__Strcoll
__Stoxflt
__Stoulx
__Stoullx
__Stoull
__Stoul
__Stopfx
__Stolx
__Stollx
__Stoll
__Stoldx
__Stold
__Stofx
__Stoflt
__Stof
__Stodx
__Stod
__Sinh
__Poly
__Pmsw
__Plsw
__Once
__Mtxunlock
__Mtxlock
__Mtxinit
__Mtxdst
__Mtx_unlock
__Mtx_trylock
__Mtx_timedlock
__Mtx_reset_owner
__Mtx_lock
__Mtx_init
__Mtx_getconcrtcs
__Mtx_destroy
__Mtx_current_owns
__Mtx_clear_owner
__Mbrtowc
__Lock_shared_ptr_spin_lock
__LXp_subx
__LXp_sqrtx
__LXp_setw
__LXp_setn
__LXp_mulx
__LXp_mulh
__LXp_movx
__LXp_ldexpx
__LXp_invx
__LXp_getw
__LXp_addx
__LXp_addh
__LSinh
__LPoly
__LPmsw
__LPlsw
__LExp
__LDunscale
__LDtest
__LDtento
__LDscale
__LDint
__LCosh
__Getwctypes
__Getwctype
__Getdateorder
__Getcvt
__Getctype
__Getcoll
__FXp_subx
__FXp_sqrtx
__FXp_setw
__FXp_setn
__FXp_mulx
__FXp_mulh
__FXp_movx
__FXp_ldexpx
__FXp_invx
__FXp_getw
__FXp_addx
__FXp_addh
__FSinh
__FPmsw
__FPlsw
__FExp
__FDunscale
__FDtest
__FDtento
__FDscale
__FDnorm
__FDint
__FCosh
__Exp
__Dunscale
__Dtest
__Dtento
__Dscale
__Do_call
__Dnorm
__Dint
__Cosh
__Cnd_wait
__Cnd_unregister_at_thread_exit
__Cnd_timedwait
__Cnd_signal
__Cnd_register_at_thread_exit
__Cnd_init
__Cnd_do_broadcast_at_thread_exit
__Cnd_destroy
__Cnd_broadcast
__Call_onceEx
__Call_once
?xsputn@?$basic_streambuf@_WU?$char_traits@_W@std@@@std@@MAE_JPB_W_J@Z
?xsputn@?$basic_streambuf@GU?$char_traits@G@std@@@std@@MAE_JPBG_J@Z
?xsputn@?$basic_streambuf@DU?$char_traits@D@std@@@std@@MAE_JPBD_J@Z
?xsgetn@?$basic_streambuf@_WU?$char_traits@_W@std@@@std@@MAE_JPA_W_J@Z
?xsgetn@?$basic_streambuf@GU?$char_traits@G@std@@@std@@MAE_JPAG_J@Z
?xsgetn@?$basic_streambuf@DU?$char_traits@D@std@@@std@@MAE_JPAD_J@Z
?xalloc@ios_base@std@@SAHXZ
?ws@std@@YAAAV?$basic_istream@_WU?$char_traits@_W@std@@@1@AAV21@@Z
?ws@std@@YAAAV?$basic_istream@GU?$char_traits@G@std@@@1@AAV21@@Z
?ws@std@@YAAAV?$basic_istream@DU?$char_traits@D@std@@@1@AAV21@@Z
?write@?$basic_ostream@_WU?$char_traits@_W@std@@@std@@QAEAAV12@PB_W_J@Z
?write@?$basic_ostream@GU?$char_traits@G@std@@@std@@QAEAAV12@PBG_J@Z
?write@?$basic_ostream@DU?$char_traits@D@std@@@std@@QAEAAV12@PBD_J@Z
?width@ios_base@std@@QBE_JXZ
?width@ios_base@std@@QAE_J_J@Z
?widen@?$ctype@_W@std@@QBE_WD@Z
?widen@?$ctype@_W@std@@QBEPBDPBD0PA_W@Z
?widen@?$ctype@G@std@@QBEPBDPBD0PAG@Z
?widen@?$ctype@G@std@@QBEGD@Z
?widen@?$ctype@D@std@@QBEPBDPBD0PAD@Z
?widen@?$ctype@D@std@@QBEDD@Z
?widen@?$basic_ios@_WU?$char_traits@_W@std@@@std@@QBE_WD@Z
?widen@?$basic_ios@GU?$char_traits@G@std@@@std@@QBEGD@Z
?widen@?$basic_ios@DU?$char_traits@D@std@@@std@@QBEDD@Z
?wait_for_one@agent@Concurrency@@SAXIPAPAV12@AAW4agent_status@2@AAII@Z
?wait_for_all@agent@Concurrency@@SAXIPAPAV12@PAW4agent_status@2@I@Z
?wait@agent@Concurrency@@SA?AW4agent_status@2@PAV12@I@Z
?unshift@?$codecvt@_WDH@std@@QBEHAAHPAD1AAPAD@Z
?unshift@?$codecvt@GDH@std@@QBEHAAHPAD1AAPAD@Z
?unshift@?$codecvt@DDH@std@@QBEHAAHPAD1AAPAD@Z
?unsetf@ios_base@std@@QAEXH@Z
?unget@?$basic_istream@_WU?$char_traits@_W@std@@@std@@QAEAAV12@XZ
?unget@?$basic_istream@GU?$char_traits@G@std@@@std@@QAEAAV12@XZ
?unget@?$basic_istream@DU?$char_traits@D@std@@@std@@QAEAAV12@XZ
?underflow@?$basic_streambuf@_WU?$char_traits@_W@std@@@std@@MAEGXZ
?underflow@?$basic_streambuf@GU?$char_traits@G@std@@@std@@MAEGXZ
?underflow@?$basic_streambuf@DU?$char_traits@D@std@@@std@@MAEHXZ
?uncaught_exception@std@@YA_NXZ
?uflow@?$basic_streambuf@_WU?$char_traits@_W@std@@@std@@MAEGXZ
?uflow@?$basic_streambuf@GU?$char_traits@G@std@@@std@@MAEGXZ
?uflow@?$basic_streambuf@DU?$char_traits@D@std@@@std@@MAEHXZ
?toupper@?$ctype@_W@std@@QBE_W_W@Z
?toupper@?$ctype@_W@std@@QBEPB_WPA_WPB_W@Z
?toupper@?$ctype@G@std@@QBEPBGPAGPBG@Z
?toupper@?$ctype@G@std@@QBEGG@Z
?toupper@?$ctype@D@std@@QBEPBDPADPBD@Z
?toupper@?$ctype@D@std@@QBEDD@Z
?tolower@?$ctype@_W@std@@QBE_W_W@Z
?tolower@?$ctype@_W@std@@QBEPB_WPA_WPB_W@Z
?tolower@?$ctype@G@std@@QBEPBGPAGPBG@Z
?tolower@?$ctype@G@std@@QBEGG@Z
?tolower@?$ctype@D@std@@QBEPBDPADPBD@Z
?tolower@?$ctype@D@std@@QBEDD@Z
?tie@?$basic_ios@_WU?$char_traits@_W@std@@@std@@QBEPAV?$basic_ostream@_WU?$char_traits@_W@std@@@2@XZ
?tie@?$basic_ios@_WU?$char_traits@_W@std@@@std@@QAEPAV?$basic_ostream@_WU?$char_traits@_W@std@@@2@PAV32@@Z
?tie@?$basic_ios@GU?$char_traits@G@std@@@std@@QBEPAV?$basic_ostream@GU?$char_traits@G@std@@@2@XZ
?tie@?$basic_ios@GU?$char_traits@G@std@@@std@@QAEPAV?$basic_ostream@GU?$char_traits@G@std@@@2@PAV32@@Z
?tie@?$basic_ios@DU?$char_traits@D@std@@@std@@QBEPAV?$basic_ostream@DU?$char_traits@D@std@@@2@XZ
?tie@?$basic_ios@DU?$char_traits@D@std@@@std@@QAEPAV?$basic_ostream@DU?$char_traits@D@std@@@2@PAV32@@Z
?tellp@?$basic_ostream@_WU?$char_traits@_W@std@@@std@@QAE?AV?$fpos@H@2@XZ
?tellp@?$basic_ostream@GU?$char_traits@G@std@@@std@@QAE?AV?$fpos@H@2@XZ
?tellp@?$basic_ostream@DU?$char_traits@D@std@@@std@@QAE?AV?$fpos@H@2@XZ
?tellg@?$basic_istream@_WU?$char_traits@_W@std@@@std@@QAE?AV?$fpos@H@2@XZ
?tellg@?$basic_istream@GU?$char_traits@G@std@@@std@@QAE?AV?$fpos@H@2@XZ
?tellg@?$basic_istream@DU?$char_traits@D@std@@@std@@QAE?AV?$fpos@H@2@XZ
?table_size@?$ctype@D@std@@2IB
?table@?$ctype@D@std@@QBEPBFXZ
?sync_with_stdio@ios_base@std@@SA_N_N@Z
?sync@?$basic_streambuf@_WU?$char_traits@_W@std@@@std@@MAEHXZ
?sync@?$basic_streambuf@GU?$char_traits@G@std@@@std@@MAEHXZ
?sync@?$basic_streambuf@DU?$char_traits@D@std@@@std@@MAEHXZ
?sync@?$basic_istream@_WU?$char_traits@_W@std@@@std@@QAEHXZ
?sync@?$basic_istream@GU?$char_traits@G@std@@@std@@QAEHXZ
?sync@?$basic_istream@DU?$char_traits@D@std@@@std@@QAEHXZ
?swap@ios_base@std@@QAEXAAV12@@Z
?swap@?$basic_streambuf@_WU?$char_traits@_W@std@@@std@@IAEXAAV12@@Z
?swap@?$basic_streambuf@GU?$char_traits@G@std@@@std@@IAEXAAV12@@Z
?swap@?$basic_streambuf@DU?$char_traits@D@std@@@std@@IAEXAAV12@@Z
?swap@?$basic_ostream@_WU?$char_traits@_W@std@@@std@@IAEXAAV12@@Z
?swap@?$basic_ostream@GU?$char_traits@G@std@@@std@@IAEXAAV12@@Z
?swap@?$basic_ostream@DU?$char_traits@D@std@@@std@@IAEXAAV12@@Z
?swap@?$basic_istream@_WU?$char_traits@_W@std@@@std@@IAEXAAV12@@Z
?swap@?$basic_istream@GU?$char_traits@G@std@@@std@@IAEXAAV12@@Z
?swap@?$basic_istream@DU?$char_traits@D@std@@@std@@IAEXAAV12@@Z
?swap@?$basic_iostream@_WU?$char_traits@_W@std@@@std@@IAEXAAV12@@Z
?swap@?$basic_iostream@GU?$char_traits@G@std@@@std@@IAEXAAV12@@Z
?swap@?$basic_iostream@DU?$char_traits@D@std@@@std@@IAEXAAV12@@Z
?swap@?$basic_ios@_WU?$char_traits@_W@std@@@std@@QAEXAAV12@@Z
?swap@?$basic_ios@GU?$char_traits@G@std@@@std@@QAEXAAV12@@Z
?swap@?$basic_ios@DU?$char_traits@D@std@@@std@@QAEXAAV12@@Z
?sungetc@?$basic_streambuf@_WU?$char_traits@_W@std@@@std@@QAEGXZ
?sungetc@?$basic_streambuf@GU?$char_traits@G@std@@@std@@QAEGXZ
?sungetc@?$basic_streambuf@DU?$char_traits@D@std@@@std@@QAEHXZ
?stossc@?$basic_streambuf@_WU?$char_traits@_W@std@@@std@@QAEXXZ
?stossc@?$basic_streambuf@GU?$char_traits@G@std@@@std@@QAEXXZ
?stossc@?$basic_streambuf@DU?$char_traits@D@std@@@std@@QAEXXZ
?status_port@agent@Concurrency@@QAEPAV?$ISource@W4agent_status@Concurrency@@@2@XZ
?status@agent@Concurrency@@QAE?AW4agent_status@2@XZ
?start@agent@Concurrency@@QAE_NXZ
?sputn@?$basic_streambuf@_WU?$char_traits@_W@std@@@std@@QAE_JPB_W_J@Z
?sputn@?$basic_streambuf@GU?$char_traits@G@std@@@std@@QAE_JPBG_J@Z
?sputn@?$basic_streambuf@DU?$char_traits@D@std@@@std@@QAE_JPBD_J@Z
?sputc@?$basic_streambuf@_WU?$char_traits@_W@std@@@std@@QAEG_W@Z
?sputc@?$basic_streambuf@GU?$char_traits@G@std@@@std@@QAEGG@Z
?sputc@?$basic_streambuf@DU?$char_traits@D@std@@@std@@QAEHD@Z
?sputbackc@?$basic_streambuf@_WU?$char_traits@_W@std@@@std@@QAEG_W@Z
?sputbackc@?$basic_streambuf@GU?$char_traits@G@std@@@std@@QAEGG@Z
?sputbackc@?$basic_streambuf@DU?$char_traits@D@std@@@std@@QAEHD@Z
?snextc@?$basic_streambuf@_WU?$char_traits@_W@std@@@std@@QAEGXZ
?snextc@?$basic_streambuf@GU?$char_traits@G@std@@@std@@QAEGXZ
?snextc@?$basic_streambuf@DU?$char_traits@D@std@@@std@@QAEHXZ
?showmanyc@?$basic_streambuf@_WU?$char_traits@_W@std@@@std@@MAE_JXZ
?showmanyc@?$basic_streambuf@GU?$char_traits@G@std@@@std@@MAE_JXZ
?showmanyc@?$basic_streambuf@DU?$char_traits@D@std@@@std@@MAE_JXZ
?sgetn@?$basic_streambuf@_WU?$char_traits@_W@std@@@std@@QAE_JPA_W_J@Z
?sgetn@?$basic_streambuf@GU?$char_traits@G@std@@@std@@QAE_JPAG_J@Z
?sgetn@?$basic_streambuf@DU?$char_traits@D@std@@@std@@QAE_JPAD_J@Z
?sgetc@?$basic_streambuf@_WU?$char_traits@_W@std@@@std@@QAEGXZ
?sgetc@?$basic_streambuf@GU?$char_traits@G@std@@@std@@QAEGXZ
?sgetc@?$basic_streambuf@DU?$char_traits@D@std@@@std@@QAEHXZ
?setw@std@@YA?AU?$_Smanip@_J@1@_J@Z
?setstate@ios_base@std@@QAEXI@Z
?setstate@ios_base@std@@QAEXH_N@Z
?setstate@ios_base@std@@QAEXH@Z
?setstate@?$basic_ios@_WU?$char_traits@_W@std@@@std@@QAEXI@Z
?setstate@?$basic_ios@_WU?$char_traits@_W@std@@@std@@QAEXH_N@Z
?setstate@?$basic_ios@GU?$char_traits@G@std@@@std@@QAEXI@Z
?setstate@?$basic_ios@GU?$char_traits@G@std@@@std@@QAEXH_N@Z
?setstate@?$basic_ios@DU?$char_traits@D@std@@@std@@QAEXI@Z
?setstate@?$basic_ios@DU?$char_traits@D@std@@@std@@QAEXH_N@Z
?setprecision@std@@YA?AU?$_Smanip@_J@1@_J@Z
?setp@?$basic_streambuf@_WU?$char_traits@_W@std@@@std@@IAEXPA_W0@Z
?setp@?$basic_streambuf@_WU?$char_traits@_W@std@@@std@@IAEXPA_W00@Z
?setp@?$basic_streambuf@GU?$char_traits@G@std@@@std@@IAEXPAG0@Z
?setp@?$basic_streambuf@GU?$char_traits@G@std@@@std@@IAEXPAG00@Z
?setp@?$basic_streambuf@DU?$char_traits@D@std@@@std@@IAEXPAD0@Z
?setp@?$basic_streambuf@DU?$char_traits@D@std@@@std@@IAEXPAD00@Z
?setiosflags@std@@YA?AU?$_Smanip@H@1@H@Z
?setg@?$basic_streambuf@_WU?$char_traits@_W@std@@@std@@IAEXPA_W00@Z
?setg@?$basic_streambuf@GU?$char_traits@G@std@@@std@@IAEXPAG00@Z
?setg@?$basic_streambuf@DU?$char_traits@D@std@@@std@@IAEXPAD00@Z
?setf@ios_base@std@@QAEHHH@Z
?setf@ios_base@std@@QAEHH@Z
?setbuf@?$basic_streambuf@_WU?$char_traits@_W@std@@@std@@MAEPAV12@PA_W_J@Z
?setbuf@?$basic_streambuf@GU?$char_traits@G@std@@@std@@MAEPAV12@PAG_J@Z
?setbuf@?$basic_streambuf@DU?$char_traits@D@std@@@std@@MAEPAV12@PAD_J@Z
?setbase@std@@YA?AU?$_Smanip@H@1@H@Z
?set_rdbuf@?$basic_ios@_WU?$char_traits@_W@std@@@std@@QAEXPAV?$basic_streambuf@_WU?$char_traits@_W@std@@@2@@Z
?set_rdbuf@?$basic_ios@GU?$char_traits@G@std@@@std@@QAEXPAV?$basic_streambuf@GU?$char_traits@G@std@@@2@@Z
?set_rdbuf@?$basic_ios@DU?$char_traits@D@std@@@std@@QAEXPAV?$basic_streambuf@DU?$char_traits@D@std@@@2@@Z
?set_new_handler@std@@YAP6AXXZP6AXXZ@Z
?seekpos@?$basic_streambuf@_WU?$char_traits@_W@std@@@std@@MAE?AV?$fpos@H@2@V32@H@Z
?seekpos@?$basic_streambuf@GU?$char_traits@G@std@@@std@@MAE?AV?$fpos@H@2@V32@H@Z
?seekpos@?$basic_streambuf@DU?$char_traits@D@std@@@std@@MAE?AV?$fpos@H@2@V32@H@Z
?seekp@?$basic_ostream@_WU?$char_traits@_W@std@@@std@@QAEAAV12@_JH@Z
?seekp@?$basic_ostream@_WU?$char_traits@_W@std@@@std@@QAEAAV12@V?$fpos@H@2@@Z
?seekp@?$basic_ostream@GU?$char_traits@G@std@@@std@@QAEAAV12@_JH@Z
?seekp@?$basic_ostream@GU?$char_traits@G@std@@@std@@QAEAAV12@V?$fpos@H@2@@Z
?seekp@?$basic_ostream@DU?$char_traits@D@std@@@std@@QAEAAV12@_JH@Z
?seekp@?$basic_ostream@DU?$char_traits@D@std@@@std@@QAEAAV12@V?$fpos@H@2@@Z
?seekoff@?$basic_streambuf@_WU?$char_traits@_W@std@@@std@@MAE?AV?$fpos@H@2@_JHH@Z
?seekoff@?$basic_streambuf@GU?$char_traits@G@std@@@std@@MAE?AV?$fpos@H@2@_JHH@Z
?seekoff@?$basic_streambuf@DU?$char_traits@D@std@@@std@@MAE?AV?$fpos@H@2@_JHH@Z
?seekg@?$basic_istream@_WU?$char_traits@_W@std@@@std@@QAEAAV12@_JH@Z
?seekg@?$basic_istream@_WU?$char_traits@_W@std@@@std@@QAEAAV12@V?$fpos@H@2@@Z
?seekg@?$basic_istream@GU?$char_traits@G@std@@@std@@QAEAAV12@_JH@Z
?seekg@?$basic_istream@GU?$char_traits@G@std@@@std@@QAEAAV12@V?$fpos@H@2@@Z
?seekg@?$basic_istream@DU?$char_traits@D@std@@@std@@QAEAAV12@_JH@Z
?seekg@?$basic_istream@DU?$char_traits@D@std@@@std@@QAEAAV12@V?$fpos@H@2@@Z
?scan_not@?$ctype@_W@std@@QBEPB_WFPB_W0@Z
?scan_not@?$ctype@G@std@@QBEPBGFPBG0@Z
?scan_not@?$ctype@D@std@@QBEPBDFPBD0@Z
?scan_is@?$ctype@_W@std@@QBEPB_WFPB_W0@Z
?scan_is@?$ctype@G@std@@QBEPBGFPBG0@Z
?scan_is@?$ctype@D@std@@QBEPBDFPBD0@Z
?sbumpc@?$basic_streambuf@_WU?$char_traits@_W@std@@@std@@QAEGXZ
?sbumpc@?$basic_streambuf@GU?$char_traits@G@std@@@std@@QAEGXZ
?sbumpc@?$basic_streambuf@DU?$char_traits@D@std@@@std@@QAEHXZ
?resetiosflags@std@@YA?AU?$_Smanip@H@1@H@Z
?register_callback@ios_base@std@@QAEXP6AXW4event@12@AAV12@H@ZH@Z
?readsome@?$basic_istream@_WU?$char_traits@_W@std@@@std@@QAE_JPA_W_J@Z
?readsome@?$basic_istream@GU?$char_traits@G@std@@@std@@QAE_JPAG_J@Z
?readsome@?$basic_istream@DU?$char_traits@D@std@@@std@@QAE_JPAD_J@Z
?read@?$basic_istream@_WU?$char_traits@_W@std@@@std@@QAEAAV12@PA_W_J@Z
?read@?$basic_istream@GU?$char_traits@G@std@@@std@@QAEAAV12@PAG_J@Z
?read@?$basic_istream@DU?$char_traits@D@std@@@std@@QAEAAV12@PAD_J@Z
?rdstate@ios_base@std@@QBEHXZ
?rdbuf@?$basic_ios@_WU?$char_traits@_W@std@@@std@@QBEPAV?$basic_streambuf@_WU?$char_traits@_W@std@@@2@XZ
?rdbuf@?$basic_ios@_WU?$char_traits@_W@std@@@std@@QAEPAV?$basic_streambuf@_WU?$char_traits@_W@std@@@2@PAV32@@Z
?rdbuf@?$basic_ios@GU?$char_traits@G@std@@@std@@QBEPAV?$basic_streambuf@GU?$char_traits@G@std@@@2@XZ
?rdbuf@?$basic_ios@GU?$char_traits@G@std@@@std@@QAEPAV?$basic_streambuf@GU?$char_traits@G@std@@@2@PAV32@@Z
?rdbuf@?$basic_ios@DU?$char_traits@D@std@@@std@@QBEPAV?$basic_streambuf@DU?$char_traits@D@std@@@2@XZ
?rdbuf@?$basic_ios@DU?$char_traits@D@std@@@std@@QAEPAV?$basic_streambuf@DU?$char_traits@D@std@@@2@PAV32@@Z
?pword@ios_base@std@@QAEAAPAXH@Z
?putback@?$basic_istream@_WU?$char_traits@_W@std@@@std@@QAEAAV12@_W@Z
?putback@?$basic_istream@GU?$char_traits@G@std@@@std@@QAEAAV12@G@Z
?putback@?$basic_istream@DU?$char_traits@D@std@@@std@@QAEAAV12@D@Z
?put@?$time_put@_WV?$ostreambuf_iterator@_WU?$char_traits@_W@std@@@std@@@std@@QBE?AV?$ostreambuf_iterator@_WU?$char_traits@_W@std@@@2@V32@AAVios_base@2@_WPBUtm@@PB_W4@Z
?put@?$time_put@_WV?$ostreambuf_iterator@_WU?$char_traits@_W@std@@@std@@@std@@QBE?AV?$ostreambuf_iterator@_WU?$char_traits@_W@std@@@2@V32@AAVios_base@2@_WPBUtm@@DD@Z
?put@?$time_put@GV?$ostreambuf_iterator@GU?$char_traits@G@std@@@std@@@std@@QBE?AV?$ostreambuf_iterator@GU?$char_traits@G@std@@@2@V32@AAVios_base@2@GPBUtm@@PBG3@Z
?put@?$time_put@GV?$ostreambuf_iterator@GU?$char_traits@G@std@@@std@@@std@@QBE?AV?$ostreambuf_iterator@GU?$char_traits@G@std@@@2@V32@AAVios_base@2@GPBUtm@@DD@Z
?put@?$time_put@DV?$ostreambuf_iterator@DU?$char_traits@D@std@@@std@@@std@@QBE?AV?$ostreambuf_iterator@DU?$char_traits@D@std@@@2@V32@AAVios_base@2@DPBUtm@@PBD3@Z
?put@?$time_put@DV?$ostreambuf_iterator@DU?$char_traits@D@std@@@std@@@std@@QBE?AV?$ostreambuf_iterator@DU?$char_traits@D@std@@@2@V32@AAVios_base@2@DPBUtm@@DD@Z
?put@?$num_put@_WV?$ostreambuf_iterator@_WU?$char_traits@_W@std@@@std@@@std@@QBE?AV?$ostreambuf_iterator@_WU?$char_traits@_W@std@@@2@V32@AAVios_base@2@_W_N@Z
?put@?$num_put@_WV?$ostreambuf_iterator@_WU?$char_traits@_W@std@@@std@@@std@@QBE?AV?$ostreambuf_iterator@_WU?$char_traits@_W@std@@@2@V32@AAVios_base@2@_W_K@Z
?put@?$num_put@_WV?$ostreambuf_iterator@_WU?$char_traits@_W@std@@@std@@@std@@QBE?AV?$ostreambuf_iterator@_WU?$char_traits@_W@std@@@2@V32@AAVios_base@2@_W_J@Z
?put@?$num_put@_WV?$ostreambuf_iterator@_WU?$char_traits@_W@std@@@std@@@std@@QBE?AV?$ostreambuf_iterator@_WU?$char_traits@_W@std@@@2@V32@AAVios_base@2@_WPBX@Z
?put@?$num_put@_WV?$ostreambuf_iterator@_WU?$char_traits@_W@std@@@std@@@std@@QBE?AV?$ostreambuf_iterator@_WU?$char_traits@_W@std@@@2@V32@AAVios_base@2@_WO@Z
?put@?$num_put@_WV?$ostreambuf_iterator@_WU?$char_traits@_W@std@@@std@@@std@@QBE?AV?$ostreambuf_iterator@_WU?$char_traits@_W@std@@@2@V32@AAVios_base@2@_WN@Z
?put@?$num_put@_WV?$ostreambuf_iterator@_WU?$char_traits@_W@std@@@std@@@std@@QBE?AV?$ostreambuf_iterator@_WU?$char_traits@_W@std@@@2@V32@AAVios_base@2@_WK@Z
?put@?$num_put@_WV?$ostreambuf_iterator@_WU?$char_traits@_W@std@@@std@@@std@@QBE?AV?$ostreambuf_iterator@_WU?$char_traits@_W@std@@@2@V32@AAVios_base@2@_WJ@Z
?put@?$num_put@GV?$ostreambuf_iterator@GU?$char_traits@G@std@@@std@@@std@@QBE?AV?$ostreambuf_iterator@GU?$char_traits@G@std@@@2@V32@AAVios_base@2@G_N@Z
?put@?$num_put@GV?$ostreambuf_iterator@GU?$char_traits@G@std@@@std@@@std@@QBE?AV?$ostreambuf_iterator@GU?$char_traits@G@std@@@2@V32@AAVios_base@2@G_K@Z
?put@?$num_put@GV?$ostreambuf_iterator@GU?$char_traits@G@std@@@std@@@std@@QBE?AV?$ostreambuf_iterator@GU?$char_traits@G@std@@@2@V32@AAVios_base@2@G_J@Z
?put@?$num_put@GV?$ostreambuf_iterator@GU?$char_traits@G@std@@@std@@@std@@QBE?AV?$ostreambuf_iterator@GU?$char_traits@G@std@@@2@V32@AAVios_base@2@GPBX@Z
?put@?$num_put@GV?$ostreambuf_iterator@GU?$char_traits@G@std@@@std@@@std@@QBE?AV?$ostreambuf_iterator@GU?$char_traits@G@std@@@2@V32@AAVios_base@2@GO@Z
?put@?$num_put@GV?$ostreambuf_iterator@GU?$char_traits@G@std@@@std@@@std@@QBE?AV?$ostreambuf_iterator@GU?$char_traits@G@std@@@2@V32@AAVios_base@2@GN@Z
?put@?$num_put@GV?$ostreambuf_iterator@GU?$char_traits@G@std@@@std@@@std@@QBE?AV?$ostreambuf_iterator@GU?$char_traits@G@std@@@2@V32@AAVios_base@2@GK@Z
?put@?$num_put@GV?$ostreambuf_iterator@GU?$char_traits@G@std@@@std@@@std@@QBE?AV?$ostreambuf_iterator@GU?$char_traits@G@std@@@2@V32@AAVios_base@2@GJ@Z
?put@?$num_put@DV?$ostreambuf_iterator@DU?$char_traits@D@std@@@std@@@std@@QBE?AV?$ostreambuf_iterator@DU?$char_traits@D@std@@@2@V32@AAVios_base@2@D_N@Z
?put@?$num_put@DV?$ostreambuf_iterator@DU?$char_traits@D@std@@@std@@@std@@QBE?AV?$ostreambuf_iterator@DU?$char_traits@D@std@@@2@V32@AAVios_base@2@D_K@Z
?put@?$num_put@DV?$ostreambuf_iterator@DU?$char_traits@D@std@@@std@@@std@@QBE?AV?$ostreambuf_iterator@DU?$char_traits@D@std@@@2@V32@AAVios_base@2@D_J@Z
?put@?$num_put@DV?$ostreambuf_iterator@DU?$char_traits@D@std@@@std@@@std@@QBE?AV?$ostreambuf_iterator@DU?$char_traits@D@std@@@2@V32@AAVios_base@2@DPBX@Z
?put@?$num_put@DV?$ostreambuf_iterator@DU?$char_traits@D@std@@@std@@@std@@QBE?AV?$ostreambuf_iterator@DU?$char_traits@D@std@@@2@V32@AAVios_base@2@DO@Z
?put@?$num_put@DV?$ostreambuf_iterator@DU?$char_traits@D@std@@@std@@@std@@QBE?AV?$ostreambuf_iterator@DU?$char_traits@D@std@@@2@V32@AAVios_base@2@DN@Z
?put@?$num_put@DV?$ostreambuf_iterator@DU?$char_traits@D@std@@@std@@@std@@QBE?AV?$ostreambuf_iterator@DU?$char_traits@D@std@@@2@V32@AAVios_base@2@DK@Z
?put@?$num_put@DV?$ostreambuf_iterator@DU?$char_traits@D@std@@@std@@@std@@QBE?AV?$ostreambuf_iterator@DU?$char_traits@D@std@@@2@V32@AAVios_base@2@DJ@Z
?put@?$basic_ostream@_WU?$char_traits@_W@std@@@std@@QAEAAV12@_W@Z
?put@?$basic_ostream@GU?$char_traits@G@std@@@std@@QAEAAV12@G@Z
?put@?$basic_ostream@DU?$char_traits@D@std@@@std@@QAEAAV12@D@Z
?pubsync@?$basic_streambuf@_WU?$char_traits@_W@std@@@std@@QAEHXZ
?pubsync@?$basic_streambuf@GU?$char_traits@G@std@@@std@@QAEHXZ
?pubsync@?$basic_streambuf@DU?$char_traits@D@std@@@std@@QAEHXZ
?pubsetbuf@?$basic_streambuf@_WU?$char_traits@_W@std@@@std@@QAEPAV12@PA_W_J@Z
?pubsetbuf@?$basic_streambuf@GU?$char_traits@G@std@@@std@@QAEPAV12@PAG_J@Z
?pubsetbuf@?$basic_streambuf@DU?$char_traits@D@std@@@std@@QAEPAV12@PAD_J@Z
?pubseekpos@?$basic_streambuf@_WU?$char_traits@_W@std@@@std@@QAE?AV?$fpos@H@2@V32@I@Z
?pubseekpos@?$basic_streambuf@_WU?$char_traits@_W@std@@@std@@QAE?AV?$fpos@H@2@V32@H@Z
?pubseekpos@?$basic_streambuf@GU?$char_traits@G@std@@@std@@QAE?AV?$fpos@H@2@V32@I@Z
?pubseekpos@?$basic_streambuf@GU?$char_traits@G@std@@@std@@QAE?AV?$fpos@H@2@V32@H@Z
?pubseekpos@?$basic_streambuf@DU?$char_traits@D@std@@@std@@QAE?AV?$fpos@H@2@V32@I@Z
?pubseekpos@?$basic_streambuf@DU?$char_traits@D@std@@@std@@QAE?AV?$fpos@H@2@V32@H@Z
?pubseekoff@?$basic_streambuf@_WU?$char_traits@_W@std@@@std@@QAE?AV?$fpos@H@2@_JII@Z
?pubseekoff@?$basic_streambuf@_WU?$char_traits@_W@std@@@std@@QAE?AV?$fpos@H@2@_JHH@Z
?pubseekoff@?$basic_streambuf@GU?$char_traits@G@std@@@std@@QAE?AV?$fpos@H@2@_JII@Z
?pubseekoff@?$basic_streambuf@GU?$char_traits@G@std@@@std@@QAE?AV?$fpos@H@2@_JHH@Z
?pubseekoff@?$basic_streambuf@DU?$char_traits@D@std@@@std@@QAE?AV?$fpos@H@2@_JII@Z
?pubseekoff@?$basic_streambuf@DU?$char_traits@D@std@@@std@@QAE?AV?$fpos@H@2@_JHH@Z
?pubimbue@?$basic_streambuf@_WU?$char_traits@_W@std@@@std@@QAE?AVlocale@2@ABV32@@Z
?pubimbue@?$basic_streambuf@GU?$char_traits@G@std@@@std@@QAE?AVlocale@2@ABV32@@Z
?pubimbue@?$basic_streambuf@DU?$char_traits@D@std@@@std@@QAE?AVlocale@2@ABV32@@Z
?precision@ios_base@std@@QBE_JXZ
?precision@ios_base@std@@QAE_J_J@Z
?pptr@?$basic_streambuf@_WU?$char_traits@_W@std@@@std@@IBEPA_WXZ
?pptr@?$basic_streambuf@GU?$char_traits@G@std@@@std@@IBEPAGXZ
?pptr@?$basic_streambuf@DU?$char_traits@D@std@@@std@@IBEPADXZ
?peek@?$basic_istream@_WU?$char_traits@_W@std@@@std@@QAEGXZ
?peek@?$basic_istream@GU?$char_traits@G@std@@@std@@QAEGXZ
?peek@?$basic_istream@DU?$char_traits@D@std@@@std@@QAEHXZ
?pbump@?$basic_streambuf@_WU?$char_traits@_W@std@@@std@@IAEXH@Z
?pbump@?$basic_streambuf@GU?$char_traits@G@std@@@std@@IAEXH@Z
?pbump@?$basic_streambuf@DU?$char_traits@D@std@@@std@@IAEXH@Z
?pbase@?$basic_streambuf@_WU?$char_traits@_W@std@@@std@@IBEPA_WXZ
?pbase@?$basic_streambuf@GU?$char_traits@G@std@@@std@@IBEPAGXZ
?pbase@?$basic_streambuf@DU?$char_traits@D@std@@@std@@IBEPADXZ
?pbackfail@?$basic_streambuf@_WU?$char_traits@_W@std@@@std@@MAEGG@Z
?pbackfail@?$basic_streambuf@GU?$char_traits@G@std@@@std@@MAEGG@Z
?pbackfail@?$basic_streambuf@DU?$char_traits@D@std@@@std@@MAEHH@Z
?overflow@?$basic_streambuf@_WU?$char_traits@_W@std@@@std@@MAEGG@Z
?overflow@?$basic_streambuf@GU?$char_traits@G@std@@@std@@MAEGG@Z
?overflow@?$basic_streambuf@DU?$char_traits@D@std@@@std@@MAEHH@Z
?out@?$codecvt@_WDH@std@@QBEHAAHPB_W1AAPB_WPAD3AAPAD@Z
?out@?$codecvt@GDH@std@@QBEHAAHPBG1AAPBGPAD3AAPAD@Z
?out@?$codecvt@DDH@std@@QBEHAAHPBD1AAPBDPAD3AAPAD@Z
?osfx@?$basic_ostream@_WU?$char_traits@_W@std@@@std@@QAEXXZ
?osfx@?$basic_ostream@GU?$char_traits@G@std@@@std@@QAEXXZ
?osfx@?$basic_ostream@DU?$char_traits@D@std@@@std@@QAEXXZ
?opfx@?$basic_ostream@_WU?$char_traits@_W@std@@@std@@QAE_NXZ
?opfx@?$basic_ostream@GU?$char_traits@G@std@@@std@@QAE_NXZ
?opfx@?$basic_ostream@DU?$char_traits@D@std@@@std@@QAE_NXZ
?narrow@?$ctype@_W@std@@QBEPB_WPB_W0DPAD@Z
?narrow@?$ctype@_W@std@@QBED_WD@Z
?narrow@?$ctype@G@std@@QBEPBGPBG0DPAD@Z
?narrow@?$ctype@G@std@@QBEDGD@Z
?narrow@?$ctype@D@std@@QBEPBDPBD0DPAD@Z
?narrow@?$ctype@D@std@@QBEDDD@Z
?narrow@?$basic_ios@_WU?$char_traits@_W@std@@@std@@QBED_WD@Z
?narrow@?$basic_ios@GU?$char_traits@G@std@@@std@@QBEDGD@Z
?narrow@?$basic_ios@DU?$char_traits@D@std@@@std@@QBEDDD@Z
?move@?$basic_ios@_WU?$char_traits@_W@std@@@std@@QAEXAAV12@@Z
?move@?$basic_ios@_WU?$char_traits@_W@std@@@std@@QAEX$$QAV12@@Z
?move@?$basic_ios@GU?$char_traits@G@std@@@std@@QAEXAAV12@@Z
?move@?$basic_ios@GU?$char_traits@G@std@@@std@@QAEX$$QAV12@@Z
?move@?$basic_ios@DU?$char_traits@D@std@@@std@@QAEXAAV12@@Z
?move@?$basic_ios@DU?$char_traits@D@std@@@std@@QAEX$$QAV12@@Z
?max_length@codecvt_base@std@@QBEHXZ
?length@?$codecvt@_WDH@std@@QBEHAAHPBD1I@Z
?length@?$codecvt@GDH@std@@QBEHAAHPBD1I@Z
?length@?$codecvt@DDH@std@@QBEHAAHPBD1I@Z
?iword@ios_base@std@@QAEAAJH@Z
?isfx@?$basic_istream@_WU?$char_traits@_W@std@@@std@@QAEXXZ
?isfx@?$basic_istream@GU?$char_traits@G@std@@@std@@QAEXXZ
?isfx@?$basic_istream@DU?$char_traits@D@std@@@std@@QAEXXZ
?is_current_task_group_canceling@Concurrency@@YA_NXZ
?is@?$ctype@_W@std@@QBE_NF_W@Z
?is@?$ctype@_W@std@@QBEPB_WPB_W0PAF@Z
?is@?$ctype@G@std@@QBE_NFG@Z
?is@?$ctype@G@std@@QBEPBGPBG0PAF@Z
?is@?$ctype@D@std@@QBE_NFD@Z
?is@?$ctype@D@std@@QBEPBDPBD0PAF@Z
?ipfx@?$basic_istream@_WU?$char_traits@_W@std@@@std@@QAE_N_N@Z
?ipfx@?$basic_istream@GU?$char_traits@G@std@@@std@@QAE_N_N@Z
?ipfx@?$basic_istream@DU?$char_traits@D@std@@@std@@QAE_N_N@Z
?intl@?$moneypunct@_W$0A@@std@@2_NB
?intl@?$moneypunct@_W$00@std@@2_NB
?intl@?$moneypunct@G$0A@@std@@2_NB
?intl@?$moneypunct@G$00@std@@2_NB
?intl@?$moneypunct@D$0A@@std@@2_NB
?intl@?$moneypunct@D$00@std@@2_NB
?init@?$basic_ios@_WU?$char_traits@_W@std@@@std@@IAEXPAV?$basic_streambuf@_WU?$char_traits@_W@std@@@2@_N@Z
?init@?$basic_ios@GU?$char_traits@G@std@@@std@@IAEXPAV?$basic_streambuf@GU?$char_traits@G@std@@@2@_N@Z
?init@?$basic_ios@DU?$char_traits@D@std@@@std@@IAEXPAV?$basic_streambuf@DU?$char_traits@D@std@@@2@_N@Z
?in_avail@?$basic_streambuf@_WU?$char_traits@_W@std@@@std@@QAE_JXZ
?in_avail@?$basic_streambuf@GU?$char_traits@G@std@@@std@@QAE_JXZ
?in_avail@?$basic_streambuf@DU?$char_traits@D@std@@@std@@QAE_JXZ
?in@?$codecvt@_WDH@std@@QBEHAAHPBD1AAPBDPA_W3AAPA_W@Z
?in@?$codecvt@GDH@std@@QBEHAAHPBD1AAPBDPAG3AAPAG@Z
?in@?$codecvt@DDH@std@@QBEHAAHPBD1AAPBDPAD3AAPAD@Z
?imbue@ios_base@std@@QAE?AVlocale@2@ABV32@@Z
?imbue@?$basic_streambuf@_WU?$char_traits@_W@std@@@std@@MAEXABVlocale@2@@Z
?imbue@?$basic_streambuf@GU?$char_traits@G@std@@@std@@MAEXABVlocale@2@@Z
?imbue@?$basic_streambuf@DU?$char_traits@D@std@@@std@@MAEXABVlocale@2@@Z
?imbue@?$basic_ios@_WU?$char_traits@_W@std@@@std@@QAE?AVlocale@2@ABV32@@Z
?imbue@?$basic_ios@GU?$char_traits@G@std@@@std@@QAE?AVlocale@2@ABV32@@Z
?imbue@?$basic_ios@DU?$char_traits@D@std@@@std@@QAE?AVlocale@2@ABV32@@Z
?ignore@?$basic_istream@_WU?$char_traits@_W@std@@@std@@QAEAAV12@_JG@Z
?ignore@?$basic_istream@GU?$char_traits@G@std@@@std@@QAEAAV12@_JG@Z
?ignore@?$basic_istream@DU?$char_traits@D@std@@@std@@QAEAAV12@_JH@Z
?gptr@?$basic_streambuf@_WU?$char_traits@_W@std@@@std@@IBEPA_WXZ
?gptr@?$basic_streambuf@GU?$char_traits@G@std@@@std@@IBEPAGXZ
?gptr@?$basic_streambuf@DU?$char_traits@D@std@@@std@@IBEPADXZ
?good@ios_base@std@@QBE_NXZ
?global@locale@std@@SA?AV12@ABV12@@Z
?getloc@ios_base@std@@QBE?AVlocale@2@XZ
?getloc@?$basic_streambuf@_WU?$char_traits@_W@std@@@std@@QBE?AVlocale@2@XZ
?getloc@?$basic_streambuf@GU?$char_traits@G@std@@@std@@QBE?AVlocale@2@XZ
?getloc@?$basic_streambuf@DU?$char_traits@D@std@@@std@@QBE?AVlocale@2@XZ
?getline@?$basic_istream@_WU?$char_traits@_W@std@@@std@@QAEAAV12@PA_W_J_W@Z
?getline@?$basic_istream@_WU?$char_traits@_W@std@@@std@@QAEAAV12@PA_W_J@Z
?getline@?$basic_istream@GU?$char_traits@G@std@@@std@@QAEAAV12@PAG_JG@Z
?getline@?$basic_istream@GU?$char_traits@G@std@@@std@@QAEAAV12@PAG_J@Z
?getline@?$basic_istream@DU?$char_traits@D@std@@@std@@QAEAAV12@PAD_JD@Z
?getline@?$basic_istream@DU?$char_traits@D@std@@@std@@QAEAAV12@PAD_J@Z
?get_year@?$time_get@_WV?$istreambuf_iterator@_WU?$char_traits@_W@std@@@std@@@std@@QBE?AV?$istreambuf_iterator@_WU?$char_traits@_W@std@@@2@V32@0AAVios_base@2@AAHPAUtm@@@Z
?get_year@?$time_get@GV?$istreambuf_iterator@GU?$char_traits@G@std@@@std@@@std@@QBE?AV?$istreambuf_iterator@GU?$char_traits@G@std@@@2@V32@0AAVios_base@2@AAHPAUtm@@@Z
?get_year@?$time_get@DV?$istreambuf_iterator@DU?$char_traits@D@std@@@std@@@std@@QBE?AV?$istreambuf_iterator@DU?$char_traits@D@std@@@2@V32@0AAVios_base@2@AAHPAUtm@@@Z
?get_weekday@?$time_get@_WV?$istreambuf_iterator@_WU?$char_traits@_W@std@@@std@@@std@@QBE?AV?$istreambuf_iterator@_WU?$char_traits@_W@std@@@2@V32@0AAVios_base@2@AAHPAUtm@@@Z
?get_weekday@?$time_get@GV?$istreambuf_iterator@GU?$char_traits@G@std@@@std@@@std@@QBE?AV?$istreambuf_iterator@GU?$char_traits@G@std@@@2@V32@0AAVios_base@2@AAHPAUtm@@@Z
?get_weekday@?$time_get@DV?$istreambuf_iterator@DU?$char_traits@D@std@@@std@@@std@@QBE?AV?$istreambuf_iterator@DU?$char_traits@D@std@@@2@V32@0AAVios_base@2@AAHPAUtm@@@Z
?get_time@?$time_get@_WV?$istreambuf_iterator@_WU?$char_traits@_W@std@@@std@@@std@@QBE?AV?$istreambuf_iterator@_WU?$char_traits@_W@std@@@2@V32@0AAVios_base@2@AAHPAUtm@@@Z
?get_time@?$time_get@GV?$istreambuf_iterator@GU?$char_traits@G@std@@@std@@@std@@QBE?AV?$istreambuf_iterator@GU?$char_traits@G@std@@@2@V32@0AAVios_base@2@AAHPAUtm@@@Z
?get_time@?$time_get@DV?$istreambuf_iterator@DU?$char_traits@D@std@@@std@@@std@@QBE?AV?$istreambuf_iterator@DU?$char_traits@D@std@@@2@V32@0AAVios_base@2@AAHPAUtm@@@Z
?get_new_handler@std@@YAP6AXXZXZ
?get_monthname@?$time_get@_WV?$istreambuf_iterator@_WU?$char_traits@_W@std@@@std@@@std@@QBE?AV?$istreambuf_iterator@_WU?$char_traits@_W@std@@@2@V32@0AAVios_base@2@AAHPAUtm@@@Z
?get_monthname@?$time_get@GV?$istreambuf_iterator@GU?$char_traits@G@std@@@std@@@std@@QBE?AV?$istreambuf_iterator@GU?$char_traits@G@std@@@2@V32@0AAVios_base@2@AAHPAUtm@@@Z
?get_monthname@?$time_get@DV?$istreambuf_iterator@DU?$char_traits@D@std@@@std@@@std@@QBE?AV?$istreambuf_iterator@DU?$char_traits@D@std@@@2@V32@0AAVios_base@2@AAHPAUtm@@@Z
?get_date@?$time_get@_WV?$istreambuf_iterator@_WU?$char_traits@_W@std@@@std@@@std@@QBE?AV?$istreambuf_iterator@_WU?$char_traits@_W@std@@@2@V32@0AAVios_base@2@AAHPAUtm@@@Z
?get_date@?$time_get@GV?$istreambuf_iterator@GU?$char_traits@G@std@@@std@@@std@@QBE?AV?$istreambuf_iterator@GU?$char_traits@G@std@@@2@V32@0AAVios_base@2@AAHPAUtm@@@Z
?get_date@?$time_get@DV?$istreambuf_iterator@DU?$char_traits@D@std@@@std@@@std@@QBE?AV?$istreambuf_iterator@DU?$char_traits@D@std@@@2@V32@0AAVios_base@2@AAHPAUtm@@@Z
?get@?$time_get@_WV?$istreambuf_iterator@_WU?$char_traits@_W@std@@@std@@@std@@QBE?AV?$istreambuf_iterator@_WU?$char_traits@_W@std@@@2@V32@0AAVios_base@2@AAHPAUtm@@PB_W4@Z
?get@?$time_get@_WV?$istreambuf_iterator@_WU?$char_traits@_W@std@@@std@@@std@@QBE?AV?$istreambuf_iterator@_WU?$char_traits@_W@std@@@2@V32@0AAVios_base@2@AAHPAUtm@@DD@Z
?get@?$time_get@GV?$istreambuf_iterator@GU?$char_traits@G@std@@@std@@@std@@QBE?AV?$istreambuf_iterator@GU?$char_traits@G@std@@@2@V32@0AAVios_base@2@AAHPAUtm@@PBG4@Z
?get@?$time_get@GV?$istreambuf_iterator@GU?$char_traits@G@std@@@std@@@std@@QBE?AV?$istreambuf_iterator@GU?$char_traits@G@std@@@2@V32@0AAVios_base@2@AAHPAUtm@@DD@Z
?get@?$time_get@DV?$istreambuf_iterator@DU?$char_traits@D@std@@@std@@@std@@QBE?AV?$istreambuf_iterator@DU?$char_traits@D@std@@@2@V32@0AAVios_base@2@AAHPAUtm@@PBD4@Z
?get@?$time_get@DV?$istreambuf_iterator@DU?$char_traits@D@std@@@std@@@std@@QBE?AV?$istreambuf_iterator@DU?$char_traits@D@std@@@2@V32@0AAVios_base@2@AAHPAUtm@@DD@Z
?get@?$num_get@_WV?$istreambuf_iterator@_WU?$char_traits@_W@std@@@std@@@std@@QBE?AV?$istreambuf_iterator@_WU?$char_traits@_W@std@@@2@V32@0AAVios_base@2@AAHAA_N@Z
?get@?$num_get@_WV?$istreambuf_iterator@_WU?$char_traits@_W@std@@@std@@@std@@QBE?AV?$istreambuf_iterator@_WU?$char_traits@_W@std@@@2@V32@0AAVios_base@2@AAHAA_K@Z
?get@?$num_get@_WV?$istreambuf_iterator@_WU?$char_traits@_W@std@@@std@@@std@@QBE?AV?$istreambuf_iterator@_WU?$char_traits@_W@std@@@2@V32@0AAVios_base@2@AAHAA_J@Z
?get@?$num_get@_WV?$istreambuf_iterator@_WU?$char_traits@_W@std@@@std@@@std@@QBE?AV?$istreambuf_iterator@_WU?$char_traits@_W@std@@@2@V32@0AAVios_base@2@AAHAAPAX@Z
?get@?$num_get@_WV?$istreambuf_iterator@_WU?$char_traits@_W@std@@@std@@@std@@QBE?AV?$istreambuf_iterator@_WU?$char_traits@_W@std@@@2@V32@0AAVios_base@2@AAHAAO@Z
?get@?$num_get@_WV?$istreambuf_iterator@_WU?$char_traits@_W@std@@@std@@@std@@QBE?AV?$istreambuf_iterator@_WU?$char_traits@_W@std@@@2@V32@0AAVios_base@2@AAHAAN@Z
?get@?$num_get@_WV?$istreambuf_iterator@_WU?$char_traits@_W@std@@@std@@@std@@QBE?AV?$istreambuf_iterator@_WU?$char_traits@_W@std@@@2@V32@0AAVios_base@2@AAHAAM@Z
?get@?$num_get@_WV?$istreambuf_iterator@_WU?$char_traits@_W@std@@@std@@@std@@QBE?AV?$istreambuf_iterator@_WU?$char_traits@_W@std@@@2@V32@0AAVios_base@2@AAHAAK@Z
?get@?$num_get@_WV?$istreambuf_iterator@_WU?$char_traits@_W@std@@@std@@@std@@QBE?AV?$istreambuf_iterator@_WU?$char_traits@_W@std@@@2@V32@0AAVios_base@2@AAHAAJ@Z
?get@?$num_get@_WV?$istreambuf_iterator@_WU?$char_traits@_W@std@@@std@@@std@@QBE?AV?$istreambuf_iterator@_WU?$char_traits@_W@std@@@2@V32@0AAVios_base@2@AAHAAI@Z
?get@?$num_get@_WV?$istreambuf_iterator@_WU?$char_traits@_W@std@@@std@@@std@@QBE?AV?$istreambuf_iterator@_WU?$char_traits@_W@std@@@2@V32@0AAVios_base@2@AAHAAG@Z
?get@?$num_get@GV?$istreambuf_iterator@GU?$char_traits@G@std@@@std@@@std@@QBE?AV?$istreambuf_iterator@GU?$char_traits@G@std@@@2@V32@0AAVios_base@2@AAHAA_N@Z
?get@?$num_get@GV?$istreambuf_iterator@GU?$char_traits@G@std@@@std@@@std@@QBE?AV?$istreambuf_iterator@GU?$char_traits@G@std@@@2@V32@0AAVios_base@2@AAHAA_K@Z
?get@?$num_get@GV?$istreambuf_iterator@GU?$char_traits@G@std@@@std@@@std@@QBE?AV?$istreambuf_iterator@GU?$char_traits@G@std@@@2@V32@0AAVios_base@2@AAHAA_J@Z
?get@?$num_get@GV?$istreambuf_iterator@GU?$char_traits@G@std@@@std@@@std@@QBE?AV?$istreambuf_iterator@GU?$char_traits@G@std@@@2@V32@0AAVios_base@2@AAHAAPAX@Z
?get@?$num_get@GV?$istreambuf_iterator@GU?$char_traits@G@std@@@std@@@std@@QBE?AV?$istreambuf_iterator@GU?$char_traits@G@std@@@2@V32@0AAVios_base@2@AAHAAO@Z
?get@?$num_get@GV?$istreambuf_iterator@GU?$char_traits@G@std@@@std@@@std@@QBE?AV?$istreambuf_iterator@GU?$char_traits@G@std@@@2@V32@0AAVios_base@2@AAHAAN@Z
?get@?$num_get@GV?$istreambuf_iterator@GU?$char_traits@G@std@@@std@@@std@@QBE?AV?$istreambuf_iterator@GU?$char_traits@G@std@@@2@V32@0AAVios_base@2@AAHAAM@Z
?get@?$num_get@GV?$istreambuf_iterator@GU?$char_traits@G@std@@@std@@@std@@QBE?AV?$istreambuf_iterator@GU?$char_traits@G@std@@@2@V32@0AAVios_base@2@AAHAAK@Z
?get@?$num_get@GV?$istreambuf_iterator@GU?$char_traits@G@std@@@std@@@std@@QBE?AV?$istreambuf_iterator@GU?$char_traits@G@std@@@2@V32@0AAVios_base@2@AAHAAJ@Z
?get@?$num_get@GV?$istreambuf_iterator@GU?$char_traits@G@std@@@std@@@std@@QBE?AV?$istreambuf_iterator@GU?$char_traits@G@std@@@2@V32@0AAVios_base@2@AAHAAI@Z
?get@?$num_get@GV?$istreambuf_iterator@GU?$char_traits@G@std@@@std@@@std@@QBE?AV?$istreambuf_iterator@GU?$char_traits@G@std@@@2@V32@0AAVios_base@2@AAHAAG@Z
?get@?$num_get@DV?$istreambuf_iterator@DU?$char_traits@D@std@@@std@@@std@@QBE?AV?$istreambuf_iterator@DU?$char_traits@D@std@@@2@V32@0AAVios_base@2@AAHAA_N@Z
?get@?$num_get@DV?$istreambuf_iterator@DU?$char_traits@D@std@@@std@@@std@@QBE?AV?$istreambuf_iterator@DU?$char_traits@D@std@@@2@V32@0AAVios_base@2@AAHAA_K@Z
?get@?$num_get@DV?$istreambuf_iterator@DU?$char_traits@D@std@@@std@@@std@@QBE?AV?$istreambuf_iterator@DU?$char_traits@D@std@@@2@V32@0AAVios_base@2@AAHAA_J@Z
?get@?$num_get@DV?$istreambuf_iterator@DU?$char_traits@D@std@@@std@@@std@@QBE?AV?$istreambuf_iterator@DU?$char_traits@D@std@@@2@V32@0AAVios_base@2@AAHAAPAX@Z
?get@?$num_get@DV?$istreambuf_iterator@DU?$char_traits@D@std@@@std@@@std@@QBE?AV?$istreambuf_iterator@DU?$char_traits@D@std@@@2@V32@0AAVios_base@2@AAHAAO@Z
?get@?$num_get@DV?$istreambuf_iterator@DU?$char_traits@D@std@@@std@@@std@@QBE?AV?$istreambuf_iterator@DU?$char_traits@D@std@@@2@V32@0AAVios_base@2@AAHAAN@Z
?get@?$num_get@DV?$istreambuf_iterator@DU?$char_traits@D@std@@@std@@@std@@QBE?AV?$istreambuf_iterator@DU?$char_traits@D@std@@@2@V32@0AAVios_base@2@AAHAAM@Z
?get@?$num_get@DV?$istreambuf_iterator@DU?$char_traits@D@std@@@std@@@std@@QBE?AV?$istreambuf_iterator@DU?$char_traits@D@std@@@2@V32@0AAVios_base@2@AAHAAK@Z
?get@?$num_get@DV?$istreambuf_iterator@DU?$char_traits@D@std@@@std@@@std@@QBE?AV?$istreambuf_iterator@DU?$char_traits@D@std@@@2@V32@0AAVios_base@2@AAHAAJ@Z
?get@?$num_get@DV?$istreambuf_iterator@DU?$char_traits@D@std@@@std@@@std@@QBE?AV?$istreambuf_iterator@DU?$char_traits@D@std@@@2@V32@0AAVios_base@2@AAHAAI@Z
?get@?$num_get@DV?$istreambuf_iterator@DU?$char_traits@D@std@@@std@@@std@@QBE?AV?$istreambuf_iterator@DU?$char_traits@D@std@@@2@V32@0AAVios_base@2@AAHAAG@Z
?get@?$basic_istream@_WU?$char_traits@_W@std@@@std@@QAEGXZ
?get@?$basic_istream@_WU?$char_traits@_W@std@@@std@@QAEAAV12@PA_W_J_W@Z
?get@?$basic_istream@_WU?$char_traits@_W@std@@@std@@QAEAAV12@PA_W_J@Z
?get@?$basic_istream@_WU?$char_traits@_W@std@@@std@@QAEAAV12@AA_W@Z
?get@?$basic_istream@_WU?$char_traits@_W@std@@@std@@QAEAAV12@AAV?$basic_streambuf@_WU?$char_traits@_W@std@@@2@_W@Z
?get@?$basic_istream@_WU?$char_traits@_W@std@@@std@@QAEAAV12@AAV?$basic_streambuf@_WU?$char_traits@_W@std@@@2@@Z
?get@?$basic_istream@GU?$char_traits@G@std@@@std@@QAEGXZ
?get@?$basic_istream@GU?$char_traits@G@std@@@std@@QAEAAV12@PAG_JG@Z
?get@?$basic_istream@GU?$char_traits@G@std@@@std@@QAEAAV12@PAG_J@Z
?get@?$basic_istream@GU?$char_traits@G@std@@@std@@QAEAAV12@AAV?$basic_streambuf@GU?$char_traits@G@std@@@2@G@Z
?get@?$basic_istream@GU?$char_traits@G@std@@@std@@QAEAAV12@AAV?$basic_streambuf@GU?$char_traits@G@std@@@2@@Z
?get@?$basic_istream@GU?$char_traits@G@std@@@std@@QAEAAV12@AAG@Z
?get@?$basic_istream@DU?$char_traits@D@std@@@std@@QAEHXZ
?get@?$basic_istream@DU?$char_traits@D@std@@@std@@QAEAAV12@PAD_JD@Z
?get@?$basic_istream@DU?$char_traits@D@std@@@std@@QAEAAV12@PAD_J@Z
?get@?$basic_istream@DU?$char_traits@D@std@@@std@@QAEAAV12@AAV?$basic_streambuf@DU?$char_traits@D@std@@@2@D@Z
?get@?$basic_istream@DU?$char_traits@D@std@@@std@@QAEAAV12@AAV?$basic_streambuf@DU?$char_traits@D@std@@@2@@Z
?get@?$basic_istream@DU?$char_traits@D@std@@@std@@QAEAAV12@AAD@Z
?gcount@?$basic_istream@_WU?$char_traits@_W@std@@@std@@QBE_JXZ
?gcount@?$basic_istream@GU?$char_traits@G@std@@@std@@QBE_JXZ
?gcount@?$basic_istream@DU?$char_traits@D@std@@@std@@QBE_JXZ
?gbump@?$basic_streambuf@_WU?$char_traits@_W@std@@@std@@IAEXH@Z
?gbump@?$basic_streambuf@GU?$char_traits@G@std@@@std@@IAEXH@Z
?gbump@?$basic_streambuf@DU?$char_traits@D@std@@@std@@IAEXH@Z
?flush@?$basic_ostream@_WU?$char_traits@_W@std@@@std@@QAEAAV12@XZ
?flush@?$basic_ostream@GU?$char_traits@G@std@@@std@@QAEAAV12@XZ
?flush@?$basic_ostream@DU?$char_traits@D@std@@@std@@QAEAAV12@XZ
?flags@ios_base@std@@QBEHXZ
?flags@ios_base@std@@QAEHH@Z
?fill@?$basic_ios@_WU?$char_traits@_W@std@@@std@@QBE_WXZ
?fill@?$basic_ios@_WU?$char_traits@_W@std@@@std@@QAE_W_W@Z
?fill@?$basic_ios@GU?$char_traits@G@std@@@std@@QBEGXZ
?fill@?$basic_ios@GU?$char_traits@G@std@@@std@@QAEGG@Z
?fill@?$basic_ios@DU?$char_traits@D@std@@@std@@QBEDXZ
?fill@?$basic_ios@DU?$char_traits@D@std@@@std@@QAEDD@Z
?fail@ios_base@std@@QBE_NXZ
?exceptions@ios_base@std@@QBEHXZ
?exceptions@ios_base@std@@QAEXI@Z
?exceptions@ios_base@std@@QAEXH@Z
?epptr@?$basic_streambuf@_WU?$char_traits@_W@std@@@std@@IBEPA_WXZ
?epptr@?$basic_streambuf@GU?$char_traits@G@std@@@std@@IBEPAGXZ
?epptr@?$basic_streambuf@DU?$char_traits@D@std@@@std@@IBEPADXZ
?eof@ios_base@std@@QBE_NXZ
?encoding@codecvt_base@std@@QBEHXZ
?empty@locale@std@@SA?AV12@XZ
?empty@?$_Yarn@D@std@@QBE_NXZ
?egptr@?$basic_streambuf@_WU?$char_traits@_W@std@@@std@@IBEPA_WXZ
?egptr@?$basic_streambuf@GU?$char_traits@G@std@@@std@@IBEPAGXZ
?egptr@?$basic_streambuf@DU?$char_traits@D@std@@@std@@IBEPADXZ
?eback@?$basic_streambuf@_WU?$char_traits@_W@std@@@std@@IBEPA_WXZ
?eback@?$basic_streambuf@GU?$char_traits@G@std@@@std@@IBEPAGXZ
?eback@?$basic_streambuf@DU?$char_traits@D@std@@@std@@IBEPADXZ
?done@agent@Concurrency@@IAE_NXZ
?do_widen@?$ctype@_W@std@@MBE_WD@Z
?do_widen@?$ctype@_W@std@@MBEPBDPBD0PA_W@Z
?do_widen@?$ctype@G@std@@MBEPBDPBD0PAG@Z
?do_widen@?$ctype@G@std@@MBEGD@Z
?do_widen@?$ctype@D@std@@MBEPBDPBD0PAD@Z
?do_widen@?$ctype@D@std@@MBEDD@Z
?do_unshift@?$codecvt@_WDH@std@@MBEHAAHPAD1AAPAD@Z
?do_unshift@?$codecvt@GDH@std@@MBEHAAHPAD1AAPAD@Z
?do_unshift@?$codecvt@DDH@std@@MBEHAAHPAD1AAPAD@Z
?do_toupper@?$ctype@_W@std@@MBE_W_W@Z
?do_toupper@?$ctype@_W@std@@MBEPB_WPA_WPB_W@Z
?do_toupper@?$ctype@G@std@@MBEPBGPAGPBG@Z
?do_toupper@?$ctype@G@std@@MBEGG@Z
?do_toupper@?$ctype@D@std@@MBEPBDPADPBD@Z
?do_toupper@?$ctype@D@std@@MBEDD@Z
?do_tolower@?$ctype@_W@std@@MBE_W_W@Z
?do_tolower@?$ctype@_W@std@@MBEPB_WPA_WPB_W@Z
?do_tolower@?$ctype@G@std@@MBEPBGPAGPBG@Z
?do_tolower@?$ctype@G@std@@MBEGG@Z
?do_tolower@?$ctype@D@std@@MBEPBDPADPBD@Z
?do_tolower@?$ctype@D@std@@MBEDD@Z
?do_scan_not@?$ctype@_W@std@@MBEPB_WFPB_W0@Z
?do_scan_not@?$ctype@G@std@@MBEPBGFPBG0@Z
?do_scan_is@?$ctype@_W@std@@MBEPB_WFPB_W0@Z
?do_scan_is@?$ctype@G@std@@MBEPBGFPBG0@Z
?do_put@?$time_put@_WV?$ostreambuf_iterator@_WU?$char_traits@_W@std@@@std@@@std@@MBE?AV?$ostreambuf_iterator@_WU?$char_traits@_W@std@@@2@V32@AAVios_base@2@_WPBUtm@@DD@Z
?do_put@?$time_put@GV?$ostreambuf_iterator@GU?$char_traits@G@std@@@std@@@std@@MBE?AV?$ostreambuf_iterator@GU?$char_traits@G@std@@@2@V32@AAVios_base@2@GPBUtm@@DD@Z
?do_put@?$time_put@DV?$ostreambuf_iterator@DU?$char_traits@D@std@@@std@@@std@@MBE?AV?$ostreambuf_iterator@DU?$char_traits@D@std@@@2@V32@AAVios_base@2@DPBUtm@@DD@Z
?do_put@?$num_put@_WV?$ostreambuf_iterator@_WU?$char_traits@_W@std@@@std@@@std@@MBE?AV?$ostreambuf_iterator@_WU?$char_traits@_W@std@@@2@V32@AAVios_base@2@_W_N@Z
?do_put@?$num_put@_WV?$ostreambuf_iterator@_WU?$char_traits@_W@std@@@std@@@std@@MBE?AV?$ostreambuf_iterator@_WU?$char_traits@_W@std@@@2@V32@AAVios_base@2@_W_K@Z
?do_put@?$num_put@_WV?$ostreambuf_iterator@_WU?$char_traits@_W@std@@@std@@@std@@MBE?AV?$ostreambuf_iterator@_WU?$char_traits@_W@std@@@2@V32@AAVios_base@2@_W_J@Z
?do_put@?$num_put@_WV?$ostreambuf_iterator@_WU?$char_traits@_W@std@@@std@@@std@@MBE?AV?$ostreambuf_iterator@_WU?$char_traits@_W@std@@@2@V32@AAVios_base@2@_WPBX@Z
?do_put@?$num_put@_WV?$ostreambuf_iterator@_WU?$char_traits@_W@std@@@std@@@std@@MBE?AV?$ostreambuf_iterator@_WU?$char_traits@_W@std@@@2@V32@AAVios_base@2@_WO@Z
?do_put@?$num_put@_WV?$ostreambuf_iterator@_WU?$char_traits@_W@std@@@std@@@std@@MBE?AV?$ostreambuf_iterator@_WU?$char_traits@_W@std@@@2@V32@AAVios_base@2@_WN@Z
?do_put@?$num_put@_WV?$ostreambuf_iterator@_WU?$char_traits@_W@std@@@std@@@std@@MBE?AV?$ostreambuf_iterator@_WU?$char_traits@_W@std@@@2@V32@AAVios_base@2@_WK@Z
?do_put@?$num_put@_WV?$ostreambuf_iterator@_WU?$char_traits@_W@std@@@std@@@std@@MBE?AV?$ostreambuf_iterator@_WU?$char_traits@_W@std@@@2@V32@AAVios_base@2@_WJ@Z
?do_put@?$num_put@GV?$ostreambuf_iterator@GU?$char_traits@G@std@@@std@@@std@@MBE?AV?$ostreambuf_iterator@GU?$char_traits@G@std@@@2@V32@AAVios_base@2@G_N@Z
?do_put@?$num_put@GV?$ostreambuf_iterator@GU?$char_traits@G@std@@@std@@@std@@MBE?AV?$ostreambuf_iterator@GU?$char_traits@G@std@@@2@V32@AAVios_base@2@G_K@Z
?do_put@?$num_put@GV?$ostreambuf_iterator@GU?$char_traits@G@std@@@std@@@std@@MBE?AV?$ostreambuf_iterator@GU?$char_traits@G@std@@@2@V32@AAVios_base@2@G_J@Z
?do_put@?$num_put@GV?$ostreambuf_iterator@GU?$char_traits@G@std@@@std@@@std@@MBE?AV?$ostreambuf_iterator@GU?$char_traits@G@std@@@2@V32@AAVios_base@2@GPBX@Z
?do_put@?$num_put@GV?$ostreambuf_iterator@GU?$char_traits@G@std@@@std@@@std@@MBE?AV?$ostreambuf_iterator@GU?$char_traits@G@std@@@2@V32@AAVios_base@2@GO@Z
?do_put@?$num_put@GV?$ostreambuf_iterator@GU?$char_traits@G@std@@@std@@@std@@MBE?AV?$ostreambuf_iterator@GU?$char_traits@G@std@@@2@V32@AAVios_base@2@GN@Z
?do_put@?$num_put@GV?$ostreambuf_iterator@GU?$char_traits@G@std@@@std@@@std@@MBE?AV?$ostreambuf_iterator@GU?$char_traits@G@std@@@2@V32@AAVios_base@2@GK@Z
?do_put@?$num_put@GV?$ostreambuf_iterator@GU?$char_traits@G@std@@@std@@@std@@MBE?AV?$ostreambuf_iterator@GU?$char_traits@G@std@@@2@V32@AAVios_base@2@GJ@Z
?do_put@?$num_put@DV?$ostreambuf_iterator@DU?$char_traits@D@std@@@std@@@std@@MBE?AV?$ostreambuf_iterator@DU?$char_traits@D@std@@@2@V32@AAVios_base@2@D_N@Z
?do_put@?$num_put@DV?$ostreambuf_iterator@DU?$char_traits@D@std@@@std@@@std@@MBE?AV?$ostreambuf_iterator@DU?$char_traits@D@std@@@2@V32@AAVios_base@2@D_K@Z
?do_put@?$num_put@DV?$ostreambuf_iterator@DU?$char_traits@D@std@@@std@@@std@@MBE?AV?$ostreambuf_iterator@DU?$char_traits@D@std@@@2@V32@AAVios_base@2@D_J@Z
?do_put@?$num_put@DV?$ostreambuf_iterator@DU?$char_traits@D@std@@@std@@@std@@MBE?AV?$ostreambuf_iterator@DU?$char_traits@D@std@@@2@V32@AAVios_base@2@DPBX@Z
?do_put@?$num_put@DV?$ostreambuf_iterator@DU?$char_traits@D@std@@@std@@@std@@MBE?AV?$ostreambuf_iterator@DU?$char_traits@D@std@@@2@V32@AAVios_base@2@DO@Z
?do_put@?$num_put@DV?$ostreambuf_iterator@DU?$char_traits@D@std@@@std@@@std@@MBE?AV?$ostreambuf_iterator@DU?$char_traits@D@std@@@2@V32@AAVios_base@2@DN@Z
?do_put@?$num_put@DV?$ostreambuf_iterator@DU?$char_traits@D@std@@@std@@@std@@MBE?AV?$ostreambuf_iterator@DU?$char_traits@D@std@@@2@V32@AAVios_base@2@DK@Z
?do_put@?$num_put@DV?$ostreambuf_iterator@DU?$char_traits@D@std@@@std@@@std@@MBE?AV?$ostreambuf_iterator@DU?$char_traits@D@std@@@2@V32@AAVios_base@2@DJ@Z
?do_out@?$codecvt@_WDH@std@@MBEHAAHPB_W1AAPB_WPAD3AAPAD@Z
?do_out@?$codecvt@GDH@std@@MBEHAAHPBG1AAPBGPAD3AAPAD@Z
?do_out@?$codecvt@DDH@std@@MBEHAAHPBD1AAPBDPAD3AAPAD@Z
?do_narrow@?$ctype@_W@std@@MBEPB_WPB_W0DPAD@Z
?do_narrow@?$ctype@_W@std@@MBED_WD@Z
?do_narrow@?$ctype@G@std@@MBEPBGPBG0DPAD@Z
?do_narrow@?$ctype@G@std@@MBEDGD@Z
?do_narrow@?$ctype@D@std@@MBEPBDPBD0DPAD@Z
?do_narrow@?$ctype@D@std@@MBEDDD@Z
?do_max_length@codecvt_base@std@@MBEHXZ
?do_max_length@?$codecvt@_WDH@std@@MBEHXZ
?do_max_length@?$codecvt@GDH@std@@MBEHXZ
?do_length@?$codecvt@_WDH@std@@MBEHAAHPBD1I@Z
?do_length@?$codecvt@GDH@std@@MBEHAAHPBD1I@Z
?do_length@?$codecvt@DDH@std@@MBEHAAHPBD1I@Z
?do_is@?$ctype@_W@std@@MBE_NF_W@Z
?do_is@?$ctype@_W@std@@MBEPB_WPB_W0PAF@Z
?do_is@?$ctype@G@std@@MBE_NFG@Z
?do_is@?$ctype@G@std@@MBEPBGPBG0PAF@Z
?do_in@?$codecvt@_WDH@std@@MBEHAAHPBD1AAPBDPA_W3AAPA_W@Z
?do_in@?$codecvt@GDH@std@@MBEHAAHPBD1AAPBDPAG3AAPAG@Z
?do_in@?$codecvt@DDH@std@@MBEHAAHPBD1AAPBDPAD3AAPAD@Z
?do_get_year@?$time_get@_WV?$istreambuf_iterator@_WU?$char_traits@_W@std@@@std@@@std@@MBE?AV?$istreambuf_iterator@_WU?$char_traits@_W@std@@@2@V32@0AAVios_base@2@AAHPAUtm@@@Z
?do_get_year@?$time_get@GV?$istreambuf_iterator@GU?$char_traits@G@std@@@std@@@std@@MBE?AV?$istreambuf_iterator@GU?$char_traits@G@std@@@2@V32@0AAVios_base@2@AAHPAUtm@@@Z
?do_get_year@?$time_get@DV?$istreambuf_iterator@DU?$char_traits@D@std@@@std@@@std@@MBE?AV?$istreambuf_iterator@DU?$char_traits@D@std@@@2@V32@0AAVios_base@2@AAHPAUtm@@@Z
?do_get_weekday@?$time_get@_WV?$istreambuf_iterator@_WU?$char_traits@_W@std@@@std@@@std@@MBE?AV?$istreambuf_iterator@_WU?$char_traits@_W@std@@@2@V32@0AAVios_base@2@AAHPAUtm@@@Z
?do_get_weekday@?$time_get@GV?$istreambuf_iterator@GU?$char_traits@G@std@@@std@@@std@@MBE?AV?$istreambuf_iterator@GU?$char_traits@G@std@@@2@V32@0AAVios_base@2@AAHPAUtm@@@Z
?do_get_weekday@?$time_get@DV?$istreambuf_iterator@DU?$char_traits@D@std@@@std@@@std@@MBE?AV?$istreambuf_iterator@DU?$char_traits@D@std@@@2@V32@0AAVios_base@2@AAHPAUtm@@@Z
?do_get_time@?$time_get@_WV?$istreambuf_iterator@_WU?$char_traits@_W@std@@@std@@@std@@MBE?AV?$istreambuf_iterator@_WU?$char_traits@_W@std@@@2@V32@0AAVios_base@2@AAHPAUtm@@@Z
?do_get_time@?$time_get@GV?$istreambuf_iterator@GU?$char_traits@G@std@@@std@@@std@@MBE?AV?$istreambuf_iterator@GU?$char_traits@G@std@@@2@V32@0AAVios_base@2@AAHPAUtm@@@Z
?do_get_time@?$time_get@DV?$istreambuf_iterator@DU?$char_traits@D@std@@@std@@@std@@MBE?AV?$istreambuf_iterator@DU?$char_traits@D@std@@@2@V32@0AAVios_base@2@AAHPAUtm@@@Z
?do_get_monthname@?$time_get@_WV?$istreambuf_iterator@_WU?$char_traits@_W@std@@@std@@@std@@MBE?AV?$istreambuf_iterator@_WU?$char_traits@_W@std@@@2@V32@0AAVios_base@2@AAHPAUtm@@@Z
?do_get_monthname@?$time_get@GV?$istreambuf_iterator@GU?$char_traits@G@std@@@std@@@std@@MBE?AV?$istreambuf_iterator@GU?$char_traits@G@std@@@2@V32@0AAVios_base@2@AAHPAUtm@@@Z
?do_get_monthname@?$time_get@DV?$istreambuf_iterator@DU?$char_traits@D@std@@@std@@@std@@MBE?AV?$istreambuf_iterator@DU?$char_traits@D@std@@@2@V32@0AAVios_base@2@AAHPAUtm@@@Z
?do_get_date@?$time_get@_WV?$istreambuf_iterator@_WU?$char_traits@_W@std@@@std@@@std@@MBE?AV?$istreambuf_iterator@_WU?$char_traits@_W@std@@@2@V32@0AAVios_base@2@AAHPAUtm@@@Z
?do_get_date@?$time_get@GV?$istreambuf_iterator@GU?$char_traits@G@std@@@std@@@std@@MBE?AV?$istreambuf_iterator@GU?$char_traits@G@std@@@2@V32@0AAVios_base@2@AAHPAUtm@@@Z
?do_get_date@?$time_get@DV?$istreambuf_iterator@DU?$char_traits@D@std@@@std@@@std@@MBE?AV?$istreambuf_iterator@DU?$char_traits@D@std@@@2@V32@0AAVios_base@2@AAHPAUtm@@@Z
?do_get@?$time_get@_WV?$istreambuf_iterator@_WU?$char_traits@_W@std@@@std@@@std@@MBE?AV?$istreambuf_iterator@_WU?$char_traits@_W@std@@@2@V32@0AAVios_base@2@AAHPAUtm@@DD@Z
?do_get@?$time_get@GV?$istreambuf_iterator@GU?$char_traits@G@std@@@std@@@std@@MBE?AV?$istreambuf_iterator@GU?$char_traits@G@std@@@2@V32@0AAVios_base@2@AAHPAUtm@@DD@Z
?do_get@?$time_get@DV?$istreambuf_iterator@DU?$char_traits@D@std@@@std@@@std@@MBE?AV?$istreambuf_iterator@DU?$char_traits@D@std@@@2@V32@0AAVios_base@2@AAHPAUtm@@DD@Z
?do_get@?$num_get@_WV?$istreambuf_iterator@_WU?$char_traits@_W@std@@@std@@@std@@MBE?AV?$istreambuf_iterator@_WU?$char_traits@_W@std@@@2@V32@0AAVios_base@2@AAHAA_N@Z
?do_get@?$num_get@_WV?$istreambuf_iterator@_WU?$char_traits@_W@std@@@std@@@std@@MBE?AV?$istreambuf_iterator@_WU?$char_traits@_W@std@@@2@V32@0AAVios_base@2@AAHAA_K@Z
?do_get@?$num_get@_WV?$istreambuf_iterator@_WU?$char_traits@_W@std@@@std@@@std@@MBE?AV?$istreambuf_iterator@_WU?$char_traits@_W@std@@@2@V32@0AAVios_base@2@AAHAA_J@Z
?do_get@?$num_get@_WV?$istreambuf_iterator@_WU?$char_traits@_W@std@@@std@@@std@@MBE?AV?$istreambuf_iterator@_WU?$char_traits@_W@std@@@2@V32@0AAVios_base@2@AAHAAPAX@Z
?do_get@?$num_get@_WV?$istreambuf_iterator@_WU?$char_traits@_W@std@@@std@@@std@@MBE?AV?$istreambuf_iterator@_WU?$char_traits@_W@std@@@2@V32@0AAVios_base@2@AAHAAO@Z
?do_get@?$num_get@_WV?$istreambuf_iterator@_WU?$char_traits@_W@std@@@std@@@std@@MBE?AV?$istreambuf_iterator@_WU?$char_traits@_W@std@@@2@V32@0AAVios_base@2@AAHAAN@Z
?do_get@?$num_get@_WV?$istreambuf_iterator@_WU?$char_traits@_W@std@@@std@@@std@@MBE?AV?$istreambuf_iterator@_WU?$char_traits@_W@std@@@2@V32@0AAVios_base@2@AAHAAM@Z
?do_get@?$num_get@_WV?$istreambuf_iterator@_WU?$char_traits@_W@std@@@std@@@std@@MBE?AV?$istreambuf_iterator@_WU?$char_traits@_W@std@@@2@V32@0AAVios_base@2@AAHAAK@Z
?do_get@?$num_get@_WV?$istreambuf_iterator@_WU?$char_traits@_W@std@@@std@@@std@@MBE?AV?$istreambuf_iterator@_WU?$char_traits@_W@std@@@2@V32@0AAVios_base@2@AAHAAJ@Z
?do_get@?$num_get@_WV?$istreambuf_iterator@_WU?$char_traits@_W@std@@@std@@@std@@MBE?AV?$istreambuf_iterator@_WU?$char_traits@_W@std@@@2@V32@0AAVios_base@2@AAHAAI@Z
?do_get@?$num_get@_WV?$istreambuf_iterator@_WU?$char_traits@_W@std@@@std@@@std@@MBE?AV?$istreambuf_iterator@_WU?$char_traits@_W@std@@@2@V32@0AAVios_base@2@AAHAAG@Z
?do_get@?$num_get@GV?$istreambuf_iterator@GU?$char_traits@G@std@@@std@@@std@@MBE?AV?$istreambuf_iterator@GU?$char_traits@G@std@@@2@V32@0AAVios_base@2@AAHAA_N@Z
?do_get@?$num_get@GV?$istreambuf_iterator@GU?$char_traits@G@std@@@std@@@std@@MBE?AV?$istreambuf_iterator@GU?$char_traits@G@std@@@2@V32@0AAVios_base@2@AAHAA_K@Z
?do_get@?$num_get@GV?$istreambuf_iterator@GU?$char_traits@G@std@@@std@@@std@@MBE?AV?$istreambuf_iterator@GU?$char_traits@G@std@@@2@V32@0AAVios_base@2@AAHAA_J@Z
?do_get@?$num_get@GV?$istreambuf_iterator@GU?$char_traits@G@std@@@std@@@std@@MBE?AV?$istreambuf_iterator@GU?$char_traits@G@std@@@2@V32@0AAVios_base@2@AAHAAPAX@Z
?do_get@?$num_get@GV?$istreambuf_iterator@GU?$char_traits@G@std@@@std@@@std@@MBE?AV?$istreambuf_iterator@GU?$char_traits@G@std@@@2@V32@0AAVios_base@2@AAHAAO@Z
?do_get@?$num_get@GV?$istreambuf_iterator@GU?$char_traits@G@std@@@std@@@std@@MBE?AV?$istreambuf_iterator@GU?$char_traits@G@std@@@2@V32@0AAVios_base@2@AAHAAN@Z
?do_get@?$num_get@GV?$istreambuf_iterator@GU?$char_traits@G@std@@@std@@@std@@MBE?AV?$istreambuf_iterator@GU?$char_traits@G@std@@@2@V32@0AAVios_base@2@AAHAAM@Z
?do_get@?$num_get@GV?$istreambuf_iterator@GU?$char_traits@G@std@@@std@@@std@@MBE?AV?$istreambuf_iterator@GU?$char_traits@G@std@@@2@V32@0AAVios_base@2@AAHAAK@Z
?do_get@?$num_get@GV?$istreambuf_iterator@GU?$char_traits@G@std@@@std@@@std@@MBE?AV?$istreambuf_iterator@GU?$char_traits@G@std@@@2@V32@0AAVios_base@2@AAHAAJ@Z
?do_get@?$num_get@GV?$istreambuf_iterator@GU?$char_traits@G@std@@@std@@@std@@MBE?AV?$istreambuf_iterator@GU?$char_traits@G@std@@@2@V32@0AAVios_base@2@AAHAAI@Z
?do_get@?$num_get@GV?$istreambuf_iterator@GU?$char_traits@G@std@@@std@@@std@@MBE?AV?$istreambuf_iterator@GU?$char_traits@G@std@@@2@V32@0AAVios_base@2@AAHAAG@Z
?do_get@?$num_get@DV?$istreambuf_iterator@DU?$char_traits@D@std@@@std@@@std@@MBE?AV?$istreambuf_iterator@DU?$char_traits@D@std@@@2@V32@0AAVios_base@2@AAHAA_N@Z
?do_get@?$num_get@DV?$istreambuf_iterator@DU?$char_traits@D@std@@@std@@@std@@MBE?AV?$istreambuf_iterator@DU?$char_traits@D@std@@@2@V32@0AAVios_base@2@AAHAA_K@Z
?do_get@?$num_get@DV?$istreambuf_iterator@DU?$char_traits@D@std@@@std@@@std@@MBE?AV?$istreambuf_iterator@DU?$char_traits@D@std@@@2@V32@0AAVios_base@2@AAHAA_J@Z
?do_get@?$num_get@DV?$istreambuf_iterator@DU?$char_traits@D@std@@@std@@@std@@MBE?AV?$istreambuf_iterator@DU?$char_traits@D@std@@@2@V32@0AAVios_base@2@AAHAAPAX@Z
?do_get@?$num_get@DV?$istreambuf_iterator@DU?$char_traits@D@std@@@std@@@std@@MBE?AV?$istreambuf_iterator@DU?$char_traits@D@std@@@2@V32@0AAVios_base@2@AAHAAO@Z
?do_get@?$num_get@DV?$istreambuf_iterator@DU?$char_traits@D@std@@@std@@@std@@MBE?AV?$istreambuf_iterator@DU?$char_traits@D@std@@@2@V32@0AAVios_base@2@AAHAAN@Z
?do_get@?$num_get@DV?$istreambuf_iterator@DU?$char_traits@D@std@@@std@@@std@@MBE?AV?$istreambuf_iterator@DU?$char_traits@D@std@@@2@V32@0AAVios_base@2@AAHAAM@Z
?do_get@?$num_get@DV?$istreambuf_iterator@DU?$char_traits@D@std@@@std@@@std@@MBE?AV?$istreambuf_iterator@DU?$char_traits@D@std@@@2@V32@0AAVios_base@2@AAHAAK@Z
?do_get@?$num_get@DV?$istreambuf_iterator@DU?$char_traits@D@std@@@std@@@std@@MBE?AV?$istreambuf_iterator@DU?$char_traits@D@std@@@2@V32@0AAVios_base@2@AAHAAJ@Z
?do_get@?$num_get@DV?$istreambuf_iterator@DU?$char_traits@D@std@@@std@@@std@@MBE?AV?$istreambuf_iterator@DU?$char_traits@D@std@@@2@V32@0AAVios_base@2@AAHAAI@Z
?do_get@?$num_get@DV?$istreambuf_iterator@DU?$char_traits@D@std@@@std@@@std@@MBE?AV?$istreambuf_iterator@DU?$char_traits@D@std@@@2@V32@0AAVios_base@2@AAHAAG@Z
?do_encoding@codecvt_base@std@@MBEHXZ
?do_encoding@?$codecvt@_WDH@std@@MBEHXZ
?do_encoding@?$codecvt@GDH@std@@MBEHXZ
?do_date_order@?$time_get@_WV?$istreambuf_iterator@_WU?$char_traits@_W@std@@@std@@@std@@MBE?AW4dateorder@time_base@2@XZ
?do_date_order@?$time_get@GV?$istreambuf_iterator@GU?$char_traits@G@std@@@std@@@std@@MBE?AW4dateorder@time_base@2@XZ
?do_date_order@?$time_get@DV?$istreambuf_iterator@DU?$char_traits@D@std@@@std@@@std@@MBE?AW4dateorder@time_base@2@XZ
?do_always_noconv@codecvt_base@std@@MBE_NXZ
?do_always_noconv@?$codecvt@_WDH@std@@MBE_NXZ
?do_always_noconv@?$codecvt@GDH@std@@MBE_NXZ
?do_always_noconv@?$codecvt@DDH@std@@MBE_NXZ
?date_order@?$time_get@_WV?$istreambuf_iterator@_WU?$char_traits@_W@std@@@std@@@std@@QBE?AW4dateorder@time_base@2@XZ
?date_order@?$time_get@GV?$istreambuf_iterator@GU?$char_traits@G@std@@@std@@@std@@QBE?AW4dateorder@time_base@2@XZ
?date_order@?$time_get@DV?$istreambuf_iterator@DU?$char_traits@D@std@@@std@@@std@@QBE?AW4dateorder@time_base@2@XZ
?copyfmt@ios_base@std@@QAEAAV12@ABV12@@Z
?copyfmt@?$basic_ios@_WU?$char_traits@_W@std@@@std@@QAEAAV12@ABV12@@Z
?copyfmt@?$basic_ios@GU?$char_traits@G@std@@@std@@QAEAAV12@ABV12@@Z
?copyfmt@?$basic_ios@DU?$char_traits@D@std@@@std@@QAEAAV12@ABV12@@Z
?clear@ios_base@std@@QAEXI@Z
?clear@ios_base@std@@QAEXH_N@Z
?clear@ios_base@std@@QAEXH@Z
?clear@?$basic_ios@_WU?$char_traits@_W@std@@@std@@QAEXI@Z
?clear@?$basic_ios@_WU?$char_traits@_W@std@@@std@@QAEXH_N@Z
?clear@?$basic_ios@GU?$char_traits@G@std@@@std@@QAEXI@Z
?clear@?$basic_ios@GU?$char_traits@G@std@@@std@@QAEXH_N@Z
?clear@?$basic_ios@DU?$char_traits@D@std@@@std@@QAEXI@Z
?clear@?$basic_ios@DU?$char_traits@D@std@@@std@@QAEXH_N@Z
?classic_table@?$ctype@D@std@@SAPBFXZ
?classic@locale@std@@SAABV12@XZ
?cancel@agent@Concurrency@@QAE_NXZ
?c_str@?$_Yarn@D@std@@QBEPBDXZ
?bad@ios_base@std@@QBE_NXZ
?always_noconv@codecvt_base@std@@QBE_NXZ
?_Xruntime_error@std@@YAXPBD@Z
?_Xregex_error@std@@YAXW4error_type@regex_constants@1@@Z
?_Xoverflow_error@std@@YAXPBD@Z
?_Xout_of_range@std@@YAXPBD@Z
?_Xlength_error@std@@YAXPBD@Z
?_Xinvalid_argument@std@@YAXPBD@Z
?_Xbad_function_call@std@@YAXXZ
?_Xbad_alloc@std@@YAXXZ
?_XLgamma@std@@YAOO@Z
?_XLgamma@std@@YANN@Z
?_XLgamma@std@@YAMM@Z
?_Winerror_map@std@@YAPBDH@Z
?_W_Gettnames@_Locinfo@std@@QBE?AV_Timevec@2@XZ
?_W_Getmonths@_Locinfo@std@@QBEPBGXZ
?_W_Getdays@_Locinfo@std@@QBEPBGXZ
?_Unlock@?$basic_streambuf@_WU?$char_traits@_W@std@@@std@@UAEXXZ
?_Unlock@?$basic_streambuf@GU?$char_traits@G@std@@@std@@UAEXXZ
?_Unlock@?$basic_streambuf@DU?$char_traits@D@std@@@std@@UAEXXZ
?_Unlink@sys@tr2@std@@YAHPB_W@Z
?_Unlink@sys@tr2@std@@YAHPBD@Z
?_Tidy@ios_base@std@@AAEXXZ
?_Tidy@?$time_get@_WV?$istreambuf_iterator@_WU?$char_traits@_W@std@@@std@@@std@@AAEXXZ
?_Tidy@?$time_get@GV?$istreambuf_iterator@GU?$char_traits@G@std@@@std@@@std@@AAEXXZ
?_Tidy@?$time_get@DV?$istreambuf_iterator@DU?$char_traits@D@std@@@std@@@std@@AAEXXZ
?_Tidy@?$ctype@D@std@@IAEXXZ
?_Tidy@?$_Yarn@_W@std@@AAEXXZ
?_Tidy@?$_Yarn@D@std@@AAEXXZ
?_Throw_resource_error@threads@stdext@@YAXXZ
?_Throw_lock_error@threads@stdext@@YAXXZ
?_Throw_future_error@std@@YAXABVerror_code@1@@Z
?_Throw_Cpp_error@std@@YAXH@Z
?_Throw_C_error@std@@YAXH@Z
?_Syserror_map@std@@YAPBDH@Z
?_Symlink@sys@tr2@std@@YAHPB_W0@Z
?_Symlink@sys@tr2@std@@YAHPBD0@Z
?_Swap_all@_Container_base12@std@@QAEXAAU12@@Z
?_Swap_all@_Container_base0@std@@QAEXAAU12@@Z
?_Statvfs@sys@tr2@std@@YA?AUspace_info@123@PB_W@Z
?_Statvfs@sys@tr2@std@@YA?AUspace_info@123@PBD@Z
?_Stat@sys@tr2@std@@YA?AW4file_type@123@PB_WAAH@Z
?_Stat@sys@tr2@std@@YA?AW4file_type@123@PBDAAH@Z
?_Src@?3??_Getffld@?$num_get@_WV?$istreambuf_iterator@_WU?$char_traits@_W@std@@@std@@@std@@ABAHPADAAV?$istreambuf_iterator@_WU?$char_traits@_W@std@@@3@1AAVios_base@3@PAH@Z@4QBDB
?_Src@?3??_Getffld@?$num_get@GV?$istreambuf_iterator@GU?$char_traits@G@std@@@std@@@std@@ABAHPADAAV?$istreambuf_iterator@GU?$char_traits@G@std@@@3@1AAVios_base@3@PAH@Z@4QBDB
?_Src@?3??_Getffld@?$num_get@DV?$istreambuf_iterator@DU?$char_traits@D@std@@@std@@@std@@ABAHPADAAV?$istreambuf_iterator@DU?$char_traits@D@std@@@3@1AAVios_base@3@PAH@Z@4QBDB
?_Src@?1??_Getifld@?$num_get@_WV?$istreambuf_iterator@_WU?$char_traits@_W@std@@@std@@@std@@ABAHPADAAV?$istreambuf_iterator@_WU?$char_traits@_W@std@@@3@1HABVlocale@3@@Z@4QBDB
?_Src@?1??_Getifld@?$num_get@GV?$istreambuf_iterator@GU?$char_traits@G@std@@@std@@@std@@ABAHPADAAV?$istreambuf_iterator@GU?$char_traits@G@std@@@3@1HABVlocale@3@@Z@4QBDB
?_Src@?1??_Getifld@?$num_get@DV?$istreambuf_iterator@DU?$char_traits@D@std@@@std@@@std@@ABAHPADAAV?$istreambuf_iterator@DU?$char_traits@D@std@@@3@1HABVlocale@3@@Z@4QBDB
?_Src@?1??_Getffldx@?$num_get@_WV?$istreambuf_iterator@_WU?$char_traits@_W@std@@@std@@@std@@ABAHPADAAV?$istreambuf_iterator@_WU?$char_traits@_W@std@@@3@1AAVios_base@3@PAH@Z@4QBDB
?_Src@?1??_Getffldx@?$num_get@GV?$istreambuf_iterator@GU?$char_traits@G@std@@@std@@@std@@ABAHPADAAV?$istreambuf_iterator@GU?$char_traits@G@std@@@3@1AAVios_base@3@PAH@Z@4QBDB
?_Src@?1??_Getffldx@?$num_get@DV?$istreambuf_iterator@DU?$char_traits@D@std@@@std@@@std@@ABAHPADAAV?$istreambuf_iterator@DU?$char_traits@D@std@@@3@1AAVios_base@3@PAH@Z@4QBDB
?_Setgloballocale@locale@std@@CAXPAX@Z
?_Segment_index_of@_Concurrent_vector_base_v4@details@Concurrency@@KAII@Z
?_Rng_abort@std@@YAXPBD@Z
?_Rethrow_future_exception@std@@YAXVexception_ptr@1@@Z
?_Rep@?$num_put@_WV?$ostreambuf_iterator@_WU?$char_traits@_W@std@@@std@@@std@@ABA?AV?$ostreambuf_iterator@_WU?$char_traits@_W@std@@@2@V32@_WI@Z
?_Rep@?$num_put@GV?$ostreambuf_iterator@GU?$char_traits@G@std@@@std@@@std@@ABA?AV?$ostreambuf_iterator@GU?$char_traits@G@std@@@2@V32@GI@Z
?_Rep@?$num_put@DV?$ostreambuf_iterator@DU?$char_traits@D@std@@@std@@@std@@ABA?AV?$ostreambuf_iterator@DU?$char_traits@D@std@@@2@V32@DI@Z
?_Rename@sys@tr2@std@@YAHPB_W0@Z
?_Rename@sys@tr2@std@@YAHPBD0@Z
?_Remove_dir@sys@tr2@std@@YA_NPB_W@Z
?_Remove_dir@sys@tr2@std@@YA_NPBD@Z
?_Release@_Pad@std@@QAEXXZ
?_Read_dir@sys@tr2@std@@YAPA_WAAY0BAE@_WPAXAAW4file_type@123@@Z
?_Read_dir@sys@tr2@std@@YAPADAAY0BAE@DPAXAAW4file_type@123@@Z
?_Random_device@std@@YAIXZ
?_Put@?$num_put@_WV?$ostreambuf_iterator@_WU?$char_traits@_W@std@@@std@@@std@@ABA?AV?$ostreambuf_iterator@_WU?$char_traits@_W@std@@@2@V32@PB_WI@Z
?_Put@?$num_put@GV?$ostreambuf_iterator@GU?$char_traits@G@std@@@std@@@std@@ABA?AV?$ostreambuf_iterator@GU?$char_traits@G@std@@@2@V32@PBGI@Z
?_Put@?$num_put@DV?$ostreambuf_iterator@DU?$char_traits@D@std@@@std@@@std@@ABA?AV?$ostreambuf_iterator@DU?$char_traits@D@std@@@2@V32@PBDI@Z
?_Pninc@?$basic_streambuf@_WU?$char_traits@_W@std@@@std@@IAEPA_WXZ
?_Pninc@?$basic_streambuf@GU?$char_traits@G@std@@@std@@IAEPAGXZ
?_Pninc@?$basic_streambuf@DU?$char_traits@D@std@@@std@@IAEPADXZ
?_Pnavail@?$basic_streambuf@_WU?$char_traits@_W@std@@@std@@IBE_JXZ
?_Pnavail@?$basic_streambuf@GU?$char_traits@G@std@@@std@@IBE_JXZ
?_Pnavail@?$basic_streambuf@DU?$char_traits@D@std@@@std@@IBE_JXZ
?_Osfx@?$basic_ostream@_WU?$char_traits@_W@std@@@std@@QAEXXZ
?_Osfx@?$basic_ostream@GU?$char_traits@G@std@@@std@@QAEXXZ
?_Osfx@?$basic_ostream@DU?$char_traits@D@std@@@std@@QAEXXZ
?_Orphan_all@_Container_base12@std@@QAEXXZ
?_Orphan_all@_Container_base0@std@@QAEXXZ
?_Open_dir@sys@tr2@std@@YAPAXAAY0BAE@_WPB_WAAHAAW4file_type@123@@Z
?_Open_dir@sys@tr2@std@@YAPAXAAY0BAE@DPBDAAHAAW4file_type@123@@Z
?_New_Locimp@_Locimp@locale@std@@CAPAV123@_N@Z
?_New_Locimp@_Locimp@locale@std@@CAPAV123@ABV123@@Z
?_Mtx_unlock@threads@stdext@@YAXPAX@Z
?_Mtx_new@threads@stdext@@YAXAAPAX@Z
?_Mtx_lock@threads@stdext@@YAXPAX@Z
?_Mtx_delete@threads@stdext@@YAXPAX@Z
?_Makexloc@_Locimp@locale@std@@CAXABV_Locinfo@3@HPAV123@PBV23@@Z
?_Makewloc@_Locimp@locale@std@@CAXABV_Locinfo@3@HPAV123@PBV23@@Z
?_Makeushloc@_Locimp@locale@std@@CAXABV_Locinfo@3@HPAV123@PBV23@@Z
?_Makeloc@_Locimp@locale@std@@CAPAV123@ABV_Locinfo@3@HPAV123@PBV23@@Z
?_Make_dir@sys@tr2@std@@YAHPB_W@Z
?_Make_dir@sys@tr2@std@@YAHPBD@Z
?_MP_Rem@std@@YAXQA_K_K@Z
?_MP_Mul@std@@YAXQA_K_K1@Z
?_MP_Get@std@@YA_KQA_K@Z
?_MP_Add@std@@YAXQA_K_K@Z
?_Lstat@sys@tr2@std@@YA?AW4file_type@123@PB_WAAH@Z
?_Lstat@sys@tr2@std@@YA?AW4file_type@123@PBDAAH@Z
?_Lockit_dtor@_Lockit@std@@SAXH@Z
?_Lockit_dtor@_Lockit@std@@CAXPAV12@@Z
?_Lockit_ctor@_Lockit@std@@SAXH@Z
?_Lockit_ctor@_Lockit@std@@CAXPAV12@H@Z
?_Lockit_ctor@_Lockit@std@@CAXPAV12@@Z
?_Lock@?$basic_streambuf@_WU?$char_traits@_W@std@@@std@@UAEXXZ
?_Lock@?$basic_streambuf@GU?$char_traits@G@std@@@std@@UAEXXZ
?_Lock@?$basic_streambuf@DU?$char_traits@D@std@@@std@@UAEXXZ
?_Locinfo_dtor@_Locinfo@std@@SAXPAV12@@Z
?_Locinfo_ctor@_Locinfo@std@@SAXPAV12@PBD@Z
?_Locinfo_ctor@_Locinfo@std@@SAXPAV12@HPBD@Z
?_Locinfo_Addcats@_Locinfo@std@@SAAAV12@PAV12@HPBD@Z
?_Locimp_dtor@_Locimp@locale@std@@CAXPAV123@@Z
?_Locimp_ctor@_Locimp@locale@std@@CAXPAV123@ABV123@@Z
?_Locimp_Addfac@_Locimp@locale@std@@CAXPAV123@PAVfacet@23@I@Z
?_Link@sys@tr2@std@@YAHPB_W0@Z
?_Link@sys@tr2@std@@YAHPBD0@Z
?_Launch@_Pad@std@@QAEXPAU_Thrd_imp_t@@@Z
?_Last_write_time@sys@tr2@std@@YA_JPB_W@Z
?_Last_write_time@sys@tr2@std@@YA_JPBD@Z
?_Last_write_time@sys@tr2@std@@YAXPB_W_J@Z
?_Last_write_time@sys@tr2@std@@YAXPBD_J@Z
?_Iput@?$num_put@_WV?$ostreambuf_iterator@_WU?$char_traits@_W@std@@@std@@@std@@ABA?AV?$ostreambuf_iterator@_WU?$char_traits@_W@std@@@2@V32@AAVios_base@2@_WPADI@Z
?_Iput@?$num_put@GV?$ostreambuf_iterator@GU?$char_traits@G@std@@@std@@@std@@ABA?AV?$ostreambuf_iterator@GU?$char_traits@G@std@@@2@V32@AAVios_base@2@GPADI@Z
?_Iput@?$num_put@DV?$ostreambuf_iterator@DU?$char_traits@D@std@@@std@@@std@@ABA?AV?$ostreambuf_iterator@DU?$char_traits@D@std@@@2@V32@AAVios_base@2@DPADI@Z
?_Ipfx@?$basic_istream@_WU?$char_traits@_W@std@@@std@@QAE_N_N@Z
?_Ipfx@?$basic_istream@GU?$char_traits@G@std@@@std@@QAE_N_N@Z
?_Ipfx@?$basic_istream@DU?$char_traits@D@std@@@std@@QAE_N_N@Z
?_Ios_base_dtor@ios_base@std@@CAXPAV12@@Z
?_Internal_throw_exception@_Concurrent_vector_base_v4@details@Concurrency@@IBEXI@Z
?_Internal_throw_exception@_Concurrent_queue_base_v4@details@Concurrency@@IBEXXZ
?_Internal_swap@_Concurrent_vector_base_v4@details@Concurrency@@IAEXAAV123@@Z
?_Internal_swap@_Concurrent_queue_base_v4@details@Concurrency@@IAEXAAV123@@Z
?_Internal_size@_Concurrent_queue_base_v4@details@Concurrency@@IBEIXZ
?_Internal_resize@_Concurrent_vector_base_v4@details@Concurrency@@IAEXIIIP6AXPAXI@ZP6AX0PBXI@Z2@Z
?_Internal_reserve@_Concurrent_vector_base_v4@details@Concurrency@@IAEXIII@Z
?_Internal_push_back@_Concurrent_vector_base_v4@details@Concurrency@@IAEPAXIAAI@Z
?_Internal_push@_Concurrent_queue_base_v4@details@Concurrency@@IAEXPBX@Z
?_Internal_pop_if_present@_Concurrent_queue_base_v4@details@Concurrency@@IAE_NPAX@Z
?_Internal_move_push@_Concurrent_queue_base_v4@details@Concurrency@@IAEXPAX@Z
?_Internal_grow_to_at_least_with_result@_Concurrent_vector_base_v4@details@Concurrency@@IAEIIIP6AXPAXPBXI@Z1@Z
?_Internal_grow_by@_Concurrent_vector_base_v4@details@Concurrency@@IAEIIIP6AXPAXPBXI@Z1@Z
?_Internal_finish_clear@_Concurrent_queue_base_v4@details@Concurrency@@IAEXXZ
?_Internal_empty@_Concurrent_queue_base_v4@details@Concurrency@@IBE_NXZ
?_Internal_copy@_Concurrent_vector_base_v4@details@Concurrency@@IAEXABV123@IP6AXPAXPBXI@Z@Z
?_Internal_compact@_Concurrent_vector_base_v4@details@Concurrency@@IAEPAXIPAXP6AX0I@ZP6AX0PBXI@Z@Z
?_Internal_clear@_Concurrent_vector_base_v4@details@Concurrency@@IAEIP6AXPAXI@Z@Z
?_Internal_capacity@_Concurrent_vector_base_v4@details@Concurrency@@IBEIXZ
?_Internal_assign@_Concurrent_vector_base_v4@details@Concurrency@@IAEXABV123@IP6AXPAXI@ZP6AX1PBXI@Z4@Z
?_Init_locks_dtor@_Init_locks@std@@CAXPAV12@@Z
?_Init_locks_ctor@_Init_locks@std@@CAXPAV12@@Z
?_Init_dtor@Init@ios_base@std@@CAXPAV123@@Z
?_Init_ctor@Init@ios_base@std@@CAXPAV123@@Z
?_Init_cnt_func@Init@ios_base@std@@CAAAHXZ
?_Init@locale@std@@CAPAV_Locimp@12@_N@Z
?_Init@ios_base@std@@IAEXXZ
?_Init@?$time_put@_WV?$ostreambuf_iterator@_WU?$char_traits@_W@std@@@std@@@std@@IAEXABV_Locinfo@2@@Z
?_Init@?$time_put@GV?$ostreambuf_iterator@GU?$char_traits@G@std@@@std@@@std@@IAEXABV_Locinfo@2@@Z
?_Init@?$time_put@DV?$ostreambuf_iterator@DU?$char_traits@D@std@@@std@@@std@@IAEXABV_Locinfo@2@@Z
?_Init@?$time_get@_WV?$istreambuf_iterator@_WU?$char_traits@_W@std@@@std@@@std@@IAEXABV_Locinfo@2@@Z
?_Init@?$time_get@GV?$istreambuf_iterator@GU?$char_traits@G@std@@@std@@@std@@IAEXABV_Locinfo@2@@Z
?_Init@?$time_get@DV?$istreambuf_iterator@DU?$char_traits@D@std@@@std@@@std@@IAEXABV_Locinfo@2@@Z
?_Init@?$num_put@_WV?$ostreambuf_iterator@_WU?$char_traits@_W@std@@@std@@@std@@IAEXABV_Locinfo@2@@Z
?_Init@?$num_put@GV?$ostreambuf_iterator@GU?$char_traits@G@std@@@std@@@std@@IAEXABV_Locinfo@2@@Z
?_Init@?$num_put@DV?$ostreambuf_iterator@DU?$char_traits@D@std@@@std@@@std@@IAEXABV_Locinfo@2@@Z
?_Init@?$num_get@_WV?$istreambuf_iterator@_WU?$char_traits@_W@std@@@std@@@std@@IAEXABV_Locinfo@2@@Z
?_Init@?$num_get@GV?$istreambuf_iterator@GU?$char_traits@G@std@@@std@@@std@@IAEXABV_Locinfo@2@@Z
?_Init@?$num_get@DV?$istreambuf_iterator@DU?$char_traits@D@std@@@std@@@std@@IAEXABV_Locinfo@2@@Z
?_Init@?$ctype@_W@std@@IAEXABV_Locinfo@2@@Z
?_Init@?$ctype@G@std@@IAEXABV_Locinfo@2@@Z
?_Init@?$ctype@D@std@@IAEXABV_Locinfo@2@@Z
?_Init@?$codecvt@_WDH@std@@IAEXABV_Locinfo@2@@Z
?_Init@?$codecvt@GDH@std@@IAEXABV_Locinfo@2@@Z
?_Init@?$codecvt@DDH@std@@IAEXABV_Locinfo@2@@Z
?_Init@?$basic_streambuf@_WU?$char_traits@_W@std@@@std@@IAEXXZ
?_Init@?$basic_streambuf@_WU?$char_traits@_W@std@@@std@@IAEXPAPA_W0PAH001@Z
?_Init@?$basic_streambuf@GU?$char_traits@G@std@@@std@@IAEXXZ
?_Init@?$basic_streambuf@GU?$char_traits@G@std@@@std@@IAEXPAPAG0PAH001@Z
?_Init@?$basic_streambuf@DU?$char_traits@D@std@@@std@@IAEXXZ
?_Init@?$basic_streambuf@DU?$char_traits@D@std@@@std@@IAEXPAPAD0PAH001@Z
?_Incref@facet@locale@std@@UAEXXZ
?_Ifmt@?$num_put@_WV?$ostreambuf_iterator@_WU?$char_traits@_W@std@@@std@@@std@@ABAPADPADPBDH@Z
?_Ifmt@?$num_put@GV?$ostreambuf_iterator@GU?$char_traits@G@std@@@std@@@std@@ABAPADPADPBDH@Z
?_Ifmt@?$num_put@DV?$ostreambuf_iterator@DU?$char_traits@D@std@@@std@@@std@@ABAPADPADPBDH@Z
?_Gnpreinc@?$basic_streambuf@_WU?$char_traits@_W@std@@@std@@IAEPA_WXZ
?_Gnpreinc@?$basic_streambuf@GU?$char_traits@G@std@@@std@@IAEPAGXZ
?_Gnpreinc@?$basic_streambuf@DU?$char_traits@D@std@@@std@@IAEPADXZ
?_Gninc@?$basic_streambuf@_WU?$char_traits@_W@std@@@std@@IAEPA_WXZ
?_Gninc@?$basic_streambuf@GU?$char_traits@G@std@@@std@@IAEPAGXZ
?_Gninc@?$basic_streambuf@DU?$char_traits@D@std@@@std@@IAEPADXZ
?_Gndec@?$basic_streambuf@_WU?$char_traits@_W@std@@@std@@IAEPA_WXZ
?_Gndec@?$basic_streambuf@GU?$char_traits@G@std@@@std@@IAEPAGXZ
?_Gndec@?$basic_streambuf@DU?$char_traits@D@std@@@std@@IAEPADXZ
?_Gnavail@?$basic_streambuf@_WU?$char_traits@_W@std@@@std@@IBE_JXZ
?_Gnavail@?$basic_streambuf@GU?$char_traits@G@std@@@std@@IBE_JXZ
?_Gnavail@?$basic_streambuf@DU?$char_traits@D@std@@@std@@IBE_JXZ
?_Gettrue@_Locinfo@std@@QBEPBDXZ
?_Gettnames@_Locinfo@std@@QBE?AV_Timevec@2@XZ
?_Getptr@_Timevec@std@@QBEPAXXZ
?_Getpfirst@_Container_base12@std@@QBEPAPAU_Iterator_base12@2@XZ
?_Getname@_Locinfo@std@@QBEPBDXZ
?_Getmonths@_Locinfo@std@@QBEPBDXZ
?_Getlconv@_Locinfo@std@@QBEPBUlconv@@XZ
?_Getint@?$time_get@_WV?$istreambuf_iterator@_WU?$char_traits@_W@std@@@std@@@std@@ABAHAAV?$istreambuf_iterator@_WU?$char_traits@_W@std@@@2@0HHAAHABV?$ctype@_W@2@@Z
?_Getint@?$time_get@GV?$istreambuf_iterator@GU?$char_traits@G@std@@@std@@@std@@ABAHAAV?$istreambuf_iterator@GU?$char_traits@G@std@@@2@0HHAAHABV?$ctype@G@2@@Z
?_Getint@?$time_get@DV?$istreambuf_iterator@DU?$char_traits@D@std@@@std@@@std@@ABAHAAV?$istreambuf_iterator@DU?$char_traits@D@std@@@2@0HHAAHABV?$ctype@D@2@@Z
?_Getifld@?$num_get@_WV?$istreambuf_iterator@_WU?$char_traits@_W@std@@@std@@@std@@ABAHPADAAV?$istreambuf_iterator@_WU?$char_traits@_W@std@@@2@1HABVlocale@2@@Z
?_Getifld@?$num_get@GV?$istreambuf_iterator@GU?$char_traits@G@std@@@std@@@std@@ABAHPADAAV?$istreambuf_iterator@GU?$char_traits@G@std@@@2@1HABVlocale@2@@Z
?_Getifld@?$num_get@DV?$istreambuf_iterator@DU?$char_traits@D@std@@@std@@@std@@ABAHPADAAV?$istreambuf_iterator@DU?$char_traits@D@std@@@2@1HABVlocale@2@@Z
?_Getgloballocale@locale@std@@CAPAV_Locimp@12@XZ
?_Getfmt@?$time_get@_WV?$istreambuf_iterator@_WU?$char_traits@_W@std@@@std@@@std@@IBE?AV?$istreambuf_iterator@_WU?$char_traits@_W@std@@@2@V32@0AAVios_base@2@AAHPAUtm@@PBD@Z
?_Getfmt@?$time_get@GV?$istreambuf_iterator@GU?$char_traits@G@std@@@std@@@std@@IBE?AV?$istreambuf_iterator@GU?$char_traits@G@std@@@2@V32@0AAVios_base@2@AAHPAUtm@@PBD@Z
?_Getfmt@?$time_get@DV?$istreambuf_iterator@DU?$char_traits@D@std@@@std@@@std@@IBE?AV?$istreambuf_iterator@DU?$char_traits@D@std@@@2@V32@0AAVios_base@2@AAHPAUtm@@PBD@Z
?_Getffldx@?$num_get@_WV?$istreambuf_iterator@_WU?$char_traits@_W@std@@@std@@@std@@ABAHPADAAV?$istreambuf_iterator@_WU?$char_traits@_W@std@@@2@1AAVios_base@2@PAH@Z
?_Getffldx@?$num_get@GV?$istreambuf_iterator@GU?$char_traits@G@std@@@std@@@std@@ABAHPADAAV?$istreambuf_iterator@GU?$char_traits@G@std@@@2@1AAVios_base@2@PAH@Z
?_Getffldx@?$num_get@DV?$istreambuf_iterator@DU?$char_traits@D@std@@@std@@@std@@ABAHPADAAV?$istreambuf_iterator@DU?$char_traits@D@std@@@2@1AAVios_base@2@PAH@Z
?_Getffld@?$num_get@_WV?$istreambuf_iterator@_WU?$char_traits@_W@std@@@std@@@std@@ABAHPADAAV?$istreambuf_iterator@_WU?$char_traits@_W@std@@@2@1AAVios_base@2@PAH@Z
?_Getffld@?$num_get@GV?$istreambuf_iterator@GU?$char_traits@G@std@@@std@@@std@@ABAHPADAAV?$istreambuf_iterator@GU?$char_traits@G@std@@@2@1AAVios_base@2@PAH@Z
?_Getffld@?$num_get@DV?$istreambuf_iterator@DU?$char_traits@D@std@@@std@@@std@@ABAHPADAAV?$istreambuf_iterator@DU?$char_traits@D@std@@@2@1AAVios_base@2@PAH@Z
?_Getfalse@_Locinfo@std@@QBEPBDXZ
?_Getdays@_Locinfo@std@@QBEPBDXZ
?_Getdateorder@_Locinfo@std@@QBEHXZ
?_Getcvt@_Locinfo@std@@QBE?AU_Cvtvec@@XZ
?_Getctype@_Locinfo@std@@QBE?AU_Ctypevec@@XZ
?_Getcoll@_Locinfo@std@@QBE?AU_Collvec@@XZ
?_Getcat@facet@locale@std@@SAIPAPBV123@PBV23@@Z
?_Getcat@?$time_put@_WV?$ostreambuf_iterator@_WU?$char_traits@_W@std@@@std@@@std@@SAIPAPBVfacet@locale@2@PBV42@@Z
?_Getcat@?$time_put@GV?$ostreambuf_iterator@GU?$char_traits@G@std@@@std@@@std@@SAIPAPBVfacet@locale@2@PBV42@@Z
?_Getcat@?$time_put@DV?$ostreambuf_iterator@DU?$char_traits@D@std@@@std@@@std@@SAIPAPBVfacet@locale@2@PBV42@@Z
?_Getcat@?$time_get@_WV?$istreambuf_iterator@_WU?$char_traits@_W@std@@@std@@@std@@SAIPAPBVfacet@locale@2@PBV42@@Z
?_Getcat@?$time_get@GV?$istreambuf_iterator@GU?$char_traits@G@std@@@std@@@std@@SAIPAPBVfacet@locale@2@PBV42@@Z
?_Getcat@?$time_get@DV?$istreambuf_iterator@DU?$char_traits@D@std@@@std@@@std@@SAIPAPBVfacet@locale@2@PBV42@@Z
?_Getcat@?$num_put@_WV?$ostreambuf_iterator@_WU?$char_traits@_W@std@@@std@@@std@@SAIPAPBVfacet@locale@2@PBV42@@Z
?_Getcat@?$num_put@GV?$ostreambuf_iterator@GU?$char_traits@G@std@@@std@@@std@@SAIPAPBVfacet@locale@2@PBV42@@Z
?_Getcat@?$num_put@DV?$ostreambuf_iterator@DU?$char_traits@D@std@@@std@@@std@@SAIPAPBVfacet@locale@2@PBV42@@Z
?_Getcat@?$num_get@_WV?$istreambuf_iterator@_WU?$char_traits@_W@std@@@std@@@std@@SAIPAPBVfacet@locale@2@PBV42@@Z
?_Getcat@?$num_get@GV?$istreambuf_iterator@GU?$char_traits@G@std@@@std@@@std@@SAIPAPBVfacet@locale@2@PBV42@@Z
?_Getcat@?$num_get@DV?$istreambuf_iterator@DU?$char_traits@D@std@@@std@@@std@@SAIPAPBVfacet@locale@2@PBV42@@Z
?_Getcat@?$ctype@_W@std@@SAIPAPBVfacet@locale@2@PBV42@@Z
?_Getcat@?$ctype@G@std@@SAIPAPBVfacet@locale@2@PBV42@@Z
?_Getcat@?$ctype@D@std@@SAIPAPBVfacet@locale@2@PBV42@@Z
?_Getcat@?$codecvt@_WDH@std@@SAIPAPBVfacet@locale@2@PBV42@@Z
?_Getcat@?$codecvt@GDH@std@@SAIPAPBVfacet@locale@2@PBV42@@Z
?_Getcat@?$codecvt@DDH@std@@SAIPAPBVfacet@locale@2@PBV42@@Z
?_GetCombinableSize@details@Concurrency@@YAIXZ
?_Future_error_map@std@@YAPBDH@Z
?_Fput@?$num_put@_WV?$ostreambuf_iterator@_WU?$char_traits@_W@std@@@std@@@std@@ABA?AV?$ostreambuf_iterator@_WU?$char_traits@_W@std@@@2@V32@AAVios_base@2@_WPBDIIII@Z
?_Fput@?$num_put@GV?$ostreambuf_iterator@GU?$char_traits@G@std@@@std@@@std@@ABA?AV?$ostreambuf_iterator@GU?$char_traits@G@std@@@2@V32@AAVios_base@2@GPBDIIII@Z
?_Fput@?$num_put@DV?$ostreambuf_iterator@DU?$char_traits@D@std@@@std@@@std@@ABA?AV?$ostreambuf_iterator@DU?$char_traits@D@std@@@2@V32@AAVios_base@2@DPBDIIII@Z
?_Fiopen@std@@YAPAU_iobuf@@PB_WHH@Z
?_Fiopen@std@@YAPAU_iobuf@@PBGHH@Z
?_Fiopen@std@@YAPAU_iobuf@@PBDHH@Z
?_Findarr@ios_base@std@@AAEAAU_Iosarray@12@H@Z
?_File_size@sys@tr2@std@@YA_KPB_W@Z
?_File_size@sys@tr2@std@@YA_KPBD@Z
?_Ffmt@?$num_put@_WV?$ostreambuf_iterator@_WU?$char_traits@_W@std@@@std@@@std@@ABAPADPADDH@Z
?_Ffmt@?$num_put@GV?$ostreambuf_iterator@GU?$char_traits@G@std@@@std@@@std@@ABAPADPADDH@Z
?_Ffmt@?$num_put@DV?$ostreambuf_iterator@DU?$char_traits@D@std@@@std@@@std@@ABAPADPADDH@Z
?_Equivalent@sys@tr2@std@@YAHPB_W0@Z
?_Equivalent@sys@tr2@std@@YAHPBD0@Z
?_Empty@?$_Yarn@_W@std@@QBE_NXZ
?_Empty@?$_Yarn@D@std@@QBE_NXZ
?_Dowiden@?$ctype@_W@std@@IBE_WD@Z
?_Dowiden@?$ctype@G@std@@IBEGD@Z
?_Donarrow@?$ctype@_W@std@@IBED_WD@Z
?_Donarrow@?$ctype@G@std@@IBEDGD@Z
?_Decref@facet@locale@std@@UAEPAV_Facet_base@3@XZ
?_Current_set@sys@tr2@std@@YA_NPB_W@Z
?_Current_set@sys@tr2@std@@YA_NPBD@Z
?_Current_get@sys@tr2@std@@YAPA_WAAY0BAE@_W@Z
?_Current_get@sys@tr2@std@@YAPADAAY0BAE@D@Z
?_Copy_file@sys@tr2@std@@YAHPB_W0_N@Z
?_Copy_file@sys@tr2@std@@YAHPBD0_N@Z
?_Close_dir@sys@tr2@std@@YAXPAX@Z
?_Callfns@ios_base@std@@AAEXW4event@12@@Z
?_C_str@?$_Yarn@_W@std@@QBEPB_WXZ
?_C_str@?$_Yarn@D@std@@QBEPBDXZ
?_Byte_reverse_table@details@Concurrency@@3QBEB
?_Atexit@@YAXP6AXXZ@Z
?_Assign@_Concurrent_queue_iterator_base_v4@details@Concurrency@@IAEXABV123@@Z
?_Advance@_Concurrent_queue_iterator_base_v4@details@Concurrency@@IAEXXZ
?_Addstd@ios_base@std@@SAXPAV12@@Z
?_Addfac@_Locimp@locale@std@@AAEXPAVfacet@23@I@Z
?_Addcats@_Locinfo@std@@QAEAAV12@HPBD@Z
?NFS_GetLineSize@details@Concurrency@@YAIXZ
?NFS_Free@details@Concurrency@@YAXPAX@Z
?NFS_Allocate@details@Concurrency@@YAPAXIIPAX@Z
?GetNextAsyncId@platform@details@Concurrency@@YAIXZ
??_Ftime_base@std@@QAEXXZ
??_Fid@locale@std@@QAEXXZ
??_Ffacet@locale@std@@QAEXXZ
??_Fctype_base@std@@QAEXXZ
??_Fcodecvt_base@std@@QAEXXZ
??_F_Timevec@std@@QAEXXZ
??_F_Locinfo@std@@QAEXXZ
??_F?$time_put@_WV?$ostreambuf_iterator@_WU?$char_traits@_W@std@@@std@@@std@@QAEXXZ
??_F?$time_put@GV?$ostreambuf_iterator@GU?$char_traits@G@std@@@std@@@std@@QAEXXZ
??_F?$time_put@DV?$ostreambuf_iterator@DU?$char_traits@D@std@@@std@@@std@@QAEXXZ
??_F?$time_get@_WV?$istreambuf_iterator@_WU?$char_traits@_W@std@@@std@@@std@@QAEXXZ
??_F?$time_get@GV?$istreambuf_iterator@GU?$char_traits@G@std@@@std@@@std@@QAEXXZ
??_F?$time_get@DV?$istreambuf_iterator@DU?$char_traits@D@std@@@std@@@std@@QAEXXZ
??_F?$num_put@_WV?$ostreambuf_iterator@_WU?$char_traits@_W@std@@@std@@@std@@QAEXXZ
??_F?$num_put@GV?$ostreambuf_iterator@GU?$char_traits@G@std@@@std@@@std@@QAEXXZ
??_F?$num_put@DV?$ostreambuf_iterator@DU?$char_traits@D@std@@@std@@@std@@QAEXXZ
??_F?$num_get@_WV?$istreambuf_iterator@_WU?$char_traits@_W@std@@@std@@@std@@QAEXXZ
??_F?$num_get@GV?$istreambuf_iterator@GU?$char_traits@G@std@@@std@@@std@@QAEXXZ
??_F?$num_get@DV?$istreambuf_iterator@DU?$char_traits@D@std@@@std@@@std@@QAEXXZ
??_F?$ctype@_W@std@@QAEXXZ
??_F?$ctype@G@std@@QAEXXZ
??_F?$ctype@D@std@@QAEXXZ
??_F?$codecvt@_WDH@std@@QAEXXZ
??_F?$codecvt@GDH@std@@QAEXXZ
??_F?$codecvt@DDH@std@@QAEXXZ
??_D?$basic_ostream@_WU?$char_traits@_W@std@@@std@@QAEXXZ
??_D?$basic_ostream@GU?$char_traits@G@std@@@std@@QAEXXZ
??_D?$basic_ostream@DU?$char_traits@D@std@@@std@@QAEXXZ
??_D?$basic_istream@_WU?$char_traits@_W@std@@@std@@QAEXXZ
??_D?$basic_istream@GU?$char_traits@G@std@@@std@@QAEXXZ
??_D?$basic_istream@DU?$char_traits@D@std@@@std@@QAEXXZ
??_D?$basic_iostream@_WU?$char_traits@_W@std@@@std@@QAEXXZ
??_D?$basic_iostream@GU?$char_traits@G@std@@@std@@QAEXXZ
??_D?$basic_iostream@DU?$char_traits@D@std@@@std@@QAEXXZ
??_8?$basic_ostream@_WU?$char_traits@_W@std@@@std@@7B@
??_8?$basic_ostream@GU?$char_traits@G@std@@@std@@7B@
??_8?$basic_ostream@DU?$char_traits@D@std@@@std@@7B@
??_8?$basic_istream@_WU?$char_traits@_W@std@@@std@@7B@
??_8?$basic_istream@GU?$char_traits@G@std@@@std@@7B@
??_8?$basic_istream@DU?$char_traits@D@std@@@std@@7B@
??_8?$basic_iostream@_WU?$char_traits@_W@std@@@std@@7B?$basic_ostream@_WU?$char_traits@_W@std@@@1@@
??_8?$basic_iostream@_WU?$char_traits@_W@std@@@std@@7B?$basic_istream@_WU?$char_traits@_W@std@@@1@@
??_8?$basic_iostream@GU?$char_traits@G@std@@@std@@7B?$basic_ostream@GU?$char_traits@G@std@@@1@@
??_8?$basic_iostream@GU?$char_traits@G@std@@@std@@7B?$basic_istream@GU?$char_traits@G@std@@@1@@
??_8?$basic_iostream@DU?$char_traits@D@std@@@std@@7B?$basic_ostream@DU?$char_traits@D@std@@@1@@
??_8?$basic_iostream@DU?$char_traits@D@std@@@std@@7B?$basic_istream@DU?$char_traits@D@std@@@1@@
??Bios_base@std@@QBE_NXZ
??Bid@locale@std@@QAEIXZ
??7ios_base@std@@QBE_NXZ
??6?$basic_ostream@_WU?$char_traits@_W@std@@@std@@QAEAAV01@_N@Z
??6?$basic_ostream@_WU?$char_traits@_W@std@@@std@@QAEAAV01@_K@Z
??6?$basic_ostream@_WU?$char_traits@_W@std@@@std@@QAEAAV01@_J@Z
??6?$basic_ostream@_WU?$char_traits@_W@std@@@std@@QAEAAV01@PBX@Z
??6?$basic_ostream@_WU?$char_traits@_W@std@@@std@@QAEAAV01@PAV?$basic_streambuf@_WU?$char_traits@_W@std@@@1@@Z
??6?$basic_ostream@_WU?$char_traits@_W@std@@@std@@QAEAAV01@P6AAAVios_base@1@AAV21@@Z@Z
??6?$basic_ostream@_WU?$char_traits@_W@std@@@std@@QAEAAV01@P6AAAV?$basic_ios@_WU?$char_traits@_W@std@@@1@AAV21@@Z@Z
??6?$basic_ostream@_WU?$char_traits@_W@std@@@std@@QAEAAV01@P6AAAV01@AAV01@@Z@Z
??6?$basic_ostream@_WU?$char_traits@_W@std@@@std@@QAEAAV01@O@Z
??6?$basic_ostream@_WU?$char_traits@_W@std@@@std@@QAEAAV01@N@Z
??6?$basic_ostream@_WU?$char_traits@_W@std@@@std@@QAEAAV01@M@Z
??6?$basic_ostream@_WU?$char_traits@_W@std@@@std@@QAEAAV01@K@Z
??6?$basic_ostream@_WU?$char_traits@_W@std@@@std@@QAEAAV01@J@Z
??6?$basic_ostream@_WU?$char_traits@_W@std@@@std@@QAEAAV01@I@Z
??6?$basic_ostream@_WU?$char_traits@_W@std@@@std@@QAEAAV01@H@Z
??6?$basic_ostream@_WU?$char_traits@_W@std@@@std@@QAEAAV01@G@Z
??6?$basic_ostream@_WU?$char_traits@_W@std@@@std@@QAEAAV01@F@Z
??6?$basic_ostream@GU?$char_traits@G@std@@@std@@QAEAAV01@_N@Z
??6?$basic_ostream@GU?$char_traits@G@std@@@std@@QAEAAV01@_K@Z
??6?$basic_ostream@GU?$char_traits@G@std@@@std@@QAEAAV01@_J@Z
??6?$basic_ostream@GU?$char_traits@G@std@@@std@@QAEAAV01@PBX@Z
??6?$basic_ostream@GU?$char_traits@G@std@@@std@@QAEAAV01@PAV?$basic_streambuf@GU?$char_traits@G@std@@@1@@Z
??6?$basic_ostream@GU?$char_traits@G@std@@@std@@QAEAAV01@P6AAAVios_base@1@AAV21@@Z@Z
??6?$basic_ostream@GU?$char_traits@G@std@@@std@@QAEAAV01@P6AAAV?$basic_ios@GU?$char_traits@G@std@@@1@AAV21@@Z@Z
??6?$basic_ostream@GU?$char_traits@G@std@@@std@@QAEAAV01@P6AAAV01@AAV01@@Z@Z
??6?$basic_ostream@GU?$char_traits@G@std@@@std@@QAEAAV01@O@Z
??6?$basic_ostream@GU?$char_traits@G@std@@@std@@QAEAAV01@N@Z
??6?$basic_ostream@GU?$char_traits@G@std@@@std@@QAEAAV01@M@Z
??6?$basic_ostream@GU?$char_traits@G@std@@@std@@QAEAAV01@K@Z
??6?$basic_ostream@GU?$char_traits@G@std@@@std@@QAEAAV01@J@Z
??6?$basic_ostream@GU?$char_traits@G@std@@@std@@QAEAAV01@I@Z
??6?$basic_ostream@GU?$char_traits@G@std@@@std@@QAEAAV01@H@Z
??6?$basic_ostream@GU?$char_traits@G@std@@@std@@QAEAAV01@G@Z
??6?$basic_ostream@GU?$char_traits@G@std@@@std@@QAEAAV01@F@Z
??6?$basic_ostream@DU?$char_traits@D@std@@@std@@QAEAAV01@_N@Z
??6?$basic_ostream@DU?$char_traits@D@std@@@std@@QAEAAV01@_K@Z
??6?$basic_ostream@DU?$char_traits@D@std@@@std@@QAEAAV01@_J@Z
??6?$basic_ostream@DU?$char_traits@D@std@@@std@@QAEAAV01@PBX@Z
??6?$basic_ostream@DU?$char_traits@D@std@@@std@@QAEAAV01@PAV?$basic_streambuf@DU?$char_traits@D@std@@@1@@Z
??6?$basic_ostream@DU?$char_traits@D@std@@@std@@QAEAAV01@P6AAAVios_base@1@AAV21@@Z@Z
??6?$basic_ostream@DU?$char_traits@D@std@@@std@@QAEAAV01@P6AAAV?$basic_ios@DU?$char_traits@D@std@@@1@AAV21@@Z@Z
??6?$basic_ostream@DU?$char_traits@D@std@@@std@@QAEAAV01@P6AAAV01@AAV01@@Z@Z
??6?$basic_ostream@DU?$char_traits@D@std@@@std@@QAEAAV01@O@Z
??6?$basic_ostream@DU?$char_traits@D@std@@@std@@QAEAAV01@N@Z
??6?$basic_ostream@DU?$char_traits@D@std@@@std@@QAEAAV01@M@Z
??6?$basic_ostream@DU?$char_traits@D@std@@@std@@QAEAAV01@K@Z
??6?$basic_ostream@DU?$char_traits@D@std@@@std@@QAEAAV01@J@Z
??6?$basic_ostream@DU?$char_traits@D@std@@@std@@QAEAAV01@I@Z
??6?$basic_ostream@DU?$char_traits@D@std@@@std@@QAEAAV01@H@Z
??6?$basic_ostream@DU?$char_traits@D@std@@@std@@QAEAAV01@G@Z
??6?$basic_ostream@DU?$char_traits@D@std@@@std@@QAEAAV01@F@Z
??5?$basic_istream@_WU?$char_traits@_W@std@@@std@@QAEAAV01@PAV?$basic_streambuf@_WU?$char_traits@_W@std@@@1@@Z
??5?$basic_istream@_WU?$char_traits@_W@std@@@std@@QAEAAV01@P6AAAVios_base@1@AAV21@@Z@Z
??5?$basic_istream@_WU?$char_traits@_W@std@@@std@@QAEAAV01@P6AAAV?$basic_ios@_WU?$char_traits@_W@std@@@1@AAV21@@Z@Z
??5?$basic_istream@_WU?$char_traits@_W@std@@@std@@QAEAAV01@P6AAAV01@AAV01@@Z@Z
??5?$basic_istream@_WU?$char_traits@_W@std@@@std@@QAEAAV01@AA_N@Z
??5?$basic_istream@_WU?$char_traits@_W@std@@@std@@QAEAAV01@AA_K@Z
??5?$basic_istream@_WU?$char_traits@_W@std@@@std@@QAEAAV01@AA_J@Z
??5?$basic_istream@_WU?$char_traits@_W@std@@@std@@QAEAAV01@AAPAX@Z
??5?$basic_istream@_WU?$char_traits@_W@std@@@std@@QAEAAV01@AAO@Z
??5?$basic_istream@_WU?$char_traits@_W@std@@@std@@QAEAAV01@AAN@Z
??5?$basic_istream@_WU?$char_traits@_W@std@@@std@@QAEAAV01@AAM@Z
??5?$basic_istream@_WU?$char_traits@_W@std@@@std@@QAEAAV01@AAK@Z
??5?$basic_istream@_WU?$char_traits@_W@std@@@std@@QAEAAV01@AAJ@Z
??5?$basic_istream@_WU?$char_traits@_W@std@@@std@@QAEAAV01@AAI@Z
??5?$basic_istream@_WU?$char_traits@_W@std@@@std@@QAEAAV01@AAH@Z
??5?$basic_istream@_WU?$char_traits@_W@std@@@std@@QAEAAV01@AAG@Z
??5?$basic_istream@_WU?$char_traits@_W@std@@@std@@QAEAAV01@AAF@Z
??5?$basic_istream@GU?$char_traits@G@std@@@std@@QAEAAV01@PAV?$basic_streambuf@GU?$char_traits@G@std@@@1@@Z
??5?$basic_istream@GU?$char_traits@G@std@@@std@@QAEAAV01@P6AAAVios_base@1@AAV21@@Z@Z
??5?$basic_istream@GU?$char_traits@G@std@@@std@@QAEAAV01@P6AAAV?$basic_ios@GU?$char_traits@G@std@@@1@AAV21@@Z@Z
??5?$basic_istream@GU?$char_traits@G@std@@@std@@QAEAAV01@P6AAAV01@AAV01@@Z@Z
??5?$basic_istream@GU?$char_traits@G@std@@@std@@QAEAAV01@AA_N@Z
??5?$basic_istream@GU?$char_traits@G@std@@@std@@QAEAAV01@AA_K@Z
??5?$basic_istream@GU?$char_traits@G@std@@@std@@QAEAAV01@AA_J@Z
??5?$basic_istream@GU?$char_traits@G@std@@@std@@QAEAAV01@AAPAX@Z
??5?$basic_istream@GU?$char_traits@G@std@@@std@@QAEAAV01@AAO@Z
??5?$basic_istream@GU?$char_traits@G@std@@@std@@QAEAAV01@AAN@Z
??5?$basic_istream@GU?$char_traits@G@std@@@std@@QAEAAV01@AAM@Z
??5?$basic_istream@GU?$char_traits@G@std@@@std@@QAEAAV01@AAK@Z
??5?$basic_istream@GU?$char_traits@G@std@@@std@@QAEAAV01@AAJ@Z
??5?$basic_istream@GU?$char_traits@G@std@@@std@@QAEAAV01@AAI@Z
??5?$basic_istream@GU?$char_traits@G@std@@@std@@QAEAAV01@AAH@Z
??5?$basic_istream@GU?$char_traits@G@std@@@std@@QAEAAV01@AAG@Z
??5?$basic_istream@GU?$char_traits@G@std@@@std@@QAEAAV01@AAF@Z
??5?$basic_istream@DU?$char_traits@D@std@@@std@@QAEAAV01@PAV?$basic_streambuf@DU?$char_traits@D@std@@@1@@Z
??5?$basic_istream@DU?$char_traits@D@std@@@std@@QAEAAV01@P6AAAVios_base@1@AAV21@@Z@Z
??5?$basic_istream@DU?$char_traits@D@std@@@std@@QAEAAV01@P6AAAV?$basic_ios@DU?$char_traits@D@std@@@1@AAV21@@Z@Z
??5?$basic_istream@DU?$char_traits@D@std@@@std@@QAEAAV01@P6AAAV01@AAV01@@Z@Z
??5?$basic_istream@DU?$char_traits@D@std@@@std@@QAEAAV01@AA_N@Z
??5?$basic_istream@DU?$char_traits@D@std@@@std@@QAEAAV01@AA_K@Z
??5?$basic_istream@DU?$char_traits@D@std@@@std@@QAEAAV01@AA_J@Z
??5?$basic_istream@DU?$char_traits@D@std@@@std@@QAEAAV01@AAPAX@Z
??5?$basic_istream@DU?$char_traits@D@std@@@std@@QAEAAV01@AAO@Z
??5?$basic_istream@DU?$char_traits@D@std@@@std@@QAEAAV01@AAN@Z
??5?$basic_istream@DU?$char_traits@D@std@@@std@@QAEAAV01@AAM@Z
??5?$basic_istream@DU?$char_traits@D@std@@@std@@QAEAAV01@AAK@Z
??5?$basic_istream@DU?$char_traits@D@std@@@std@@QAEAAV01@AAJ@Z
??5?$basic_istream@DU?$char_traits@D@std@@@std@@QAEAAV01@AAI@Z
??5?$basic_istream@DU?$char_traits@D@std@@@std@@QAEAAV01@AAH@Z
??5?$basic_istream@DU?$char_traits@D@std@@@std@@QAEAAV01@AAG@Z
??5?$basic_istream@DU?$char_traits@D@std@@@std@@QAEAAV01@AAF@Z
??4_Winit@std@@QAEAAV01@ABV01@@Z
??4_UShinit@std@@QAEAAV01@ABV01@@Z
??4_Timevec@std@@QAEAAV01@ABV01@@Z
??4_Pad@std@@QAEAAV01@ABV01@@Z
??4_Init_locks@std@@QAEAAV01@ABV01@@Z
??4_Facet_base@std@@QAEAAV01@ABV01@@Z
??4_Container_base12@std@@QAEAAU01@ABU01@@Z
??4_Container_base0@std@@QAEAAU01@ABU01@@Z
??4Init@ios_base@std@@QAEAAV012@ABV012@@Z
??4?$basic_streambuf@_WU?$char_traits@_W@std@@@std@@IAEAAV01@ABV01@@Z
??4?$basic_streambuf@GU?$char_traits@G@std@@@std@@IAEAAV01@ABV01@@Z
??4?$basic_streambuf@DU?$char_traits@D@std@@@std@@IAEAAV01@ABV01@@Z
??4?$basic_ostream@_WU?$char_traits@_W@std@@@std@@IAEAAV01@$$QAV01@@Z
??4?$basic_ostream@GU?$char_traits@G@std@@@std@@IAEAAV01@$$QAV01@@Z
??4?$basic_ostream@DU?$char_traits@D@std@@@std@@IAEAAV01@$$QAV01@@Z
??4?$basic_istream@_WU?$char_traits@_W@std@@@std@@IAEAAV01@$$QAV01@@Z
??4?$basic_istream@GU?$char_traits@G@std@@@std@@IAEAAV01@$$QAV01@@Z
??4?$basic_istream@DU?$char_traits@D@std@@@std@@IAEAAV01@$$QAV01@@Z
??4?$basic_iostream@_WU?$char_traits@_W@std@@@std@@IAEAAV01@$$QAV01@@Z
??4?$basic_iostream@GU?$char_traits@G@std@@@std@@IAEAAV01@$$QAV01@@Z
??4?$basic_iostream@DU?$char_traits@D@std@@@std@@IAEAAV01@$$QAV01@@Z
??4?$_Yarn@_W@std@@QAEAAV01@PB_W@Z
??4?$_Yarn@D@std@@QAEAAV01@PBD@Z
??4?$_Yarn@D@std@@QAEAAV01@ABV01@@Z
??4?$_Iosb@H@std@@QAEAAV01@ABV01@@Z
??1time_base@std@@UAE@XZ
??1ios_base@std@@UAE@XZ
??1facet@locale@std@@MAE@XZ
??1ctype_base@std@@UAE@XZ
??1codecvt_base@std@@UAE@XZ
??1agent@Concurrency@@UAE@XZ
??1_Winit@std@@QAE@XZ
??1_UShinit@std@@QAE@XZ
??1_Timevec@std@@QAE@XZ
??1_Pad@std@@QAE@XZ
??1_Lockit@std@@QAE@XZ
??1_Locinfo@std@@QAE@XZ
??1_Locimp@locale@std@@MAE@XZ
??1_Init_locks@std@@QAE@XZ
??1_Facet_base@std@@UAE@XZ
??1_Container_base12@std@@QAE@XZ
??1_Concurrent_vector_base_v4@details@Concurrency@@IAE@XZ
??1_Concurrent_queue_iterator_base_v4@details@Concurrency@@IAE@XZ
??1_Concurrent_queue_base_v4@details@Concurrency@@MAE@XZ
??1Init@ios_base@std@@QAE@XZ
??1?$time_put@_WV?$ostreambuf_iterator@_WU?$char_traits@_W@std@@@std@@@std@@MAE@XZ
??1?$time_put@GV?$ostreambuf_iterator@GU?$char_traits@G@std@@@std@@@std@@MAE@XZ
??1?$time_put@DV?$ostreambuf_iterator@DU?$char_traits@D@std@@@std@@@std@@MAE@XZ
??1?$time_get@_WV?$istreambuf_iterator@_WU?$char_traits@_W@std@@@std@@@std@@MAE@XZ
??1?$time_get@GV?$istreambuf_iterator@GU?$char_traits@G@std@@@std@@@std@@MAE@XZ
??1?$time_get@DV?$istreambuf_iterator@DU?$char_traits@D@std@@@std@@@std@@MAE@XZ
??1?$num_put@_WV?$ostreambuf_iterator@_WU?$char_traits@_W@std@@@std@@@std@@MAE@XZ
??1?$num_put@GV?$ostreambuf_iterator@GU?$char_traits@G@std@@@std@@@std@@MAE@XZ
??1?$num_put@DV?$ostreambuf_iterator@DU?$char_traits@D@std@@@std@@@std@@MAE@XZ
??1?$num_get@_WV?$istreambuf_iterator@_WU?$char_traits@_W@std@@@std@@@std@@MAE@XZ
??1?$num_get@GV?$istreambuf_iterator@GU?$char_traits@G@std@@@std@@@std@@MAE@XZ
??1?$num_get@DV?$istreambuf_iterator@DU?$char_traits@D@std@@@std@@@std@@MAE@XZ
??1?$ctype@_W@std@@MAE@XZ
??1?$ctype@G@std@@MAE@XZ
??1?$ctype@D@std@@MAE@XZ
??1?$codecvt@_WDH@std@@MAE@XZ
??1?$codecvt@GDH@std@@MAE@XZ
??1?$codecvt@DDH@std@@MAE@XZ
??1?$basic_streambuf@_WU?$char_traits@_W@std@@@std@@UAE@XZ
??1?$basic_streambuf@GU?$char_traits@G@std@@@std@@UAE@XZ
??1?$basic_streambuf@DU?$char_traits@D@std@@@std@@UAE@XZ
??1?$basic_ostream@_WU?$char_traits@_W@std@@@std@@UAE@XZ
??1?$basic_ostream@GU?$char_traits@G@std@@@std@@UAE@XZ
??1?$basic_ostream@DU?$char_traits@D@std@@@std@@UAE@XZ
??1?$basic_istream@_WU?$char_traits@_W@std@@@std@@UAE@XZ
??1?$basic_istream@GU?$char_traits@G@std@@@std@@UAE@XZ
??1?$basic_istream@DU?$char_traits@D@std@@@std@@UAE@XZ
??1?$basic_iostream@_WU?$char_traits@_W@std@@@std@@UAE@XZ
??1?$basic_iostream@GU?$char_traits@G@std@@@std@@UAE@XZ
??1?$basic_iostream@DU?$char_traits@D@std@@@std@@UAE@XZ
??1?$basic_ios@_WU?$char_traits@_W@std@@@std@@UAE@XZ
??1?$basic_ios@GU?$char_traits@G@std@@@std@@UAE@XZ
??1?$basic_ios@DU?$char_traits@D@std@@@std@@UAE@XZ
??1?$_Yarn@_W@std@@QAE@XZ
??1?$_Yarn@D@std@@QAE@XZ
??0time_base@std@@QAE@I@Z
??0ios_base@std@@IAE@XZ
??0id@locale@std@@QAE@I@Z
??0facet@locale@std@@IAE@I@Z
??0ctype_base@std@@QAE@I@Z
??0codecvt_base@std@@QAE@I@Z
??0agent@Concurrency@@QAE@XZ
??0agent@Concurrency@@QAE@AAVScheduler@1@@Z
??0agent@Concurrency@@QAE@AAVScheduleGroup@1@@Z
??0_Winit@std@@QAE@XZ
??0_UShinit@std@@QAE@XZ
??0_Timevec@std@@QAE@PAX@Z
??0_Timevec@std@@QAE@ABV01@@Z
??0_Runtime_object@details@Concurrency@@QAE@XZ
??0_Runtime_object@details@Concurrency@@QAE@H@Z
??0_Pad@std@@QAE@XZ
??0_Pad@std@@QAE@ABV01@@Z
??0_Lockit@std@@QAE@XZ
??0_Lockit@std@@QAE@H@Z
??0_Locinfo@std@@QAE@PBD@Z
??0_Locinfo@std@@QAE@HPBD@Z
??0_Locimp@locale@std@@AAE@_N@Z
??0_Locimp@locale@std@@AAE@ABV012@@Z
??0_Init_locks@std@@QAE@XZ
??0_Facet_base@std@@QAE@XZ
??0_Facet_base@std@@QAE@ABV01@@Z
??0_Container_base12@std@@QAE@XZ
??0_Container_base12@std@@QAE@ABU01@@Z
??0_Concurrent_queue_iterator_base_v4@details@Concurrency@@IAE@ABV_Concurrent_queue_base_v4@12@@Z
??0_Concurrent_queue_base_v4@details@Concurrency@@IAE@I@Z
??0Init@ios_base@std@@QAE@XZ
??0?$time_put@_WV?$ostreambuf_iterator@_WU?$char_traits@_W@std@@@std@@@std@@QAE@I@Z
??0?$time_put@_WV?$ostreambuf_iterator@_WU?$char_traits@_W@std@@@std@@@std@@QAE@ABV_Locinfo@1@I@Z
??0?$time_put@_WV?$ostreambuf_iterator@_WU?$char_traits@_W@std@@@std@@@std@@IAE@PBDI@Z
??0?$time_put@GV?$ostreambuf_iterator@GU?$char_traits@G@std@@@std@@@std@@QAE@I@Z
??0?$time_put@GV?$ostreambuf_iterator@GU?$char_traits@G@std@@@std@@@std@@QAE@ABV_Locinfo@1@I@Z
??0?$time_put@GV?$ostreambuf_iterator@GU?$char_traits@G@std@@@std@@@std@@IAE@PBDI@Z
??0?$time_put@DV?$ostreambuf_iterator@DU?$char_traits@D@std@@@std@@@std@@QAE@I@Z
??0?$time_put@DV?$ostreambuf_iterator@DU?$char_traits@D@std@@@std@@@std@@QAE@ABV_Locinfo@1@I@Z
??0?$time_get@_WV?$istreambuf_iterator@_WU?$char_traits@_W@std@@@std@@@std@@QAE@I@Z
??0?$time_get@_WV?$istreambuf_iterator@_WU?$char_traits@_W@std@@@std@@@std@@QAE@ABV_Locinfo@1@I@Z
??0?$time_get@_WV?$istreambuf_iterator@_WU?$char_traits@_W@std@@@std@@@std@@IAE@PBDI@Z
??0?$time_get@GV?$istreambuf_iterator@GU?$char_traits@G@std@@@std@@@std@@QAE@I@Z
??0?$time_get@GV?$istreambuf_iterator@GU?$char_traits@G@std@@@std@@@std@@QAE@ABV_Locinfo@1@I@Z
??0?$time_get@GV?$istreambuf_iterator@GU?$char_traits@G@std@@@std@@@std@@IAE@PBDI@Z
??0?$time_get@DV?$istreambuf_iterator@DU?$char_traits@D@std@@@std@@@std@@QAE@I@Z
??0?$time_get@DV?$istreambuf_iterator@DU?$char_traits@D@std@@@std@@@std@@QAE@ABV_Locinfo@1@I@Z
??0?$time_get@DV?$istreambuf_iterator@DU?$char_traits@D@std@@@std@@@std@@IAE@PBDI@Z
??0?$num_put@_WV?$ostreambuf_iterator@_WU?$char_traits@_W@std@@@std@@@std@@QAE@I@Z
??0?$num_put@_WV?$ostreambuf_iterator@_WU?$char_traits@_W@std@@@std@@@std@@QAE@ABV_Locinfo@1@I@Z
??0?$num_put@GV?$ostreambuf_iterator@GU?$char_traits@G@std@@@std@@@std@@QAE@I@Z
??0?$num_put@GV?$ostreambuf_iterator@GU?$char_traits@G@std@@@std@@@std@@QAE@ABV_Locinfo@1@I@Z
??0?$num_put@DV?$ostreambuf_iterator@DU?$char_traits@D@std@@@std@@@std@@QAE@I@Z
??0?$num_put@DV?$ostreambuf_iterator@DU?$char_traits@D@std@@@std@@@std@@QAE@ABV_Locinfo@1@I@Z
??0?$num_get@_WV?$istreambuf_iterator@_WU?$char_traits@_W@std@@@std@@@std@@QAE@I@Z
??0?$num_get@_WV?$istreambuf_iterator@_WU?$char_traits@_W@std@@@std@@@std@@QAE@ABV_Locinfo@1@I@Z
??0?$num_get@GV?$istreambuf_iterator@GU?$char_traits@G@std@@@std@@@std@@QAE@I@Z
??0?$num_get@GV?$istreambuf_iterator@GU?$char_traits@G@std@@@std@@@std@@QAE@ABV_Locinfo@1@I@Z
??0?$num_get@DV?$istreambuf_iterator@DU?$char_traits@D@std@@@std@@@std@@QAE@I@Z
??0?$num_get@DV?$istreambuf_iterator@DU?$char_traits@D@std@@@std@@@std@@QAE@ABV_Locinfo@1@I@Z
??0?$ctype@_W@std@@QAE@I@Z
??0?$ctype@_W@std@@QAE@ABV_Locinfo@1@I@Z
??0?$ctype@G@std@@QAE@I@Z
??0?$ctype@G@std@@QAE@ABV_Locinfo@1@I@Z
??0?$ctype@D@std@@QAE@PBF_NI@Z
??0?$ctype@D@std@@QAE@ABV_Locinfo@1@I@Z
??0?$codecvt@_WDH@std@@QAE@I@Z
??0?$codecvt@_WDH@std@@QAE@ABV_Locinfo@1@I@Z
??0?$codecvt@GDH@std@@QAE@I@Z
??0?$codecvt@GDH@std@@QAE@ABV_Locinfo@1@I@Z
??0?$codecvt@DDH@std@@QAE@I@Z
??0?$codecvt@DDH@std@@QAE@ABV_Locinfo@1@I@Z
??0?$basic_streambuf@_WU?$char_traits@_W@std@@@std@@IAE@XZ
??0?$basic_streambuf@_WU?$char_traits@_W@std@@@std@@IAE@W4_Uninitialized@1@@Z
??0?$basic_streambuf@_WU?$char_traits@_W@std@@@std@@IAE@ABV01@@Z
??0?$basic_streambuf@GU?$char_traits@G@std@@@std@@IAE@XZ
??0?$basic_streambuf@GU?$char_traits@G@std@@@std@@IAE@W4_Uninitialized@1@@Z
??0?$basic_streambuf@GU?$char_traits@G@std@@@std@@IAE@ABV01@@Z
??0?$basic_streambuf@DU?$char_traits@D@std@@@std@@IAE@XZ
??0?$basic_streambuf@DU?$char_traits@D@std@@@std@@IAE@W4_Uninitialized@1@@Z
??0?$basic_streambuf@DU?$char_traits@D@std@@@std@@IAE@ABV01@@Z
??0?$basic_ostream@_WU?$char_traits@_W@std@@@std@@QAE@W4_Uninitialized@1@_N@Z
??0?$basic_ostream@_WU?$char_traits@_W@std@@@std@@QAE@PAV?$basic_streambuf@_WU?$char_traits@_W@std@@@1@_N@Z
??0?$basic_ostream@_WU?$char_traits@_W@std@@@std@@IAE@$$QAV01@@Z
??0?$basic_ostream@GU?$char_traits@G@std@@@std@@QAE@W4_Uninitialized@1@_N@Z
??0?$basic_ostream@GU?$char_traits@G@std@@@std@@QAE@PAV?$basic_streambuf@GU?$char_traits@G@std@@@1@_N@Z
??0?$basic_ostream@GU?$char_traits@G@std@@@std@@IAE@$$QAV01@@Z
??0?$basic_ostream@DU?$char_traits@D@std@@@std@@QAE@W4_Uninitialized@1@_N@Z
??0?$basic_ostream@DU?$char_traits@D@std@@@std@@QAE@PAV?$basic_streambuf@DU?$char_traits@D@std@@@1@_N@Z
??0?$basic_ostream@DU?$char_traits@D@std@@@std@@IAE@$$QAV01@@Z
??0?$basic_istream@_WU?$char_traits@_W@std@@@std@@QAE@W4_Uninitialized@1@@Z
??0?$basic_istream@_WU?$char_traits@_W@std@@@std@@QAE@PAV?$basic_streambuf@_WU?$char_traits@_W@std@@@1@_N@Z
??0?$basic_istream@_WU?$char_traits@_W@std@@@std@@QAE@PAV?$basic_streambuf@_WU?$char_traits@_W@std@@@1@_N1@Z
??0?$basic_istream@_WU?$char_traits@_W@std@@@std@@IAE@$$QAV01@@Z
??0?$basic_istream@GU?$char_traits@G@std@@@std@@QAE@W4_Uninitialized@1@@Z
??0?$basic_istream@GU?$char_traits@G@std@@@std@@QAE@PAV?$basic_streambuf@GU?$char_traits@G@std@@@1@_N@Z
??0?$basic_istream@GU?$char_traits@G@std@@@std@@QAE@PAV?$basic_streambuf@GU?$char_traits@G@std@@@1@_N1@Z
??0?$basic_istream@GU?$char_traits@G@std@@@std@@IAE@$$QAV01@@Z
??0?$basic_istream@DU?$char_traits@D@std@@@std@@QAE@W4_Uninitialized@1@@Z
??0?$basic_istream@DU?$char_traits@D@std@@@std@@QAE@PAV?$basic_streambuf@DU?$char_traits@D@std@@@1@_N@Z
??0?$basic_istream@DU?$char_traits@D@std@@@std@@QAE@PAV?$basic_streambuf@DU?$char_traits@D@std@@@1@_N1@Z
??0?$basic_istream@DU?$char_traits@D@std@@@std@@IAE@$$QAV01@@Z
??0?$basic_iostream@_WU?$char_traits@_W@std@@@std@@QAE@PAV?$basic_streambuf@_WU?$char_traits@_W@std@@@1@@Z
??0?$basic_iostream@_WU?$char_traits@_W@std@@@std@@IAE@$$QAV01@@Z
??0?$basic_iostream@GU?$char_traits@G@std@@@std@@QAE@PAV?$basic_streambuf@GU?$char_traits@G@std@@@1@@Z
??0?$basic_iostream@GU?$char_traits@G@std@@@std@@IAE@$$QAV01@@Z
??0?$basic_iostream@DU?$char_traits@D@std@@@std@@QAE@PAV?$basic_streambuf@DU?$char_traits@D@std@@@1@@Z
??0?$basic_iostream@DU?$char_traits@D@std@@@std@@IAE@$$QAV01@@Z
??0?$basic_ios@_WU?$char_traits@_W@std@@@std@@QAE@PAV?$basic_streambuf@_WU?$char_traits@_W@std@@@1@@Z
??0?$basic_ios@_WU?$char_traits@_W@std@@@std@@IAE@XZ
??0?$basic_ios@GU?$char_traits@G@std@@@std@@QAE@PAV?$basic_streambuf@GU?$char_traits@G@std@@@1@@Z
??0?$basic_ios@GU?$char_traits@G@std@@@std@@IAE@XZ
??0?$basic_ios@DU?$char_traits@D@std@@@std@@QAE@PAV?$basic_streambuf@DU?$char_traits@D@std@@@1@@Z
??0?$basic_ios@DU?$char_traits@D@std@@@std@@IAE@XZ
??0?$_Yarn@_W@std@@QAE@XZ
??0?$_Yarn@D@std@@QAE@XZ
??0?$_Yarn@D@std@@QAE@PBD@Z
??0?$_Yarn@D@std@@QAE@ABV01@@Z
??$_Getvals@_W@?$time_get@_WV?$istreambuf_iterator@_WU?$char_traits@_W@std@@@std@@@std@@IAEX_WABV_Locinfo@1@@Z
??$_Getvals@_W@?$time_get@GV?$istreambuf_iterator@GU?$char_traits@G@std@@@std@@@std@@IAEX_WABV_Locinfo@1@@Z
??$_Getvals@_W@?$time_get@DV?$istreambuf_iterator@DU?$char_traits@D@std@@@std@@@std@@IAEX_WABV_Locinfo@1@@Z
