LIBRARY MSVCR110.DLL
EXPORTS
_wscanf_s
_wscanf
___ms_wscanf
_wprintf_s
_wprintf
_wmemmove_s
_wmemcpy_s
_wctomb_s
_wctomb
_wctob
_wcsxfrm
_wcstoul
_wcstombs_s
_wcstombs
_wcstol
_wcstok_s
_wcstok
_wcstod
_wcsstr
_wcsspn
_wcsrtombs_s
___ms_wprintf
_wcsrtombs
_wcsrchr
_wcspbrk
_wcsnlen
_wcsncpy_s
_wcsncpy
_wcsncmp
_wcsncat_s
_wcsncat
_wcslen
_wcsftime
_wcscspn
_wcscpy_s
_wcscpy
_wcscoll
_wcscmp
_wcschr
_wcscat_s
_wcscat
_wcrtomb_s
_wcrtomb
_vwprintf_s
___ms_vwprintf
_vwprintf
_vswprintf_s
_vsprintf_s
_vsprintf
___ms_vsprintf
_vprintf_s
_vprintf
___ms_vprintf
_vfwprintf_s
_vfwprintf
_vfprintf_s
_vfprintf
___ms_vfwprintf
_ungetwc
___ms_vfprintf
_ungetc
_towupper
_towlower
_toupper
_tolower
_tmpnam_s
_tmpnam
_tmpfile_s
_tmpfile
_tanh
_tan
_system
_swscanf_s
___ms_swscanf
_swscanf
_swprintf_s
_strxfrm
_strtoul
_strtol
_strtok_s
_strtok
_strtod
_strstr
_strspn
_strrchr
_strpbrk
_strnlen
_strncpy_s
_strncpy
_strncmp
_strncat_s
_strncat
_strlen
_strftime
_strerror_s
_strerror
_strcspn
_strcpy_s
_strcpy
_strcoll
_strcmp
_strchr
_strcat_s
_strcat
_sscanf_s
_sscanf
_srand
_sprintf_s
_sprintf
___ms_sprintf
_sinh
_signal
___ms_sscanf
_setvbuf
_setlocale
_setbuf
_scanf_s
_scanf
___ms_scanf
_rewind
_rename
_remove
_realloc
_rand_s
_rand
_raise
_qsort_s
_qsort
_putwchar
_putwc
_puts
_putchar
_putc
_printf_s
_printf
_perror
_memset
_memmove_s
_memmove
_memcpy_s
_memcpy
_memcmp
_memchr
_mbtowc
_mbstowcs_s
_mbstowcs
_mbsrtowcs_s
___ms_printf
_mbsrtowcs
_mbrtowc
_mbrlen
_mblen
_malloc
_longjmp
_log10
_localeconv
_lldiv
_llabs
_ldiv
_labs
_isxdigit
_iswxdigit
_iswupper
_iswspace
_iswpunct
_iswprint
_iswlower
_iswgraph
_iswdigit
_iswctype
_iswcntrl
_iswascii
_iswalpha
_iswalnum
_isupper
_isspace
_ispunct
_isprint
_islower
_isleadbyte
_isgraph
_isdigit
_iscntrl
_isalpha
_isalnum
_is_wctype
_getwchar
_getwc
_gets_s
_gets
_getenv_s
_getenv
_getchar
_getc
_fwscanf_s
___ms_fwscanf
_fwscanf
_fwrite
_fwprintf_s
_fwprintf
_ftell
_fsetpos
___ms_fwprintf
_fseek
_fscanf_s
_fscanf
_freopen_s
_freopen
___ms_fscanf
_free
_fread_s
_fread
_fputws
_fputwc
_fputs
_fputc
_fprintf_s
_fprintf
_fopen_s
_fopen
___ms_fprintf
_fgetws
_fgetwc
_fgets
_fgetpos
_fgetc
_fflush
_ferror
_feof
_fclose
_exit
_div
_cosh
_clock
_clearerr_s
_clearerr
_calloc
_btowc
_bsearch_s
_bsearch
_atol
_atoi
_atof
_atan
_asin
_asctime_s
_asctime
_y0
_y1
_acos
_abs
_abort
__yn
_yn
__y1
__y0
__wutime64
__wutime32
__wunlink
__wtol_l
__wtol
__wtoi_l
__wtoi64_l
__wtoi64
__wtoi
__wtof_l
__wtof
__wtmpnam_s
__wtmpnam
__wtempnam
__wsystem
__wstrtime_s
__wstrtime
__wstrdate_s
__wstrdate
__wstat64i32
__wstat64
__wstati64
__wstat32i64
__wstat32
__wsplitpath_s
__wsplitpath
__wspawnvpe
__wspawnvp
__wspawnve
__wspawnv
__wspawnlpe
__wspawnlp
__wspawnle
__wspawnl
__wsopen_s
__wsopen
__wsetlocale
__wsearchenv_s
__wsearchenv
__wscanf_s_l
__wscanf_l
__wrmdir
_write
__wstat
__write
__wrename
__wremove
__wputenv_s
__wputenv
__wprintf_s_l
__wprintf_p_l
__wprintf_p
__wprintf_l
_wpopen
__wpopen
__wperror
__wopen
__wmktemp_s
__wmktemp
__wmkdir
__wmakepath_s
__wmakepath
__wgetenv_s
__wgetenv
__wgetdcwd
__wgetcwd
__wfullpath
__wfsopen
__wfreopen_s
__wfreopen
__wfopen_s
__wfopen
__wfindnext64i32
__wfindnext64
__wfindnext32i64
__wfindnext32
__wfindfirst64i32
__wfindfirst64
__wfindnext
__wfindfirst32i64
__wfindfirst32
__wfindfirst
__wfdopen
__wexecvpe
__wexecvp
__wexecve
__wexecv
__wexeclpe
__wexeclp
__wexecle
__wexecl
__wdupenv_s
__wctype
__wctomb_s_l
__wctomb_l
__wctime64_s
__wctime64
__wctime32_s
__wctime32
__wcsxfrm_l
_wcsupr
__wcsupr_s_l
__wcsupr_s
__wcsupr_l
__wcsupr
__wcstoul_l
__wcstoui64_l
__wcstoui64
__wcstombs_s_l
__wcstombs_l
__wcstol_l
__wcstoi64_l
__wcstoi64
__wcstod_l
_wcsnset
__wcsset_s
_wcsset
__wcsset
__wcsrev
_wcsrev
__wcsnset_s
__wcsnset
__wcsnicoll_l
__wcsnicoll
__wcsnicmp_l
__wcsnicmp
_wcsnicmp
__wcsncoll_l
__wcsncoll
__wctime
__wcslwr_s_l
__wcslwr_s
__wcslwr_l
__wcslwr
_wcslwr
__wcsicoll_l
_wcsicoll
__wcsicoll
_wcsicmp
_wcsdup
_wcscmpi
__wcsicmp_l
__wcsicmp
__wcsftime_l
__wcserror_s
__wcserror
__wcsdup
__wcscoll_l
__wcreate_locale
__wcreat
__wchmod
__wchdir
__wassert
__wasctime_s
__wasctime
__waccess_s
__waccess
__vwprintf_s_l
__vwprintf_p_l
__vwprintf_p
__vwprintf_l
__vswprintf_s_l
__vswprintf_p_l
__vswprintf_p
__vswprintf_l
__vswprintf_c_l
__vswprintf_c
__vswprintf
__vsprintf_s_l
__vsprintf_p_l
__vsprintf_p
__vsprintf_l
__vsnwprintf_s_l
__vsnwprintf_s
__vsnwprintf_l
__vsnwprintf
__vsnprintf_s_l
_vsnprintf_s
__vsnprintf_s
__vsnprintf_l
__vsnprintf_c_l
__vsnprintf_c
__vsnprintf
__vscwprintf_p_l
__vscwprintf_p
__vscwprintf_l
__vscwprintf
__vscprintf_p_l
__vscprintf_p
__vscprintf_l
__vscprintf
__vprintf_s_l
__vprintf_p_l
__vprintf_p
__vprintf_l
__vfwprintf_s_l
__vfwprintf_p_l
__vfwprintf_p
__vfwprintf_l
__vfprintf_s_l
__vfprintf_p_l
__vfprintf_p
__vfprintf_l
__vcwprintf_s_l
__vcwprintf_s
__vcwprintf_p_l
__vcwprintf_p
__vcwprintf_l
__vcwprintf
__vcprintf_s_l
__vcprintf_s
__vcprintf_p_l
__vcprintf_p
__vcprintf_l
__vcprintf
__utime64
__utime32
_utime
__unlock_file
__unlock
__unloaddll@0
__unlink
_unlink
__ungetwch_nolock
__ungetwch
__ungetwc_nolock
__ungetch_nolock
_ungetch
__ungetch
_umask
__ungetc_nolock
__umask_s
__umask
__ultow_s
__ultow
__ultoa_s
__ultoa
__ui64tow_s
_tzset
__ui64tow
__ui64toa_s
__ui64toa
__tzset
_tzname
__towupper_l
__towlower_l
__toupper_l
__toupper
__tolower_l
__tolower
_tell
_timezone
__time64
__time32
_time
_tempnam
__tempnam
__telli64
__tell
__swscanf_s_l
__swscanf_l
__swprintf_s_l
__swprintf_p_l
__swprintf_p
__swprintf_c_l
__swprintf_c
__swprintf
__swab
_swab
__strxfrm_l
__strupr_s_l
__strupr_s
__strupr_l
__strupr
_strupr
__strtoul_l
__strtoui64_l
__strtoui64
__strtol_l
__strtoi64_l
__strtoi64
__strtod_l
__strtime_s
__strtime
__strset_s
_strset
__strset
_strrev
__strrev
__strnset_s
_strnset
__strnset
__strnicoll_l
__strnicoll
__strnicmp_l
_strncasecmp
_strnicmp
__strnicmp
__stati64
_spawnl
_strcasecmp
__strlwr_s_l
__strlwr_s
__strlwr_l
_strlwr
__strlwr
__stricoll_l
__stricoll
_stricoll
__stricmp_l
_stricmp
__stricmp
__strftime_l
__strerror_s
__strerror
_strdup
__strncoll_l
__strdup
__strdate_s
__strdate
_strcmpi
__strncoll
__strcmpi
__strcoll_l
__statusfp2
__statusfp
__stat64i32
__stat64
__stat32i64
__stat32
__sscanf_s_l
__sscanf_l
__sprintf_p_l
__sprintf_p
__sprintf_l
__splitpath_s
__splitpath
_spawnvpe
__spawnvpe
__spawnvp
_spawnvp
__sprintf_s_l
_spawnve
__spawnve
_spawnle
_spawnv
__spawnlpe
_spawnlp
__spawnv
_spawnlpe
__spawnlp
__spawnle
__spawnl
__sopen_s
_sopen
__sopen
__snwscanf_s_l
__snwscanf_s
__snwscanf_l
__snwscanf
__snwprintf_s_l
__snwprintf_s
__snwprintf_l
__snwprintf
__snscanf_s_l
__snscanf_s
__snscanf_l
__snscanf
__snprintf_s_l
__snprintf_s
__snprintf_l
__snprintf_c_l
__snprintf_c
__snprintf
__sleep
__setsystime
_setmode
__setmode
__setmbcp
__setmaxstdio
__setjmp3
__setjmp
__seterrormode
__set_purecall_handler
__set_printf_count_output
__set_output_format
__set_malloc_crt_max_wait
__set_invalid_parameter_handler
__set_fmode
__set_error_mode
__set_errno
__set_doserrno
__set_controlfp
__set_abort_behavior
__set_SSE2_enable
__seh_longjmp_unwind@4
__seh_longjmp_unwind4@4
__searchenv_s
__searchenv
_searchenv
__scwprintf_p_l
__scwprintf_p
__scwprintf_l
__scwprintf
__scprintf_p_l
__scprintf_p
__scprintf_l
__scprintf
__scanf_s_l
__scanf_l
__scalb
__rotr64
__rotr
__rotl64
_rmtmp
__rmtmp
__rmdir
_rmdir
__stat
__rotl
__resetstkoflw
__recalloc_crt
__recalloc
__realloc_crt
_read
__read
__putws
__putwch_nolock
_putw
_putch
__putwch
__putw
__putenv_s
_putenv
__putenv
__putch_nolock
__putch
__purecall
__printf_s_l
__printf_p_l
__printf_p
__printf_l
_pclose
__popen
__pipe
__pclose
__outpw
__outpd
__open
_open
_popen
__outp
__open_osfhandle
__onexit
__nextafter
_nextafter
__msize
__mktime64
_mktime
__mktime32
__mktemp_s
_mktemp
__mktemp
__mkgmtime64
__mkgmtime32
__mkgmtime
_mkdir
__mkdir
__memicmp_l
_memicmp
__memicmp
_memccpy
__memccpy
__mbtowc_l
__mbsupr_s_l
__mbsupr_s
__mbsupr_l
__mbsupr
__mbstrnlen_l
__mbstrnlen
__mbstrlen_l
__mbstrlen
__mbstowcs_s_l
__mbstowcs_l
__mbstok_s_l
__mbstok_s
__mbstok_l
__mbstok
__mbsstr_l
__mbsstr
__mbsspnp_l
__mbsspnp
__mbsspn_l
__mbsspn
__mbsset_s_l
__mbsset_s
__mbsset_l
__mbsset
__mbsrev_l
__mbsrev
__mbsrchr_l
__mbsrchr
__mbspbrk_l
__mbspbrk
__mbsnset_s_l
__mbsnset_s
__mbsnset_l
__mbsnset
__mbsnlen_l
__mbsnlen
__mbsninc_l
__mbsninc
__mbsnicoll_l
__mbsnicoll
__mbsnicmp_l
__mbsnicmp
__mbsnextc_l
__mbsnextc
__mbsncpy_s_l
__mbsncpy_s
__mbsncpy_l
__mbsncpy
__mbsncoll_l
__mbsncoll
__mbsncmp_l
__mbsncmp
__mbsnccnt_l
__mbsnccnt
__mbsncat_s_l
__mbsncat_s
__mbsncat_l
__mbsncat
__mbsnbset_s_l
__mbsnbset_s
__mbsnbset_l
__mbsnbset
__mbsnbicoll_l
__mbsnbicoll
__mbsnbicmp_l
__mbsnbicmp
__mbsnbcpy_s_l
__mbsnbcpy_s
__mbsnbcpy
__mbsnbcoll_l
__mbsnbcoll
__mbsnbcnt_l
__mbsnbcnt
__mbsnbcmp_l
__mbsnbcmp
__mbsnbcat_s_l
__mbsnbcat_s
__mbsnbcat_l
__mbsnbcat
__mbslwr_s_l
__mbslwr_s
__mbslwr_l
__mbslwr
__mbslen_l
__mbslen
__mbsinc_l
__mbsinc
__mbsicoll_l
__mbsicoll
__mbsicmp_l
__mbsicmp
__mbsdec_l
__mbsdec
__mbscspn_l
__mbscspn
__mbscpy_s_l
__mbscpy_s
__mbscoll_l
__mbscoll
__mbscmp_l
__mbscmp
__mbschr_l
__mbschr
__mbscat_s_l
__mbscat_s
__mbsbtype_l
__mbsbtype
__mblen_l
__mbctoupper_l
__mbctoupper
__mbctombb_l
__mbctombb
__mbctolower_l
__mbctolower
__mbctokata_l
__mbctokata
__mbctohira_l
__mbctohira
__mbclen_l
__mbclen
__mbcjmstojis_l
__mbcjmstojis
__mbcjistojms_l
__mbcjistojms
__mbccpy_s_l
__mbccpy_s
__mbccpy_l
__mbccpy
__mbbtype_l
__mbbtype
__mbbtombc_l
__mbbtombc
__malloc_crt
__makepath_s
__makepath
_lseek
__ltoa_s
_ltoa
__ltow_s
__ltow
__ltoa
__lseeki64
__lseek
__lsearch_s
_lsearch
__lsearch
__lrotr
__lrotl
__longjmpex
__logb
__locking
__lock_file
__lock
__localtime64_s
__localtime64
__localtime32_s
__localtime32
_localtime
__mbsnbcpy_l
__local_unwind4
__local_unwind2
__loaddll
__libm_sse2_tan_precise
__libm_sse2_sqrt_precise
__libm_sse2_sin_precise
__libm_sse2_pow_precise
__libm_sse2_log_precise
__libm_sse2_log10_precise
__libm_sse2_exp_precise
__libm_sse2_cos_precise
__libm_sse2_atan_precise
__libm_sse2_asin_precise
__libm_sse2_acos_precise
_kbhit
_lfind
__lfind_s
__lfind
__kbhit
_jn
__jn
_itoa
_j0
_j1
__j1
__j0
__itow_s
__itow
__itoa_s
__itoa
__isxdigit_l
__iswxdigit_l
__iswupper_l
__iswspace_l
__iswpunct_l
__iswprint_l
__iswlower_l
__iswgraph_l
__iswdigit_l
__iswctype_l
__iswcsymf_l
__iswcsym_l
__iswcntrl_l
__iswalpha_l
__iswalnum_l
__isupper_l
__isspace_l
__ispunct_l
__isprint_l
__isnan
__ismbstrail_l
__ismbstrail
__ismbslead_l
__ismbslead
__ismbcupper_l
__ismbcupper
__ismbcsymbol_l
__ismbcsymbol
__ismbcspace_l
__ismbcspace
__ismbcpunct_l
__ismbcpunct
__ismbcprint_l
__ismbcprint
__ismbclower_l
__ismbclower
__ismbclegal_l
__ismbclegal
__ismbcl2_l
__ismbcl2
__ismbcl1_l
__ismbcl1
__ismbcl0_l
__ismbcl0
__ismbckata_l
__ismbckata
__ismbchira_l
__ismbchira
__ismbcgraph_l
__ismbcgraph
__ismbcdigit_l
__ismbcdigit
__ismbcalpha_l
__ismbcalpha
__ismbcalnum_l
__ismbcalnum
__ismbbtrail_l
__ismbbtrail
__ismbbpunct_l
__ismbbpunct
__ismbbprint_l
__ismbbprint
__ismbblead_l
__ismbblead
__ismbbkpunct_l
__ismbbkpunct
__ismbbkprint_l
__ismbbkprint
__ismbbkana_l
__ismbbkana
__ismbbkalnum_l
__ismbbkalnum
__ismbbgraph_l
__ismbbgraph
__ismbbalpha_l
__ismbbalpha
__ismbbalnum_l
__ismbbalnum
__islower_l
__isleadbyte_l
__isgraph_l
__isdigit_l
__isctype_l
__iscntrl_l
__isatty
_isatty
__isctype
__isalpha_l
__isalnum_l
__invoke_watson
__invalid_parameter_noinfo_noreturn
__invalid_parameter_noinfo
__invalid_parameter
__inpw
__inpd
__inp
__initterm_e
__initterm
__initptd
__i64tow_s
__i64tow
__i64toa_s
__i64toa
__hypotf
_hypot
__hypot
__heapwalk
_heapwalk
__heapused
__heapset
__heapmin
__heapchk
__heapadd
__gmtime64_s
__gmtime64
__gmtime32_s
_gmtime
__gmtime32
__global_unwind2
__getws_s
__getws
__getwche_nolock
__getwche
__getwch_nolock
__getwch
_getw
__getw
__getsystime
__getptd
__getpid@0
__getmbcp
__getmaxstdio
__getdrives@0
__getdrive
__getdllprocaddr
__getdiskfree
__getdcwd
_getcwd
__getcwd
_getche
__getche_nolock
__getche
__getch_nolock
_getch
__getch
__getc_nolock
__get_wpgmptr
__get_unexpected
__get_tzname
__get_timezone
__get_terminate
__get_purecall_handler
__get_printf_count_output
__get_pgmptr
__get_output_format
__get_osfhandle
__get_invalid_parameter_handler
__get_heap_handle
__get_fmode
__get_errno
__get_dstbias
__get_doserrno
__get_daylight
__get_current_locale
__gcvt_s
_gcvt
__gcvt
__fwscanf_s_l
__fwscanf_l
__fwrite_nolock
__fwprintf_s_l
__fwprintf_p_l
__fwprintf_p
__fwprintf_l
__futime64
__futime32
__fullpath
__ftol
__fstati64
__ftime64_s
__ftime64
__ftime32_s
__ftime32
__ftelli64_nolock
__ftelli64
__ftell_nolock
__fstat64i32
__fstat64
__fstat32i64
__fstat32
__fsopen
__fseeki64_nolock
__fseeki64
__fseek_nolock
__fscanf_s_l
__fscanf_l
__freefls@4
__freea_s
__freea
__free_locale
__fread_nolock_s
__fstat
__ftime
__fread_nolock
_finite
_fputwchar
__fputwchar
_fputchar
__fputwc_nolock
__fputchar
__fprintf_s_l
__fprintf_p_l
__fprintf_p
__fprintf_l
__fpreset
__fpieee_flt
__fpclass
_fpclass
__flushall
__flsbuf
__finite
__findnext64i32
__findnext64
__findnext32i64
__findnext32
__findfirst64i32
__findfirst64
__findfirst32i64
__findfirst
__findfirst32
__findclose
_fileno
__fileno
__filelengthi64
__filelength
__filbuf
__fgetwchar
_fgetwchar
_filelength
__fgetwc_nolock
_fgetchar
__fgetchar
__fflush_nolock
_fdopen
__fdopen
_fcvt
__fcvt_s
__fcvt
__fcloseall
__fclose_nolock
__expand
_execvpe
__exit
__execvpe
_execvp
__execvp
_execve
__execve
__execv
__execlpe
_execlpe
_execv
_execlp
__execlp
_execle
_execl
__execle
__execl
__except_handler4_common
__except_handler3
__except_handler2
__errno
_dup
_dup2
__eof
_eof
__endthreadex
__endthread
__ecvt_s
_ecvt
__ecvt
__dupenv_s
__dup2
__dup
__dosmaperr
__difftime64
__difftime32
_daylight
__cwscanf_s_l
__cwscanf_s
__cwscanf_l
__cwscanf
__cwprintf_s_l
_cwait
__cwprintf_s
__cwprintf_p_l
__cwprintf_p
__cwprintf_l
__cwprintf
__cwait
__ctime64_s
__ctime64
__ctime32_s
__ctime32
_ctime
__cscanf_s_l
__cscanf_s
__cscanf_l
__cscanf
__crt_debugger_hook
__create_locale
__creat
_creat
__cputws
__cputs
__cprintf_s_l
__cprintf_s
__cprintf_p_l
__cprintf_p
__cprintf_l
__cprintf
__copysign
__controlfp_s
__controlfp
__control87
__configthreadlocale
__commit
_close
__close
_chmod
__clearfp
__chsize_s
_chsize
__chsize
__chkesp
__chgsign
_chgsign
__chmod
__chdrive
_chdir
__chdir
__cgetws_s
__cgetws
__cgets_s
__cgets
__cexit
__calloc_crt
__callnewh
__c_exit
__byteswap_ushort
__byteswap_ulong
__byteswap_uint64
__beginthreadex
__beginthread
__beep
__atoldbl_l
__atoldbl
__atol_l
__atoi_l
__atoi64_l
__atoi64
__atoflt_l
__atoflt
__atof_l
__atodbl_l
__atodbl
__assert
__amsg_exit
__aligned_recalloc
__aligned_realloc
__aligned_offset_recalloc
__aligned_offset_realloc
__aligned_offset_malloc
__aligned_msize
__aligned_malloc
__aligned_free
__access_s
_access
__access
__abs64
__abnormal_termination
___wgetmainargs
___wcsncnt
___wcserror_s
___wcserror
___vswprintf_l
___uncaught_exception
___unDNameHelper
___unDNameEx
___unDName
___tzname
___toascii
_toascii
___timezone
___threadid@0
___threadhandle@0
___sys_nerr
___sys_errlist
___swprintf_l
___strncnt
___setusermatherr
___set_app_type
___report_gsfailure
___pxcptinfoptrs
___pwctype_func
___pctype_func
___p__wpgmptr
___p__wenviron
___p__wcmdln
___p__tzname
___p__timezone
___p__pwctype
___p__pgmptr
___p__pctype
___p__mbctype
___p__mbcasemap
___p__iob
___p__fmode
___p__environ
___p__dstbias
___p__daylight
___p__commode
___p__acmdln
___p___winitenv
__findnext
___p___wargv
___p___mb_cur_max
___p___initenv
___p___argv
___p___argc
___libm_sse2_tanf
___libm_sse2_tan
___libm_sse2_sinf
___libm_sse2_sin
___libm_sse2_powf
___libm_sse2_pow
___libm_sse2_logf
___libm_sse2_log10f
___libm_sse2_log10
___libm_sse2_log
___libm_sse2_expf
___libm_sse2_exp
___libm_sse2_cosf
___libm_sse2_cos
___libm_sse2_atanf
___libm_sse2_atan2
___libm_sse2_atan
___libm_sse2_asinf
___libm_sse2_asin
___libm_sse2_acosf
___libm_sse2_acos
___lconv_init
___iswcsym
___iscsymf
_iscsymf
___iscsym
_iscsym
___isascii
_isascii
___iswcsymf
___iob_func
___getmainargs
___get_tlsindex
___get_flsindex
___get_current_locale
___free_locale
___fpecode
___dstbias
___doserrno
___dllonexit
___daylight
___crtUnhandledException
___crtTerminateProcess
___crtSetUnhandledExceptionFilter
___crtLCMapStringW
___crtLCMapStringA
___crtIsPackagedApp
___crtGetShowWindowMode
___crtCompareStringW
___crtCompareStringA
___create_locale
___control87_2
___clean_type_info_names_internal
____unguarded_readlc_active_add_func
____setlc_active_func
____mb_cur_max_l_func
____mb_cur_max_func
____lc_locale_name_func
____lc_collate_cp_func
____lc_codepage_func
___TypeMatch
___STRINGTOLD_L
___STRINGTOLD
___RTtypeid
___RTDynamicCast
___RTCastToVoid
___FrameUnwindFilter
___DestructExceptionObject
___CxxUnregisterExceptionObject
___CxxRegisterExceptionObject
___CxxQueryExceptionSize
___CxxLongjmpUnwind@4
___CxxFrameHandler3
___CxxFrameHandler2
___CxxFrameHandler
___CxxExceptionFilter
___CxxDetectRethrow
___CppXcptFilter
___BuildCatchObjectHelper
___BuildCatchObject
___AdjustPointer
__XcptFilter
__Wcsftime
__W_Gettnames
__W_Getmonths
__W_Getdays
__Unlock_shared_ptr_spin_lock
__Strftime
__NLG_Return@12
__NLG_Return2
__NLG_Dispatch2@4
__Lock_shared_ptr_spin_lock
__IsExceptionObjectToBeDestroyed
__Gettnames
__Getmonths
__Getdays
__FindAndUnlinkFrame
__EH_prolog
__CxxThrowException@8
__CreateFrameInfo
__CRT_RTC_INITW
__CRT_RTC_INIT
__CItanh
__CItan
__CIsqrt
__CIsinh
__CIsin
__CIpow
__CIlog10
__CIlog
__CIfmod
__CIexp
__CIcosh
__CIcos
__CIatan2
__CIatan
__CIasin
__CIacos
?what@exception@std@@UBEPBDXZ
?wait_for_multiple@event@Concurrency@@SAIPAPAV12@I_NI@Z
?wait_for@_Condition_variable@details@Concurrency@@QAE_NAAVcritical_section@3@I@Z
?wait@event@Concurrency@@QAEII@Z
?wait@_Condition_variable@details@Concurrency@@QAEXAAVcritical_section@3@@Z
?wait@Concurrency@@YAXI@Z
?vswprintf@@YAHPA_WIPB_WPAD@Z
?unlock@reader_writer_lock@Concurrency@@QAEXXZ
?unlock@critical_section@Concurrency@@QAEXXZ
?unexpected@@YAXXZ
?try_lock_read@reader_writer_lock@Concurrency@@QAE_NXZ
?try_lock_for@critical_section@Concurrency@@QAE_NI@Z
?try_lock@reader_writer_lock@Concurrency@@QAE_NXZ
?try_lock@critical_section@Concurrency@@QAE_NXZ
?terminate@@YAXXZ
?swprintf@@YAHPA_WIPB_WZZ
?swprintf@@YAHPAGIPBGZZ
?set_unexpected@@YAP6AXXZP6AXXZ@Z
?set_unexpected@@YAP6AXXZH@Z
?set_terminate@@YAP6AXXZP6AXXZ@Z
?set_terminate@@YAP6AXXZH@Z
?set_task_execution_resources@Concurrency@@YAXK@Z
?set_task_execution_resources@Concurrency@@YAXGPAU_GROUP_AFFINITY@@@Z
?set_new_handler@@YAP6AXXZP6AXXZ@Z
?set@event@Concurrency@@QAEXXZ
?reset@event@Concurrency@@QAEXXZ
?raw_name@type_info@@QBEPBDXZ
?notify_one@_Condition_variable@details@Concurrency@@QAEXXZ
?notify_all@_Condition_variable@details@Concurrency@@QAEXXZ
?native_handle@critical_section@Concurrency@@QAEAAV12@XZ
?name@type_info@@QBEPBDPAU__type_info_node@@@Z
?lock_read@reader_writer_lock@Concurrency@@QAEXXZ
?lock@reader_writer_lock@Concurrency@@QAEXXZ
?lock@critical_section@Concurrency@@QAEXXZ
?get_error_code@scheduler_resource_allocation_error@Concurrency@@QBEJXZ
?from_numa_node@location@Concurrency@@SA?AV12@G@Z
?current@location@Concurrency@@SA?AV12@XZ
?before@type_info@@QBE_NABV1@@Z
?_wsopen@@YAHPB_WHHH@Z
?_wopen@@YAHPB_WHH@Z
?_type_info_dtor_internal_method@type_info@@QAEXXZ
?_sopen@@YAHPBDHHH@Z
?_set_se_translator@@YAP6AXIPAU_EXCEPTION_POINTERS@@@ZP6AXI0@Z@Z
?_set_se_translator@@YAP6AXIPAU_EXCEPTION_POINTERS@@@ZH@Z
?_set_new_mode@@YAHH@Z
?_set_new_handler@@YAP6AHI@ZP6AHI@Z@Z
?_set_new_handler@@YAP6AHI@ZH@Z
?_query_new_mode@@YAHXZ
?_query_new_handler@@YAP6AHI@ZXZ
?_open@@YAHPBDHH@Z
?_name_internal_method@type_info@@QBEPBDPAU__type_info_node@@@Z
?_is_exception_typeof@@YAHABVtype_info@@PAU_EXCEPTION_POINTERS@@@Z
?_invalid_parameter@@YAXPBG00II@Z
?_inconsistency@@YAXXZ
?__ExceptionPtrToBool@@YA_NPBX@Z
?__ExceptionPtrSwap@@YAXPAX0@Z
?__ExceptionPtrRethrow@@YAXPBX@Z
?__ExceptionPtrDestroy@@YAXPAX@Z
?__ExceptionPtrCurrentException@@YAXPAX@Z
?__ExceptionPtrCreate@@YAXPAX@Z
?__ExceptionPtrCopyException@@YAXPAXPBX1@Z
?__ExceptionPtrCopy@@YAXPAXPBX@Z
?__ExceptionPtrCompare@@YA_NPBX0@Z
?__ExceptionPtrAssign@@YAXPAXPBX@Z
?_Yield@_Context@details@Concurrency@@SAXXZ
?_Value@_SpinCount@details@Concurrency@@SAIXZ
?_ValidateWrite@@YAHPAXI@Z
?_ValidateRead@@YAHPBXI@Z
?_ValidateExecute@@YAHP6GHXZ@Z
?_UnderlyingYield@details@Concurrency@@YAXXZ
?_Type_info_dtor_internal@type_info@@CAXPAV1@@Z
?_Type_info_dtor@type_info@@CAXPAV1@@Z
?_TryAcquireWrite@_ReaderWriterLock@details@Concurrency@@QAE_NXZ
?_TryAcquire@_ReentrantLock@details@Concurrency@@QAE_NXZ
?_TryAcquire@_ReentrantBlockingLock@details@Concurrency@@QAE_NXZ
?_TryAcquire@_NonReentrantBlockingLock@details@Concurrency@@QAE_NXZ
?_Trace_ppl_function@Concurrency@@YAXABU_GUID@@EW4ConcRT_EventType@1@@Z
?_Trace_agents@Concurrency@@YAXW4Agents_EventType@1@_JZZ
?_Tidy@exception@std@@AAEXXZ
?_Stop@_Timer@details@Concurrency@@IAEXXZ
?_Start@_Timer@details@Concurrency@@IAEXXZ
?_SpinYield@Context@Concurrency@@SAXXZ
?_SpinOnce@?$_SpinWait@$0A@@details@Concurrency@@QAE_NXZ
?_SpinOnce@?$_SpinWait@$00@details@Concurrency@@QAE_NXZ
?_ShouldSpinAgain@?$_SpinWait@$0A@@details@Concurrency@@IAE_NXZ
?_ShouldSpinAgain@?$_SpinWait@$00@details@Concurrency@@IAE_NXZ
?_SetUnobservedExceptionHandler@details@Concurrency@@YAXP6AXXZ@Z
?_SetSpinCount@?$_SpinWait@$0A@@details@Concurrency@@QAEXI@Z
?_SetSpinCount@?$_SpinWait@$00@details@Concurrency@@QAEXI@Z
?_ScheduleTask@_CurrentScheduler@details@Concurrency@@SAXP6AXPAX@Z0@Z
?_Schedule@_TaskCollection@details@Concurrency@@QAEXPAV_UnrealizedChore@23@PAVlocation@3@@Z
?_Schedule@_TaskCollection@details@Concurrency@@QAEXPAV_UnrealizedChore@23@@Z
?_Schedule@_StructuredTaskCollection@details@Concurrency@@QAEXPAV_UnrealizedChore@23@PAVlocation@3@@Z
?_Schedule@_StructuredTaskCollection@details@Concurrency@@QAEXPAV_UnrealizedChore@23@@Z
?_RunAndWait@_TaskCollection@details@Concurrency@@QAG?AW4_TaskCollectionStatus@23@PAV_UnrealizedChore@23@@Z
?_RunAndWait@_StructuredTaskCollection@details@Concurrency@@QAG?AW4_TaskCollectionStatus@23@PAV_UnrealizedChore@23@@Z
?_Reset@?$_SpinWait@$0A@@details@Concurrency@@IAEXXZ
?_Reset@?$_SpinWait@$00@details@Concurrency@@IAEXXZ
?_ReportUnobservedException@details@Concurrency@@YAXXZ
?_ReleaseWrite@_ReaderWriterLock@details@Concurrency@@QAEXXZ
?_ReleaseRead@_ReaderWriterLock@details@Concurrency@@QAEXXZ
?_Release@_Scheduler@details@Concurrency@@QAEIXZ
?_Release@_ReentrantPPLLock@details@Concurrency@@QAEXXZ
?_Release@_ReentrantLock@details@Concurrency@@QAEXXZ
?_Release@_ReentrantBlockingLock@details@Concurrency@@QAEXXZ
?_Release@_NonReentrantPPLLock@details@Concurrency@@QAEXXZ
?_Release@_NonReentrantBlockingLock@details@Concurrency@@QAEXXZ
?_RegisterCallback@_CancellationTokenState@details@Concurrency@@QAEXPAV_CancellationTokenRegistration@23@@Z
?_RegisterCallback@_CancellationTokenState@details@Concurrency@@QAEPAV_CancellationTokenRegistration@23@P6AXPAX@Z0H@Z
?_Reference@_Scheduler@details@Concurrency@@QAEIXZ
?_Oversubscribe@_Context@details@Concurrency@@SAX_N@Z
?_NumberOfSpins@?$_SpinWait@$0A@@details@Concurrency@@IAEKXZ
?_NumberOfSpins@?$_SpinWait@$00@details@Concurrency@@IAEKXZ
?_NewTokenState@_CancellationTokenState@details@Concurrency@@SAPAV123@XZ
?_NewCollection@_AsyncTaskCollection@details@Concurrency@@SAPAV123@PAV_CancellationTokenState@23@@Z
?_Name_base_internal@type_info@@CAPBDPBV1@PAU__type_info_node@@@Z
?_Name_base@type_info@@CAPBDPBV1@PAU__type_info_node@@@Z
?_IsSynchronouslyBlocked@_Context@details@Concurrency@@QBE_NXZ
?_IsCanceling@_TaskCollection@details@Concurrency@@QAE_NXZ
?_IsCanceling@_StructuredTaskCollection@details@Concurrency@@QAE_NXZ
?_Invoke@_CancellationTokenRegistration@details@Concurrency@@AAEXXZ
?_Id@_CurrentScheduler@details@Concurrency@@SAIXZ
?_GetScheduler@_Scheduler@details@Concurrency@@QAEPAVScheduler@3@XZ
?_GetNumberOfVirtualProcessors@_CurrentScheduler@details@Concurrency@@SAIXZ
?_GetCurrentInlineDepth@_StackGuard@details@Concurrency@@CAAAIXZ
?_GetConcurrency@details@Concurrency@@YAIXZ
?_GetConcRTTraceInfo@Concurrency@@YAPBU_CONCRT_TRACE_INFO@details@1@XZ
?_Get@_CurrentScheduler@details@Concurrency@@SA?AV_Scheduler@23@XZ
?_DoYield@?$_SpinWait@$0A@@details@Concurrency@@IAEXXZ
?_DoYield@?$_SpinWait@$00@details@Concurrency@@IAEXXZ
?_Destroy@_CancellationTokenState@details@Concurrency@@EAEXXZ
?_Destroy@_AsyncTaskCollection@details@Concurrency@@EAEXXZ
?_DeregisterCallback@_CancellationTokenState@details@Concurrency@@QAEXPAV_CancellationTokenRegistration@23@@Z
?_Current_node@location@Concurrency@@SA?AV12@XZ
?_CurrentContext@_Context@details@Concurrency@@SA?AV123@XZ
?_Copy_str@exception@std@@AAEXPBD@Z
?_Confirm_cancel@_Cancellation_beacon@details@Concurrency@@QAE_NXZ
?_ConcRT_Trace@details@Concurrency@@YAXHPB_WZZ
?_ConcRT_CoreAssert@details@Concurrency@@YAXPBD0H@Z
?_CleanupToken@_StructuredTaskCollection@details@Concurrency@@AAEXXZ
?_CheckTaskCollection@_UnrealizedChore@details@Concurrency@@IAEXXZ
?_Cancel@_TaskCollection@details@Concurrency@@QAEXXZ
?_Cancel@_StructuredTaskCollection@details@Concurrency@@QAEXXZ
?_Cancel@_CancellationTokenState@details@Concurrency@@QAEXXZ
?_AcquireWrite@_ReaderWriterLock@details@Concurrency@@QAEXXZ
?_AcquireRead@_ReaderWriterLock@details@Concurrency@@QAEXXZ
?_Acquire@_ReentrantPPLLock@details@Concurrency@@QAEXPAX@Z
?_Acquire@_ReentrantLock@details@Concurrency@@QAEXXZ
?_Acquire@_ReentrantBlockingLock@details@Concurrency@@QAEXXZ
?_Acquire@_NonReentrantPPLLock@details@Concurrency@@QAEXPAX@Z
?_Acquire@_NonReentrantBlockingLock@details@Concurrency@@QAEXXZ
?_Abort@_StructuredTaskCollection@details@Concurrency@@AAEXXZ
?Yield@Context@Concurrency@@SAXXZ
?VirtualProcessorId@Context@Concurrency@@SAIXZ
?SetPolicyValue@SchedulerPolicy@Concurrency@@QAEIW4PolicyElementKey@2@I@Z
?SetDefaultSchedulerPolicy@Scheduler@Concurrency@@SAXABVSchedulerPolicy@2@@Z
?SetConcurrencyLimits@SchedulerPolicy@Concurrency@@QAEXII@Z
?ScheduleTask@CurrentScheduler@Concurrency@@SAXP6AXPAX@Z0AAVlocation@2@@Z
?ScheduleTask@CurrentScheduler@Concurrency@@SAXP6AXPAX@Z0@Z
?ScheduleGroupId@Context@Concurrency@@SAIXZ
?ResetDefaultSchedulerPolicy@Scheduler@Concurrency@@SAXXZ
?RegisterShutdownEvent@CurrentScheduler@Concurrency@@SAXPAX@Z
?Oversubscribe@Context@Concurrency@@SAX_N@Z
?Log2@details@Concurrency@@YAKI@Z
?IsCurrentTaskCollectionCanceling@Context@Concurrency@@SA_NXZ
?IsAvailableLocation@CurrentScheduler@Concurrency@@SA_NABVlocation@2@@Z
?Id@CurrentScheduler@Concurrency@@SAIXZ
?Id@Context@Concurrency@@SAIXZ
?GetSharedTimerQueue@details@Concurrency@@YAPAXXZ
?GetSchedulerId@Concurrency@@YAIXZ
?GetProcessorNodeCount@Concurrency@@YAIXZ
?GetProcessorCount@Concurrency@@YAIXZ
?GetPolicyValue@SchedulerPolicy@Concurrency@@QBEIW4PolicyElementKey@2@@Z
?GetPolicy@CurrentScheduler@Concurrency@@SA?AVSchedulerPolicy@2@XZ
?GetOSVersion@Concurrency@@YA?AW4OSVersion@IResourceManager@1@XZ
?GetNumberOfVirtualProcessors@CurrentScheduler@Concurrency@@SAIXZ
?GetExecutionContextId@Concurrency@@YAIXZ
?Get@CurrentScheduler@Concurrency@@SAPAVScheduler@2@XZ
?Free@Concurrency@@YAXPAX@Z
?EnableTracing@Concurrency@@YAJXZ
?DisableTracing@Concurrency@@YAJXZ
?Detach@CurrentScheduler@Concurrency@@SAXXZ
?CurrentContext@Context@Concurrency@@SAPAV12@XZ
?CreateScheduleGroup@CurrentScheduler@Concurrency@@SAPAVScheduleGroup@2@XZ
?CreateScheduleGroup@CurrentScheduler@Concurrency@@SAPAVScheduleGroup@2@AAVlocation@2@@Z
?CreateResourceManager@Concurrency@@YAPAUIResourceManager@1@XZ
?Create@Scheduler@Concurrency@@SAPAV12@ABVSchedulerPolicy@2@@Z
?Create@CurrentScheduler@Concurrency@@SAXABVSchedulerPolicy@2@@Z
?Block@Context@Concurrency@@SAXXZ
?Alloc@Concurrency@@YAPAXI@Z
??_V@YAXPAXHPBDH@Z
??_V@YAXPAX@Z
??_U@YAPAXIHPBDH@Z
??_U@YAPAXI@Z
??_Fbad_typeid@std@@QAEXXZ
??_Fbad_cast@std@@QAEXXZ
??_F_Scheduler@details@Concurrency@@QAEXXZ
??_F_Context@details@Concurrency@@QAEXXZ
??_F?$_SpinWait@$0A@@details@Concurrency@@QAEXXZ
??_F?$_SpinWait@$00@details@Concurrency@@QAEXXZ
??9type_info@@QBE_NABV0@@Z
??8type_info@@QBE_NABV0@@Z
??4exception@std@@QAEAAV01@ABV01@@Z
??4bad_typeid@std@@QAEAAV01@ABV01@@Z
??4bad_cast@std@@QAEAAV01@ABV01@@Z
??4__non_rtti_object@std@@QAEAAV01@ABV01@@Z
??4SchedulerPolicy@Concurrency@@QAEAAV01@ABV01@@Z
??4?$_SpinWait@$0A@@details@Concurrency@@QAEAAV012@ABV012@@Z
??4?$_SpinWait@$00@details@Concurrency@@QAEAAV012@ABV012@@Z
??3@YAXPAXHPBDH@Z
??3@YAXPAX@Z
??2@YAPAXIHPBDH@Z
??2@YAPAXI@Z
??1type_info@@UAE@XZ
??1scoped_lock_read@reader_writer_lock@Concurrency@@QAE@XZ
??1scoped_lock@reader_writer_lock@Concurrency@@QAE@XZ
??1scoped_lock@critical_section@Concurrency@@QAE@XZ
??1reader_writer_lock@Concurrency@@QAE@XZ
??1exception@std@@UAE@XZ
??1event@Concurrency@@QAE@XZ
??1critical_section@Concurrency@@QAE@XZ
??1bad_typeid@std@@UAE@XZ
??1bad_cast@std@@UAE@XZ
??1__non_rtti_object@std@@UAE@XZ
??1_Timer@details@Concurrency@@MAE@XZ
??1_TaskCollection@details@Concurrency@@QAE@XZ
??1_SpinLock@details@Concurrency@@QAE@XZ
??1_Scoped_lock@_ReentrantPPLLock@details@Concurrency@@QAE@XZ
??1_Scoped_lock@_NonReentrantPPLLock@details@Concurrency@@QAE@XZ
??1_ReentrantBlockingLock@details@Concurrency@@QAE@XZ
??1_NonReentrantBlockingLock@details@Concurrency@@QAE@XZ
??1_Condition_variable@details@Concurrency@@QAE@XZ
??1_Cancellation_beacon@details@Concurrency@@QAE@XZ
??1_CancellationTokenState@details@Concurrency@@UAE@XZ
??1SchedulerPolicy@Concurrency@@QAE@XZ
??0unsupported_os@Concurrency@@QAE@XZ
??0unsupported_os@Concurrency@@QAE@PBD@Z
??0task_canceled@Concurrency@@QAE@XZ
??0task_canceled@Concurrency@@QAE@PBD@Z
??0scoped_lock_read@reader_writer_lock@Concurrency@@QAE@AAV12@@Z
??0scoped_lock@reader_writer_lock@Concurrency@@QAE@AAV12@@Z
??0scoped_lock@critical_section@Concurrency@@QAE@AAV12@@Z
??0scheduler_worker_creation_error@Concurrency@@QAE@PBDJ@Z
??0scheduler_worker_creation_error@Concurrency@@QAE@J@Z
??0scheduler_resource_allocation_error@Concurrency@@QAE@PBDJ@Z
??0scheduler_resource_allocation_error@Concurrency@@QAE@J@Z
??0scheduler_not_attached@Concurrency@@QAE@XZ
??0scheduler_not_attached@Concurrency@@QAE@PBD@Z
??0reader_writer_lock@Concurrency@@QAE@XZ
??0operation_timed_out@Concurrency@@QAE@XZ
??0operation_timed_out@Concurrency@@QAE@PBD@Z
??0nested_scheduler_missing_detach@Concurrency@@QAE@XZ
??0nested_scheduler_missing_detach@Concurrency@@QAE@PBD@Z
??0missing_wait@Concurrency@@QAE@XZ
??0missing_wait@Concurrency@@QAE@PBD@Z
??0message_not_found@Concurrency@@QAE@XZ
??0message_not_found@Concurrency@@QAE@PBD@Z
??0invalid_scheduler_policy_value@Concurrency@@QAE@XZ
??0invalid_scheduler_policy_value@Concurrency@@QAE@PBD@Z
??0invalid_scheduler_policy_thread_specification@Concurrency@@QAE@XZ
??0invalid_scheduler_policy_thread_specification@Concurrency@@QAE@PBD@Z
??0invalid_scheduler_policy_key@Concurrency@@QAE@XZ
??0invalid_scheduler_policy_key@Concurrency@@QAE@PBD@Z
??0invalid_oversubscribe_operation@Concurrency@@QAE@XZ
??0invalid_oversubscribe_operation@Concurrency@@QAE@PBD@Z
??0invalid_operation@Concurrency@@QAE@XZ
??0invalid_operation@Concurrency@@QAE@PBD@Z
??0invalid_multiple_scheduling@Concurrency@@QAE@XZ
??0invalid_multiple_scheduling@Concurrency@@QAE@PBD@Z
??0invalid_link_target@Concurrency@@QAE@XZ
??0invalid_link_target@Concurrency@@QAE@PBD@Z
??0improper_scheduler_reference@Concurrency@@QAE@XZ
??0improper_scheduler_reference@Concurrency@@QAE@PBD@Z
??0improper_scheduler_detach@Concurrency@@QAE@XZ
??0improper_scheduler_detach@Concurrency@@QAE@PBD@Z
??0improper_scheduler_attach@Concurrency@@QAE@XZ
??0improper_scheduler_attach@Concurrency@@QAE@PBD@Z
??0improper_lock@Concurrency@@QAE@XZ
??0improper_lock@Concurrency@@QAE@PBD@Z
??0exception@std@@QAE@XZ
??0exception@std@@QAE@ABV01@@Z
??0exception@std@@QAE@ABQBDH@Z
??0exception@std@@QAE@ABQBD@Z
??0event@Concurrency@@QAE@XZ
??0default_scheduler_exists@Concurrency@@QAE@XZ
??0default_scheduler_exists@Concurrency@@QAE@PBD@Z
??0critical_section@Concurrency@@QAE@XZ
??0context_unblock_unbalanced@Concurrency@@QAE@XZ
??0context_unblock_unbalanced@Concurrency@@QAE@PBD@Z
??0context_self_unblock@Concurrency@@QAE@XZ
??0context_self_unblock@Concurrency@@QAE@PBD@Z
??0bad_typeid@std@@QAE@PBD@Z
??0bad_typeid@std@@QAE@ABV01@@Z
??0bad_target@Concurrency@@QAE@XZ
??0bad_target@Concurrency@@QAE@PBD@Z
??0bad_cast@std@@QAE@PBD@Z
??0bad_cast@std@@QAE@ABV01@@Z
??0bad_cast@std@@AAE@PBQBD@Z
??0__non_rtti_object@std@@QAE@PBD@Z
??0__non_rtti_object@std@@QAE@ABV01@@Z
??0_Timer@details@Concurrency@@IAE@I_N@Z
??0_TaskCollection@details@Concurrency@@QAE@XZ
??0_TaskCollection@details@Concurrency@@QAE@PAV_CancellationTokenState@12@@Z
??0_StructuredTaskCollection@details@Concurrency@@QAE@PAV_CancellationTokenState@12@@Z
??0_SpinLock@details@Concurrency@@QAE@ACJ@Z
??0_Scoped_lock@_ReentrantPPLLock@details@Concurrency@@QAE@AAV123@@Z
??0_Scoped_lock@_NonReentrantPPLLock@details@Concurrency@@QAE@AAV123@@Z
??0_Scheduler@details@Concurrency@@QAE@PAVScheduler@2@@Z
??0_ReentrantPPLLock@details@Concurrency@@QAE@XZ
??0_ReentrantLock@details@Concurrency@@QAE@XZ
??0_ReentrantBlockingLock@details@Concurrency@@QAE@XZ
??0_ReaderWriterLock@details@Concurrency@@QAE@XZ
??0_NonReentrantPPLLock@details@Concurrency@@QAE@XZ
??0_NonReentrantBlockingLock@details@Concurrency@@QAE@XZ
??0_Interruption_exception@details@Concurrency@@QAE@XZ
??0_Interruption_exception@details@Concurrency@@QAE@PBD@Z
??0_Context@details@Concurrency@@QAE@PAVContext@2@@Z
??0_Condition_variable@details@Concurrency@@QAE@XZ
??0_Cancellation_beacon@details@Concurrency@@QAE@XZ
??0_CancellationTokenState@details@Concurrency@@AAE@XZ
??0SchedulerPolicy@Concurrency@@QAE@XZ
??0SchedulerPolicy@Concurrency@@QAE@ABV01@@Z
??0SchedulerPolicy@Concurrency@@QAA@IZZ
??0?$_SpinWait@$0A@@details@Concurrency@@QAE@P6AXXZ@Z
??0?$_SpinWait@$00@details@Concurrency@@QAE@P6AXXZ@Z
_$I10_OUTPUT
_mbsinit
__initialize_onexit_table
_c16rtomb
_c32rtomb
_mbrtoc16
_mbrtoc32
___acrt_iob_func
_snprintf
_vsnprintf
_frexp
