LIBRARY STDC++.DLL
EXPORTS
__ZNSi6ignoreEi
__ZNSt13basic_istreamIwSt11char_traitsIwEE6ignoreEi
__ZNSt6__norm15_List_node_base4hookEPS0_
__ZNSt6__norm15_List_node_base4swapERS0_S1_
__ZNSt6__norm15_List_node_base6unhookEv
__ZNSt6__norm15_List_node_base7reverseEv
__ZNSt6__norm15_List_node_base8transferEPS0_S1_
__ZNSt6chrono12system_clock3nowEv
__ZNSt22condition_variable_anyC1Ev
__ZNSt22condition_variable_anyC2Ev
__ZNSt22condition_variable_anyD1Ev
__ZNSt22condition_variable_anyD2Ev
__ZN10__cxxabiv117__array_type_infoD0Ev
__ZN10__cxxabiv117__array_type_infoD1Ev
__ZN10__cxxabiv117__array_type_infoD2Ev
___cxa_thread_atexit
__ZNKSt9bad_alloc4whatEv
__ZNSt9bad_allocD0Ev
__ZNSt9bad_allocD1Ev
__ZNSt9bad_allocD2Ev
__ZNKSt16bad_array_length4whatEv
__ZNSt16bad_array_lengthD0Ev
__ZNSt16bad_array_lengthD1Ev
__ZNSt16bad_array_lengthD2Ev
___cxa_throw_bad_array_length
__ZNKSt20bad_array_new_length4whatEv
__ZNSt20bad_array_new_lengthD0Ev
__ZNSt20bad_array_new_lengthD1Ev
__ZNSt20bad_array_new_lengthD2Ev
__ZNKSt8bad_cast4whatEv
__ZNSt8bad_castD0Ev
__ZNSt8bad_castD1Ev
__ZNSt8bad_castD2Ev
__ZNKSt10bad_typeid4whatEv
__ZNSt10bad_typeidD0Ev
__ZNSt10bad_typeidD1Ev
__ZNSt10bad_typeidD2Ev
__ZN10__cxxabiv117__class_type_infoD0Ev
__ZN10__cxxabiv117__class_type_infoD1Ev
__ZN10__cxxabiv117__class_type_infoD2Ev
__ZNK10__cxxabiv117__class_type_info10__do_catchEPKSt9type_infoPPvj
__ZNK10__cxxabiv117__class_type_info11__do_upcastEPKS0_PKvRNS0_15__upcast_resultE
__ZNK10__cxxabiv117__class_type_info11__do_upcastEPKS0_PPv
__ZNK10__cxxabiv117__class_type_info12__do_dyncastEiNS0_10__sub_kindEPKS0_PKvS3_S5_RNS0_16__dyncast_resultE
__ZNK10__cxxabiv117__class_type_info20__do_find_public_srcEiPKvPKS0_S2_
__ZdlPv
__ZdlPvSt11align_val_t
__ZdlPvSt11align_val_tRKSt9nothrow_t
__ZdlPvRKSt9nothrow_t
__ZdlPvj
__ZdlPvjSt11align_val_t
__ZdaPv
__ZdaPvSt11align_val_t
__ZdaPvSt11align_val_tRKSt9nothrow_t
__ZdaPvRKSt9nothrow_t
__ZdaPvj
__ZdaPvjSt11align_val_t
___dynamic_cast
__ZN9__gnu_cxx24__concurrence_lock_errorD0Ev
__ZN9__gnu_cxx24__concurrence_lock_errorD1Ev
__ZN9__gnu_cxx26__concurrence_unlock_errorD0Ev
__ZN9__gnu_cxx26__concurrence_unlock_errorD1Ev
__ZN9__gnu_cxx30__throw_concurrence_lock_errorEv
__ZN9__gnu_cxx9__freeresEv
__ZNK9__gnu_cxx24__concurrence_lock_error4whatEv
__ZNK9__gnu_cxx26__concurrence_unlock_error4whatEv
___cxa_allocate_dependent_exception
___cxa_allocate_exception
___cxa_free_dependent_exception
___cxa_free_exception
___cxa_bad_cast
___cxa_bad_typeid
___cxa_throw_bad_array_new_length
___cxa_call_terminate
__ZSt18uncaught_exceptionv
__ZSt19uncaught_exceptionsv
___cxa_begin_catch
___cxa_end_catch
___cxa_get_exception_ptr
__ZGTtNKSt13bad_exception4whatEv
__ZGTtNKSt13bad_exceptionD1Ev
__ZGTtNKSt9exception4whatEv
__ZGTtNKSt9exceptionD1Ev
__ZN10__cxxabiv115__forced_unwindD0Ev
__ZN10__cxxabiv115__forced_unwindD1Ev
__ZN10__cxxabiv115__forced_unwindD2Ev
__ZN10__cxxabiv119__foreign_exceptionD0Ev
__ZN10__cxxabiv119__foreign_exceptionD1Ev
__ZN10__cxxabiv119__foreign_exceptionD2Ev
__ZNKSt13bad_exception4whatEv
__ZNKSt9exception4whatEv
__ZNSt13bad_exceptionD0Ev
__ZNSt13bad_exceptionD1Ev
__ZNSt13bad_exceptionD2Ev
__ZNSt9exceptionD0Ev
__ZNSt9exceptionD1Ev
__ZNSt9exceptionD2Ev
___cxa_get_globals
___cxa_get_globals_fast
___cxa_call_unexpected
___gxx_personality_sj0
__ZNKSt15__exception_ptr13exception_ptr20__cxa_exception_typeEv
__ZNKSt15__exception_ptr13exception_ptr6_M_getEv
__ZNKSt15__exception_ptr13exception_ptrcvMS0_FvvEEv
__ZNKSt15__exception_ptr13exception_ptrntEv
__ZNSt15__exception_ptr13exception_ptr10_M_releaseEv
__ZNSt15__exception_ptr13exception_ptr18_M_safe_bool_dummyEv
__ZNSt15__exception_ptr13exception_ptr4swapERS0_
__ZNSt15__exception_ptr13exception_ptr9_M_addrefEv
__ZNSt15__exception_ptr13exception_ptrC1EMS0_FvvE
__ZNSt15__exception_ptr13exception_ptrC1EPv
__ZNSt15__exception_ptr13exception_ptrC1ERKS0_
__ZNSt15__exception_ptr13exception_ptrC1Ev
__ZNSt15__exception_ptr13exception_ptrC2EMS0_FvvE
__ZNSt15__exception_ptr13exception_ptrC2EPv
__ZNSt15__exception_ptr13exception_ptrC2ERKS0_
__ZNSt15__exception_ptr13exception_ptrC2Ev
__ZNSt15__exception_ptr13exception_ptrD1Ev
__ZNSt15__exception_ptr13exception_ptrD2Ev
__ZNSt15__exception_ptr13exception_ptraSERKS0_
__ZNSt15__exception_ptreqERKNS_13exception_ptrES2_
__ZNSt15__exception_ptrneERKNS_13exception_ptrES2_
__ZSt17current_exceptionv
__ZSt17rethrow_exceptionNSt15__exception_ptr13exception_ptrE
__ZN10__cxxabiv111__terminateEPFvvE
__ZN10__cxxabiv112__unexpectedEPFvvE
__ZSt10unexpectedv
__ZSt13get_terminatev
__ZSt13set_terminatePFvvE
__ZSt14get_unexpectedv
__ZSt14set_unexpectedPFvvE
__ZSt9terminatev
___cxa_init_primary_exception
___cxa_rethrow
___cxa_throw
___cxa_tm_cleanup
___cxa_current_exception_type
__ZN10__cxxabiv116__enum_type_infoD0Ev
__ZN10__cxxabiv116__enum_type_infoD1Ev
__ZN10__cxxabiv116__enum_type_infoD2Ev
__ZN10__cxxabiv120__function_type_infoD0Ev
__ZN10__cxxabiv120__function_type_infoD1Ev
__ZN10__cxxabiv120__function_type_infoD2Ev
__ZNK10__cxxabiv120__function_type_info15__is_function_pEv
__ZN10__cxxabiv123__fundamental_type_infoD0Ev
__ZN10__cxxabiv123__fundamental_type_infoD1Ev
__ZN10__cxxabiv123__fundamental_type_infoD2Ev
__ZN9__gnu_cxx24__concurrence_lock_errorD0Ev
__ZN9__gnu_cxx24__concurrence_lock_errorD1Ev
__ZN9__gnu_cxx24__concurrence_wait_errorD0Ev
__ZN9__gnu_cxx24__concurrence_wait_errorD1Ev
__ZN9__gnu_cxx26__concurrence_unlock_errorD0Ev
__ZN9__gnu_cxx26__concurrence_unlock_errorD1Ev
__ZN9__gnu_cxx29__concurrence_broadcast_errorD0Ev
__ZN9__gnu_cxx29__concurrence_broadcast_errorD1Ev
__ZN9__gnu_cxx30__throw_concurrence_lock_errorEv
__ZN9__gnu_cxx32__throw_concurrence_unlock_errorEv
__ZN9__gnu_cxx35__throw_concurrence_broadcast_errorEv
__ZNK9__gnu_cxx24__concurrence_lock_error4whatEv
__ZNK9__gnu_cxx24__concurrence_wait_error4whatEv
__ZNK9__gnu_cxx26__concurrence_unlock_error4whatEv
__ZNK9__gnu_cxx29__concurrence_broadcast_error4whatEv
___cxa_guard_abort
___cxa_guard_acquire
___cxa_guard_release
__ZN9__gnu_cxx20recursive_init_errorC1Ev
__ZN9__gnu_cxx20recursive_init_errorC2Ev
__ZN9__gnu_cxx20recursive_init_errorD0Ev
__ZN9__gnu_cxx20recursive_init_errorD1Ev
__ZN9__gnu_cxx20recursive_init_errorD2Ev
__ZSt11_Hash_bytesPKvjj
__ZSt15_Fnv_hash_bytesPKvjj
__ZNSt16nested_exceptionD0Ev
__ZNSt16nested_exceptionD1Ev
__ZNSt16nested_exceptionD2Ev
__ZSt15get_new_handlerv
__ZSt15set_new_handlerPFvvE
__Znwj
__ZnwjSt11align_val_t
__ZnwjSt11align_val_tRKSt9nothrow_t
__ZnwjRKSt9nothrow_t
__Znaj
__ZnajSt11align_val_t
__ZnajSt11align_val_tRKSt9nothrow_t
__ZnajRKSt9nothrow_t
__ZN10__cxxabiv117__pbase_type_infoD0Ev
__ZN10__cxxabiv117__pbase_type_infoD1Ev
__ZN10__cxxabiv117__pbase_type_infoD2Ev
__ZNK10__cxxabiv117__pbase_type_info10__do_catchEPKSt9type_infoPPvj
__ZNK10__cxxabiv117__pbase_type_info15__pointer_catchEPKS0_PPvj
__ZN10__cxxabiv129__pointer_to_member_type_infoD0Ev
__ZN10__cxxabiv129__pointer_to_member_type_infoD1Ev
__ZN10__cxxabiv129__pointer_to_member_type_infoD2Ev
__ZNK10__cxxabiv129__pointer_to_member_type_info15__pointer_catchEPKNS_17__pbase_type_infoEPPvj
__ZN10__cxxabiv119__pointer_type_infoD0Ev
__ZN10__cxxabiv119__pointer_type_infoD1Ev
__ZN10__cxxabiv119__pointer_type_infoD2Ev
__ZNK10__cxxabiv119__pointer_type_info14__is_pointer_pEv
__ZNK10__cxxabiv119__pointer_type_info15__pointer_catchEPKNS_17__pbase_type_infoEPPvj
___cxa_deleted_virtual
___cxa_pure_virtual
__ZN10__cxxabiv120__si_class_type_infoD0Ev
__ZN10__cxxabiv120__si_class_type_infoD1Ev
__ZN10__cxxabiv120__si_class_type_infoD2Ev
__ZNK10__cxxabiv120__si_class_type_info11__do_upcastEPKNS_17__class_type_infoEPKvRNS1_15__upcast_resultE
__ZNK10__cxxabiv120__si_class_type_info12__do_dyncastEiNS_17__class_type_info10__sub_kindEPKS1_PKvS4_S6_RNS1_16__dyncast_resultE
__ZNK10__cxxabiv120__si_class_type_info20__do_find_public_srcEiPKvPKNS_17__class_type_infoES2_
__ZNKSt9type_info10__do_catchEPKS_PPvj
__ZNKSt9type_info11__do_upcastEPKN10__cxxabiv117__class_type_infoEPPv
__ZNKSt9type_info14__is_pointer_pEv
__ZNKSt9type_info15__is_function_pEv
__ZNKSt9type_infoeqERKS_
__ZNSt9type_infoD0Ev
__ZNSt9type_infoD1Ev
__ZNSt9type_infoD2Ev
__ZNKSt9type_info6beforeERKS_
___cxa_vec_cctor
___cxa_vec_cleanup
___cxa_vec_ctor
___cxa_vec_delete
___cxa_vec_delete2
___cxa_vec_delete3
___cxa_vec_dtor
___cxa_vec_new
___cxa_vec_new2
___cxa_vec_new3
__ZN10__cxxabiv121__vmi_class_type_infoD0Ev
__ZN10__cxxabiv121__vmi_class_type_infoD1Ev
__ZN10__cxxabiv121__vmi_class_type_infoD2Ev
__ZNK10__cxxabiv121__vmi_class_type_info11__do_upcastEPKNS_17__class_type_infoEPKvRNS1_15__upcast_resultE
__ZNK10__cxxabiv121__vmi_class_type_info12__do_dyncastEiNS_17__class_type_info10__sub_kindEPKS1_PKvS4_S6_RNS1_16__dyncast_resultE
__ZNK10__cxxabiv121__vmi_class_type_info20__do_find_public_srcEiPKvPKNS_17__class_type_infoES2_
__ZN9__gnu_cxx27__verbose_terminate_handlerEv
__ZNSaIcEC1ERKS_
__ZNSaIcEC1Ev
__ZNSaIcEC2ERKS_
__ZNSaIcEC2Ev
__ZNSaIcED1Ev
__ZNSaIcED2Ev
__ZNSaIwEC1ERKS_
__ZNSaIwEC1Ev
__ZNSaIwEC2ERKS_
__ZNSaIwEC2Ev
__ZNSaIwED1Ev
__ZNSaIwED2Ev
__ZN9__gnu_cxx12__atomic_addEPVii
__ZN9__gnu_cxx18__exchange_and_addEPVii
__ZNKSt12__basic_fileIcE7is_openEv
__ZNSt12__basic_fileIcE2fdEv
__ZNSt12__basic_fileIcE4fileEv
__ZNSt12__basic_fileIcE4openEPKcSt13_Ios_Openmodei
__ZNSt12__basic_fileIcE4openEPKwSt13_Ios_Openmode
__ZNSt12__basic_fileIcE4syncEv
__ZNSt12__basic_fileIcE5closeEv
__ZNSt12__basic_fileIcE6xsgetnEPci
__ZNSt12__basic_fileIcE6xsputnEPKci
__ZNSt12__basic_fileIcE7seekoffExSt12_Ios_Seekdir
__ZNSt12__basic_fileIcE8sys_openEP6_iobufSt13_Ios_Openmode
__ZNSt12__basic_fileIcE8sys_openEiSt13_Ios_Openmode
__ZNSt12__basic_fileIcE8xsputn_2EPKciS2_i
__ZNSt12__basic_fileIcE9showmanycEv
__ZNSt12__basic_fileIcEC1EPi
__ZNSt12__basic_fileIcEC2EPi
__ZNSt12__basic_fileIcED1Ev
__ZNSt12__basic_fileIcED2Ev
__ZN9__gnu_cxx13__scoped_lockD1Ev
__ZN9__gnu_cxx16bitmap_allocatorIcE10deallocateEPcj
__ZN9__gnu_cxx16bitmap_allocatorIcE14_S_refill_poolEv
__ZN9__gnu_cxx16bitmap_allocatorIcE25_M_allocate_single_objectEv
__ZN9__gnu_cxx16bitmap_allocatorIcE27_M_deallocate_single_objectEPc
__ZN9__gnu_cxx16bitmap_allocatorIcE7destroyEPc
__ZN9__gnu_cxx16bitmap_allocatorIcE8allocateEj
__ZN9__gnu_cxx16bitmap_allocatorIcE8allocateEjPKv
__ZN9__gnu_cxx16bitmap_allocatorIcE9constructEPcRKc
__ZN9__gnu_cxx16bitmap_allocatorIcEC1ERKS1_
__ZN9__gnu_cxx16bitmap_allocatorIcEC1Ev
__ZN9__gnu_cxx16bitmap_allocatorIcEC2ERKS1_
__ZN9__gnu_cxx16bitmap_allocatorIcEC2Ev
__ZN9__gnu_cxx16bitmap_allocatorIcED1Ev
__ZN9__gnu_cxx16bitmap_allocatorIcED2Ev
__ZN9__gnu_cxx16bitmap_allocatorIwE10deallocateEPwj
__ZN9__gnu_cxx16bitmap_allocatorIwE14_S_refill_poolEv
__ZN9__gnu_cxx16bitmap_allocatorIwE25_M_allocate_single_objectEv
__ZN9__gnu_cxx16bitmap_allocatorIwE27_M_deallocate_single_objectEPw
__ZN9__gnu_cxx16bitmap_allocatorIwE7destroyEPw
__ZN9__gnu_cxx16bitmap_allocatorIwE8allocateEj
__ZN9__gnu_cxx16bitmap_allocatorIwE8allocateEjPKv
__ZN9__gnu_cxx16bitmap_allocatorIwE9constructEPwRKw
__ZN9__gnu_cxx16bitmap_allocatorIwEC1ERKS1_
__ZN9__gnu_cxx16bitmap_allocatorIwEC1Ev
__ZN9__gnu_cxx16bitmap_allocatorIwEC2ERKS1_
__ZN9__gnu_cxx16bitmap_allocatorIwEC2Ev
__ZN9__gnu_cxx16bitmap_allocatorIwED1Ev
__ZN9__gnu_cxx16bitmap_allocatorIwED2Ev
__ZN9__gnu_cxx24__concurrence_lock_errorD0Ev
__ZN9__gnu_cxx24__concurrence_lock_errorD1Ev
__ZN9__gnu_cxx26__concurrence_unlock_errorD0Ev
__ZN9__gnu_cxx26__concurrence_unlock_errorD1Ev
__ZN9__gnu_cxx30__throw_concurrence_lock_errorEv
__ZN9__gnu_cxx32__throw_concurrence_unlock_errorEv
__ZN9__gnu_cxx8__detail13__lower_boundIPPjjNS_9free_list19_LT_pointer_compareEEET_S6_S6_RKT0_T1_
__ZN9__gnu_cxx8__detail13__mini_vectorIPjE10deallocateEPS2_j
__ZN9__gnu_cxx8__detail13__mini_vectorIPjE5clearEv
__ZN9__gnu_cxx8__detail13__mini_vectorIPjE5eraseEPS2_
__ZN9__gnu_cxx8__detail13__mini_vectorIPjE6insertEPS2_RKS2_
__ZN9__gnu_cxx8__detail13__mini_vectorIPjE8allocateEj
__ZN9__gnu_cxx8__detail13__mini_vectorIPjE8pop_backEv
__ZN9__gnu_cxx8__detail13__mini_vectorIPjE9push_backERKS2_
__ZN9__gnu_cxx8__detail13__mini_vectorIPjEC1Ev
__ZN9__gnu_cxx8__detail13__mini_vectorIPjEC2Ev
__ZN9__gnu_cxx8__detail13__mini_vectorISt4pairIPNS_16bitmap_allocatorIcE12_Alloc_blockES6_EE10deallocateEPS7_j
__ZN9__gnu_cxx8__detail13__mini_vectorISt4pairIPNS_16bitmap_allocatorIcE12_Alloc_blockES6_EE5clearEv
__ZN9__gnu_cxx8__detail13__mini_vectorISt4pairIPNS_16bitmap_allocatorIcE12_Alloc_blockES6_EE5eraseEPS7_
__ZN9__gnu_cxx8__detail13__mini_vectorISt4pairIPNS_16bitmap_allocatorIcE12_Alloc_blockES6_EE6insertEPS7_RKS7_
__ZN9__gnu_cxx8__detail13__mini_vectorISt4pairIPNS_16bitmap_allocatorIcE12_Alloc_blockES6_EE8allocateEj
__ZN9__gnu_cxx8__detail13__mini_vectorISt4pairIPNS_16bitmap_allocatorIcE12_Alloc_blockES6_EE8pop_backEv
__ZN9__gnu_cxx8__detail13__mini_vectorISt4pairIPNS_16bitmap_allocatorIcE12_Alloc_blockES6_EE9push_backERKS7_
__ZN9__gnu_cxx8__detail13__mini_vectorISt4pairIPNS_16bitmap_allocatorIcE12_Alloc_blockES6_EEC1Ev
__ZN9__gnu_cxx8__detail13__mini_vectorISt4pairIPNS_16bitmap_allocatorIcE12_Alloc_blockES6_EEC2Ev
__ZN9__gnu_cxx8__detail13__mini_vectorISt4pairIPNS_16bitmap_allocatorIwE12_Alloc_blockES6_EE10deallocateEPS7_j
__ZN9__gnu_cxx8__detail13__mini_vectorISt4pairIPNS_16bitmap_allocatorIwE12_Alloc_blockES6_EE5clearEv
__ZN9__gnu_cxx8__detail13__mini_vectorISt4pairIPNS_16bitmap_allocatorIwE12_Alloc_blockES6_EE5eraseEPS7_
__ZN9__gnu_cxx8__detail13__mini_vectorISt4pairIPNS_16bitmap_allocatorIwE12_Alloc_blockES6_EE6insertEPS7_RKS7_
__ZN9__gnu_cxx8__detail13__mini_vectorISt4pairIPNS_16bitmap_allocatorIwE12_Alloc_blockES6_EE8allocateEj
__ZN9__gnu_cxx8__detail13__mini_vectorISt4pairIPNS_16bitmap_allocatorIwE12_Alloc_blockES6_EE8pop_backEv
__ZN9__gnu_cxx8__detail13__mini_vectorISt4pairIPNS_16bitmap_allocatorIwE12_Alloc_blockES6_EE9push_backERKS7_
__ZN9__gnu_cxx8__detail13__mini_vectorISt4pairIPNS_16bitmap_allocatorIwE12_Alloc_blockES6_EEC1Ev
__ZN9__gnu_cxx8__detail13__mini_vectorISt4pairIPNS_16bitmap_allocatorIwE12_Alloc_blockES6_EEC2Ev
__ZN9__gnu_cxx9free_list6_M_getEj
__ZN9__gnu_cxx9free_list8_M_clearEv
__ZNK9__gnu_cxx16bitmap_allocatorIcE7addressERKc
__ZNK9__gnu_cxx16bitmap_allocatorIcE7addressERc
__ZNK9__gnu_cxx16bitmap_allocatorIcE8max_sizeEv
__ZNK9__gnu_cxx16bitmap_allocatorIwE7addressERKw
__ZNK9__gnu_cxx16bitmap_allocatorIwE7addressERw
__ZNK9__gnu_cxx16bitmap_allocatorIwE8max_sizeEv
__ZNK9__gnu_cxx24__concurrence_lock_error4whatEv
__ZNK9__gnu_cxx26__concurrence_unlock_error4whatEv
__ZNK9__gnu_cxx8__detail13__mini_vectorIPjE13_M_space_leftEv
__ZNK9__gnu_cxx8__detail13__mini_vectorIPjE3endEv
__ZNK9__gnu_cxx8__detail13__mini_vectorIPjE4backEv
__ZNK9__gnu_cxx8__detail13__mini_vectorIPjE4sizeEv
__ZNK9__gnu_cxx8__detail13__mini_vectorIPjE5beginEv
__ZNK9__gnu_cxx8__detail13__mini_vectorIPjEixEj
__ZNK9__gnu_cxx8__detail13__mini_vectorISt4pairIPNS_16bitmap_allocatorIcE12_Alloc_blockES6_EE13_M_space_leftEv
__ZNK9__gnu_cxx8__detail13__mini_vectorISt4pairIPNS_16bitmap_allocatorIcE12_Alloc_blockES6_EE3endEv
__ZNK9__gnu_cxx8__detail13__mini_vectorISt4pairIPNS_16bitmap_allocatorIcE12_Alloc_blockES6_EE4backEv
__ZNK9__gnu_cxx8__detail13__mini_vectorISt4pairIPNS_16bitmap_allocatorIcE12_Alloc_blockES6_EE4sizeEv
__ZNK9__gnu_cxx8__detail13__mini_vectorISt4pairIPNS_16bitmap_allocatorIcE12_Alloc_blockES6_EE5beginEv
__ZNK9__gnu_cxx8__detail13__mini_vectorISt4pairIPNS_16bitmap_allocatorIcE12_Alloc_blockES6_EEixEj
__ZNK9__gnu_cxx8__detail13__mini_vectorISt4pairIPNS_16bitmap_allocatorIwE12_Alloc_blockES6_EE13_M_space_leftEv
__ZNK9__gnu_cxx8__detail13__mini_vectorISt4pairIPNS_16bitmap_allocatorIwE12_Alloc_blockES6_EE3endEv
__ZNK9__gnu_cxx8__detail13__mini_vectorISt4pairIPNS_16bitmap_allocatorIwE12_Alloc_blockES6_EE4backEv
__ZNK9__gnu_cxx8__detail13__mini_vectorISt4pairIPNS_16bitmap_allocatorIwE12_Alloc_blockES6_EE4sizeEv
__ZNK9__gnu_cxx8__detail13__mini_vectorISt4pairIPNS_16bitmap_allocatorIwE12_Alloc_blockES6_EE5beginEv
__ZNK9__gnu_cxx8__detail13__mini_vectorISt4pairIPNS_16bitmap_allocatorIwE12_Alloc_blockES6_EEixEj
__ZNSt6locale5facet17_S_clone_c_localeERPi
__ZNSt6locale5facet18_S_create_c_localeERPiPKcS1_
__ZNSt6locale5facet19_S_destroy_c_localeERPi
__ZNSt6locale5facet20_S_lc_ctype_c_localeEPiPKc
__ZSt14__convert_to_vIdEvPKcRT_RSt12_Ios_IostateRKPi
__ZSt14__convert_to_vIeEvPKcRT_RSt12_Ios_IostateRKPi
__ZSt14__convert_to_vIfEvPKcRT_RSt12_Ios_IostateRKPi
__ZNKSt7codecvtIcciE10do_unshiftERiPcS2_RS2_
__ZNKSt7codecvtIcciE11do_encodingEv
__ZNKSt7codecvtIcciE13do_max_lengthEv
__ZNKSt7codecvtIcciE16do_always_noconvEv
__ZNKSt7codecvtIcciE5do_inERiPKcS3_RS3_PcS5_RS5_
__ZNKSt7codecvtIcciE6do_outERiPKcS3_RS3_PcS5_RS5_
__ZNKSt7codecvtIcciE9do_lengthERiPKcS3_j
__ZNKSt7codecvtIwciE10do_unshiftERiPcS2_RS2_
__ZNKSt7codecvtIwciE16do_always_noconvEv
__ZNSt7codecvtIcciEC1EPij
__ZNSt7codecvtIcciEC1Ej
__ZNSt7codecvtIcciEC2EPij
__ZNSt7codecvtIcciEC2Ej
__ZNSt7codecvtIcciED0Ev
__ZNSt7codecvtIcciED1Ev
__ZNSt7codecvtIcciED2Ev
__ZNSt7codecvtIwciEC1EPij
__ZNSt7codecvtIwciEC1Ej
__ZNSt7codecvtIwciEC2EPij
__ZNSt7codecvtIwciEC2Ej
__ZNSt7codecvtIwciED0Ev
__ZNSt7codecvtIwciED1Ev
__ZNSt7codecvtIwciED2Ev
__ZNKSt7codecvtIwciE11do_encodingEv
__ZNKSt7codecvtIwciE13do_max_lengthEv
__ZNKSt7codecvtIwciE5do_inERiPKcS3_RS3_PwS5_RS5_
__ZNKSt7codecvtIwciE6do_outERiPKwS3_RS3_PcS5_RS5_
__ZNKSt7codecvtIwciE9do_lengthERiPKcS3_j
__ZNKSt7__cxx117collateIcE10_M_compareEPKcS3_
__ZNKSt7__cxx117collateIcE12_M_transformEPcPKcj
__ZNKSt7__cxx117collateIwE10_M_compareEPKwS3_
__ZNKSt7__cxx117collateIwE12_M_transformEPwPKwj
__ZNKSt7collateIcE10_M_compareEPKcS2_
__ZNKSt7collateIcE12_M_transformEPcPKcj
__ZNKSt7collateIwE10_M_compareEPKwS2_
__ZNKSt7collateIwE12_M_transformEPwPKwj
__ZNKSt5ctypeIcE8do_widenEc
__ZNSt7__cxx1115basic_stringbufIcSt11char_traitsIcESaIcEED1Ev
__ZNSt7__cxx1115basic_stringbufIwSt11char_traitsIwESaIwEED1Ev
__ZStlsIdcSt11char_traitsIcEERSt13basic_ostreamIT0_T1_ES6_RKSt7complexIT_E
__ZStlsIdwSt11char_traitsIwEERSt13basic_ostreamIT0_T1_ES6_RKSt7complexIT_E
__ZStlsIecSt11char_traitsIcEERSt13basic_ostreamIT0_T1_ES6_RKSt7complexIT_E
__ZStlsIewSt11char_traitsIwEERSt13basic_ostreamIT0_T1_ES6_RKSt7complexIT_E
__ZStlsIfcSt11char_traitsIcEERSt13basic_ostreamIT0_T1_ES6_RKSt7complexIT_E
__ZStlsIfwSt11char_traitsIwEERSt13basic_ostreamIT0_T1_ES6_RKSt7complexIT_E
__ZStrsIdcSt11char_traitsIcEERSt13basic_istreamIT0_T1_ES6_RSt7complexIT_E
__ZStrsIdwSt11char_traitsIwEERSt13basic_istreamIT0_T1_ES6_RSt7complexIT_E
__ZStrsIecSt11char_traitsIcEERSt13basic_istreamIT0_T1_ES6_RSt7complexIT_E
__ZStrsIewSt11char_traitsIwEERSt13basic_istreamIT0_T1_ES6_RSt7complexIT_E
__ZStrsIfcSt11char_traitsIcEERSt13basic_istreamIT0_T1_ES6_RSt7complexIT_E
__ZStrsIfwSt11char_traitsIwEERSt13basic_istreamIT0_T1_ES6_RSt7complexIT_E
__ZN9__gnu_cxx19__function_requiresINS_19_ConvertibleConceptIjjEEEEvv
__ZN9__gnu_cxx19__function_requiresINS_21_InputIteratorConceptIPKcEEEEvv
__ZN9__gnu_cxx19__function_requiresINS_21_InputIteratorConceptIPKwEEEEvv
__ZN9__gnu_cxx19__function_requiresINS_21_InputIteratorConceptIPcEEEEvv
__ZN9__gnu_cxx19__function_requiresINS_21_InputIteratorConceptIPwEEEEvv
__ZN9__gnu_cxx19__function_requiresINS_22_OutputIteratorConceptISt19ostreambuf_iteratorIcSt11char_traitsIcEEcEEEEvv
__ZN9__gnu_cxx19__function_requiresINS_22_OutputIteratorConceptISt19ostreambuf_iteratorIwSt11char_traitsIwEEwEEEEvv
__ZN9__gnu_cxx19__function_requiresINS_26_LessThanComparableConceptIPcEEEEvv
__ZN9__gnu_cxx19__function_requiresINS_26_LessThanComparableConceptIPwEEEEvv
__ZN9__gnu_cxx19__function_requiresINS_26_LessThanComparableConceptIiEEEEvv
__ZN9__gnu_cxx19__function_requiresINS_26_LessThanComparableConceptIjEEEEvv
__ZN9__gnu_cxx19__function_requiresINS_26_LessThanComparableConceptIlEEEEvv
__ZN9__gnu_cxx19__function_requiresINS_26_LessThanComparableConceptIxEEEEvv
__ZN9__gnu_cxx19__function_requiresINS_28_RandomAccessIteratorConceptINS_17__normal_iteratorIPKcSsEEEEEEvv
__ZN9__gnu_cxx19__function_requiresINS_28_RandomAccessIteratorConceptINS_17__normal_iteratorIPKwSbIwSt11char_traitsIwESaIwEEEEEEEEvv
__ZN9__gnu_cxx19__function_requiresINS_28_RandomAccessIteratorConceptINS_17__normal_iteratorIPcSsEEEEEEvv
__ZN9__gnu_cxx19__function_requiresINS_28_RandomAccessIteratorConceptINS_17__normal_iteratorIPwSbIwSt11char_traitsIwESaIwEEEEEEEEvv
__ZN9__gnu_cxx19__function_requiresINS_28_RandomAccessIteratorConceptIPKcEEEEvv
__ZN9__gnu_cxx19__function_requiresINS_28_RandomAccessIteratorConceptIPKwEEEEvv
__ZN9__gnu_cxx19__function_requiresINS_28_RandomAccessIteratorConceptIPcEEEEvv
__ZN9__gnu_cxx19__function_requiresINS_28_RandomAccessIteratorConceptIPwEEEEvv
__ZN9__gnu_cxx26__aux_require_boolean_exprIbEEvRKT_
__ZSt7getlineIcSt11char_traitsIcESaIcEERSt13basic_istreamIT_T0_ES7_RSbIS4_S5_T1_ES4_
__ZSt7getlineIwSt11char_traitsIwESaIwEERSt13basic_istreamIT_T0_ES7_RSbIS4_S5_T1_ES4_
__ZStrsIcSt11char_traitsIcESaIcEERSt13basic_istreamIT_T0_ES7_RSbIS4_S5_T1_E
__ZN9__gnu_cxx4ropeIcSaIcEE8_S_fetchEPNS_13_Rope_RopeRepIcS1_EEj
__ZN9__gnu_cxx4ropeIwSaIwEE8_S_fetchEPNS_13_Rope_RopeRepIwS1_EEj
__ZNKSt3tr14hashIRKSbIwSt11char_traitsIwESaIwEEEclES6_
__ZNKSt3tr14hashIRKSsEclES2_
__ZNKSt3tr14hashISbIwSt11char_traitsIwESaIwEEEclES4_
__ZNKSt3tr14hashISsEclESs
__ZNKSt3tr14hashIeEclEe
__ZNKSt8ios_base7failure4whatEv
__ZNSt8ios_base7failureC1ERKSs
__ZNSt8ios_base7failureC2ERKSs
__ZNSt8ios_base7failureD0Ev
__ZNSt8ios_base7failureD1Ev
__ZNSt8ios_base7failureD2Ev
__ZSt21__destroy_ios_failurePv
__ZSt23__construct_ios_failurePvPKc
__ZSt24__is_ios_failure_handlerPKN10__cxxabiv117__class_type_infoE
__ZNSt8ios_base15sync_with_stdioEb
__ZNSt8ios_base4InitC1Ev
__ZNSt8ios_base4InitC2Ev
__ZNSt8ios_base4InitD1Ev
__ZNSt8ios_base4InitD2Ev
__ZNKSt9basic_iosIcSt11char_traitsIcEEcvPvEv
__ZNKSt9basic_iosIwSt11char_traitsIwEEcvPvEv
__ZNSt8ios_base5imbueERKSt6locale
__ZNSt8ios_base7_M_initEv
__ZSt7getlineIcSt11char_traitsIcESaIcEERSt13basic_istreamIT_T0_ES7_RNSt7__cxx1112basic_stringIS4_S5_T1_EES4_
__ZSt7getlineIwSt11char_traitsIwESaIwEERSt13basic_istreamIT_T0_ES7_RNSt7__cxx1112basic_stringIS4_S5_T1_EES4_
__ZStrsIcSt11char_traitsIcESaIcEERSt13basic_istreamIT_T0_ES7_RNSt7__cxx1112basic_stringIS4_S5_T1_EE
__ZNSi6ignoreEii
__ZNSi7getlineEPcic
__ZNSt13basic_istreamIwSt11char_traitsIwEE6ignoreEit
__ZNSt13basic_istreamIwSt11char_traitsIwEE7getlineEPwiw
__ZStrsIcSt11char_traitsIcEERSt13basic_istreamIT_T0_ES6_PS3_
__ZNSt15_List_node_base10_M_reverseEv
__ZNSt15_List_node_base11_M_transferEPS_S0_
__ZNSt15_List_node_base7_M_hookEPS_
__ZNSt15_List_node_base9_M_unhookEv
__ZNSt15_List_node_base4hookEPS_
__ZNSt15_List_node_base4swapERS_S0_
__ZNSt15_List_node_base6unhookEv
__ZNSt15_List_node_base7reverseEv
__ZNSt15_List_node_base8transferEPS_S0_
__ZNSt8__detail15_List_node_base10_M_reverseEv
__ZNSt8__detail15_List_node_base11_M_transferEPS0_S1_
__ZNSt8__detail15_List_node_base4swapERS0_S1_
__ZNSt8__detail15_List_node_base7_M_hookEPS0_
__ZNSt8__detail15_List_node_base9_M_unhookEv
__ZNSt9__cxx199815_List_node_base10_M_reverseEv
__ZNSt9__cxx199815_List_node_base11_M_transferEPS0_S1_
__ZNSt9__cxx199815_List_node_base7_M_hookEPS0_
__ZNSt9__cxx199815_List_node_base9_M_unhookEv
__ZNSt9__cxx199815_List_node_base4hookEPS0_
__ZNSt9__cxx199815_List_node_base4swapERS0_S1_
__ZNSt9__cxx199815_List_node_base6unhookEv
__ZNSt9__cxx199815_List_node_base7reverseEv
__ZNSt9__cxx199815_List_node_base8transferEPS0_S1_
__ZN9__gnu_cxx13__scoped_lockD1Ev
__ZN9__gnu_cxx24__concurrence_lock_errorD0Ev
__ZN9__gnu_cxx24__concurrence_lock_errorD1Ev
__ZN9__gnu_cxx26__concurrence_unlock_errorD0Ev
__ZN9__gnu_cxx26__concurrence_unlock_errorD1Ev
__ZNK9__gnu_cxx24__concurrence_lock_error4whatEv
__ZNK9__gnu_cxx26__concurrence_unlock_error4whatEv
__ZNKSt6locale2id5_M_idEv
__ZNKSt6locale4nameB5cxx11Ev
__ZNKSt6localeeqERKS_
__ZNSt6locale21_S_normalize_categoryEi
__ZNSt6locale5_Impl16_M_install_cacheEPKNS_5facetEj
__ZNSt6locale5_Impl16_M_install_facetEPKNS_2idEPKNS_5facetE
__ZNSt6locale5_Impl16_M_replace_facetEPKS0_PKNS_2idE
__ZNSt6locale5_Impl19_M_replace_categoryEPKS0_PKPKNS_2idE
__ZNSt6locale5_ImplC1ERKS0_j
__ZNSt6locale5_ImplC2ERKS0_j
__ZNSt6locale5_ImplD1Ev
__ZNSt6locale5_ImplD2Ev
__ZNSt6locale5facet13_S_get_c_nameEv
__ZNSt6locale5facet15_S_get_c_localeEv
__ZNSt6locale5facet18_S_initialize_onceEv
__ZNSt6locale5facetD0Ev
__ZNSt6locale5facetD1Ev
__ZNSt6locale5facetD2Ev
__ZNSt6localeC1EPNS_5_ImplE
__ZNSt6localeC1ERKS_
__ZNSt6localeC2EPNS_5_ImplE
__ZNSt6localeC2ERKS_
__ZNSt6localeD1Ev
__ZNSt6localeD2Ev
__ZNSt6localeaSERKS_
__ZNSt10__num_base15_S_format_floatERKSt8ios_basePcc
__ZSt17__verify_groupingPKcjRKSs
__ZSt22__verify_grouping_implPKcjS0_j
__ZN9__gnu_cxx13__scoped_lockD1Ev
__ZN9__gnu_cxx24__concurrence_lock_errorD0Ev
__ZN9__gnu_cxx24__concurrence_lock_errorD1Ev
__ZN9__gnu_cxx26__concurrence_unlock_errorD0Ev
__ZN9__gnu_cxx26__concurrence_unlock_errorD1Ev
__ZN9__gnu_cxx30__throw_concurrence_lock_errorEv
__ZNK9__gnu_cxx24__concurrence_lock_error4whatEv
__ZNK9__gnu_cxx26__concurrence_unlock_error4whatEv
__ZNSt6locale13_S_initializeEv
__ZNSt6locale18_S_initialize_onceEv
__ZNSt6locale5_ImplC1Ej
__ZNSt6locale5_ImplC2Ej
__ZNSt6locale6globalERKS_
__ZNSt6locale7classicEv
__ZNSt6localeC1Ev
__ZNSt6localeC2Ev
__ZNSt6locale11_M_coalesceERKS_S1_i
__ZNSt6locale5_Impl21_M_replace_categoriesEPKS0_i
__ZNSt6locale5_ImplC1EPKcj
__ZNSt6locale5_ImplC2EPKcj
__ZNSt6localeC1EPKc
__ZNSt6localeC1ERKS_PKci
__ZNSt6localeC1ERKS_S1_i
__ZNSt6localeC2EPKc
__ZNSt6localeC2ERKS_PKci
__ZNSt6localeC2ERKS_S1_i
__ZNKSt7__cxx118messagesIcE6do_getEiiiRKNS_12basic_stringIcSt11char_traitsIcESaIcEEE
__ZNKSt7__cxx118messagesIwE6do_getEiiiRKNS_12basic_stringIwSt11char_traitsIwESaIwEEE
__ZNKSt8messagesIcE6do_getEiiiRKSs
__ZNKSt8messagesIwE6do_getEiiiRKSbIwSt11char_traitsIwESaIwEE
__ZNSt7__cxx1112basic_stringIcSt11char_traitsIcESaIcEE5eraseEN9__gnu_cxx17__normal_iteratorIPcS4_EE
__ZNSt7__cxx1112basic_stringIcSt11char_traitsIcESaIcEE5eraseEN9__gnu_cxx17__normal_iteratorIPcS4_EES8_
__ZNSt7__cxx1112basic_stringIcSt11char_traitsIcESaIcEE6insertEN9__gnu_cxx17__normal_iteratorIPcS4_EEc
__ZNSt7__cxx1112basic_stringIcSt11char_traitsIcESaIcEE6insertEN9__gnu_cxx17__normal_iteratorIPcS4_EEjc
__ZNSt7__cxx1112basic_stringIcSt11char_traitsIcESaIcEE6insertIN9__gnu_cxx17__normal_iteratorIPcS4_EEEEvS9_T_SA_
__ZNSt7__cxx1112basic_stringIcSt11char_traitsIcESaIcEE7replaceEN9__gnu_cxx17__normal_iteratorIPcS4_EES8_NS6_IPKcS4_EESB_
__ZNSt7__cxx1112basic_stringIcSt11char_traitsIcESaIcEE7replaceEN9__gnu_cxx17__normal_iteratorIPcS4_EES8_PKc
__ZNSt7__cxx1112basic_stringIcSt11char_traitsIcESaIcEE7replaceEN9__gnu_cxx17__normal_iteratorIPcS4_EES8_PKcSA_
__ZNSt7__cxx1112basic_stringIcSt11char_traitsIcESaIcEE7replaceEN9__gnu_cxx17__normal_iteratorIPcS4_EES8_PKcj
__ZNSt7__cxx1112basic_stringIcSt11char_traitsIcESaIcEE7replaceEN9__gnu_cxx17__normal_iteratorIPcS4_EES8_RKS4_
__ZNSt7__cxx1112basic_stringIcSt11char_traitsIcESaIcEE7replaceEN9__gnu_cxx17__normal_iteratorIPcS4_EES8_S7_S7_
__ZNSt7__cxx1112basic_stringIcSt11char_traitsIcESaIcEE7replaceEN9__gnu_cxx17__normal_iteratorIPcS4_EES8_S8_S8_
__ZNSt7__cxx1112basic_stringIcSt11char_traitsIcESaIcEE7replaceEN9__gnu_cxx17__normal_iteratorIPcS4_EES8_jc
__ZNSt7__cxx1112basic_stringIwSt11char_traitsIwESaIwEE5eraseEN9__gnu_cxx17__normal_iteratorIPwS4_EE
__ZNSt7__cxx1112basic_stringIwSt11char_traitsIwESaIwEE5eraseEN9__gnu_cxx17__normal_iteratorIPwS4_EES8_
__ZNSt7__cxx1112basic_stringIwSt11char_traitsIwESaIwEE6insertEN9__gnu_cxx17__normal_iteratorIPwS4_EEjw
__ZNSt7__cxx1112basic_stringIwSt11char_traitsIwESaIwEE6insertEN9__gnu_cxx17__normal_iteratorIPwS4_EEw
__ZNSt7__cxx1112basic_stringIwSt11char_traitsIwESaIwEE6insertIN9__gnu_cxx17__normal_iteratorIPwS4_EEEEvS9_T_SA_
__ZNSt7__cxx1112basic_stringIwSt11char_traitsIwESaIwEE7replaceEN9__gnu_cxx17__normal_iteratorIPwS4_EES8_NS6_IPKwS4_EESB_
__ZNSt7__cxx1112basic_stringIwSt11char_traitsIwESaIwEE7replaceEN9__gnu_cxx17__normal_iteratorIPwS4_EES8_PKw
__ZNSt7__cxx1112basic_stringIwSt11char_traitsIwESaIwEE7replaceEN9__gnu_cxx17__normal_iteratorIPwS4_EES8_PKwSA_
__ZNSt7__cxx1112basic_stringIwSt11char_traitsIwESaIwEE7replaceEN9__gnu_cxx17__normal_iteratorIPwS4_EES8_PKwj
__ZNSt7__cxx1112basic_stringIwSt11char_traitsIwESaIwEE7replaceEN9__gnu_cxx17__normal_iteratorIPwS4_EES8_RKS4_
__ZNSt7__cxx1112basic_stringIwSt11char_traitsIwESaIwEE7replaceEN9__gnu_cxx17__normal_iteratorIPwS4_EES8_S7_S7_
__ZNSt7__cxx1112basic_stringIwSt11char_traitsIwESaIwEE7replaceEN9__gnu_cxx17__normal_iteratorIPwS4_EES8_S8_S8_
__ZNSt7__cxx1112basic_stringIwSt11char_traitsIwESaIwEE7replaceEN9__gnu_cxx17__normal_iteratorIPwS4_EES8_jw
__ZSt17__verify_groupingPKcjRKNSt7__cxx1112basic_stringIcSt11char_traitsIcESaIcEEE
__ZNSt7__cxx1110moneypunctIcLb0EE24_M_initialize_moneypunctEPiPKc
__ZNSt7__cxx1110moneypunctIcLb0EED0Ev
__ZNSt7__cxx1110moneypunctIcLb0EED1Ev
__ZNSt7__cxx1110moneypunctIcLb0EED2Ev
__ZNSt7__cxx1110moneypunctIcLb1EE24_M_initialize_moneypunctEPiPKc
__ZNSt7__cxx1110moneypunctIcLb1EED0Ev
__ZNSt7__cxx1110moneypunctIcLb1EED1Ev
__ZNSt7__cxx1110moneypunctIcLb1EED2Ev
__ZNSt7__cxx1110moneypunctIwLb0EE24_M_initialize_moneypunctEPiPKc
__ZNSt7__cxx1110moneypunctIwLb0EED0Ev
__ZNSt7__cxx1110moneypunctIwLb0EED1Ev
__ZNSt7__cxx1110moneypunctIwLb0EED2Ev
__ZNSt7__cxx1110moneypunctIwLb1EE24_M_initialize_moneypunctEPiPKc
__ZNSt7__cxx1110moneypunctIwLb1EED0Ev
__ZNSt7__cxx1110moneypunctIwLb1EED1Ev
__ZNSt7__cxx1110moneypunctIwLb1EED2Ev
__ZNSt10money_base20_S_construct_patternEccc
__ZNSt10moneypunctIcLb0EE24_M_initialize_moneypunctEPiPKc
__ZNSt10moneypunctIcLb0EED0Ev
__ZNSt10moneypunctIcLb0EED1Ev
__ZNSt10moneypunctIcLb0EED2Ev
__ZNSt10moneypunctIcLb1EE24_M_initialize_moneypunctEPiPKc
__ZNSt10moneypunctIcLb1EED0Ev
__ZNSt10moneypunctIcLb1EED1Ev
__ZNSt10moneypunctIcLb1EED2Ev
__ZNSt10moneypunctIwLb0EE24_M_initialize_moneypunctEPiPKc
__ZNSt10moneypunctIwLb0EED0Ev
__ZNSt10moneypunctIwLb0EED1Ev
__ZNSt10moneypunctIwLb0EED2Ev
__ZNSt10moneypunctIwLb1EE24_M_initialize_moneypunctEPiPKc
__ZNSt10moneypunctIwLb1EED0Ev
__ZNSt10moneypunctIwLb1EED1Ev
__ZNSt10moneypunctIwLb1EED2Ev
__ZNSt18__moneypunct_cacheIcLb0EED0Ev
__ZNSt18__moneypunct_cacheIcLb0EED1Ev
__ZNSt18__moneypunct_cacheIcLb1EED0Ev
__ZNSt18__moneypunct_cacheIcLb1EED1Ev
__ZNSt18__moneypunct_cacheIwLb0EED0Ev
__ZNSt18__moneypunct_cacheIwLb0EED1Ev
__ZNSt18__moneypunct_cacheIwLb1EED0Ev
__ZNSt18__moneypunct_cacheIwLb1EED1Ev
__ZN9__gnu_cxx10__mt_allocIcNS_20__common_pool_policyINS_6__poolELb1EEEE10deallocateEPcj
__ZN9__gnu_cxx10__mt_allocIcNS_20__common_pool_policyINS_6__poolELb1EEEE14_M_get_optionsEv
__ZN9__gnu_cxx10__mt_allocIcNS_20__common_pool_policyINS_6__poolELb1EEEE14_M_set_optionsENS_11__pool_base5_TuneE
__ZN9__gnu_cxx10__mt_allocIcNS_20__common_pool_policyINS_6__poolELb1EEEE8allocateEjPKv
__ZN9__gnu_cxx10__mt_allocIcNS_20__common_pool_policyINS_6__poolELb1EEEEC1ERKS4_
__ZN9__gnu_cxx10__mt_allocIcNS_20__common_pool_policyINS_6__poolELb1EEEEC1Ev
__ZN9__gnu_cxx10__mt_allocIcNS_20__common_pool_policyINS_6__poolELb1EEEEC2ERKS4_
__ZN9__gnu_cxx10__mt_allocIcNS_20__common_pool_policyINS_6__poolELb1EEEEC2Ev
__ZN9__gnu_cxx10__mt_allocIcNS_20__common_pool_policyINS_6__poolELb1EEEED1Ev
__ZN9__gnu_cxx10__mt_allocIcNS_20__common_pool_policyINS_6__poolELb1EEEED2Ev
__ZN9__gnu_cxx10__mt_allocIwNS_20__common_pool_policyINS_6__poolELb1EEEE10deallocateEPwj
__ZN9__gnu_cxx10__mt_allocIwNS_20__common_pool_policyINS_6__poolELb1EEEE14_M_get_optionsEv
__ZN9__gnu_cxx10__mt_allocIwNS_20__common_pool_policyINS_6__poolELb1EEEE14_M_set_optionsENS_11__pool_base5_TuneE
__ZN9__gnu_cxx10__mt_allocIwNS_20__common_pool_policyINS_6__poolELb1EEEE8allocateEjPKv
__ZN9__gnu_cxx10__mt_allocIwNS_20__common_pool_policyINS_6__poolELb1EEEEC1ERKS4_
__ZN9__gnu_cxx10__mt_allocIwNS_20__common_pool_policyINS_6__poolELb1EEEEC1Ev
__ZN9__gnu_cxx10__mt_allocIwNS_20__common_pool_policyINS_6__poolELb1EEEEC2ERKS4_
__ZN9__gnu_cxx10__mt_allocIwNS_20__common_pool_policyINS_6__poolELb1EEEEC2Ev
__ZN9__gnu_cxx10__mt_allocIwNS_20__common_pool_policyINS_6__poolELb1EEEED1Ev
__ZN9__gnu_cxx10__mt_allocIwNS_20__common_pool_policyINS_6__poolELb1EEEED2Ev
__ZN9__gnu_cxx13__scoped_lockD1Ev
__ZN9__gnu_cxx18__common_pool_baseINS_6__poolELb1EE13_S_initializeEv
__ZN9__gnu_cxx24__concurrence_lock_errorD0Ev
__ZN9__gnu_cxx24__concurrence_lock_errorD1Ev
__ZN9__gnu_cxx26__concurrence_unlock_errorD0Ev
__ZN9__gnu_cxx26__concurrence_unlock_errorD1Ev
__ZN9__gnu_cxx30__throw_concurrence_lock_errorEv
__ZN9__gnu_cxx6__poolILb0EE10_M_destroyEv
__ZN9__gnu_cxx6__poolILb0EE13_M_initializeEv
__ZN9__gnu_cxx6__poolILb0EE16_M_reclaim_blockEPcj
__ZN9__gnu_cxx6__poolILb0EE16_M_reserve_blockEjj
__ZN9__gnu_cxx6__poolILb1EE10_M_destroyEv
__ZN9__gnu_cxx6__poolILb1EE13_M_initializeEPFvPvE
__ZN9__gnu_cxx6__poolILb1EE13_M_initializeEv
__ZN9__gnu_cxx6__poolILb1EE16_M_get_thread_idEv
__ZN9__gnu_cxx6__poolILb1EE16_M_reclaim_blockEPcj
__ZN9__gnu_cxx6__poolILb1EE16_M_reserve_blockEjj
__ZN9__gnu_cxx6__poolILb1EE21_M_destroy_thread_keyEPv
__ZNK9__gnu_cxx24__concurrence_lock_error4whatEv
__ZNK9__gnu_cxx26__concurrence_unlock_error4whatEv
__ZNSt7__cxx118numpunctIcE22_M_initialize_numpunctEPi
__ZNSt7__cxx118numpunctIcED0Ev
__ZNSt7__cxx118numpunctIcED1Ev
__ZNSt7__cxx118numpunctIcED2Ev
__ZNSt7__cxx118numpunctIwE22_M_initialize_numpunctEPi
__ZNSt7__cxx118numpunctIwED0Ev
__ZNSt7__cxx118numpunctIwED1Ev
__ZNSt7__cxx118numpunctIwED2Ev
__ZNSt16__numpunct_cacheIcED0Ev
__ZNSt16__numpunct_cacheIcED1Ev
__ZNSt16__numpunct_cacheIwED0Ev
__ZNSt16__numpunct_cacheIwED1Ev
__ZNSt8numpunctIcE22_M_initialize_numpunctEPi
__ZNSt8numpunctIcED0Ev
__ZNSt8numpunctIcED1Ev
__ZNSt8numpunctIcED2Ev
__ZNSt8numpunctIwE22_M_initialize_numpunctEPi
__ZNSt8numpunctIwED0Ev
__ZNSt8numpunctIwED1Ev
__ZNSt8numpunctIwED2Ev
__ZN14__gnu_parallel9_Settings3getEv
__ZN14__gnu_parallel9_Settings3setERS0_
__ZN9__gnu_cxx12__pool_allocIcE10deallocateEPcj
__ZN9__gnu_cxx12__pool_allocIcE7destroyEPc
__ZN9__gnu_cxx12__pool_allocIcE8allocateEjPKv
__ZN9__gnu_cxx12__pool_allocIcE9constructEPcRKc
__ZN9__gnu_cxx12__pool_allocIcEC1ERKS1_
__ZN9__gnu_cxx12__pool_allocIcEC1Ev
__ZN9__gnu_cxx12__pool_allocIcEC2ERKS1_
__ZN9__gnu_cxx12__pool_allocIcEC2Ev
__ZN9__gnu_cxx12__pool_allocIcED1Ev
__ZN9__gnu_cxx12__pool_allocIcED2Ev
__ZN9__gnu_cxx12__pool_allocIwE10deallocateEPwj
__ZN9__gnu_cxx12__pool_allocIwE7destroyEPw
__ZN9__gnu_cxx12__pool_allocIwE8allocateEjPKv
__ZN9__gnu_cxx12__pool_allocIwE9constructEPwRKw
__ZN9__gnu_cxx12__pool_allocIwEC1ERKS1_
__ZN9__gnu_cxx12__pool_allocIwEC1Ev
__ZN9__gnu_cxx12__pool_allocIwEC2ERKS1_
__ZN9__gnu_cxx12__pool_allocIwEC2Ev
__ZN9__gnu_cxx12__pool_allocIwED1Ev
__ZN9__gnu_cxx12__pool_allocIwED2Ev
__ZN9__gnu_cxx13__scoped_lockD1Ev
__ZN9__gnu_cxx17__pool_alloc_base12_M_get_mutexEv
__ZN9__gnu_cxx17__pool_alloc_base16_M_get_free_listEj
__ZN9__gnu_cxx17__pool_alloc_base17_M_allocate_chunkEjRi
__ZN9__gnu_cxx17__pool_alloc_base9_M_refillEj
__ZN9__gnu_cxx24__concurrence_lock_errorD0Ev
__ZN9__gnu_cxx24__concurrence_lock_errorD1Ev
__ZN9__gnu_cxx26__concurrence_unlock_errorD0Ev
__ZN9__gnu_cxx26__concurrence_unlock_errorD1Ev
__ZN9__gnu_cxx30__throw_concurrence_lock_errorEv
__ZNK9__gnu_cxx12__pool_allocIcE7addressERKc
__ZNK9__gnu_cxx12__pool_allocIcE7addressERc
__ZNK9__gnu_cxx12__pool_allocIcE8max_sizeEv
__ZNK9__gnu_cxx12__pool_allocIwE7addressERKw
__ZNK9__gnu_cxx12__pool_allocIwE7addressERw
__ZNK9__gnu_cxx12__pool_allocIwE8max_sizeEv
__ZNK9__gnu_cxx24__concurrence_lock_error4whatEv
__ZNK9__gnu_cxx26__concurrence_unlock_error4whatEv
__ZNKSt11logic_error4whatEv
__ZNKSt13runtime_error4whatEv
__ZNSt11logic_errorC1ERKSs
__ZNSt11logic_errorC2ERKSs
__ZNSt11logic_errorD0Ev
__ZNSt11logic_errorD1Ev
__ZNSt11logic_errorD2Ev
__ZNSt11range_errorC1ERKSs
__ZNSt11range_errorC2ERKSs
__ZNSt11range_errorD0Ev
__ZNSt11range_errorD1Ev
__ZNSt11range_errorD2Ev
__ZNSt12domain_errorC1ERKSs
__ZNSt12domain_errorC2ERKSs
__ZNSt12domain_errorD0Ev
__ZNSt12domain_errorD1Ev
__ZNSt12domain_errorD2Ev
__ZNSt12length_errorC1ERKSs
__ZNSt12length_errorC2ERKSs
__ZNSt12length_errorD0Ev
__ZNSt12length_errorD1Ev
__ZNSt12length_errorD2Ev
__ZNSt12out_of_rangeC1ERKSs
__ZNSt12out_of_rangeC2ERKSs
__ZNSt12out_of_rangeD0Ev
__ZNSt12out_of_rangeD1Ev
__ZNSt12out_of_rangeD2Ev
__ZNSt13runtime_errorC1ERKSs
__ZNSt13runtime_errorC2ERKSs
__ZNSt13runtime_errorD0Ev
__ZNSt13runtime_errorD1Ev
__ZNSt13runtime_errorD2Ev
__ZNSt14overflow_errorC1ERKSs
__ZNSt14overflow_errorC2ERKSs
__ZNSt14overflow_errorD0Ev
__ZNSt14overflow_errorD1Ev
__ZNSt14overflow_errorD2Ev
__ZNSt15underflow_errorC1ERKSs
__ZNSt15underflow_errorC2ERKSs
__ZNSt15underflow_errorD0Ev
__ZNSt15underflow_errorD1Ev
__ZNSt15underflow_errorD2Ev
__ZNSt16invalid_argumentC1ERKSs
__ZNSt16invalid_argumentC2ERKSs
__ZNSt16invalid_argumentD0Ev
__ZNSt16invalid_argumentD1Ev
__ZNSt16invalid_argumentD2Ev
__ZSt21__copy_streambufs_eofIcSt11char_traitsIcEEiPSt15basic_streambufIT_T0_ES6_Rb
__ZSt21__copy_streambufs_eofIwSt11char_traitsIwEEiPSt15basic_streambufIT_T0_ES6_Rb
__ZNKSt10istrstream5rdbufEv
__ZNKSt10ostrstream5rdbufEv
__ZNKSt10ostrstream6pcountEv
__ZNKSt12strstreambuf6pcountEv
__ZNKSt9strstream5rdbufEv
__ZNKSt9strstream6pcountEv
__ZNSt10istrstream3strEv
__ZNSt10istrstreamC1EPKc
__ZNSt10istrstreamC1EPKci
__ZNSt10istrstreamC1EPc
__ZNSt10istrstreamC1EPci
__ZNSt10istrstreamC2EPKc
__ZNSt10istrstreamC2EPKci
__ZNSt10istrstreamC2EPc
__ZNSt10istrstreamC2EPci
__ZNSt10istrstreamD0Ev
__ZNSt10istrstreamD1Ev
__ZNSt10istrstreamD2Ev
__ZNSt10ostrstream3strEv
__ZNSt10ostrstream6freezeEb
__ZNSt10ostrstreamC1EPciSt13_Ios_Openmode
__ZNSt10ostrstreamC1Ev
__ZNSt10ostrstreamC2EPciSt13_Ios_Openmode
__ZNSt10ostrstreamC2Ev
__ZNSt10ostrstreamD0Ev
__ZNSt10ostrstreamD1Ev
__ZNSt10ostrstreamD2Ev
__ZNSt12strstreambuf3strEv
__ZNSt12strstreambuf6freezeEb
__ZNSt12strstreambuf6setbufEPci
__ZNSt12strstreambuf7_M_freeEPc
__ZNSt12strstreambuf7seekoffExSt12_Ios_SeekdirSt13_Ios_Openmode
__ZNSt12strstreambuf7seekposESt4fposIiESt13_Ios_Openmode
__ZNSt12strstreambuf8_M_allocEj
__ZNSt12strstreambuf8_M_setupEPcS0_i
__ZNSt12strstreambuf8overflowEi
__ZNSt12strstreambuf9pbackfailEi
__ZNSt12strstreambuf9underflowEv
__ZNSt12strstreambufC1EPFPvjEPFvS0_E
__ZNSt12strstreambufC1EPKai
__ZNSt12strstreambufC1EPKci
__ZNSt12strstreambufC1EPKhi
__ZNSt12strstreambufC1EPaiS0_
__ZNSt12strstreambufC1EPciS0_
__ZNSt12strstreambufC1EPhiS0_
__ZNSt12strstreambufC1Ei
__ZNSt12strstreambufC2EPFPvjEPFvS0_E
__ZNSt12strstreambufC2EPKai
__ZNSt12strstreambufC2EPKci
__ZNSt12strstreambufC2EPKhi
__ZNSt12strstreambufC2EPaiS0_
__ZNSt12strstreambufC2EPciS0_
__ZNSt12strstreambufC2EPhiS0_
__ZNSt12strstreambufC2Ei
__ZNSt12strstreambufD0Ev
__ZNSt12strstreambufD1Ev
__ZNSt12strstreambufD2Ev
__ZNSt9strstream3strEv
__ZNSt9strstream6freezeEb
__ZNSt9strstreamC1EPciSt13_Ios_Openmode
__ZNSt9strstreamC1Ev
__ZNSt9strstreamC2EPciSt13_Ios_Openmode
__ZNSt9strstreamC2Ev
__ZNSt9strstreamD0Ev
__ZNSt9strstreamD1Ev
__ZNSt9strstreamD2Ev
__ZThn8_NSt9strstreamD0Ev
__ZThn8_NSt9strstreamD1Ev
__ZTv0_n12_NSt10istrstreamD0Ev
__ZTv0_n12_NSt10istrstreamD1Ev
__ZTv0_n12_NSt10ostrstreamD0Ev
__ZTv0_n12_NSt10ostrstreamD1Ev
__ZTv0_n12_NSt9strstreamD0Ev
__ZTv0_n12_NSt9strstreamD1Ev
__ZNKSt11__timepunctIcE6_M_putEPcjPKcPK2tm
__ZNKSt11__timepunctIwE6_M_putEPwjPKwPK2tm
__ZNSt11__timepunctIcE23_M_initialize_timepunctEPi
__ZNSt11__timepunctIwE23_M_initialize_timepunctEPi
__ZSt18_Rb_tree_decrementPKSt18_Rb_tree_node_base
__ZSt18_Rb_tree_decrementPSt18_Rb_tree_node_base
__ZSt18_Rb_tree_incrementPKSt18_Rb_tree_node_base
__ZSt18_Rb_tree_incrementPSt18_Rb_tree_node_base
__ZSt20_Rb_tree_black_countPKSt18_Rb_tree_node_baseS1_
__ZSt20_Rb_tree_rotate_leftPSt18_Rb_tree_node_baseRS0_
__ZSt21_Rb_tree_rotate_rightPSt18_Rb_tree_node_baseRS0_
__ZSt28_Rb_tree_rebalance_for_erasePSt18_Rb_tree_node_baseRS_
__ZSt29_Rb_tree_insert_and_rebalancebPSt18_Rb_tree_node_baseS0_RS_
__ZNKSt8valarrayIjE4sizeEv
__ZNSt6gslice8_IndexerC1EjRKSt8valarrayIjES4_
__ZNSt6gslice8_IndexerC2EjRKSt8valarrayIjES4_
__ZNSt8valarrayIjEC1ERKS0_
__ZNSt8valarrayIjEC1Ej
__ZNSt8valarrayIjEC2ERKS0_
__ZNSt8valarrayIjEC2Ej
__ZNSt8valarrayIjED1Ev
__ZNSt8valarrayIjED2Ev
__ZNSt8valarrayIjEixEj
__ZSt15__valarray_copyIjEvPKT_jPS0_
__ZSt15__valarray_fillIjEvPT_jRKS0_
__ZSt17__gslice_to_indexjRKSt8valarrayIjES2_RS0_
__ZNSt6chrono3_V212steady_clock3nowEv
__ZNSt6chrono3_V212system_clock3nowEv
__ZNKSt19__codecvt_utf8_baseIDiE10do_unshiftERiPcS2_RS2_
__ZNKSt19__codecvt_utf8_baseIDiE11do_encodingEv
__ZNKSt19__codecvt_utf8_baseIDiE13do_max_lengthEv
__ZNKSt19__codecvt_utf8_baseIDiE16do_always_noconvEv
__ZNKSt19__codecvt_utf8_baseIDiE5do_inERiPKcS3_RS3_PDiS5_RS5_
__ZNKSt19__codecvt_utf8_baseIDiE6do_outERiPKDiS3_RS3_PcS5_RS5_
__ZNKSt19__codecvt_utf8_baseIDiE9do_lengthERiPKcS3_j
__ZNKSt19__codecvt_utf8_baseIDsE10do_unshiftERiPcS2_RS2_
__ZNKSt19__codecvt_utf8_baseIDsE11do_encodingEv
__ZNKSt19__codecvt_utf8_baseIDsE13do_max_lengthEv
__ZNKSt19__codecvt_utf8_baseIDsE16do_always_noconvEv
__ZNKSt19__codecvt_utf8_baseIDsE5do_inERiPKcS3_RS3_PDsS5_RS5_
__ZNKSt19__codecvt_utf8_baseIDsE6do_outERiPKDsS3_RS3_PcS5_RS5_
__ZNKSt19__codecvt_utf8_baseIDsE9do_lengthERiPKcS3_j
__ZNKSt19__codecvt_utf8_baseIwE10do_unshiftERiPcS2_RS2_
__ZNKSt19__codecvt_utf8_baseIwE11do_encodingEv
__ZNKSt19__codecvt_utf8_baseIwE13do_max_lengthEv
__ZNKSt19__codecvt_utf8_baseIwE16do_always_noconvEv
__ZNKSt19__codecvt_utf8_baseIwE5do_inERiPKcS3_RS3_PwS5_RS5_
__ZNKSt19__codecvt_utf8_baseIwE6do_outERiPKwS3_RS3_PcS5_RS5_
__ZNKSt19__codecvt_utf8_baseIwE9do_lengthERiPKcS3_j
__ZNKSt20__codecvt_utf16_baseIDiE10do_unshiftERiPcS2_RS2_
__ZNKSt20__codecvt_utf16_baseIDiE11do_encodingEv
__ZNKSt20__codecvt_utf16_baseIDiE13do_max_lengthEv
__ZNKSt20__codecvt_utf16_baseIDiE16do_always_noconvEv
__ZNKSt20__codecvt_utf16_baseIDiE5do_inERiPKcS3_RS3_PDiS5_RS5_
__ZNKSt20__codecvt_utf16_baseIDiE6do_outERiPKDiS3_RS3_PcS5_RS5_
__ZNKSt20__codecvt_utf16_baseIDiE9do_lengthERiPKcS3_j
__ZNKSt20__codecvt_utf16_baseIDsE10do_unshiftERiPcS2_RS2_
__ZNKSt20__codecvt_utf16_baseIDsE11do_encodingEv
__ZNKSt20__codecvt_utf16_baseIDsE13do_max_lengthEv
__ZNKSt20__codecvt_utf16_baseIDsE16do_always_noconvEv
__ZNKSt20__codecvt_utf16_baseIDsE5do_inERiPKcS3_RS3_PDsS5_RS5_
__ZNKSt20__codecvt_utf16_baseIDsE6do_outERiPKDsS3_RS3_PcS5_RS5_
__ZNKSt20__codecvt_utf16_baseIDsE9do_lengthERiPKcS3_j
__ZNKSt20__codecvt_utf16_baseIwE10do_unshiftERiPcS2_RS2_
__ZNKSt20__codecvt_utf16_baseIwE11do_encodingEv
__ZNKSt20__codecvt_utf16_baseIwE13do_max_lengthEv
__ZNKSt20__codecvt_utf16_baseIwE16do_always_noconvEv
__ZNKSt20__codecvt_utf16_baseIwE5do_inERiPKcS3_RS3_PwS5_RS5_
__ZNKSt20__codecvt_utf16_baseIwE6do_outERiPKwS3_RS3_PcS5_RS5_
__ZNKSt20__codecvt_utf16_baseIwE9do_lengthERiPKcS3_j
__ZNKSt25__codecvt_utf8_utf16_baseIDiE10do_unshiftERiPcS2_RS2_
__ZNKSt25__codecvt_utf8_utf16_baseIDiE11do_encodingEv
__ZNKSt25__codecvt_utf8_utf16_baseIDiE13do_max_lengthEv
__ZNKSt25__codecvt_utf8_utf16_baseIDiE16do_always_noconvEv
__ZNKSt25__codecvt_utf8_utf16_baseIDiE5do_inERiPKcS3_RS3_PDiS5_RS5_
__ZNKSt25__codecvt_utf8_utf16_baseIDiE6do_outERiPKDiS3_RS3_PcS5_RS5_
__ZNKSt25__codecvt_utf8_utf16_baseIDiE9do_lengthERiPKcS3_j
__ZNKSt25__codecvt_utf8_utf16_baseIDsE10do_unshiftERiPcS2_RS2_
__ZNKSt25__codecvt_utf8_utf16_baseIDsE11do_encodingEv
__ZNKSt25__codecvt_utf8_utf16_baseIDsE13do_max_lengthEv
__ZNKSt25__codecvt_utf8_utf16_baseIDsE16do_always_noconvEv
__ZNKSt25__codecvt_utf8_utf16_baseIDsE5do_inERiPKcS3_RS3_PDsS5_RS5_
__ZNKSt25__codecvt_utf8_utf16_baseIDsE6do_outERiPKDsS3_RS3_PcS5_RS5_
__ZNKSt25__codecvt_utf8_utf16_baseIDsE9do_lengthERiPKcS3_j
__ZNKSt25__codecvt_utf8_utf16_baseIwE10do_unshiftERiPcS2_RS2_
__ZNKSt25__codecvt_utf8_utf16_baseIwE11do_encodingEv
__ZNKSt25__codecvt_utf8_utf16_baseIwE13do_max_lengthEv
__ZNKSt25__codecvt_utf8_utf16_baseIwE16do_always_noconvEv
__ZNKSt25__codecvt_utf8_utf16_baseIwE5do_inERiPKcS3_RS3_PwS5_RS5_
__ZNKSt25__codecvt_utf8_utf16_baseIwE6do_outERiPKwS3_RS3_PcS5_RS5_
__ZNKSt25__codecvt_utf8_utf16_baseIwE9do_lengthERiPKcS3_j
__ZNKSt7codecvtIDiDuiE10do_unshiftERiPDuS2_RS2_
__ZNKSt7codecvtIDiDuiE11do_encodingEv
__ZNKSt7codecvtIDiDuiE13do_max_lengthEv
__ZNKSt7codecvtIDiDuiE16do_always_noconvEv
__ZNKSt7codecvtIDiDuiE5do_inERiPKDuS3_RS3_PDiS5_RS5_
__ZNKSt7codecvtIDiDuiE6do_outERiPKDiS3_RS3_PDuS5_RS5_
__ZNKSt7codecvtIDiDuiE9do_lengthERiPKDuS3_j
__ZNKSt7codecvtIDiciE10do_unshiftERiPcS2_RS2_
__ZNKSt7codecvtIDiciE11do_encodingEv
__ZNKSt7codecvtIDiciE13do_max_lengthEv
__ZNKSt7codecvtIDiciE16do_always_noconvEv
__ZNKSt7codecvtIDiciE5do_inERiPKcS3_RS3_PDiS5_RS5_
__ZNKSt7codecvtIDiciE6do_outERiPKDiS3_RS3_PcS5_RS5_
__ZNKSt7codecvtIDiciE9do_lengthERiPKcS3_j
__ZNKSt7codecvtIDsDuiE10do_unshiftERiPDuS2_RS2_
__ZNKSt7codecvtIDsDuiE11do_encodingEv
__ZNKSt7codecvtIDsDuiE13do_max_lengthEv
__ZNKSt7codecvtIDsDuiE16do_always_noconvEv
__ZNKSt7codecvtIDsDuiE5do_inERiPKDuS3_RS3_PDsS5_RS5_
__ZNKSt7codecvtIDsDuiE6do_outERiPKDsS3_RS3_PDuS5_RS5_
__ZNKSt7codecvtIDsDuiE9do_lengthERiPKDuS3_j
__ZNKSt7codecvtIDsciE10do_unshiftERiPcS2_RS2_
__ZNKSt7codecvtIDsciE11do_encodingEv
__ZNKSt7codecvtIDsciE13do_max_lengthEv
__ZNKSt7codecvtIDsciE16do_always_noconvEv
__ZNKSt7codecvtIDsciE5do_inERiPKcS3_RS3_PDsS5_RS5_
__ZNKSt7codecvtIDsciE6do_outERiPKDsS3_RS3_PcS5_RS5_
__ZNKSt7codecvtIDsciE9do_lengthERiPKcS3_j
__ZNSt19__codecvt_utf8_baseIDiED0Ev
__ZNSt19__codecvt_utf8_baseIDiED1Ev
__ZNSt19__codecvt_utf8_baseIDiED2Ev
__ZNSt19__codecvt_utf8_baseIDsED0Ev
__ZNSt19__codecvt_utf8_baseIDsED1Ev
__ZNSt19__codecvt_utf8_baseIDsED2Ev
__ZNSt19__codecvt_utf8_baseIwED0Ev
__ZNSt19__codecvt_utf8_baseIwED1Ev
__ZNSt19__codecvt_utf8_baseIwED2Ev
__ZNSt20__codecvt_utf16_baseIDiED0Ev
__ZNSt20__codecvt_utf16_baseIDiED1Ev
__ZNSt20__codecvt_utf16_baseIDiED2Ev
__ZNSt20__codecvt_utf16_baseIDsED0Ev
__ZNSt20__codecvt_utf16_baseIDsED1Ev
__ZNSt20__codecvt_utf16_baseIDsED2Ev
__ZNSt20__codecvt_utf16_baseIwED0Ev
__ZNSt20__codecvt_utf16_baseIwED1Ev
__ZNSt20__codecvt_utf16_baseIwED2Ev
__ZNSt25__codecvt_utf8_utf16_baseIDiED0Ev
__ZNSt25__codecvt_utf8_utf16_baseIDiED1Ev
__ZNSt25__codecvt_utf8_utf16_baseIDiED2Ev
__ZNSt25__codecvt_utf8_utf16_baseIDsED0Ev
__ZNSt25__codecvt_utf8_utf16_baseIDsED1Ev
__ZNSt25__codecvt_utf8_utf16_baseIDsED2Ev
__ZNSt25__codecvt_utf8_utf16_baseIwED0Ev
__ZNSt25__codecvt_utf8_utf16_baseIwED1Ev
__ZNSt25__codecvt_utf8_utf16_baseIwED2Ev
__ZNSt7codecvtIDiDuiED0Ev
__ZNSt7codecvtIDiDuiED1Ev
__ZNSt7codecvtIDiDuiED2Ev
__ZNSt7codecvtIDiciED0Ev
__ZNSt7codecvtIDiciED1Ev
__ZNSt7codecvtIDiciED2Ev
__ZNSt7codecvtIDsDuiED0Ev
__ZNSt7codecvtIDsDuiED1Ev
__ZNSt7codecvtIDsDuiED2Ev
__ZNSt7codecvtIDsciED0Ev
__ZNSt7codecvtIDsciED1Ev
__ZNSt7codecvtIDsciED2Ev
__ZNSt18condition_variable10notify_allEv
__ZNSt18condition_variable10notify_oneEv
__ZNSt18condition_variable4waitERSt11unique_lockISt5mutexE
__ZNSt18condition_variableC1Ev
__ZNSt18condition_variableC2Ev
__ZNSt18condition_variableD1Ev
__ZNSt18condition_variableD2Ev
__ZSt16__at_thread_exitPSt20__at_thread_exit_elt
__ZSt25notify_all_at_thread_exitRSt18condition_variableSt11unique_lockISt5mutexE
__ZNSt13basic_filebufIcSt11char_traitsIcEE4openERKSsSt13_Ios_Openmode
__ZNSt13basic_filebufIwSt11char_traitsIwEE4openERKSsSt13_Ios_Openmode
__ZNSt13basic_fstreamIcSt11char_traitsIcEE4openERKSsSt13_Ios_Openmode
__ZNSt13basic_fstreamIcSt11char_traitsIcEEC1ERKSsSt13_Ios_Openmode
__ZNSt13basic_fstreamIcSt11char_traitsIcEEC2ERKSsSt13_Ios_Openmode
__ZNSt13basic_fstreamIwSt11char_traitsIwEE4openERKSsSt13_Ios_Openmode
__ZNSt13basic_fstreamIwSt11char_traitsIwEEC1ERKSsSt13_Ios_Openmode
__ZNSt13basic_fstreamIwSt11char_traitsIwEEC2ERKSsSt13_Ios_Openmode
__ZNSt14basic_ifstreamIcSt11char_traitsIcEE4openERKSsSt13_Ios_Openmode
__ZNSt14basic_ifstreamIcSt11char_traitsIcEEC1ERKSsSt13_Ios_Openmode
__ZNSt14basic_ifstreamIcSt11char_traitsIcEEC2ERKSsSt13_Ios_Openmode
__ZNSt14basic_ifstreamIwSt11char_traitsIwEE4openERKSsSt13_Ios_Openmode
__ZNSt14basic_ifstreamIwSt11char_traitsIwEEC1ERKSsSt13_Ios_Openmode
__ZNSt14basic_ifstreamIwSt11char_traitsIwEEC2ERKSsSt13_Ios_Openmode
__ZNSt14basic_ofstreamIcSt11char_traitsIcEE4openERKSsSt13_Ios_Openmode
__ZNSt14basic_ofstreamIcSt11char_traitsIcEEC1ERKSsSt13_Ios_Openmode
__ZNSt14basic_ofstreamIcSt11char_traitsIcEEC2ERKSsSt13_Ios_Openmode
__ZNSt14basic_ofstreamIwSt11char_traitsIwEE4openERKSsSt13_Ios_Openmode
__ZNSt14basic_ofstreamIwSt11char_traitsIwEEC1ERKSsSt13_Ios_Openmode
__ZNSt14basic_ofstreamIwSt11char_traitsIwEEC2ERKSsSt13_Ios_Openmode
__ZNKSt6locale4nameEv
__ZNSt6locale5_Impl13_M_init_extraEPPNS_5facetE
__ZNSt6locale5_Impl13_M_init_extraEPvS1_PKcS3_
__ZNKSt6locale5facet11_M_cow_shimEPKNS_2idE
__ZNKSt6locale5facet19_M_remove_referenceEv
__ZNSt13__facet_shims10__time_getIcEESt19istreambuf_iteratorIT_St11char_traitsIS2_EESt17integral_constantIbLb0EEPKNSt6locale5facetES5_S5_RSt8ios_baseRSt12_Ios_IostateP2tmc
__ZNSt13__facet_shims10__time_getIwEESt19istreambuf_iteratorIT_St11char_traitsIS2_EESt17integral_constantIbLb0EEPKNSt6locale5facetES5_S5_RSt8ios_baseRSt12_Ios_IostateP2tmc
__ZNSt13__facet_shims11__money_getIcEESt19istreambuf_iteratorIT_St11char_traitsIS2_EESt17integral_constantIbLb0EEPKNSt6locale5facetES5_S5_bRSt8ios_baseRSt12_Ios_IostatePePNS_12__any_stringE
__ZNSt13__facet_shims11__money_getIwEESt19istreambuf_iteratorIT_St11char_traitsIS2_EESt17integral_constantIbLb0EEPKNSt6locale5facetES5_S5_bRSt8ios_baseRSt12_Ios_IostatePePNS_12__any_stringE
__ZNSt13__facet_shims11__money_putIcEESt19ostreambuf_iteratorIT_St11char_traitsIS2_EESt17integral_constantIbLb0EEPKNSt6locale5facetES5_bRSt8ios_baseS2_ePKNS_12__any_stringE
__ZNSt13__facet_shims11__money_putIwEESt19ostreambuf_iteratorIT_St11char_traitsIS2_EESt17integral_constantIbLb0EEPKNSt6locale5facetES5_bRSt8ios_baseS2_ePKNS_12__any_stringE
__ZNSt13__facet_shims14__messages_getIcEEvSt17integral_constantIbLb0EEPKNSt6locale5facetERNS_12__any_stringEiiiPKT_j
__ZNSt13__facet_shims14__messages_getIwEEvSt17integral_constantIbLb0EEPKNSt6locale5facetERNS_12__any_stringEiiiPKT_j
__ZNSt13__facet_shims15__messages_openIcEEiSt17integral_constantIbLb0EEPKNSt6locale5facetEPKcjRKS3_
__ZNSt13__facet_shims15__messages_openIwEEiSt17integral_constantIbLb0EEPKNSt6locale5facetEPKcjRKS3_
__ZNSt13__facet_shims16__messages_closeIcEEvSt17integral_constantIbLb0EEPKNSt6locale5facetEi
__ZNSt13__facet_shims16__messages_closeIwEEvSt17integral_constantIbLb0EEPKNSt6locale5facetEi
__ZNSt13__facet_shims17__collate_compareIcEEiSt17integral_constantIbLb0EEPKNSt6locale5facetEPKT_S9_S9_S9_
__ZNSt13__facet_shims17__collate_compareIwEEiSt17integral_constantIbLb0EEPKNSt6locale5facetEPKT_S9_S9_S9_
__ZNSt13__facet_shims19__collate_transformIcEEvSt17integral_constantIbLb0EEPKNSt6locale5facetERNS_12__any_stringEPKT_SB_
__ZNSt13__facet_shims19__collate_transformIwEEvSt17integral_constantIbLb0EEPKNSt6locale5facetERNS_12__any_stringEPKT_SB_
__ZNSt13__facet_shims20__time_get_dateorderIcEENSt9time_base9dateorderESt17integral_constantIbLb0EEPKNSt6locale5facetE
__ZNSt13__facet_shims20__time_get_dateorderIwEENSt9time_base9dateorderESt17integral_constantIbLb0EEPKNSt6locale5facetE
__ZNSt13__facet_shims21__numpunct_fill_cacheIcEEvSt17integral_constantIbLb0EEPKNSt6locale5facetEPSt16__numpunct_cacheIT_E
__ZNSt13__facet_shims21__numpunct_fill_cacheIwEEvSt17integral_constantIbLb0EEPKNSt6locale5facetEPSt16__numpunct_cacheIT_E
__ZNSt13__facet_shims23__moneypunct_fill_cacheIcLb0EEEvSt17integral_constantIbLb0EEPKNSt6locale5facetEPSt18__moneypunct_cacheIT_XT0_EE
__ZNSt13__facet_shims23__moneypunct_fill_cacheIcLb1EEEvSt17integral_constantIbLb0EEPKNSt6locale5facetEPSt18__moneypunct_cacheIT_XT0_EE
__ZNSt13__facet_shims23__moneypunct_fill_cacheIwLb0EEEvSt17integral_constantIbLb0EEPKNSt6locale5facetEPSt18__moneypunct_cacheIT_XT0_EE
__ZNSt13__facet_shims23__moneypunct_fill_cacheIwLb1EEEvSt17integral_constantIbLb0EEPKNSt6locale5facetEPSt18__moneypunct_cacheIT_XT0_EE
__ZNKSt15basic_stringbufIcSt11char_traitsIcESaIcEE3strEv
__ZNKSt15basic_stringbufIwSt11char_traitsIwESaIwEE3strEv
__ZNKSt18basic_stringstreamIcSt11char_traitsIcESaIcEE3strEv
__ZNKSt18basic_stringstreamIcSt11char_traitsIcESaIcEE5rdbufEv
__ZNKSt18basic_stringstreamIwSt11char_traitsIwESaIwEE3strEv
__ZNKSt18basic_stringstreamIwSt11char_traitsIwESaIwEE5rdbufEv
__ZNKSt19basic_istringstreamIcSt11char_traitsIcESaIcEE3strEv
__ZNKSt19basic_istringstreamIcSt11char_traitsIcESaIcEE5rdbufEv
__ZNKSt19basic_istringstreamIwSt11char_traitsIwESaIwEE3strEv
__ZNKSt19basic_istringstreamIwSt11char_traitsIwESaIwEE5rdbufEv
__ZNKSt19basic_ostringstreamIcSt11char_traitsIcESaIcEE3strEv
__ZNKSt19basic_ostringstreamIcSt11char_traitsIcESaIcEE5rdbufEv
__ZNKSt19basic_ostringstreamIwSt11char_traitsIwESaIwEE3strEv
__ZNKSt19basic_ostringstreamIwSt11char_traitsIwESaIwEE5rdbufEv
__ZNSt15basic_stringbufIcSt11char_traitsIcESaIcEE14__xfer_bufptrsC1ERKS3_PS3_
__ZNSt15basic_stringbufIcSt11char_traitsIcESaIcEE14__xfer_bufptrsC2ERKS3_PS3_
__ZNSt15basic_stringbufIcSt11char_traitsIcESaIcEE15_M_update_egptrEv
__ZNSt15basic_stringbufIcSt11char_traitsIcESaIcEE17_M_stringbuf_initESt13_Ios_Openmode
__ZNSt15basic_stringbufIcSt11char_traitsIcESaIcEE3strERKSs
__ZNSt15basic_stringbufIcSt11char_traitsIcESaIcEE4swapERS3_
__ZNSt15basic_stringbufIcSt11char_traitsIcESaIcEE6setbufEPci
__ZNSt15basic_stringbufIcSt11char_traitsIcESaIcEE7_M_syncEPcjj
__ZNSt15basic_stringbufIcSt11char_traitsIcESaIcEE7seekoffExSt12_Ios_SeekdirSt13_Ios_Openmode
__ZNSt15basic_stringbufIcSt11char_traitsIcESaIcEE7seekposESt4fposIiESt13_Ios_Openmode
__ZNSt15basic_stringbufIcSt11char_traitsIcESaIcEE8_M_pbumpEPcS4_x
__ZNSt15basic_stringbufIcSt11char_traitsIcESaIcEE8overflowEi
__ZNSt15basic_stringbufIcSt11char_traitsIcESaIcEE9pbackfailEi
__ZNSt15basic_stringbufIcSt11char_traitsIcESaIcEE9showmanycEv
__ZNSt15basic_stringbufIcSt11char_traitsIcESaIcEE9underflowEv
__ZNSt15basic_stringbufIcSt11char_traitsIcESaIcEEC1EOS3_
__ZNSt15basic_stringbufIcSt11char_traitsIcESaIcEEC1EOS3_ONS3_14__xfer_bufptrsE
__ZNSt15basic_stringbufIcSt11char_traitsIcESaIcEEC1ERKSsSt13_Ios_Openmode
__ZNSt15basic_stringbufIcSt11char_traitsIcESaIcEEC1ESt13_Ios_Openmode
__ZNSt15basic_stringbufIcSt11char_traitsIcESaIcEEC1Ev
__ZNSt15basic_stringbufIcSt11char_traitsIcESaIcEEC2EOS3_
__ZNSt15basic_stringbufIcSt11char_traitsIcESaIcEEC2EOS3_ONS3_14__xfer_bufptrsE
__ZNSt15basic_stringbufIcSt11char_traitsIcESaIcEEC2ERKSsSt13_Ios_Openmode
__ZNSt15basic_stringbufIcSt11char_traitsIcESaIcEEC2ESt13_Ios_Openmode
__ZNSt15basic_stringbufIcSt11char_traitsIcESaIcEEC2Ev
__ZNSt15basic_stringbufIcSt11char_traitsIcESaIcEED0Ev
__ZNSt15basic_stringbufIcSt11char_traitsIcESaIcEED1Ev
__ZNSt15basic_stringbufIcSt11char_traitsIcESaIcEEaSEOS3_
__ZNSt15basic_stringbufIwSt11char_traitsIwESaIwEE14__xfer_bufptrsC1ERKS3_PS3_
__ZNSt15basic_stringbufIwSt11char_traitsIwESaIwEE14__xfer_bufptrsC2ERKS3_PS3_
__ZNSt15basic_stringbufIwSt11char_traitsIwESaIwEE15_M_update_egptrEv
__ZNSt15basic_stringbufIwSt11char_traitsIwESaIwEE17_M_stringbuf_initESt13_Ios_Openmode
__ZNSt15basic_stringbufIwSt11char_traitsIwESaIwEE3strERKSbIwS1_S2_E
__ZNSt15basic_stringbufIwSt11char_traitsIwESaIwEE4swapERS3_
__ZNSt15basic_stringbufIwSt11char_traitsIwESaIwEE6setbufEPwi
__ZNSt15basic_stringbufIwSt11char_traitsIwESaIwEE7_M_syncEPwjj
__ZNSt15basic_stringbufIwSt11char_traitsIwESaIwEE7seekoffExSt12_Ios_SeekdirSt13_Ios_Openmode
__ZNSt15basic_stringbufIwSt11char_traitsIwESaIwEE7seekposESt4fposIiESt13_Ios_Openmode
__ZNSt15basic_stringbufIwSt11char_traitsIwESaIwEE8_M_pbumpEPwS4_x
__ZNSt15basic_stringbufIwSt11char_traitsIwESaIwEE8overflowEt
__ZNSt15basic_stringbufIwSt11char_traitsIwESaIwEE9pbackfailEt
__ZNSt15basic_stringbufIwSt11char_traitsIwESaIwEE9showmanycEv
__ZNSt15basic_stringbufIwSt11char_traitsIwESaIwEE9underflowEv
__ZNSt15basic_stringbufIwSt11char_traitsIwESaIwEEC1EOS3_
__ZNSt15basic_stringbufIwSt11char_traitsIwESaIwEEC1EOS3_ONS3_14__xfer_bufptrsE
__ZNSt15basic_stringbufIwSt11char_traitsIwESaIwEEC1ERKSbIwS1_S2_ESt13_Ios_Openmode
__ZNSt15basic_stringbufIwSt11char_traitsIwESaIwEEC1ESt13_Ios_Openmode
__ZNSt15basic_stringbufIwSt11char_traitsIwESaIwEEC1Ev
__ZNSt15basic_stringbufIwSt11char_traitsIwESaIwEEC2EOS3_
__ZNSt15basic_stringbufIwSt11char_traitsIwESaIwEEC2EOS3_ONS3_14__xfer_bufptrsE
__ZNSt15basic_stringbufIwSt11char_traitsIwESaIwEEC2ERKSbIwS1_S2_ESt13_Ios_Openmode
__ZNSt15basic_stringbufIwSt11char_traitsIwESaIwEEC2ESt13_Ios_Openmode
__ZNSt15basic_stringbufIwSt11char_traitsIwESaIwEEC2Ev
__ZNSt15basic_stringbufIwSt11char_traitsIwESaIwEED0Ev
__ZNSt15basic_stringbufIwSt11char_traitsIwESaIwEED1Ev
__ZNSt15basic_stringbufIwSt11char_traitsIwESaIwEEaSEOS3_
__ZNSt18basic_stringstreamIcSt11char_traitsIcESaIcEE3strERKSs
__ZNSt18basic_stringstreamIcSt11char_traitsIcESaIcEE4swapERS3_
__ZNSt18basic_stringstreamIcSt11char_traitsIcESaIcEEC1EOS3_
__ZNSt18basic_stringstreamIcSt11char_traitsIcESaIcEEC1ERKSsSt13_Ios_Openmode
__ZNSt18basic_stringstreamIcSt11char_traitsIcESaIcEEC1ESt13_Ios_Openmode
__ZNSt18basic_stringstreamIcSt11char_traitsIcESaIcEEC1Ev
__ZNSt18basic_stringstreamIcSt11char_traitsIcESaIcEEC2EOS3_
__ZNSt18basic_stringstreamIcSt11char_traitsIcESaIcEEC2ERKSsSt13_Ios_Openmode
__ZNSt18basic_stringstreamIcSt11char_traitsIcESaIcEEC2ESt13_Ios_Openmode
__ZNSt18basic_stringstreamIcSt11char_traitsIcESaIcEEC2Ev
__ZNSt18basic_stringstreamIcSt11char_traitsIcESaIcEED0Ev
__ZNSt18basic_stringstreamIcSt11char_traitsIcESaIcEED1Ev
__ZNSt18basic_stringstreamIcSt11char_traitsIcESaIcEED2Ev
__ZNSt18basic_stringstreamIcSt11char_traitsIcESaIcEEaSEOS3_
__ZNSt18basic_stringstreamIwSt11char_traitsIwESaIwEE3strERKSbIwS1_S2_E
__ZNSt18basic_stringstreamIwSt11char_traitsIwESaIwEE4swapERS3_
__ZNSt18basic_stringstreamIwSt11char_traitsIwESaIwEEC1EOS3_
__ZNSt18basic_stringstreamIwSt11char_traitsIwESaIwEEC1ERKSbIwS1_S2_ESt13_Ios_Openmode
__ZNSt18basic_stringstreamIwSt11char_traitsIwESaIwEEC1ESt13_Ios_Openmode
__ZNSt18basic_stringstreamIwSt11char_traitsIwESaIwEEC1Ev
__ZNSt18basic_stringstreamIwSt11char_traitsIwESaIwEEC2EOS3_
__ZNSt18basic_stringstreamIwSt11char_traitsIwESaIwEEC2ERKSbIwS1_S2_ESt13_Ios_Openmode
__ZNSt18basic_stringstreamIwSt11char_traitsIwESaIwEEC2ESt13_Ios_Openmode
__ZNSt18basic_stringstreamIwSt11char_traitsIwESaIwEEC2Ev
__ZNSt18basic_stringstreamIwSt11char_traitsIwESaIwEED0Ev
__ZNSt18basic_stringstreamIwSt11char_traitsIwESaIwEED1Ev
__ZNSt18basic_stringstreamIwSt11char_traitsIwESaIwEED2Ev
__ZNSt18basic_stringstreamIwSt11char_traitsIwESaIwEEaSEOS3_
__ZNSt19basic_istringstreamIcSt11char_traitsIcESaIcEE3strERKSs
__ZNSt19basic_istringstreamIcSt11char_traitsIcESaIcEE4swapERS3_
__ZNSt19basic_istringstreamIcSt11char_traitsIcESaIcEEC1EOS3_
__ZNSt19basic_istringstreamIcSt11char_traitsIcESaIcEEC1ERKSsSt13_Ios_Openmode
__ZNSt19basic_istringstreamIcSt11char_traitsIcESaIcEEC1ESt13_Ios_Openmode
__ZNSt19basic_istringstreamIcSt11char_traitsIcESaIcEEC1Ev
__ZNSt19basic_istringstreamIcSt11char_traitsIcESaIcEEC2EOS3_
__ZNSt19basic_istringstreamIcSt11char_traitsIcESaIcEEC2ERKSsSt13_Ios_Openmode
__ZNSt19basic_istringstreamIcSt11char_traitsIcESaIcEEC2ESt13_Ios_Openmode
__ZNSt19basic_istringstreamIcSt11char_traitsIcESaIcEEC2Ev
__ZNSt19basic_istringstreamIcSt11char_traitsIcESaIcEED0Ev
__ZNSt19basic_istringstreamIcSt11char_traitsIcESaIcEED1Ev
__ZNSt19basic_istringstreamIcSt11char_traitsIcESaIcEED2Ev
__ZNSt19basic_istringstreamIcSt11char_traitsIcESaIcEEaSEOS3_
__ZNSt19basic_istringstreamIwSt11char_traitsIwESaIwEE3strERKSbIwS1_S2_E
__ZNSt19basic_istringstreamIwSt11char_traitsIwESaIwEE4swapERS3_
__ZNSt19basic_istringstreamIwSt11char_traitsIwESaIwEEC1EOS3_
__ZNSt19basic_istringstreamIwSt11char_traitsIwESaIwEEC1ERKSbIwS1_S2_ESt13_Ios_Openmode
__ZNSt19basic_istringstreamIwSt11char_traitsIwESaIwEEC1ESt13_Ios_Openmode
__ZNSt19basic_istringstreamIwSt11char_traitsIwESaIwEEC1Ev
__ZNSt19basic_istringstreamIwSt11char_traitsIwESaIwEEC2EOS3_
__ZNSt19basic_istringstreamIwSt11char_traitsIwESaIwEEC2ERKSbIwS1_S2_ESt13_Ios_Openmode
__ZNSt19basic_istringstreamIwSt11char_traitsIwESaIwEEC2ESt13_Ios_Openmode
__ZNSt19basic_istringstreamIwSt11char_traitsIwESaIwEEC2Ev
__ZNSt19basic_istringstreamIwSt11char_traitsIwESaIwEED0Ev
__ZNSt19basic_istringstreamIwSt11char_traitsIwESaIwEED1Ev
__ZNSt19basic_istringstreamIwSt11char_traitsIwESaIwEED2Ev
__ZNSt19basic_istringstreamIwSt11char_traitsIwESaIwEEaSEOS3_
__ZNSt19basic_ostringstreamIcSt11char_traitsIcESaIcEE3strERKSs
__ZNSt19basic_ostringstreamIcSt11char_traitsIcESaIcEE4swapERS3_
__ZNSt19basic_ostringstreamIcSt11char_traitsIcESaIcEEC1EOS3_
__ZNSt19basic_ostringstreamIcSt11char_traitsIcESaIcEEC1ERKSsSt13_Ios_Openmode
__ZNSt19basic_ostringstreamIcSt11char_traitsIcESaIcEEC1ESt13_Ios_Openmode
__ZNSt19basic_ostringstreamIcSt11char_traitsIcESaIcEEC1Ev
__ZNSt19basic_ostringstreamIcSt11char_traitsIcESaIcEEC2EOS3_
__ZNSt19basic_ostringstreamIcSt11char_traitsIcESaIcEEC2ERKSsSt13_Ios_Openmode
__ZNSt19basic_ostringstreamIcSt11char_traitsIcESaIcEEC2ESt13_Ios_Openmode
__ZNSt19basic_ostringstreamIcSt11char_traitsIcESaIcEEC2Ev
__ZNSt19basic_ostringstreamIcSt11char_traitsIcESaIcEED0Ev
__ZNSt19basic_ostringstreamIcSt11char_traitsIcESaIcEED1Ev
__ZNSt19basic_ostringstreamIcSt11char_traitsIcESaIcEED2Ev
__ZNSt19basic_ostringstreamIcSt11char_traitsIcESaIcEEaSEOS3_
__ZNSt19basic_ostringstreamIwSt11char_traitsIwESaIwEE3strERKSbIwS1_S2_E
__ZNSt19basic_ostringstreamIwSt11char_traitsIwESaIwEE4swapERS3_
__ZNSt19basic_ostringstreamIwSt11char_traitsIwESaIwEEC1EOS3_
__ZNSt19basic_ostringstreamIwSt11char_traitsIwESaIwEEC1ERKSbIwS1_S2_ESt13_Ios_Openmode
__ZNSt19basic_ostringstreamIwSt11char_traitsIwESaIwEEC1ESt13_Ios_Openmode
__ZNSt19basic_ostringstreamIwSt11char_traitsIwESaIwEEC1Ev
__ZNSt19basic_ostringstreamIwSt11char_traitsIwESaIwEEC2EOS3_
__ZNSt19basic_ostringstreamIwSt11char_traitsIwESaIwEEC2ERKSbIwS1_S2_ESt13_Ios_Openmode
__ZNSt19basic_ostringstreamIwSt11char_traitsIwESaIwEEC2ESt13_Ios_Openmode
__ZNSt19basic_ostringstreamIwSt11char_traitsIwESaIwEEC2Ev
__ZNSt19basic_ostringstreamIwSt11char_traitsIwESaIwEED0Ev
__ZNSt19basic_ostringstreamIwSt11char_traitsIwESaIwEED1Ev
__ZNSt19basic_ostringstreamIwSt11char_traitsIwESaIwEED2Ev
__ZNSt19basic_ostringstreamIwSt11char_traitsIwESaIwEEaSEOS3_
__ZThn8_NSt18basic_stringstreamIcSt11char_traitsIcESaIcEED0Ev
__ZThn8_NSt18basic_stringstreamIcSt11char_traitsIcESaIcEED1Ev
__ZThn8_NSt18basic_stringstreamIwSt11char_traitsIwESaIwEED0Ev
__ZThn8_NSt18basic_stringstreamIwSt11char_traitsIwESaIwEED1Ev
__ZTv0_n12_NSt18basic_stringstreamIcSt11char_traitsIcESaIcEED0Ev
__ZTv0_n12_NSt18basic_stringstreamIcSt11char_traitsIcESaIcEED1Ev
__ZTv0_n12_NSt18basic_stringstreamIwSt11char_traitsIwESaIwEED0Ev
__ZTv0_n12_NSt18basic_stringstreamIwSt11char_traitsIwESaIwEED1Ev
__ZTv0_n12_NSt19basic_istringstreamIcSt11char_traitsIcESaIcEED0Ev
__ZTv0_n12_NSt19basic_istringstreamIcSt11char_traitsIcESaIcEED1Ev
__ZTv0_n12_NSt19basic_istringstreamIwSt11char_traitsIwESaIwEED0Ev
__ZTv0_n12_NSt19basic_istringstreamIwSt11char_traitsIwESaIwEED1Ev
__ZTv0_n12_NSt19basic_ostringstreamIcSt11char_traitsIcESaIcEED0Ev
__ZTv0_n12_NSt19basic_ostringstreamIcSt11char_traitsIcESaIcEED1Ev
__ZTv0_n12_NSt19basic_ostringstreamIwSt11char_traitsIwESaIwEED0Ev
__ZTv0_n12_NSt19basic_ostringstreamIwSt11char_traitsIwESaIwEED1Ev
__Z20_txnal_cow_string_D1Pv
__Z23_txnal_cow_string_c_strPKv
__Z23_txnal_sso_string_c_strPKv
__Z26_txnal_logic_error_get_msgPv
__Z27_txnal_cow_string_D1_commitPv
__Z28_txnal_runtime_error_get_msgPv
__Z35_txnal_cow_string_C1_for_exceptionsPvPKcS_
__ZGTtNKSt11logic_error4whatEv
__ZGTtNKSt13runtime_error4whatEv
__ZGTtNSt11logic_errorC1EPKc
__ZGTtNSt11logic_errorC1ERKNSt7__cxx1112basic_stringIcSt11char_traitsIcESaIcEEE
__ZGTtNSt11logic_errorC2EPKc
__ZGTtNSt11logic_errorC2ERKNSt7__cxx1112basic_stringIcSt11char_traitsIcESaIcEEE
__ZGTtNSt11logic_errorD0Ev
__ZGTtNSt11logic_errorD1Ev
__ZGTtNSt11logic_errorD2Ev
__ZGTtNSt11range_errorC1EPKc
__ZGTtNSt11range_errorC1ERKNSt7__cxx1112basic_stringIcSt11char_traitsIcESaIcEEE
__ZGTtNSt11range_errorC2EPKc
__ZGTtNSt11range_errorC2ERKNSt7__cxx1112basic_stringIcSt11char_traitsIcESaIcEEE
__ZGTtNSt11range_errorD0Ev
__ZGTtNSt11range_errorD1Ev
__ZGTtNSt11range_errorD2Ev
__ZGTtNSt12domain_errorC1EPKc
__ZGTtNSt12domain_errorC1ERKNSt7__cxx1112basic_stringIcSt11char_traitsIcESaIcEEE
__ZGTtNSt12domain_errorC2EPKc
__ZGTtNSt12domain_errorC2ERKNSt7__cxx1112basic_stringIcSt11char_traitsIcESaIcEEE
__ZGTtNSt12domain_errorD0Ev
__ZGTtNSt12domain_errorD1Ev
__ZGTtNSt12domain_errorD2Ev
__ZGTtNSt12length_errorC1EPKc
__ZGTtNSt12length_errorC1ERKNSt7__cxx1112basic_stringIcSt11char_traitsIcESaIcEEE
__ZGTtNSt12length_errorC2EPKc
__ZGTtNSt12length_errorC2ERKNSt7__cxx1112basic_stringIcSt11char_traitsIcESaIcEEE
__ZGTtNSt12length_errorD0Ev
__ZGTtNSt12length_errorD1Ev
__ZGTtNSt12length_errorD2Ev
__ZGTtNSt12out_of_rangeC1EPKc
__ZGTtNSt12out_of_rangeC1ERKNSt7__cxx1112basic_stringIcSt11char_traitsIcESaIcEEE
__ZGTtNSt12out_of_rangeC2EPKc
__ZGTtNSt12out_of_rangeC2ERKNSt7__cxx1112basic_stringIcSt11char_traitsIcESaIcEEE
__ZGTtNSt12out_of_rangeD0Ev
__ZGTtNSt12out_of_rangeD1Ev
__ZGTtNSt12out_of_rangeD2Ev
__ZGTtNSt13runtime_errorC1EPKc
__ZGTtNSt13runtime_errorC1ERKNSt7__cxx1112basic_stringIcSt11char_traitsIcESaIcEEE
__ZGTtNSt13runtime_errorC2EPKc
__ZGTtNSt13runtime_errorC2ERKNSt7__cxx1112basic_stringIcSt11char_traitsIcESaIcEEE
__ZGTtNSt13runtime_errorD0Ev
__ZGTtNSt13runtime_errorD1Ev
__ZGTtNSt13runtime_errorD2Ev
__ZGTtNSt14overflow_errorC1EPKc
__ZGTtNSt14overflow_errorC1ERKNSt7__cxx1112basic_stringIcSt11char_traitsIcESaIcEEE
__ZGTtNSt14overflow_errorC2EPKc
__ZGTtNSt14overflow_errorC2ERKNSt7__cxx1112basic_stringIcSt11char_traitsIcESaIcEEE
__ZGTtNSt14overflow_errorD0Ev
__ZGTtNSt14overflow_errorD1Ev
__ZGTtNSt14overflow_errorD2Ev
__ZGTtNSt15underflow_errorC1EPKc
__ZGTtNSt15underflow_errorC1ERKNSt7__cxx1112basic_stringIcSt11char_traitsIcESaIcEEE
__ZGTtNSt15underflow_errorC2EPKc
__ZGTtNSt15underflow_errorC2ERKNSt7__cxx1112basic_stringIcSt11char_traitsIcESaIcEEE
__ZGTtNSt15underflow_errorD0Ev
__ZGTtNSt15underflow_errorD1Ev
__ZGTtNSt15underflow_errorD2Ev
__ZGTtNSt16invalid_argumentC1EPKc
__ZGTtNSt16invalid_argumentC1ERKNSt7__cxx1112basic_stringIcSt11char_traitsIcESaIcEEE
__ZGTtNSt16invalid_argumentC2EPKc
__ZGTtNSt16invalid_argumentC2ERKNSt7__cxx1112basic_stringIcSt11char_traitsIcESaIcEEE
__ZGTtNSt16invalid_argumentD0Ev
__ZGTtNSt16invalid_argumentD1Ev
__ZGTtNSt16invalid_argumentD2Ev
__ZNKSt3_V214error_category10_M_messageEi
__ZNSt11logic_errorC1EOS_
__ZNSt11logic_errorC1EPKc
__ZNSt11logic_errorC1ERKS_
__ZNSt11logic_errorC2EOS_
__ZNSt11logic_errorC2EPKc
__ZNSt11logic_errorC2ERKS_
__ZNSt11logic_erroraSEOS_
__ZNSt11logic_erroraSERKS_
__ZNSt11range_errorC1EPKc
__ZNSt11range_errorC2EPKc
__ZNSt12__cow_stringC1EOS_
__ZNSt12__cow_stringC1EPKcj
__ZNSt12__cow_stringC1ERKS_
__ZNSt12__cow_stringC1ERKSs
__ZNSt12__cow_stringC1Ev
__ZNSt12__cow_stringC2EOS_
__ZNSt12__cow_stringC2EPKcj
__ZNSt12__cow_stringC2ERKS_
__ZNSt12__cow_stringC2ERKSs
__ZNSt12__cow_stringC2Ev
__ZNSt12__cow_stringD1Ev
__ZNSt12__cow_stringD2Ev
__ZNSt12__cow_stringaSEOS_
__ZNSt12__cow_stringaSERKS_
__ZNSt12__sso_stringC1ERKSs
__ZNSt12__sso_stringC2ERKSs
__ZNSt12domain_errorC1EPKc
__ZNSt12domain_errorC2EPKc
__ZNSt12length_errorC1EPKc
__ZNSt12length_errorC2EPKc
__ZNSt12out_of_rangeC1EPKc
__ZNSt12out_of_rangeC2EPKc
__ZNSt13runtime_errorC1EOS_
__ZNSt13runtime_errorC1EPKc
__ZNSt13runtime_errorC1ERKS_
__ZNSt13runtime_errorC2EOS_
__ZNSt13runtime_errorC2EPKc
__ZNSt13runtime_errorC2ERKS_
__ZNSt13runtime_erroraSEOS_
__ZNSt13runtime_erroraSERKS_
__ZNSt14overflow_errorC1EPKc
__ZNSt14overflow_errorC2EPKc
__ZNSt15underflow_errorC1EPKc
__ZNSt15underflow_errorC2EPKc
__ZNSt16invalid_argumentC1EPKc
__ZNSt16invalid_argumentC2EPKc
__ZN9__gnu_cxxeqIPKcSsEEbRKNS_17__normal_iteratorIT_T0_EES8_
__ZN9__gnu_cxxeqIPcSsEEbRKNS_17__normal_iteratorIT_T0_EES7_
__ZNKSs11_M_disjunctEPKc
__ZNKSs12find_last_ofEPKcj
__ZNKSs12find_last_ofEPKcjj
__ZNKSs12find_last_ofERKSsj
__ZNKSs12find_last_ofEcj
__ZNKSs13find_first_ofEPKcj
__ZNKSs13find_first_ofEPKcjj
__ZNKSs13find_first_ofERKSsj
__ZNKSs13find_first_ofEcj
__ZNKSs13get_allocatorEv
__ZNKSs15_M_check_lengthEjjPKc
__ZNKSs16find_last_not_ofEPKcj
__ZNKSs16find_last_not_ofEPKcjj
__ZNKSs16find_last_not_ofERKSsj
__ZNKSs16find_last_not_ofEcj
__ZNKSs17find_first_not_ofEPKcj
__ZNKSs17find_first_not_ofEPKcjj
__ZNKSs17find_first_not_ofERKSsj
__ZNKSs17find_first_not_ofEcj
__ZNKSs2atEj
__ZNKSs3endEv
__ZNKSs4_Rep12_M_is_leakedEv
__ZNKSs4_Rep12_M_is_sharedEv
__ZNKSs4backEv
__ZNKSs4cendEv
__ZNKSs4copyEPcjj
__ZNKSs4dataEv
__ZNKSs4findEPKcj
__ZNKSs4findEPKcjj
__ZNKSs4findERKSsj
__ZNKSs4findEcj
__ZNKSs4rendEv
__ZNKSs4sizeEv
__ZNKSs5beginEv
__ZNKSs5c_strEv
__ZNKSs5crendEv
__ZNKSs5emptyEv
__ZNKSs5frontEv
__ZNKSs5rfindEPKcj
__ZNKSs5rfindEPKcjj
__ZNKSs5rfindERKSsj
__ZNKSs5rfindEcj
__ZNKSs6_M_repEv
__ZNKSs6cbeginEv
__ZNKSs6lengthEv
__ZNKSs6rbeginEv
__ZNKSs6substrEjj
__ZNKSs7_M_dataEv
__ZNKSs7_M_iendEv
__ZNKSs7compareEPKc
__ZNKSs7compareERKSs
__ZNKSs7compareEjjPKc
__ZNKSs7compareEjjPKcj
__ZNKSs7compareEjjRKSs
__ZNKSs7compareEjjRKSsjj
__ZNKSs7crbeginEv
__ZNKSs8_M_checkEjPKc
__ZNKSs8_M_limitEjj
__ZNKSs8capacityEv
__ZNKSs8max_sizeEv
__ZNKSs9_M_ibeginEv
__ZNKSsixEj
__ZNSs10_S_compareEjj
__ZNSs12_Alloc_hiderC1EPcRKSaIcE
__ZNSs12_Alloc_hiderC2EPcRKSaIcE
__ZNSs12_M_leak_hardEv
__ZNSs12_S_constructEjcRKSaIcE
__ZNSs12_S_constructIN9__gnu_cxx17__normal_iteratorIPcSsEEEES2_T_S4_RKSaIcESt20forward_iterator_tag
__ZNSs12_S_constructIPKcEEPcT_S3_RKSaIcESt20forward_iterator_tag
__ZNSs12_S_constructIPcEES0_T_S1_RKSaIcESt20forward_iterator_tag
__ZNSs12_S_empty_repEv
__ZNSs13_S_copy_charsEPcN9__gnu_cxx17__normal_iteratorIPKcSsEES4_
__ZNSs13_S_copy_charsEPcN9__gnu_cxx17__normal_iteratorIS_SsEES2_
__ZNSs13_S_copy_charsEPcPKcS1_
__ZNSs13_S_copy_charsEPcS_S_
__ZNSs13shrink_to_fitEv
__ZNSs14_M_replace_auxEjjjc
__ZNSs15_M_replace_safeEjjPKcj
__ZNSs18_S_construct_aux_2EjcRKSaIcE
__ZNSs2atEj
__ZNSs3endEv
__ZNSs4_Rep10_M_destroyERKSaIcE
__ZNSs4_Rep10_M_disposeERKSaIcE
__ZNSs4_Rep10_M_refcopyEv
__ZNSs4_Rep10_M_refdataEv
__ZNSs4_Rep12_S_empty_repEv
__ZNSs4_Rep13_M_set_leakedEv
__ZNSs4_Rep15_M_set_sharableEv
__ZNSs4_Rep26_M_set_length_and_sharableEj
__ZNSs4_Rep7_M_grabERKSaIcES2_
__ZNSs4_Rep8_M_cloneERKSaIcEj
__ZNSs4_Rep9_S_createEjjRKSaIcE
__ZNSs4backEv
__ZNSs4rendEv
__ZNSs4swapERSs
__ZNSs5beginEv
__ZNSs5clearEv
__ZNSs5eraseEN9__gnu_cxx17__normal_iteratorIPcSsEE
__ZNSs5eraseEN9__gnu_cxx17__normal_iteratorIPcSsEES2_
__ZNSs5eraseEjj
__ZNSs5frontEv
__ZNSs6appendEPKc
__ZNSs6appendEPKcj
__ZNSs6appendERKSs
__ZNSs6appendERKSsjj
__ZNSs6appendESt16initializer_listIcE
__ZNSs6appendEjc
__ZNSs6assignEOSs
__ZNSs6assignEPKc
__ZNSs6assignEPKcj
__ZNSs6assignERKSs
__ZNSs6assignERKSsjj
__ZNSs6assignESt16initializer_listIcE
__ZNSs6assignEjc
__ZNSs6insertEN9__gnu_cxx17__normal_iteratorIPcSsEESt16initializer_listIcE
__ZNSs6insertEN9__gnu_cxx17__normal_iteratorIPcSsEEc
__ZNSs6insertEN9__gnu_cxx17__normal_iteratorIPcSsEEjc
__ZNSs6insertEjPKc
__ZNSs6insertEjPKcj
__ZNSs6insertEjRKSs
__ZNSs6insertEjRKSsjj
__ZNSs6insertEjjc
__ZNSs6rbeginEv
__ZNSs6resizeEj
__ZNSs6resizeEjc
__ZNSs7_M_copyEPcPKcj
__ZNSs7_M_dataEPc
__ZNSs7_M_leakEv
__ZNSs7_M_moveEPcPKcj
__ZNSs7replaceEN9__gnu_cxx17__normal_iteratorIPcSsEES2_NS0_IPKcSsEES5_
__ZNSs7replaceEN9__gnu_cxx17__normal_iteratorIPcSsEES2_PKc
__ZNSs7replaceEN9__gnu_cxx17__normal_iteratorIPcSsEES2_PKcS4_
__ZNSs7replaceEN9__gnu_cxx17__normal_iteratorIPcSsEES2_PKcj
__ZNSs7replaceEN9__gnu_cxx17__normal_iteratorIPcSsEES2_RKSs
__ZNSs7replaceEN9__gnu_cxx17__normal_iteratorIPcSsEES2_S1_S1_
__ZNSs7replaceEN9__gnu_cxx17__normal_iteratorIPcSsEES2_S2_S2_
__ZNSs7replaceEN9__gnu_cxx17__normal_iteratorIPcSsEES2_St16initializer_listIcE
__ZNSs7replaceEN9__gnu_cxx17__normal_iteratorIPcSsEES2_jc
__ZNSs7replaceEjjPKc
__ZNSs7replaceEjjPKcj
__ZNSs7replaceEjjRKSs
__ZNSs7replaceEjjRKSsjj
__ZNSs7replaceEjjjc
__ZNSs7reserveEj
__ZNSs8pop_backEv
__ZNSs9_M_assignEPcjc
__ZNSs9_M_mutateEjjj
__ZNSs9push_backEc
__ZNSsC1EOSs
__ZNSsC1EOSsRKSaIcE
__ZNSsC1EPKcRKSaIcE
__ZNSsC1EPKcjRKSaIcE
__ZNSsC1ERKSaIcE
__ZNSsC1ERKSs
__ZNSsC1ERKSsRKSaIcE
__ZNSsC1ERKSsjRKSaIcE
__ZNSsC1ERKSsjj
__ZNSsC1ERKSsjjRKSaIcE
__ZNSsC1ESt16initializer_listIcERKSaIcE
__ZNSsC1EjcRKSaIcE
__ZNSsC1Ev
__ZNSsC1IN9__gnu_cxx17__normal_iteratorIPcSsEEEET_S4_RKSaIcE
__ZNSsC1IPKcEET_S2_RKSaIcE
__ZNSsC1IPcEET_S1_RKSaIcE
__ZNSsC2EOSs
__ZNSsC2EOSsRKSaIcE
__ZNSsC2EPKcRKSaIcE
__ZNSsC2EPKcjRKSaIcE
__ZNSsC2ERKSaIcE
__ZNSsC2ERKSs
__ZNSsC2ERKSsRKSaIcE
__ZNSsC2ERKSsjRKSaIcE
__ZNSsC2ERKSsjj
__ZNSsC2ERKSsjjRKSaIcE
__ZNSsC2ESt16initializer_listIcERKSaIcE
__ZNSsC2EjcRKSaIcE
__ZNSsC2Ev
__ZNSsC2IN9__gnu_cxx17__normal_iteratorIPcSsEEEET_S4_RKSaIcE
__ZNSsC2IPKcEET_S2_RKSaIcE
__ZNSsC2IPcEET_S1_RKSaIcE
__ZNSsD1Ev
__ZNSsD2Ev
__ZNSsaSEOSs
__ZNSsaSEPKc
__ZNSsaSERKSs
__ZNSsaSESt16initializer_listIcE
__ZNSsaSEc
__ZNSsixEj
__ZNSspLEPKc
__ZNSspLERKSs
__ZNSspLESt16initializer_listIcE
__ZNSspLEc
__ZNSt13random_device14_M_init_pretr1ERKSs
__ZNSt13random_device7_M_initERKSs
__ZStplIcSt11char_traitsIcESaIcEESbIT_T0_T1_EPKS3_RKS6_
__ZStplIcSt11char_traitsIcESaIcEESbIT_T0_T1_ERKS6_S8_
__ZStplIcSt11char_traitsIcESaIcEESbIT_T0_T1_ES3_RKS6_
__ZNKSt5ctypeIcE8do_widenEc
__ZSt7getlineIcSt11char_traitsIcESaIcEERSt13basic_istreamIT_T0_ES7_RSbIS4_S5_T1_E
__ZStlsIcSt11char_traitsIcESaIcEERSt13basic_ostreamIT_T0_ES7_RKSbIS4_S5_T1_E
__ZN9__gnu_cxxeqIPKwSbIwSt11char_traitsIwESaIwEEEEbRKNS_17__normal_iteratorIT_T0_EESC_
__ZN9__gnu_cxxeqIPwSbIwSt11char_traitsIwESaIwEEEEbRKNS_17__normal_iteratorIT_T0_EESB_
__ZNKSbIwSt11char_traitsIwESaIwEE11_M_disjunctEPKw
__ZNKSbIwSt11char_traitsIwESaIwEE12find_last_ofEPKwj
__ZNKSbIwSt11char_traitsIwESaIwEE12find_last_ofEPKwjj
__ZNKSbIwSt11char_traitsIwESaIwEE12find_last_ofERKS2_j
__ZNKSbIwSt11char_traitsIwESaIwEE12find_last_ofEwj
__ZNKSbIwSt11char_traitsIwESaIwEE13find_first_ofEPKwj
__ZNKSbIwSt11char_traitsIwESaIwEE13find_first_ofEPKwjj
__ZNKSbIwSt11char_traitsIwESaIwEE13find_first_ofERKS2_j
__ZNKSbIwSt11char_traitsIwESaIwEE13find_first_ofEwj
__ZNKSbIwSt11char_traitsIwESaIwEE13get_allocatorEv
__ZNKSbIwSt11char_traitsIwESaIwEE15_M_check_lengthEjjPKc
__ZNKSbIwSt11char_traitsIwESaIwEE16find_last_not_ofEPKwj
__ZNKSbIwSt11char_traitsIwESaIwEE16find_last_not_ofEPKwjj
__ZNKSbIwSt11char_traitsIwESaIwEE16find_last_not_ofERKS2_j
__ZNKSbIwSt11char_traitsIwESaIwEE16find_last_not_ofEwj
__ZNKSbIwSt11char_traitsIwESaIwEE17find_first_not_ofEPKwj
__ZNKSbIwSt11char_traitsIwESaIwEE17find_first_not_ofEPKwjj
__ZNKSbIwSt11char_traitsIwESaIwEE17find_first_not_ofERKS2_j
__ZNKSbIwSt11char_traitsIwESaIwEE17find_first_not_ofEwj
__ZNKSbIwSt11char_traitsIwESaIwEE2atEj
__ZNKSbIwSt11char_traitsIwESaIwEE3endEv
__ZNKSbIwSt11char_traitsIwESaIwEE4_Rep12_M_is_leakedEv
__ZNKSbIwSt11char_traitsIwESaIwEE4_Rep12_M_is_sharedEv
__ZNKSbIwSt11char_traitsIwESaIwEE4backEv
__ZNKSbIwSt11char_traitsIwESaIwEE4cendEv
__ZNKSbIwSt11char_traitsIwESaIwEE4copyEPwjj
__ZNKSbIwSt11char_traitsIwESaIwEE4dataEv
__ZNKSbIwSt11char_traitsIwESaIwEE4findEPKwj
__ZNKSbIwSt11char_traitsIwESaIwEE4findEPKwjj
__ZNKSbIwSt11char_traitsIwESaIwEE4findERKS2_j
__ZNKSbIwSt11char_traitsIwESaIwEE4findEwj
__ZNKSbIwSt11char_traitsIwESaIwEE4rendEv
__ZNKSbIwSt11char_traitsIwESaIwEE4sizeEv
__ZNKSbIwSt11char_traitsIwESaIwEE5beginEv
__ZNKSbIwSt11char_traitsIwESaIwEE5c_strEv
__ZNKSbIwSt11char_traitsIwESaIwEE5crendEv
__ZNKSbIwSt11char_traitsIwESaIwEE5emptyEv
__ZNKSbIwSt11char_traitsIwESaIwEE5frontEv
__ZNKSbIwSt11char_traitsIwESaIwEE5rfindEPKwj
__ZNKSbIwSt11char_traitsIwESaIwEE5rfindEPKwjj
__ZNKSbIwSt11char_traitsIwESaIwEE5rfindERKS2_j
__ZNKSbIwSt11char_traitsIwESaIwEE5rfindEwj
__ZNKSbIwSt11char_traitsIwESaIwEE6_M_repEv
__ZNKSbIwSt11char_traitsIwESaIwEE6cbeginEv
__ZNKSbIwSt11char_traitsIwESaIwEE6lengthEv
__ZNKSbIwSt11char_traitsIwESaIwEE6rbeginEv
__ZNKSbIwSt11char_traitsIwESaIwEE6substrEjj
__ZNKSbIwSt11char_traitsIwESaIwEE7_M_dataEv
__ZNKSbIwSt11char_traitsIwESaIwEE7_M_iendEv
__ZNKSbIwSt11char_traitsIwESaIwEE7compareEPKw
__ZNKSbIwSt11char_traitsIwESaIwEE7compareERKS2_
__ZNKSbIwSt11char_traitsIwESaIwEE7compareEjjPKw
__ZNKSbIwSt11char_traitsIwESaIwEE7compareEjjPKwj
__ZNKSbIwSt11char_traitsIwESaIwEE7compareEjjRKS2_
__ZNKSbIwSt11char_traitsIwESaIwEE7compareEjjRKS2_jj
__ZNKSbIwSt11char_traitsIwESaIwEE7crbeginEv
__ZNKSbIwSt11char_traitsIwESaIwEE8_M_checkEjPKc
__ZNKSbIwSt11char_traitsIwESaIwEE8_M_limitEjj
__ZNKSbIwSt11char_traitsIwESaIwEE8capacityEv
__ZNKSbIwSt11char_traitsIwESaIwEE8max_sizeEv
__ZNKSbIwSt11char_traitsIwESaIwEE9_M_ibeginEv
__ZNKSbIwSt11char_traitsIwESaIwEEixEj
__ZNSbIwSt11char_traitsIwESaIwEE10_S_compareEjj
__ZNSbIwSt11char_traitsIwESaIwEE12_Alloc_hiderC1EPwRKS1_
__ZNSbIwSt11char_traitsIwESaIwEE12_Alloc_hiderC2EPwRKS1_
__ZNSbIwSt11char_traitsIwESaIwEE12_M_leak_hardEv
__ZNSbIwSt11char_traitsIwESaIwEE12_S_constructEjwRKS1_
__ZNSbIwSt11char_traitsIwESaIwEE12_S_constructIN9__gnu_cxx17__normal_iteratorIPwS2_EEEES6_T_S8_RKS1_St20forward_iterator_tag
__ZNSbIwSt11char_traitsIwESaIwEE12_S_constructIPKwEEPwT_S7_RKS1_St20forward_iterator_tag
__ZNSbIwSt11char_traitsIwESaIwEE12_S_constructIPwEES4_T_S5_RKS1_St20forward_iterator_tag
__ZNSbIwSt11char_traitsIwESaIwEE12_S_empty_repEv
__ZNSbIwSt11char_traitsIwESaIwEE13_S_copy_charsEPwN9__gnu_cxx17__normal_iteratorIPKwS2_EES8_
__ZNSbIwSt11char_traitsIwESaIwEE13_S_copy_charsEPwN9__gnu_cxx17__normal_iteratorIS3_S2_EES6_
__ZNSbIwSt11char_traitsIwESaIwEE13_S_copy_charsEPwPKwS5_
__ZNSbIwSt11char_traitsIwESaIwEE13_S_copy_charsEPwS3_S3_
__ZNSbIwSt11char_traitsIwESaIwEE13shrink_to_fitEv
__ZNSbIwSt11char_traitsIwESaIwEE14_M_replace_auxEjjjw
__ZNSbIwSt11char_traitsIwESaIwEE15_M_replace_safeEjjPKwj
__ZNSbIwSt11char_traitsIwESaIwEE18_S_construct_aux_2EjwRKS1_
__ZNSbIwSt11char_traitsIwESaIwEE2atEj
__ZNSbIwSt11char_traitsIwESaIwEE3endEv
__ZNSbIwSt11char_traitsIwESaIwEE4_Rep10_M_destroyERKS1_
__ZNSbIwSt11char_traitsIwESaIwEE4_Rep10_M_disposeERKS1_
__ZNSbIwSt11char_traitsIwESaIwEE4_Rep10_M_refcopyEv
__ZNSbIwSt11char_traitsIwESaIwEE4_Rep10_M_refdataEv
__ZNSbIwSt11char_traitsIwESaIwEE4_Rep12_S_empty_repEv
__ZNSbIwSt11char_traitsIwESaIwEE4_Rep13_M_set_leakedEv
__ZNSbIwSt11char_traitsIwESaIwEE4_Rep15_M_set_sharableEv
__ZNSbIwSt11char_traitsIwESaIwEE4_Rep26_M_set_length_and_sharableEj
__ZNSbIwSt11char_traitsIwESaIwEE4_Rep7_M_grabERKS1_S5_
__ZNSbIwSt11char_traitsIwESaIwEE4_Rep8_M_cloneERKS1_j
__ZNSbIwSt11char_traitsIwESaIwEE4_Rep9_S_createEjjRKS1_
__ZNSbIwSt11char_traitsIwESaIwEE4backEv
__ZNSbIwSt11char_traitsIwESaIwEE4rendEv
__ZNSbIwSt11char_traitsIwESaIwEE4swapERS2_
__ZNSbIwSt11char_traitsIwESaIwEE5beginEv
__ZNSbIwSt11char_traitsIwESaIwEE5clearEv
__ZNSbIwSt11char_traitsIwESaIwEE5eraseEN9__gnu_cxx17__normal_iteratorIPwS2_EE
__ZNSbIwSt11char_traitsIwESaIwEE5eraseEN9__gnu_cxx17__normal_iteratorIPwS2_EES6_
__ZNSbIwSt11char_traitsIwESaIwEE5eraseEjj
__ZNSbIwSt11char_traitsIwESaIwEE5frontEv
__ZNSbIwSt11char_traitsIwESaIwEE6appendEPKw
__ZNSbIwSt11char_traitsIwESaIwEE6appendEPKwj
__ZNSbIwSt11char_traitsIwESaIwEE6appendERKS2_
__ZNSbIwSt11char_traitsIwESaIwEE6appendERKS2_jj
__ZNSbIwSt11char_traitsIwESaIwEE6appendESt16initializer_listIwE
__ZNSbIwSt11char_traitsIwESaIwEE6appendEjw
__ZNSbIwSt11char_traitsIwESaIwEE6assignEOS2_
__ZNSbIwSt11char_traitsIwESaIwEE6assignEPKw
__ZNSbIwSt11char_traitsIwESaIwEE6assignEPKwj
__ZNSbIwSt11char_traitsIwESaIwEE6assignERKS2_
__ZNSbIwSt11char_traitsIwESaIwEE6assignERKS2_jj
__ZNSbIwSt11char_traitsIwESaIwEE6assignESt16initializer_listIwE
__ZNSbIwSt11char_traitsIwESaIwEE6assignEjw
__ZNSbIwSt11char_traitsIwESaIwEE6insertEN9__gnu_cxx17__normal_iteratorIPwS2_EESt16initializer_listIwE
__ZNSbIwSt11char_traitsIwESaIwEE6insertEN9__gnu_cxx17__normal_iteratorIPwS2_EEjw
__ZNSbIwSt11char_traitsIwESaIwEE6insertEN9__gnu_cxx17__normal_iteratorIPwS2_EEw
__ZNSbIwSt11char_traitsIwESaIwEE6insertEjPKw
__ZNSbIwSt11char_traitsIwESaIwEE6insertEjPKwj
__ZNSbIwSt11char_traitsIwESaIwEE6insertEjRKS2_
__ZNSbIwSt11char_traitsIwESaIwEE6insertEjRKS2_jj
__ZNSbIwSt11char_traitsIwESaIwEE6insertEjjw
__ZNSbIwSt11char_traitsIwESaIwEE6rbeginEv
__ZNSbIwSt11char_traitsIwESaIwEE6resizeEj
__ZNSbIwSt11char_traitsIwESaIwEE6resizeEjw
__ZNSbIwSt11char_traitsIwESaIwEE7_M_copyEPwPKwj
__ZNSbIwSt11char_traitsIwESaIwEE7_M_dataEPw
__ZNSbIwSt11char_traitsIwESaIwEE7_M_leakEv
__ZNSbIwSt11char_traitsIwESaIwEE7_M_moveEPwPKwj
__ZNSbIwSt11char_traitsIwESaIwEE7replaceEN9__gnu_cxx17__normal_iteratorIPwS2_EES6_NS4_IPKwS2_EES9_
__ZNSbIwSt11char_traitsIwESaIwEE7replaceEN9__gnu_cxx17__normal_iteratorIPwS2_EES6_PKw
__ZNSbIwSt11char_traitsIwESaIwEE7replaceEN9__gnu_cxx17__normal_iteratorIPwS2_EES6_PKwS8_
__ZNSbIwSt11char_traitsIwESaIwEE7replaceEN9__gnu_cxx17__normal_iteratorIPwS2_EES6_PKwj
__ZNSbIwSt11char_traitsIwESaIwEE7replaceEN9__gnu_cxx17__normal_iteratorIPwS2_EES6_RKS2_
__ZNSbIwSt11char_traitsIwESaIwEE7replaceEN9__gnu_cxx17__normal_iteratorIPwS2_EES6_S5_S5_
__ZNSbIwSt11char_traitsIwESaIwEE7replaceEN9__gnu_cxx17__normal_iteratorIPwS2_EES6_S6_S6_
__ZNSbIwSt11char_traitsIwESaIwEE7replaceEN9__gnu_cxx17__normal_iteratorIPwS2_EES6_St16initializer_listIwE
__ZNSbIwSt11char_traitsIwESaIwEE7replaceEN9__gnu_cxx17__normal_iteratorIPwS2_EES6_jw
__ZNSbIwSt11char_traitsIwESaIwEE7replaceEjjPKw
__ZNSbIwSt11char_traitsIwESaIwEE7replaceEjjPKwj
__ZNSbIwSt11char_traitsIwESaIwEE7replaceEjjRKS2_
__ZNSbIwSt11char_traitsIwESaIwEE7replaceEjjRKS2_jj
__ZNSbIwSt11char_traitsIwESaIwEE7replaceEjjjw
__ZNSbIwSt11char_traitsIwESaIwEE7reserveEj
__ZNSbIwSt11char_traitsIwESaIwEE8pop_backEv
__ZNSbIwSt11char_traitsIwESaIwEE9_M_assignEPwjw
__ZNSbIwSt11char_traitsIwESaIwEE9_M_mutateEjjj
__ZNSbIwSt11char_traitsIwESaIwEE9push_backEw
__ZNSbIwSt11char_traitsIwESaIwEEC1EOS2_
__ZNSbIwSt11char_traitsIwESaIwEEC1EOS2_RKS1_
__ZNSbIwSt11char_traitsIwESaIwEEC1EPKwRKS1_
__ZNSbIwSt11char_traitsIwESaIwEEC1EPKwjRKS1_
__ZNSbIwSt11char_traitsIwESaIwEEC1ERKS1_
__ZNSbIwSt11char_traitsIwESaIwEEC1ERKS2_
__ZNSbIwSt11char_traitsIwESaIwEEC1ERKS2_RKS1_
__ZNSbIwSt11char_traitsIwESaIwEEC1ERKS2_jRKS1_
__ZNSbIwSt11char_traitsIwESaIwEEC1ERKS2_jj
__ZNSbIwSt11char_traitsIwESaIwEEC1ERKS2_jjRKS1_
__ZNSbIwSt11char_traitsIwESaIwEEC1ESt16initializer_listIwERKS1_
__ZNSbIwSt11char_traitsIwESaIwEEC1EjwRKS1_
__ZNSbIwSt11char_traitsIwESaIwEEC1Ev
__ZNSbIwSt11char_traitsIwESaIwEEC1IN9__gnu_cxx17__normal_iteratorIPwS2_EEEET_S8_RKS1_
__ZNSbIwSt11char_traitsIwESaIwEEC1IPKwEET_S6_RKS1_
__ZNSbIwSt11char_traitsIwESaIwEEC1IPwEET_S5_RKS1_
__ZNSbIwSt11char_traitsIwESaIwEEC2EOS2_
__ZNSbIwSt11char_traitsIwESaIwEEC2EOS2_RKS1_
__ZNSbIwSt11char_traitsIwESaIwEEC2EPKwRKS1_
__ZNSbIwSt11char_traitsIwESaIwEEC2EPKwjRKS1_
__ZNSbIwSt11char_traitsIwESaIwEEC2ERKS1_
__ZNSbIwSt11char_traitsIwESaIwEEC2ERKS2_
__ZNSbIwSt11char_traitsIwESaIwEEC2ERKS2_RKS1_
__ZNSbIwSt11char_traitsIwESaIwEEC2ERKS2_jRKS1_
__ZNSbIwSt11char_traitsIwESaIwEEC2ERKS2_jj
__ZNSbIwSt11char_traitsIwESaIwEEC2ERKS2_jjRKS1_
__ZNSbIwSt11char_traitsIwESaIwEEC2ESt16initializer_listIwERKS1_
__ZNSbIwSt11char_traitsIwESaIwEEC2EjwRKS1_
__ZNSbIwSt11char_traitsIwESaIwEEC2Ev
__ZNSbIwSt11char_traitsIwESaIwEEC2IN9__gnu_cxx17__normal_iteratorIPwS2_EEEET_S8_RKS1_
__ZNSbIwSt11char_traitsIwESaIwEEC2IPKwEET_S6_RKS1_
__ZNSbIwSt11char_traitsIwESaIwEEC2IPwEET_S5_RKS1_
__ZNSbIwSt11char_traitsIwESaIwEED1Ev
__ZNSbIwSt11char_traitsIwESaIwEED2Ev
__ZNSbIwSt11char_traitsIwESaIwEEaSEOS2_
__ZNSbIwSt11char_traitsIwESaIwEEaSEPKw
__ZNSbIwSt11char_traitsIwESaIwEEaSERKS2_
__ZNSbIwSt11char_traitsIwESaIwEEaSESt16initializer_listIwE
__ZNSbIwSt11char_traitsIwESaIwEEaSEw
__ZNSbIwSt11char_traitsIwESaIwEEixEj
__ZNSbIwSt11char_traitsIwESaIwEEpLEPKw
__ZNSbIwSt11char_traitsIwESaIwEEpLERKS2_
__ZNSbIwSt11char_traitsIwESaIwEEpLESt16initializer_listIwE
__ZNSbIwSt11char_traitsIwESaIwEEpLEw
__ZStplIwSt11char_traitsIwESaIwEESbIT_T0_T1_EPKS3_RKS6_
__ZStplIwSt11char_traitsIwESaIwEESbIT_T0_T1_ERKS6_S8_
__ZStplIwSt11char_traitsIwESaIwEESbIT_T0_T1_ES3_RKS6_
__ZSt7getlineIwSt11char_traitsIwESaIwEERSt13basic_istreamIT_T0_ES7_RSbIS4_S5_T1_E
__ZStlsIwSt11char_traitsIwESaIwEERSt13basic_ostreamIT_T0_ES7_RKSbIS4_S5_T1_E
__ZStrsIwSt11char_traitsIwESaIwEERSt13basic_istreamIT_T0_ES7_RSbIS4_S5_T1_E
__ZNKSt5ctypeIcE13_M_widen_initEv
__ZNKSt5ctypeIcE14_M_narrow_initEv
__ZNKSt5ctypeIcE8do_widenEPKcS2_Pc
__ZNKSt5ctypeIcE8do_widenEc
__ZNKSt5ctypeIcE9do_narrowEPKcS2_cPc
__ZNKSt5ctypeIcE9do_narrowEcc
__ZNSt12ctype_bynameIwEC1EPKcj
__ZNSt12ctype_bynameIwEC2EPKcj
__ZNSt12ctype_bynameIwED0Ev
__ZNSt12ctype_bynameIwED1Ev
__ZNSt12ctype_bynameIwED2Ev
__ZNSt5ctypeIcED0Ev
__ZNSt5ctypeIcED1Ev
__ZNSt5ctypeIcED2Ev
__ZNSt5ctypeIwEC1EPij
__ZNSt5ctypeIwEC1Ej
__ZNSt5ctypeIwEC2EPij
__ZNSt5ctypeIwEC2Ej
__ZNSt5ctypeIwED0Ev
__ZNSt5ctypeIwED1Ev
__ZNSt5ctypeIwED2Ev
__ZNKSt5ctypeIcE10do_tolowerEPcPKc
__ZNKSt5ctypeIcE10do_tolowerEc
__ZNKSt5ctypeIcE10do_toupperEPcPKc
__ZNKSt5ctypeIcE10do_toupperEc
__ZNSt5ctypeIcE13classic_tableEv
__ZNSt5ctypeIcEC1EPKtbj
__ZNSt5ctypeIcEC1EPiPKtbj
__ZNSt5ctypeIcEC2EPKtbj
__ZNSt5ctypeIcEC2EPiPKtbj
__ZNKSt5ctypeIcE8do_widenEPKcS2_Pc
__ZNKSt5ctypeIcE8do_widenEc
__ZNKSt5ctypeIcE9do_narrowEPKcS2_cPc
__ZNKSt5ctypeIcE9do_narrowEcc
__ZNKSt5ctypeIwE10do_scan_isEtPKwS2_
__ZNKSt5ctypeIwE10do_tolowerEPwPKw
__ZNKSt5ctypeIwE10do_tolowerEw
__ZNKSt5ctypeIwE10do_toupperEPwPKw
__ZNKSt5ctypeIwE10do_toupperEw
__ZNKSt5ctypeIwE11do_scan_notEtPKwS2_
__ZNKSt5ctypeIwE19_M_convert_to_wmaskEt
__ZNKSt5ctypeIwE5do_isEPKwS2_Pt
__ZNKSt5ctypeIwE5do_isEtw
__ZNKSt5ctypeIwE8do_widenEPKcS2_Pw
__ZNKSt5ctypeIwE8do_widenEc
__ZNKSt5ctypeIwE9do_narrowEPKwS2_cPc
__ZNKSt5ctypeIwE9do_narrowEwc
__ZNSt12ctype_bynameIcEC1EPKcj
__ZNSt12ctype_bynameIcEC2EPKcj
__ZNSt12ctype_bynameIcED0Ev
__ZNSt12ctype_bynameIcED1Ev
__ZNSt12ctype_bynameIcED2Ev
__ZNSt5ctypeIwE19_M_initialize_ctypeEv
__ZNKSt3tr14hashINSt7__cxx1112basic_stringIcSt11char_traitsIcESaIcEEEEclES6_
__ZNKSt3tr14hashINSt7__cxx1112basic_stringIwSt11char_traitsIwESaIwEEEEclES6_
__ZNKSt3tr14hashIRKNSt7__cxx1112basic_stringIcSt11char_traitsIcESaIcEEEEclES8_
__ZNKSt3tr14hashIRKNSt7__cxx1112basic_stringIwSt11char_traitsIwESaIwEEEEclES8_
__ZNKSt19__iosfail_type_info11__do_upcastEPKN10__cxxabiv117__class_type_infoEPPv
__ZNKSt8ios_base7failureB5cxx114whatEv
__ZNSt12system_errorC2ESt10error_codePKc
__ZNSt12system_errorC2ESt10error_codeRKNSt7__cxx1112basic_stringIcSt11char_traitsIcESaIcEEE
__ZNSt13__ios_failureC1EPKci
__ZNSt13__ios_failureD0Ev
__ZNSt13__ios_failureD1Ev
__ZNSt19__iosfail_type_infoD0Ev
__ZNSt19__iosfail_type_infoD1Ev
__ZNSt19__iosfail_type_infoD2Ev
__ZNSt8ios_base7failureB5cxx11C1EPKcRKSt10error_code
__ZNSt8ios_base7failureB5cxx11C1ERKNSt7__cxx1112basic_stringIcSt11char_traitsIcESaIcEEE
__ZNSt8ios_base7failureB5cxx11C1ERKNSt7__cxx1112basic_stringIcSt11char_traitsIcESaIcEEERKSt10error_code
__ZNSt8ios_base7failureB5cxx11C2EPKcRKSt10error_code
__ZNSt8ios_base7failureB5cxx11C2ERKNSt7__cxx1112basic_stringIcSt11char_traitsIcESaIcEEE
__ZNSt8ios_base7failureB5cxx11C2ERKNSt7__cxx1112basic_stringIcSt11char_traitsIcESaIcEEERKSt10error_code
__ZNSt8ios_base7failureB5cxx11D0Ev
__ZNSt8ios_base7failureB5cxx11D1Ev
__ZNSt8ios_base7failureB5cxx11D2Ev
__ZSt17iostream_categoryv
__ZSt19__throw_ios_failurePKc
__ZSt19__throw_ios_failurePKci
__ZNKSt5ctypeIcE8do_widenEPKcS2_Pc
__ZNKSt5ctypeIcE8do_widenEc
__ZNKSt5ctypeIcE9do_narrowEcc
__ZNKSt7__cxx1110moneypunctIcLb0EE10neg_formatEv
__ZNKSt7__cxx1110moneypunctIcLb0EE10pos_formatEv
__ZNKSt7__cxx1110moneypunctIcLb0EE11curr_symbolEv
__ZNKSt7__cxx1110moneypunctIcLb0EE11do_groupingEv
__ZNKSt7__cxx1110moneypunctIcLb0EE11frac_digitsEv
__ZNKSt7__cxx1110moneypunctIcLb0EE13decimal_pointEv
__ZNKSt7__cxx1110moneypunctIcLb0EE13do_neg_formatEv
__ZNKSt7__cxx1110moneypunctIcLb0EE13do_pos_formatEv
__ZNKSt7__cxx1110moneypunctIcLb0EE13negative_signEv
__ZNKSt7__cxx1110moneypunctIcLb0EE13positive_signEv
__ZNKSt7__cxx1110moneypunctIcLb0EE13thousands_sepEv
__ZNKSt7__cxx1110moneypunctIcLb0EE14do_curr_symbolEv
__ZNKSt7__cxx1110moneypunctIcLb0EE14do_frac_digitsEv
__ZNKSt7__cxx1110moneypunctIcLb0EE16do_decimal_pointEv
__ZNKSt7__cxx1110moneypunctIcLb0EE16do_negative_signEv
__ZNKSt7__cxx1110moneypunctIcLb0EE16do_positive_signEv
__ZNKSt7__cxx1110moneypunctIcLb0EE16do_thousands_sepEv
__ZNKSt7__cxx1110moneypunctIcLb0EE8groupingEv
__ZNKSt7__cxx1110moneypunctIcLb1EE10neg_formatEv
__ZNKSt7__cxx1110moneypunctIcLb1EE10pos_formatEv
__ZNKSt7__cxx1110moneypunctIcLb1EE11curr_symbolEv
__ZNKSt7__cxx1110moneypunctIcLb1EE11do_groupingEv
__ZNKSt7__cxx1110moneypunctIcLb1EE11frac_digitsEv
__ZNKSt7__cxx1110moneypunctIcLb1EE13decimal_pointEv
__ZNKSt7__cxx1110moneypunctIcLb1EE13do_neg_formatEv
__ZNKSt7__cxx1110moneypunctIcLb1EE13do_pos_formatEv
__ZNKSt7__cxx1110moneypunctIcLb1EE13negative_signEv
__ZNKSt7__cxx1110moneypunctIcLb1EE13positive_signEv
__ZNKSt7__cxx1110moneypunctIcLb1EE13thousands_sepEv
__ZNKSt7__cxx1110moneypunctIcLb1EE14do_curr_symbolEv
__ZNKSt7__cxx1110moneypunctIcLb1EE14do_frac_digitsEv
__ZNKSt7__cxx1110moneypunctIcLb1EE16do_decimal_pointEv
__ZNKSt7__cxx1110moneypunctIcLb1EE16do_negative_signEv
__ZNKSt7__cxx1110moneypunctIcLb1EE16do_positive_signEv
__ZNKSt7__cxx1110moneypunctIcLb1EE16do_thousands_sepEv
__ZNKSt7__cxx1110moneypunctIcLb1EE8groupingEv
__ZNKSt7__cxx117collateIcE10do_compareEPKcS3_S3_S3_
__ZNKSt7__cxx117collateIcE12do_transformEPKcS3_
__ZNKSt7__cxx117collateIcE4hashEPKcS3_
__ZNKSt7__cxx117collateIcE7compareEPKcS3_S3_S3_
__ZNKSt7__cxx117collateIcE7do_hashEPKcS3_
__ZNKSt7__cxx117collateIcE9transformEPKcS3_
__ZNKSt7__cxx118messagesIcE18_M_convert_to_charERKNS_12basic_stringIcSt11char_traitsIcESaIcEEE
__ZNKSt7__cxx118messagesIcE20_M_convert_from_charEPc
__ZNKSt7__cxx118messagesIcE3getEiiiRKNS_12basic_stringIcSt11char_traitsIcESaIcEEE
__ZNKSt7__cxx118messagesIcE4openERKNS_12basic_stringIcSt11char_traitsIcESaIcEEERKSt6locale
__ZNKSt7__cxx118messagesIcE4openERKNS_12basic_stringIcSt11char_traitsIcESaIcEEERKSt6localePKc
__ZNKSt7__cxx118messagesIcE5closeEi
__ZNKSt7__cxx118messagesIcE7do_openERKNS_12basic_stringIcSt11char_traitsIcESaIcEEERKSt6locale
__ZNKSt7__cxx118messagesIcE8do_closeEi
__ZNKSt7__cxx118numpunctIcE11do_groupingEv
__ZNKSt7__cxx118numpunctIcE11do_truenameEv
__ZNKSt7__cxx118numpunctIcE12do_falsenameEv
__ZNKSt7__cxx118numpunctIcE13decimal_pointEv
__ZNKSt7__cxx118numpunctIcE13thousands_sepEv
__ZNKSt7__cxx118numpunctIcE16do_decimal_pointEv
__ZNKSt7__cxx118numpunctIcE16do_thousands_sepEv
__ZNKSt7__cxx118numpunctIcE8groupingEv
__ZNKSt7__cxx118numpunctIcE8truenameEv
__ZNKSt7__cxx118numpunctIcE9falsenameEv
__ZNKSt7__cxx118time_getIcSt19istreambuf_iteratorIcSt11char_traitsIcEEE10date_orderEv
__ZNKSt7__cxx118time_getIcSt19istreambuf_iteratorIcSt11char_traitsIcEEE11do_get_dateES4_S4_RSt8ios_baseRSt12_Ios_IostateP2tm
__ZNKSt7__cxx118time_getIcSt19istreambuf_iteratorIcSt11char_traitsIcEEE11do_get_timeES4_S4_RSt8ios_baseRSt12_Ios_IostateP2tm
__ZNKSt7__cxx118time_getIcSt19istreambuf_iteratorIcSt11char_traitsIcEEE11do_get_yearES4_S4_RSt8ios_baseRSt12_Ios_IostateP2tm
__ZNKSt7__cxx118time_getIcSt19istreambuf_iteratorIcSt11char_traitsIcEEE11get_weekdayES4_S4_RSt8ios_baseRSt12_Ios_IostateP2tm
__ZNKSt7__cxx118time_getIcSt19istreambuf_iteratorIcSt11char_traitsIcEEE13do_date_orderEv
__ZNKSt7__cxx118time_getIcSt19istreambuf_iteratorIcSt11char_traitsIcEEE13get_monthnameES4_S4_RSt8ios_baseRSt12_Ios_IostateP2tm
__ZNKSt7__cxx118time_getIcSt19istreambuf_iteratorIcSt11char_traitsIcEEE14_M_extract_numES4_S4_RiiijRSt8ios_baseRSt12_Ios_Iostate
__ZNKSt7__cxx118time_getIcSt19istreambuf_iteratorIcSt11char_traitsIcEEE14do_get_weekdayES4_S4_RSt8ios_baseRSt12_Ios_IostateP2tm
__ZNKSt7__cxx118time_getIcSt19istreambuf_iteratorIcSt11char_traitsIcEEE15_M_extract_nameES4_S4_RiPPKcjRSt8ios_baseRSt12_Ios_Iostate
__ZNKSt7__cxx118time_getIcSt19istreambuf_iteratorIcSt11char_traitsIcEEE16do_get_monthnameES4_S4_RSt8ios_baseRSt12_Ios_IostateP2tm
__ZNKSt7__cxx118time_getIcSt19istreambuf_iteratorIcSt11char_traitsIcEEE21_M_extract_via_formatES4_S4_RSt8ios_baseRSt12_Ios_IostateP2tmPKc
__ZNKSt7__cxx118time_getIcSt19istreambuf_iteratorIcSt11char_traitsIcEEE24_M_extract_wday_or_monthES4_S4_RiPPKcjRSt8ios_baseRSt12_Ios_Iostate
__ZNKSt7__cxx118time_getIcSt19istreambuf_iteratorIcSt11char_traitsIcEEE3getES4_S4_RSt8ios_baseRSt12_Ios_IostateP2tmPKcSD_
__ZNKSt7__cxx118time_getIcSt19istreambuf_iteratorIcSt11char_traitsIcEEE3getES4_S4_RSt8ios_baseRSt12_Ios_IostateP2tmcc
__ZNKSt7__cxx118time_getIcSt19istreambuf_iteratorIcSt11char_traitsIcEEE6do_getES4_S4_RSt8ios_baseRSt12_Ios_IostateP2tmcc
__ZNKSt7__cxx118time_getIcSt19istreambuf_iteratorIcSt11char_traitsIcEEE8get_dateES4_S4_RSt8ios_baseRSt12_Ios_IostateP2tm
__ZNKSt7__cxx118time_getIcSt19istreambuf_iteratorIcSt11char_traitsIcEEE8get_timeES4_S4_RSt8ios_baseRSt12_Ios_IostateP2tm
__ZNKSt7__cxx118time_getIcSt19istreambuf_iteratorIcSt11char_traitsIcEEE8get_yearES4_S4_RSt8ios_baseRSt12_Ios_IostateP2tm
__ZNKSt7__cxx119money_getIcSt19istreambuf_iteratorIcSt11char_traitsIcEEE10_M_extractILb0EEES4_S4_S4_RSt8ios_baseRSt12_Ios_IostateRNS_12basic_stringIcS3_SaIcEEE
__ZNKSt7__cxx119money_getIcSt19istreambuf_iteratorIcSt11char_traitsIcEEE10_M_extractILb1EEES4_S4_S4_RSt8ios_baseRSt12_Ios_IostateRNS_12basic_stringIcS3_SaIcEEE
__ZNKSt7__cxx119money_getIcSt19istreambuf_iteratorIcSt11char_traitsIcEEE3getES4_S4_bRSt8ios_baseRSt12_Ios_IostateRNS_12basic_stringIcS3_SaIcEEE
__ZNKSt7__cxx119money_getIcSt19istreambuf_iteratorIcSt11char_traitsIcEEE3getES4_S4_bRSt8ios_baseRSt12_Ios_IostateRe
__ZNKSt7__cxx119money_getIcSt19istreambuf_iteratorIcSt11char_traitsIcEEE6do_getES4_S4_bRSt8ios_baseRSt12_Ios_IostateRNS_12basic_stringIcS3_SaIcEEE
__ZNKSt7__cxx119money_getIcSt19istreambuf_iteratorIcSt11char_traitsIcEEE6do_getES4_S4_bRSt8ios_baseRSt12_Ios_IostateRe
__ZNKSt7__cxx119money_putIcSt19ostreambuf_iteratorIcSt11char_traitsIcEEE3putES4_bRSt8ios_basecRKNS_12basic_stringIcS3_SaIcEEE
__ZNKSt7__cxx119money_putIcSt19ostreambuf_iteratorIcSt11char_traitsIcEEE3putES4_bRSt8ios_basece
__ZNKSt7__cxx119money_putIcSt19ostreambuf_iteratorIcSt11char_traitsIcEEE6do_putES4_bRSt8ios_basecRKNS_12basic_stringIcS3_SaIcEEE
__ZNKSt7__cxx119money_putIcSt19ostreambuf_iteratorIcSt11char_traitsIcEEE6do_putES4_bRSt8ios_basece
__ZNKSt7__cxx119money_putIcSt19ostreambuf_iteratorIcSt11char_traitsIcEEE9_M_insertILb0EEES4_S4_RSt8ios_basecRKNS_12basic_stringIcS3_SaIcEEE
__ZNKSt7__cxx119money_putIcSt19ostreambuf_iteratorIcSt11char_traitsIcEEE9_M_insertILb1EEES4_S4_RSt8ios_basecRKNS_12basic_stringIcS3_SaIcEEE
__ZNKSt7num_getIcSt19istreambuf_iteratorIcSt11char_traitsIcEEE14_M_extract_intB5cxx11IjEES3_S3_S3_RSt8ios_baseRSt12_Ios_IostateRT_
__ZNKSt7num_getIcSt19istreambuf_iteratorIcSt11char_traitsIcEEE14_M_extract_intB5cxx11IlEES3_S3_S3_RSt8ios_baseRSt12_Ios_IostateRT_
__ZNKSt7num_getIcSt19istreambuf_iteratorIcSt11char_traitsIcEEE14_M_extract_intB5cxx11ImEES3_S3_S3_RSt8ios_baseRSt12_Ios_IostateRT_
__ZNKSt7num_getIcSt19istreambuf_iteratorIcSt11char_traitsIcEEE14_M_extract_intB5cxx11ItEES3_S3_S3_RSt8ios_baseRSt12_Ios_IostateRT_
__ZNKSt7num_getIcSt19istreambuf_iteratorIcSt11char_traitsIcEEE14_M_extract_intB5cxx11IxEES3_S3_S3_RSt8ios_baseRSt12_Ios_IostateRT_
__ZNKSt7num_getIcSt19istreambuf_iteratorIcSt11char_traitsIcEEE14_M_extract_intB5cxx11IyEES3_S3_S3_RSt8ios_baseRSt12_Ios_IostateRT_
__ZNSt12ctype_bynameIcEC1ERKNSt7__cxx1112basic_stringIcSt11char_traitsIcESaIcEEEj
__ZNSt12ctype_bynameIcEC2ERKNSt7__cxx1112basic_stringIcSt11char_traitsIcESaIcEEEj
__ZNSt14codecvt_bynameIcciEC1ERKNSt7__cxx1112basic_stringIcSt11char_traitsIcESaIcEEEj
__ZNSt14codecvt_bynameIcciEC2ERKNSt7__cxx1112basic_stringIcSt11char_traitsIcESaIcEEEj
__ZNSt15time_put_bynameIcSt19ostreambuf_iteratorIcSt11char_traitsIcEEEC1ERKNSt7__cxx1112basic_stringIcS2_SaIcEEEj
__ZNSt15time_put_bynameIcSt19ostreambuf_iteratorIcSt11char_traitsIcEEEC2ERKNSt7__cxx1112basic_stringIcS2_SaIcEEEj
__ZNSt7__cxx1110moneypunctIcLb0EEC1EPSt18__moneypunct_cacheIcLb0EEj
__ZNSt7__cxx1110moneypunctIcLb0EEC1EPiPKcj
__ZNSt7__cxx1110moneypunctIcLb0EEC1Ej
__ZNSt7__cxx1110moneypunctIcLb0EEC2EPSt18__moneypunct_cacheIcLb0EEj
__ZNSt7__cxx1110moneypunctIcLb0EEC2EPiPKcj
__ZNSt7__cxx1110moneypunctIcLb0EEC2Ej
__ZNSt7__cxx1110moneypunctIcLb1EEC1EPSt18__moneypunct_cacheIcLb1EEj
__ZNSt7__cxx1110moneypunctIcLb1EEC1EPiPKcj
__ZNSt7__cxx1110moneypunctIcLb1EEC1Ej
__ZNSt7__cxx1110moneypunctIcLb1EEC2EPSt18__moneypunct_cacheIcLb1EEj
__ZNSt7__cxx1110moneypunctIcLb1EEC2EPiPKcj
__ZNSt7__cxx1110moneypunctIcLb1EEC2Ej
__ZNSt7__cxx1114collate_bynameIcEC1EPKcj
__ZNSt7__cxx1114collate_bynameIcEC1ERKNS_12basic_stringIcSt11char_traitsIcESaIcEEEj
__ZNSt7__cxx1114collate_bynameIcEC2EPKcj
__ZNSt7__cxx1114collate_bynameIcEC2ERKNS_12basic_stringIcSt11char_traitsIcESaIcEEEj
__ZNSt7__cxx1114collate_bynameIcED0Ev
__ZNSt7__cxx1114collate_bynameIcED1Ev
__ZNSt7__cxx1114collate_bynameIcED2Ev
__ZNSt7__cxx1115messages_bynameIcEC1EPKcj
__ZNSt7__cxx1115messages_bynameIcEC1ERKNS_12basic_stringIcSt11char_traitsIcESaIcEEEj
__ZNSt7__cxx1115messages_bynameIcEC2EPKcj
__ZNSt7__cxx1115messages_bynameIcEC2ERKNS_12basic_stringIcSt11char_traitsIcESaIcEEEj
__ZNSt7__cxx1115messages_bynameIcED0Ev
__ZNSt7__cxx1115messages_bynameIcED1Ev
__ZNSt7__cxx1115messages_bynameIcED2Ev
__ZNSt7__cxx1115numpunct_bynameIcEC1EPKcj
__ZNSt7__cxx1115numpunct_bynameIcEC1ERKNS_12basic_stringIcSt11char_traitsIcESaIcEEEj
__ZNSt7__cxx1115numpunct_bynameIcEC2EPKcj
__ZNSt7__cxx1115numpunct_bynameIcEC2ERKNS_12basic_stringIcSt11char_traitsIcESaIcEEEj
__ZNSt7__cxx1115numpunct_bynameIcED0Ev
__ZNSt7__cxx1115numpunct_bynameIcED1Ev
__ZNSt7__cxx1115numpunct_bynameIcED2Ev
__ZNSt7__cxx1115time_get_bynameIcSt19istreambuf_iteratorIcSt11char_traitsIcEEEC1EPKcj
__ZNSt7__cxx1115time_get_bynameIcSt19istreambuf_iteratorIcSt11char_traitsIcEEEC1ERKNS_12basic_stringIcS3_SaIcEEEj
__ZNSt7__cxx1115time_get_bynameIcSt19istreambuf_iteratorIcSt11char_traitsIcEEEC2EPKcj
__ZNSt7__cxx1115time_get_bynameIcSt19istreambuf_iteratorIcSt11char_traitsIcEEEC2ERKNS_12basic_stringIcS3_SaIcEEEj
__ZNSt7__cxx1115time_get_bynameIcSt19istreambuf_iteratorIcSt11char_traitsIcEEED0Ev
__ZNSt7__cxx1115time_get_bynameIcSt19istreambuf_iteratorIcSt11char_traitsIcEEED1Ev
__ZNSt7__cxx1115time_get_bynameIcSt19istreambuf_iteratorIcSt11char_traitsIcEEED2Ev
__ZNSt7__cxx1117moneypunct_bynameIcLb0EEC1EPKcj
__ZNSt7__cxx1117moneypunct_bynameIcLb0EEC1ERKNS_12basic_stringIcSt11char_traitsIcESaIcEEEj
__ZNSt7__cxx1117moneypunct_bynameIcLb0EEC2EPKcj
__ZNSt7__cxx1117moneypunct_bynameIcLb0EEC2ERKNS_12basic_stringIcSt11char_traitsIcESaIcEEEj
__ZNSt7__cxx1117moneypunct_bynameIcLb0EED0Ev
__ZNSt7__cxx1117moneypunct_bynameIcLb0EED1Ev
__ZNSt7__cxx1117moneypunct_bynameIcLb0EED2Ev
__ZNSt7__cxx1117moneypunct_bynameIcLb1EEC1EPKcj
__ZNSt7__cxx1117moneypunct_bynameIcLb1EEC1ERKNS_12basic_stringIcSt11char_traitsIcESaIcEEEj
__ZNSt7__cxx1117moneypunct_bynameIcLb1EEC2EPKcj
__ZNSt7__cxx1117moneypunct_bynameIcLb1EEC2ERKNS_12basic_stringIcSt11char_traitsIcESaIcEEEj
__ZNSt7__cxx1117moneypunct_bynameIcLb1EED0Ev
__ZNSt7__cxx1117moneypunct_bynameIcLb1EED1Ev
__ZNSt7__cxx1117moneypunct_bynameIcLb1EED2Ev
__ZNSt7__cxx117collateIcEC1EPij
__ZNSt7__cxx117collateIcEC1Ej
__ZNSt7__cxx117collateIcEC2EPij
__ZNSt7__cxx117collateIcEC2Ej
__ZNSt7__cxx117collateIcED0Ev
__ZNSt7__cxx117collateIcED1Ev
__ZNSt7__cxx117collateIcED2Ev
__ZNSt7__cxx118messagesIcEC1EPiPKcj
__ZNSt7__cxx118messagesIcEC1Ej
__ZNSt7__cxx118messagesIcEC2EPiPKcj
__ZNSt7__cxx118messagesIcEC2Ej
__ZNSt7__cxx118messagesIcED0Ev
__ZNSt7__cxx118messagesIcED1Ev
__ZNSt7__cxx118messagesIcED2Ev
__ZNSt7__cxx118numpunctIcEC1EPSt16__numpunct_cacheIcEj
__ZNSt7__cxx118numpunctIcEC1EPij
__ZNSt7__cxx118numpunctIcEC1Ej
__ZNSt7__cxx118numpunctIcEC2EPSt16__numpunct_cacheIcEj
__ZNSt7__cxx118numpunctIcEC2EPij
__ZNSt7__cxx118numpunctIcEC2Ej
__ZNSt7__cxx118time_getIcSt19istreambuf_iteratorIcSt11char_traitsIcEEEC1Ej
__ZNSt7__cxx118time_getIcSt19istreambuf_iteratorIcSt11char_traitsIcEEEC2Ej
__ZNSt7__cxx118time_getIcSt19istreambuf_iteratorIcSt11char_traitsIcEEED0Ev
__ZNSt7__cxx118time_getIcSt19istreambuf_iteratorIcSt11char_traitsIcEEED1Ev
__ZNSt7__cxx118time_getIcSt19istreambuf_iteratorIcSt11char_traitsIcEEED2Ev
__ZNSt7__cxx119money_getIcSt19istreambuf_iteratorIcSt11char_traitsIcEEEC1Ej
__ZNSt7__cxx119money_getIcSt19istreambuf_iteratorIcSt11char_traitsIcEEEC2Ej
__ZNSt7__cxx119money_getIcSt19istreambuf_iteratorIcSt11char_traitsIcEEED0Ev
__ZNSt7__cxx119money_getIcSt19istreambuf_iteratorIcSt11char_traitsIcEEED1Ev
__ZNSt7__cxx119money_getIcSt19istreambuf_iteratorIcSt11char_traitsIcEEED2Ev
__ZNSt7__cxx119money_putIcSt19ostreambuf_iteratorIcSt11char_traitsIcEEEC1Ej
__ZNSt7__cxx119money_putIcSt19ostreambuf_iteratorIcSt11char_traitsIcEEEC2Ej
__ZNSt7__cxx119money_putIcSt19ostreambuf_iteratorIcSt11char_traitsIcEEED0Ev
__ZNSt7__cxx119money_putIcSt19ostreambuf_iteratorIcSt11char_traitsIcEEED1Ev
__ZNSt7__cxx119money_putIcSt19ostreambuf_iteratorIcSt11char_traitsIcEEED2Ev
__ZSt16__convert_from_vRKPiPciPKcz
__ZSt9has_facetINSt7__cxx1110moneypunctIcLb0EEEEbRKSt6locale
__ZSt9has_facetINSt7__cxx117collateIcEEEbRKSt6locale
__ZSt9has_facetINSt7__cxx118messagesIcEEEbRKSt6locale
__ZSt9has_facetINSt7__cxx118numpunctIcEEEbRKSt6locale
__ZSt9has_facetINSt7__cxx118time_getIcSt19istreambuf_iteratorIcSt11char_traitsIcEEEEEbRKSt6locale
__ZSt9has_facetINSt7__cxx119money_getIcSt19istreambuf_iteratorIcSt11char_traitsIcEEEEEbRKSt6locale
__ZSt9has_facetINSt7__cxx119money_putIcSt19ostreambuf_iteratorIcSt11char_traitsIcEEEEEbRKSt6locale
__ZSt9use_facetINSt7__cxx1110moneypunctIcLb0EEEERKT_RKSt6locale
__ZSt9use_facetINSt7__cxx1110moneypunctIcLb1EEEERKT_RKSt6locale
__ZSt9use_facetINSt7__cxx117collateIcEEERKT_RKSt6locale
__ZSt9use_facetINSt7__cxx118messagesIcEEERKT_RKSt6locale
__ZSt9use_facetINSt7__cxx118numpunctIcEEERKT_RKSt6locale
__ZSt9use_facetINSt7__cxx118time_getIcSt19istreambuf_iteratorIcSt11char_traitsIcEEEEERKT_RKSt6locale
__ZSt9use_facetINSt7__cxx119money_getIcSt19istreambuf_iteratorIcSt11char_traitsIcEEEEERKT_RKSt6locale
__ZSt9use_facetINSt7__cxx119money_putIcSt19ostreambuf_iteratorIcSt11char_traitsIcEEEEERKT_RKSt6locale
__ZNKSt6locale5facet11_M_sso_shimEPKNS_2idE
__ZNKSt6locale5facet19_M_remove_referenceEv
__ZNSt13__facet_shims10__time_getIcEESt19istreambuf_iteratorIT_St11char_traitsIS2_EESt17integral_constantIbLb1EEPKNSt6locale5facetES5_S5_RSt8ios_baseRSt12_Ios_IostateP2tmc
__ZNSt13__facet_shims10__time_getIwEESt19istreambuf_iteratorIT_St11char_traitsIS2_EESt17integral_constantIbLb1EEPKNSt6locale5facetES5_S5_RSt8ios_baseRSt12_Ios_IostateP2tmc
__ZNSt13__facet_shims11__money_getIcEESt19istreambuf_iteratorIT_St11char_traitsIS2_EESt17integral_constantIbLb1EEPKNSt6locale5facetES5_S5_bRSt8ios_baseRSt12_Ios_IostatePePNS_12__any_stringE
__ZNSt13__facet_shims11__money_getIwEESt19istreambuf_iteratorIT_St11char_traitsIS2_EESt17integral_constantIbLb1EEPKNSt6locale5facetES5_S5_bRSt8ios_baseRSt12_Ios_IostatePePNS_12__any_stringE
__ZNSt13__facet_shims11__money_putIcEESt19ostreambuf_iteratorIT_St11char_traitsIS2_EESt17integral_constantIbLb1EEPKNSt6locale5facetES5_bRSt8ios_baseS2_ePKNS_12__any_stringE
__ZNSt13__facet_shims11__money_putIwEESt19ostreambuf_iteratorIT_St11char_traitsIS2_EESt17integral_constantIbLb1EEPKNSt6locale5facetES5_bRSt8ios_baseS2_ePKNS_12__any_stringE
__ZNSt13__facet_shims14__messages_getIcEEvSt17integral_constantIbLb1EEPKNSt6locale5facetERNS_12__any_stringEiiiPKT_j
__ZNSt13__facet_shims14__messages_getIwEEvSt17integral_constantIbLb1EEPKNSt6locale5facetERNS_12__any_stringEiiiPKT_j
__ZNSt13__facet_shims15__messages_openIcEEiSt17integral_constantIbLb1EEPKNSt6locale5facetEPKcjRKS3_
__ZNSt13__facet_shims15__messages_openIwEEiSt17integral_constantIbLb1EEPKNSt6locale5facetEPKcjRKS3_
__ZNSt13__facet_shims16__messages_closeIcEEvSt17integral_constantIbLb1EEPKNSt6locale5facetEi
__ZNSt13__facet_shims16__messages_closeIwEEvSt17integral_constantIbLb1EEPKNSt6locale5facetEi
__ZNSt13__facet_shims17__collate_compareIcEEiSt17integral_constantIbLb1EEPKNSt6locale5facetEPKT_S9_S9_S9_
__ZNSt13__facet_shims17__collate_compareIwEEiSt17integral_constantIbLb1EEPKNSt6locale5facetEPKT_S9_S9_S9_
__ZNSt13__facet_shims19__collate_transformIcEEvSt17integral_constantIbLb1EEPKNSt6locale5facetERNS_12__any_stringEPKT_SB_
__ZNSt13__facet_shims19__collate_transformIwEEvSt17integral_constantIbLb1EEPKNSt6locale5facetERNS_12__any_stringEPKT_SB_
__ZNSt13__facet_shims20__time_get_dateorderIcEENSt9time_base9dateorderESt17integral_constantIbLb1EEPKNSt6locale5facetE
__ZNSt13__facet_shims20__time_get_dateorderIwEENSt9time_base9dateorderESt17integral_constantIbLb1EEPKNSt6locale5facetE
__ZNSt13__facet_shims21__numpunct_fill_cacheIcEEvSt17integral_constantIbLb1EEPKNSt6locale5facetEPSt16__numpunct_cacheIT_E
__ZNSt13__facet_shims21__numpunct_fill_cacheIwEEvSt17integral_constantIbLb1EEPKNSt6locale5facetEPSt16__numpunct_cacheIT_E
__ZNSt13__facet_shims23__moneypunct_fill_cacheIcLb0EEEvSt17integral_constantIbLb1EEPKNSt6locale5facetEPSt18__moneypunct_cacheIT_XT0_EE
__ZNSt13__facet_shims23__moneypunct_fill_cacheIcLb1EEEvSt17integral_constantIbLb1EEPKNSt6locale5facetEPSt18__moneypunct_cacheIT_XT0_EE
__ZNSt13__facet_shims23__moneypunct_fill_cacheIwLb0EEEvSt17integral_constantIbLb1EEPKNSt6locale5facetEPSt18__moneypunct_cacheIT_XT0_EE
__ZNSt13__facet_shims23__moneypunct_fill_cacheIwLb1EEEvSt17integral_constantIbLb1EEPKNSt6locale5facetEPSt18__moneypunct_cacheIT_XT0_EE
__ZNSt11logic_errorC1ERKNSt7__cxx1112basic_stringIcSt11char_traitsIcESaIcEEE
__ZNSt11logic_errorC2ERKNSt7__cxx1112basic_stringIcSt11char_traitsIcESaIcEEE
__ZNSt11range_errorC1ERKNSt7__cxx1112basic_stringIcSt11char_traitsIcESaIcEEE
__ZNSt11range_errorC2ERKNSt7__cxx1112basic_stringIcSt11char_traitsIcESaIcEEE
__ZNSt12__cow_stringC1ERKNSt7__cxx1112basic_stringIcSt11char_traitsIcESaIcEEE
__ZNSt12__cow_stringC2ERKNSt7__cxx1112basic_stringIcSt11char_traitsIcESaIcEEE
__ZNSt12domain_errorC1ERKNSt7__cxx1112basic_stringIcSt11char_traitsIcESaIcEEE
__ZNSt12domain_errorC2ERKNSt7__cxx1112basic_stringIcSt11char_traitsIcESaIcEEE
__ZNSt12length_errorC1ERKNSt7__cxx1112basic_stringIcSt11char_traitsIcESaIcEEE
__ZNSt12length_errorC2ERKNSt7__cxx1112basic_stringIcSt11char_traitsIcESaIcEEE
__ZNSt12out_of_rangeC1ERKNSt7__cxx1112basic_stringIcSt11char_traitsIcESaIcEEE
__ZNSt12out_of_rangeC2ERKNSt7__cxx1112basic_stringIcSt11char_traitsIcESaIcEEE
__ZNSt13runtime_errorC1ERKNSt7__cxx1112basic_stringIcSt11char_traitsIcESaIcEEE
__ZNSt13runtime_errorC2ERKNSt7__cxx1112basic_stringIcSt11char_traitsIcESaIcEEE
__ZNSt14overflow_errorC1ERKNSt7__cxx1112basic_stringIcSt11char_traitsIcESaIcEEE
__ZNSt14overflow_errorC2ERKNSt7__cxx1112basic_stringIcSt11char_traitsIcESaIcEEE
__ZNSt15underflow_errorC1ERKNSt7__cxx1112basic_stringIcSt11char_traitsIcESaIcEEE
__ZNSt15underflow_errorC2ERKNSt7__cxx1112basic_stringIcSt11char_traitsIcESaIcEEE
__ZNSt16invalid_argumentC1ERKNSt7__cxx1112basic_stringIcSt11char_traitsIcESaIcEEE
__ZNSt16invalid_argumentC2ERKNSt7__cxx1112basic_stringIcSt11char_traitsIcESaIcEEE
__ZNKSt7__cxx1110moneypunctIwLb0EE10neg_formatEv
__ZNKSt7__cxx1110moneypunctIwLb0EE10pos_formatEv
__ZNKSt7__cxx1110moneypunctIwLb0EE11curr_symbolEv
__ZNKSt7__cxx1110moneypunctIwLb0EE11do_groupingEv
__ZNKSt7__cxx1110moneypunctIwLb0EE11frac_digitsEv
__ZNKSt7__cxx1110moneypunctIwLb0EE13decimal_pointEv
__ZNKSt7__cxx1110moneypunctIwLb0EE13do_neg_formatEv
__ZNKSt7__cxx1110moneypunctIwLb0EE13do_pos_formatEv
__ZNKSt7__cxx1110moneypunctIwLb0EE13negative_signEv
__ZNKSt7__cxx1110moneypunctIwLb0EE13positive_signEv
__ZNKSt7__cxx1110moneypunctIwLb0EE13thousands_sepEv
__ZNKSt7__cxx1110moneypunctIwLb0EE14do_curr_symbolEv
__ZNKSt7__cxx1110moneypunctIwLb0EE14do_frac_digitsEv
__ZNKSt7__cxx1110moneypunctIwLb0EE16do_decimal_pointEv
__ZNKSt7__cxx1110moneypunctIwLb0EE16do_negative_signEv
__ZNKSt7__cxx1110moneypunctIwLb0EE16do_positive_signEv
__ZNKSt7__cxx1110moneypunctIwLb0EE16do_thousands_sepEv
__ZNKSt7__cxx1110moneypunctIwLb0EE8groupingEv
__ZNKSt7__cxx1110moneypunctIwLb1EE10neg_formatEv
__ZNKSt7__cxx1110moneypunctIwLb1EE10pos_formatEv
__ZNKSt7__cxx1110moneypunctIwLb1EE11curr_symbolEv
__ZNKSt7__cxx1110moneypunctIwLb1EE11do_groupingEv
__ZNKSt7__cxx1110moneypunctIwLb1EE11frac_digitsEv
__ZNKSt7__cxx1110moneypunctIwLb1EE13decimal_pointEv
__ZNKSt7__cxx1110moneypunctIwLb1EE13do_neg_formatEv
__ZNKSt7__cxx1110moneypunctIwLb1EE13do_pos_formatEv
__ZNKSt7__cxx1110moneypunctIwLb1EE13negative_signEv
__ZNKSt7__cxx1110moneypunctIwLb1EE13positive_signEv
__ZNKSt7__cxx1110moneypunctIwLb1EE13thousands_sepEv
__ZNKSt7__cxx1110moneypunctIwLb1EE14do_curr_symbolEv
__ZNKSt7__cxx1110moneypunctIwLb1EE14do_frac_digitsEv
__ZNKSt7__cxx1110moneypunctIwLb1EE16do_decimal_pointEv
__ZNKSt7__cxx1110moneypunctIwLb1EE16do_negative_signEv
__ZNKSt7__cxx1110moneypunctIwLb1EE16do_positive_signEv
__ZNKSt7__cxx1110moneypunctIwLb1EE16do_thousands_sepEv
__ZNKSt7__cxx1110moneypunctIwLb1EE8groupingEv
__ZNKSt7__cxx117collateIwE10do_compareEPKwS3_S3_S3_
__ZNKSt7__cxx117collateIwE12do_transformEPKwS3_
__ZNKSt7__cxx117collateIwE4hashEPKwS3_
__ZNKSt7__cxx117collateIwE7compareEPKwS3_S3_S3_
__ZNKSt7__cxx117collateIwE7do_hashEPKwS3_
__ZNKSt7__cxx117collateIwE9transformEPKwS3_
__ZNKSt7__cxx118messagesIwE18_M_convert_to_charERKNS_12basic_stringIwSt11char_traitsIwESaIwEEE
__ZNKSt7__cxx118messagesIwE20_M_convert_from_charEPc
__ZNKSt7__cxx118messagesIwE3getEiiiRKNS_12basic_stringIwSt11char_traitsIwESaIwEEE
__ZNKSt7__cxx118messagesIwE4openERKNS_12basic_stringIcSt11char_traitsIcESaIcEEERKSt6locale
__ZNKSt7__cxx118messagesIwE4openERKNS_12basic_stringIcSt11char_traitsIcESaIcEEERKSt6localePKc
__ZNKSt7__cxx118messagesIwE5closeEi
__ZNKSt7__cxx118messagesIwE7do_openERKNS_12basic_stringIcSt11char_traitsIcESaIcEEERKSt6locale
__ZNKSt7__cxx118messagesIwE8do_closeEi
__ZNKSt7__cxx118numpunctIwE11do_groupingEv
__ZNKSt7__cxx118numpunctIwE11do_truenameEv
__ZNKSt7__cxx118numpunctIwE12do_falsenameEv
__ZNKSt7__cxx118numpunctIwE13decimal_pointEv
__ZNKSt7__cxx118numpunctIwE13thousands_sepEv
__ZNKSt7__cxx118numpunctIwE16do_decimal_pointEv
__ZNKSt7__cxx118numpunctIwE16do_thousands_sepEv
__ZNKSt7__cxx118numpunctIwE8groupingEv
__ZNKSt7__cxx118numpunctIwE8truenameEv
__ZNKSt7__cxx118numpunctIwE9falsenameEv
__ZNKSt7__cxx118time_getIwSt19istreambuf_iteratorIwSt11char_traitsIwEEE10date_orderEv
__ZNKSt7__cxx118time_getIwSt19istreambuf_iteratorIwSt11char_traitsIwEEE11do_get_dateES4_S4_RSt8ios_baseRSt12_Ios_IostateP2tm
__ZNKSt7__cxx118time_getIwSt19istreambuf_iteratorIwSt11char_traitsIwEEE11do_get_timeES4_S4_RSt8ios_baseRSt12_Ios_IostateP2tm
__ZNKSt7__cxx118time_getIwSt19istreambuf_iteratorIwSt11char_traitsIwEEE11do_get_yearES4_S4_RSt8ios_baseRSt12_Ios_IostateP2tm
__ZNKSt7__cxx118time_getIwSt19istreambuf_iteratorIwSt11char_traitsIwEEE11get_weekdayES4_S4_RSt8ios_baseRSt12_Ios_IostateP2tm
__ZNKSt7__cxx118time_getIwSt19istreambuf_iteratorIwSt11char_traitsIwEEE13do_date_orderEv
__ZNKSt7__cxx118time_getIwSt19istreambuf_iteratorIwSt11char_traitsIwEEE13get_monthnameES4_S4_RSt8ios_baseRSt12_Ios_IostateP2tm
__ZNKSt7__cxx118time_getIwSt19istreambuf_iteratorIwSt11char_traitsIwEEE14_M_extract_numES4_S4_RiiijRSt8ios_baseRSt12_Ios_Iostate
__ZNKSt7__cxx118time_getIwSt19istreambuf_iteratorIwSt11char_traitsIwEEE14do_get_weekdayES4_S4_RSt8ios_baseRSt12_Ios_IostateP2tm
__ZNKSt7__cxx118time_getIwSt19istreambuf_iteratorIwSt11char_traitsIwEEE15_M_extract_nameES4_S4_RiPPKwjRSt8ios_baseRSt12_Ios_Iostate
__ZNKSt7__cxx118time_getIwSt19istreambuf_iteratorIwSt11char_traitsIwEEE16do_get_monthnameES4_S4_RSt8ios_baseRSt12_Ios_IostateP2tm
__ZNKSt7__cxx118time_getIwSt19istreambuf_iteratorIwSt11char_traitsIwEEE21_M_extract_via_formatES4_S4_RSt8ios_baseRSt12_Ios_IostateP2tmPKw
__ZNKSt7__cxx118time_getIwSt19istreambuf_iteratorIwSt11char_traitsIwEEE24_M_extract_wday_or_monthES4_S4_RiPPKwjRSt8ios_baseRSt12_Ios_Iostate
__ZNKSt7__cxx118time_getIwSt19istreambuf_iteratorIwSt11char_traitsIwEEE3getES4_S4_RSt8ios_baseRSt12_Ios_IostateP2tmPKwSD_
__ZNKSt7__cxx118time_getIwSt19istreambuf_iteratorIwSt11char_traitsIwEEE3getES4_S4_RSt8ios_baseRSt12_Ios_IostateP2tmcc
__ZNKSt7__cxx118time_getIwSt19istreambuf_iteratorIwSt11char_traitsIwEEE6do_getES4_S4_RSt8ios_baseRSt12_Ios_IostateP2tmcc
__ZNKSt7__cxx118time_getIwSt19istreambuf_iteratorIwSt11char_traitsIwEEE8get_dateES4_S4_RSt8ios_baseRSt12_Ios_IostateP2tm
__ZNKSt7__cxx118time_getIwSt19istreambuf_iteratorIwSt11char_traitsIwEEE8get_timeES4_S4_RSt8ios_baseRSt12_Ios_IostateP2tm
__ZNKSt7__cxx118time_getIwSt19istreambuf_iteratorIwSt11char_traitsIwEEE8get_yearES4_S4_RSt8ios_baseRSt12_Ios_IostateP2tm
__ZNKSt7__cxx119money_getIwSt19istreambuf_iteratorIwSt11char_traitsIwEEE10_M_extractILb0EEES4_S4_S4_RSt8ios_baseRSt12_Ios_IostateRNS_12basic_stringIcS2_IcESaIcEEE
__ZNKSt7__cxx119money_getIwSt19istreambuf_iteratorIwSt11char_traitsIwEEE10_M_extractILb1EEES4_S4_S4_RSt8ios_baseRSt12_Ios_IostateRNS_12basic_stringIcS2_IcESaIcEEE
__ZNKSt7__cxx119money_getIwSt19istreambuf_iteratorIwSt11char_traitsIwEEE3getES4_S4_bRSt8ios_baseRSt12_Ios_IostateRNS_12basic_stringIwS3_SaIwEEE
__ZNKSt7__cxx119money_getIwSt19istreambuf_iteratorIwSt11char_traitsIwEEE3getES4_S4_bRSt8ios_baseRSt12_Ios_IostateRe
__ZNKSt7__cxx119money_getIwSt19istreambuf_iteratorIwSt11char_traitsIwEEE6do_getES4_S4_bRSt8ios_baseRSt12_Ios_IostateRNS_12basic_stringIwS3_SaIwEEE
__ZNKSt7__cxx119money_getIwSt19istreambuf_iteratorIwSt11char_traitsIwEEE6do_getES4_S4_bRSt8ios_baseRSt12_Ios_IostateRe
__ZNKSt7__cxx119money_putIwSt19ostreambuf_iteratorIwSt11char_traitsIwEEE3putES4_bRSt8ios_basewRKNS_12basic_stringIwS3_SaIwEEE
__ZNKSt7__cxx119money_putIwSt19ostreambuf_iteratorIwSt11char_traitsIwEEE3putES4_bRSt8ios_basewe
__ZNKSt7__cxx119money_putIwSt19ostreambuf_iteratorIwSt11char_traitsIwEEE6do_putES4_bRSt8ios_basewRKNS_12basic_stringIwS3_SaIwEEE
__ZNKSt7__cxx119money_putIwSt19ostreambuf_iteratorIwSt11char_traitsIwEEE6do_putES4_bRSt8ios_basewe
__ZNKSt7__cxx119money_putIwSt19ostreambuf_iteratorIwSt11char_traitsIwEEE9_M_insertILb0EEES4_S4_RSt8ios_basewRKNS_12basic_stringIwS3_SaIwEEE
__ZNKSt7__cxx119money_putIwSt19ostreambuf_iteratorIwSt11char_traitsIwEEE9_M_insertILb1EEES4_S4_RSt8ios_basewRKNS_12basic_stringIwS3_SaIwEEE
__ZNKSt7num_getIwSt19istreambuf_iteratorIwSt11char_traitsIwEEE14_M_extract_intB5cxx11IjEES3_S3_S3_RSt8ios_baseRSt12_Ios_IostateRT_
__ZNKSt7num_getIwSt19istreambuf_iteratorIwSt11char_traitsIwEEE14_M_extract_intB5cxx11IlEES3_S3_S3_RSt8ios_baseRSt12_Ios_IostateRT_
__ZNKSt7num_getIwSt19istreambuf_iteratorIwSt11char_traitsIwEEE14_M_extract_intB5cxx11ImEES3_S3_S3_RSt8ios_baseRSt12_Ios_IostateRT_
__ZNKSt7num_getIwSt19istreambuf_iteratorIwSt11char_traitsIwEEE14_M_extract_intB5cxx11ItEES3_S3_S3_RSt8ios_baseRSt12_Ios_IostateRT_
__ZNKSt7num_getIwSt19istreambuf_iteratorIwSt11char_traitsIwEEE14_M_extract_intB5cxx11IxEES3_S3_S3_RSt8ios_baseRSt12_Ios_IostateRT_
__ZNKSt7num_getIwSt19istreambuf_iteratorIwSt11char_traitsIwEEE14_M_extract_intB5cxx11IyEES3_S3_S3_RSt8ios_baseRSt12_Ios_IostateRT_
__ZNSt12ctype_bynameIwEC1ERKNSt7__cxx1112basic_stringIcSt11char_traitsIcESaIcEEEj
__ZNSt12ctype_bynameIwEC2ERKNSt7__cxx1112basic_stringIcSt11char_traitsIcESaIcEEEj
__ZNSt14codecvt_bynameIwciEC1ERKNSt7__cxx1112basic_stringIcSt11char_traitsIcESaIcEEEj
__ZNSt14codecvt_bynameIwciEC2ERKNSt7__cxx1112basic_stringIcSt11char_traitsIcESaIcEEEj
__ZNSt15time_put_bynameIwSt19ostreambuf_iteratorIwSt11char_traitsIwEEEC1ERKNSt7__cxx1112basic_stringIcS1_IcESaIcEEEj
__ZNSt15time_put_bynameIwSt19ostreambuf_iteratorIwSt11char_traitsIwEEEC2ERKNSt7__cxx1112basic_stringIcS1_IcESaIcEEEj
__ZNSt7__cxx1110moneypunctIwLb0EEC1EPSt18__moneypunct_cacheIwLb0EEj
__ZNSt7__cxx1110moneypunctIwLb0EEC1EPiPKcj
__ZNSt7__cxx1110moneypunctIwLb0EEC1Ej
__ZNSt7__cxx1110moneypunctIwLb0EEC2EPSt18__moneypunct_cacheIwLb0EEj
__ZNSt7__cxx1110moneypunctIwLb0EEC2EPiPKcj
__ZNSt7__cxx1110moneypunctIwLb0EEC2Ej
__ZNSt7__cxx1110moneypunctIwLb1EEC1EPSt18__moneypunct_cacheIwLb1EEj
__ZNSt7__cxx1110moneypunctIwLb1EEC1EPiPKcj
__ZNSt7__cxx1110moneypunctIwLb1EEC1Ej
__ZNSt7__cxx1110moneypunctIwLb1EEC2EPSt18__moneypunct_cacheIwLb1EEj
__ZNSt7__cxx1110moneypunctIwLb1EEC2EPiPKcj
__ZNSt7__cxx1110moneypunctIwLb1EEC2Ej
__ZNSt7__cxx1114collate_bynameIwEC1EPKcj
__ZNSt7__cxx1114collate_bynameIwEC1ERKNS_12basic_stringIcSt11char_traitsIcESaIcEEEj
__ZNSt7__cxx1114collate_bynameIwEC2EPKcj
__ZNSt7__cxx1114collate_bynameIwEC2ERKNS_12basic_stringIcSt11char_traitsIcESaIcEEEj
__ZNSt7__cxx1114collate_bynameIwED0Ev
__ZNSt7__cxx1114collate_bynameIwED1Ev
__ZNSt7__cxx1114collate_bynameIwED2Ev
__ZNSt7__cxx1115messages_bynameIwEC1EPKcj
__ZNSt7__cxx1115messages_bynameIwEC1ERKNS_12basic_stringIcSt11char_traitsIcESaIcEEEj
__ZNSt7__cxx1115messages_bynameIwEC2EPKcj
__ZNSt7__cxx1115messages_bynameIwEC2ERKNS_12basic_stringIcSt11char_traitsIcESaIcEEEj
__ZNSt7__cxx1115messages_bynameIwED0Ev
__ZNSt7__cxx1115messages_bynameIwED1Ev
__ZNSt7__cxx1115messages_bynameIwED2Ev
__ZNSt7__cxx1115numpunct_bynameIwEC1EPKcj
__ZNSt7__cxx1115numpunct_bynameIwEC1ERKNS_12basic_stringIcSt11char_traitsIcESaIcEEEj
__ZNSt7__cxx1115numpunct_bynameIwEC2EPKcj
__ZNSt7__cxx1115numpunct_bynameIwEC2ERKNS_12basic_stringIcSt11char_traitsIcESaIcEEEj
__ZNSt7__cxx1115numpunct_bynameIwED0Ev
__ZNSt7__cxx1115numpunct_bynameIwED1Ev
__ZNSt7__cxx1115numpunct_bynameIwED2Ev
__ZNSt7__cxx1115time_get_bynameIwSt19istreambuf_iteratorIwSt11char_traitsIwEEEC1EPKcj
__ZNSt7__cxx1115time_get_bynameIwSt19istreambuf_iteratorIwSt11char_traitsIwEEEC1ERKNS_12basic_stringIcS2_IcESaIcEEEj
__ZNSt7__cxx1115time_get_bynameIwSt19istreambuf_iteratorIwSt11char_traitsIwEEEC2EPKcj
__ZNSt7__cxx1115time_get_bynameIwSt19istreambuf_iteratorIwSt11char_traitsIwEEEC2ERKNS_12basic_stringIcS2_IcESaIcEEEj
__ZNSt7__cxx1115time_get_bynameIwSt19istreambuf_iteratorIwSt11char_traitsIwEEED0Ev
__ZNSt7__cxx1115time_get_bynameIwSt19istreambuf_iteratorIwSt11char_traitsIwEEED1Ev
__ZNSt7__cxx1115time_get_bynameIwSt19istreambuf_iteratorIwSt11char_traitsIwEEED2Ev
__ZNSt7__cxx1117moneypunct_bynameIwLb0EEC1EPKcj
__ZNSt7__cxx1117moneypunct_bynameIwLb0EEC1ERKNS_12basic_stringIcSt11char_traitsIcESaIcEEEj
__ZNSt7__cxx1117moneypunct_bynameIwLb0EEC2EPKcj
__ZNSt7__cxx1117moneypunct_bynameIwLb0EEC2ERKNS_12basic_stringIcSt11char_traitsIcESaIcEEEj
__ZNSt7__cxx1117moneypunct_bynameIwLb0EED0Ev
__ZNSt7__cxx1117moneypunct_bynameIwLb0EED1Ev
__ZNSt7__cxx1117moneypunct_bynameIwLb0EED2Ev
__ZNSt7__cxx1117moneypunct_bynameIwLb1EEC1EPKcj
__ZNSt7__cxx1117moneypunct_bynameIwLb1EEC1ERKNS_12basic_stringIcSt11char_traitsIcESaIcEEEj
__ZNSt7__cxx1117moneypunct_bynameIwLb1EEC2EPKcj
__ZNSt7__cxx1117moneypunct_bynameIwLb1EEC2ERKNS_12basic_stringIcSt11char_traitsIcESaIcEEEj
__ZNSt7__cxx1117moneypunct_bynameIwLb1EED0Ev
__ZNSt7__cxx1117moneypunct_bynameIwLb1EED1Ev
__ZNSt7__cxx1117moneypunct_bynameIwLb1EED2Ev
__ZNSt7__cxx117collateIwEC1EPij
__ZNSt7__cxx117collateIwEC1Ej
__ZNSt7__cxx117collateIwEC2EPij
__ZNSt7__cxx117collateIwEC2Ej
__ZNSt7__cxx117collateIwED0Ev
__ZNSt7__cxx117collateIwED1Ev
__ZNSt7__cxx117collateIwED2Ev
__ZNSt7__cxx118messagesIwEC1EPiPKcj
__ZNSt7__cxx118messagesIwEC1Ej
__ZNSt7__cxx118messagesIwEC2EPiPKcj
__ZNSt7__cxx118messagesIwEC2Ej
__ZNSt7__cxx118messagesIwED0Ev
__ZNSt7__cxx118messagesIwED1Ev
__ZNSt7__cxx118messagesIwED2Ev
__ZNSt7__cxx118numpunctIwEC1EPSt16__numpunct_cacheIwEj
__ZNSt7__cxx118numpunctIwEC1EPij
__ZNSt7__cxx118numpunctIwEC1Ej
__ZNSt7__cxx118numpunctIwEC2EPSt16__numpunct_cacheIwEj
__ZNSt7__cxx118numpunctIwEC2EPij
__ZNSt7__cxx118numpunctIwEC2Ej
__ZNSt7__cxx118time_getIwSt19istreambuf_iteratorIwSt11char_traitsIwEEEC1Ej
__ZNSt7__cxx118time_getIwSt19istreambuf_iteratorIwSt11char_traitsIwEEEC2Ej
__ZNSt7__cxx118time_getIwSt19istreambuf_iteratorIwSt11char_traitsIwEEED0Ev
__ZNSt7__cxx118time_getIwSt19istreambuf_iteratorIwSt11char_traitsIwEEED1Ev
__ZNSt7__cxx118time_getIwSt19istreambuf_iteratorIwSt11char_traitsIwEEED2Ev
__ZNSt7__cxx119money_getIwSt19istreambuf_iteratorIwSt11char_traitsIwEEEC1Ej
__ZNSt7__cxx119money_getIwSt19istreambuf_iteratorIwSt11char_traitsIwEEEC2Ej
__ZNSt7__cxx119money_getIwSt19istreambuf_iteratorIwSt11char_traitsIwEEED0Ev
__ZNSt7__cxx119money_getIwSt19istreambuf_iteratorIwSt11char_traitsIwEEED1Ev
__ZNSt7__cxx119money_getIwSt19istreambuf_iteratorIwSt11char_traitsIwEEED2Ev
__ZNSt7__cxx119money_putIwSt19ostreambuf_iteratorIwSt11char_traitsIwEEEC1Ej
__ZNSt7__cxx119money_putIwSt19ostreambuf_iteratorIwSt11char_traitsIwEEEC2Ej
__ZNSt7__cxx119money_putIwSt19ostreambuf_iteratorIwSt11char_traitsIwEEED0Ev
__ZNSt7__cxx119money_putIwSt19ostreambuf_iteratorIwSt11char_traitsIwEEED1Ev
__ZNSt7__cxx119money_putIwSt19ostreambuf_iteratorIwSt11char_traitsIwEEED2Ev
__ZSt16__convert_from_vRKPiPciPKcz
__ZSt9has_facetINSt7__cxx1110moneypunctIwLb0EEEEbRKSt6locale
__ZSt9has_facetINSt7__cxx117collateIwEEEbRKSt6locale
__ZSt9has_facetINSt7__cxx118messagesIwEEEbRKSt6locale
__ZSt9has_facetINSt7__cxx118numpunctIwEEEbRKSt6locale
__ZSt9has_facetINSt7__cxx118time_getIwSt19istreambuf_iteratorIwSt11char_traitsIwEEEEEbRKSt6locale
__ZSt9has_facetINSt7__cxx119money_getIwSt19istreambuf_iteratorIwSt11char_traitsIwEEEEEbRKSt6locale
__ZSt9has_facetINSt7__cxx119money_putIwSt19ostreambuf_iteratorIwSt11char_traitsIwEEEEEbRKSt6locale
__ZSt9use_facetINSt7__cxx1110moneypunctIwLb0EEEERKT_RKSt6locale
__ZSt9use_facetINSt7__cxx1110moneypunctIwLb1EEEERKT_RKSt6locale
__ZSt9use_facetINSt7__cxx117collateIwEEERKT_RKSt6locale
__ZSt9use_facetINSt7__cxx118messagesIwEEERKT_RKSt6locale
__ZSt9use_facetINSt7__cxx118numpunctIwEEERKT_RKSt6locale
__ZSt9use_facetINSt7__cxx118time_getIwSt19istreambuf_iteratorIwSt11char_traitsIwEEEEERKT_RKSt6locale
__ZSt9use_facetINSt7__cxx119money_getIwSt19istreambuf_iteratorIwSt11char_traitsIwEEEEERKT_RKSt6locale
__ZSt9use_facetINSt7__cxx119money_putIwSt19ostreambuf_iteratorIwSt11char_traitsIwEEEEERKT_RKSt6locale
__Z7fprintfP6_iobufPKcz
__ZN11__gnu_debug19_Safe_iterator_base12_M_get_mutexEv
__ZN11__gnu_debug19_Safe_iterator_base16_M_attach_singleEPNS_19_Safe_sequence_baseEb
__ZN11__gnu_debug19_Safe_iterator_base16_M_detach_singleEv
__ZN11__gnu_debug19_Safe_iterator_base8_M_resetEv
__ZN11__gnu_debug19_Safe_iterator_base9_M_attachEPNS_19_Safe_sequence_baseEb
__ZN11__gnu_debug19_Safe_iterator_base9_M_detachEv
__ZN11__gnu_debug19_Safe_sequence_base12_M_get_mutexEv
__ZN11__gnu_debug19_Safe_sequence_base13_M_detach_allEv
__ZN11__gnu_debug19_Safe_sequence_base16_M_attach_singleEPNS_19_Safe_iterator_baseEb
__ZN11__gnu_debug19_Safe_sequence_base16_M_detach_singleEPNS_19_Safe_iterator_baseE
__ZN11__gnu_debug19_Safe_sequence_base18_M_detach_singularEv
__ZN11__gnu_debug19_Safe_sequence_base22_M_revalidate_singularEv
__ZN11__gnu_debug19_Safe_sequence_base7_M_swapERS0_
__ZN11__gnu_debug19_Safe_sequence_base9_M_attachEPNS_19_Safe_iterator_baseEb
__ZN11__gnu_debug19_Safe_sequence_base9_M_detachEPNS_19_Safe_iterator_baseE
__ZN11__gnu_debug25_Safe_local_iterator_base16_M_attach_singleEPNS_19_Safe_sequence_baseEb
__ZN11__gnu_debug25_Safe_local_iterator_base16_M_detach_singleEv
__ZN11__gnu_debug25_Safe_local_iterator_base9_M_attachEPNS_19_Safe_sequence_baseEb
__ZN11__gnu_debug25_Safe_local_iterator_base9_M_detachEv
__ZN11__gnu_debug30_Safe_unordered_container_base13_M_detach_allEv
__ZN11__gnu_debug30_Safe_unordered_container_base15_M_attach_localEPNS_19_Safe_iterator_baseEb
__ZN11__gnu_debug30_Safe_unordered_container_base15_M_detach_localEPNS_19_Safe_iterator_baseE
__ZN11__gnu_debug30_Safe_unordered_container_base22_M_attach_local_singleEPNS_19_Safe_iterator_baseEb
__ZN11__gnu_debug30_Safe_unordered_container_base22_M_detach_local_singleEPNS_19_Safe_iterator_baseE
__ZN11__gnu_debug30_Safe_unordered_container_base7_M_swapERS0_
__ZN9__gnu_cxx13__scoped_lockD1Ev
__ZN9__gnu_cxx24__concurrence_lock_errorD0Ev
__ZN9__gnu_cxx24__concurrence_lock_errorD1Ev
__ZN9__gnu_cxx26__concurrence_unlock_errorD0Ev
__ZN9__gnu_cxx26__concurrence_unlock_errorD1Ev
__ZNK11__gnu_debug16_Error_formatter10_M_messageENS_13_Debug_msg_idE
__ZNK11__gnu_debug16_Error_formatter10_Parameter14_M_print_fieldEPKS0_PKc
__ZNK11__gnu_debug16_Error_formatter10_Parameter20_M_print_descriptionEPKS0_
__ZNK11__gnu_debug16_Error_formatter13_M_print_wordEPKc
__ZNK11__gnu_debug16_Error_formatter14_M_format_wordIPKcEEvPciS3_T_
__ZNK11__gnu_debug16_Error_formatter14_M_format_wordIPKvEEvPciPKcT_
__ZNK11__gnu_debug16_Error_formatter14_M_format_wordIjEEvPciPKcT_
__ZNK11__gnu_debug16_Error_formatter14_M_format_wordIlEEvPciPKcT_
__ZNK11__gnu_debug16_Error_formatter15_M_print_stringEPKc
__ZNK11__gnu_debug16_Error_formatter17_M_get_max_lengthEv
__ZNK11__gnu_debug16_Error_formatter8_M_errorEv
__ZNK11__gnu_debug19_Safe_iterator_base11_M_singularEv
__ZNK11__gnu_debug19_Safe_iterator_base14_M_can_compareERKS0_
__ZNK11__gnu_debug25_Safe_local_iterator_base16_M_get_containerEv
__ZNK9__gnu_cxx24__concurrence_lock_error4whatEv
__ZNK9__gnu_cxx26__concurrence_unlock_error4whatEv
__ZN9__gnu_cxx13stdio_filebufIcSt11char_traitsIcEE2fdEv
__ZN9__gnu_cxx13stdio_filebufIcSt11char_traitsIcEE4fileEv
__ZN9__gnu_cxx13stdio_filebufIcSt11char_traitsIcEE4swapERS3_
__ZN9__gnu_cxx13stdio_filebufIcSt11char_traitsIcEEC1EP6_iobufSt13_Ios_Openmodej
__ZN9__gnu_cxx13stdio_filebufIcSt11char_traitsIcEEC1EiSt13_Ios_Openmodej
__ZN9__gnu_cxx13stdio_filebufIcSt11char_traitsIcEEC1Ev
__ZN9__gnu_cxx13stdio_filebufIcSt11char_traitsIcEEC2EP6_iobufSt13_Ios_Openmodej
__ZN9__gnu_cxx13stdio_filebufIcSt11char_traitsIcEEC2EiSt13_Ios_Openmodej
__ZN9__gnu_cxx13stdio_filebufIcSt11char_traitsIcEEC2Ev
__ZN9__gnu_cxx13stdio_filebufIcSt11char_traitsIcEED0Ev
__ZN9__gnu_cxx13stdio_filebufIcSt11char_traitsIcEED1Ev
__ZN9__gnu_cxx13stdio_filebufIcSt11char_traitsIcEED2Ev
__ZN9__gnu_cxx13stdio_filebufIwSt11char_traitsIwEE2fdEv
__ZN9__gnu_cxx13stdio_filebufIwSt11char_traitsIwEE4fileEv
__ZN9__gnu_cxx13stdio_filebufIwSt11char_traitsIwEE4swapERS3_
__ZN9__gnu_cxx13stdio_filebufIwSt11char_traitsIwEEC1EP6_iobufSt13_Ios_Openmodej
__ZN9__gnu_cxx13stdio_filebufIwSt11char_traitsIwEEC1EiSt13_Ios_Openmodej
__ZN9__gnu_cxx13stdio_filebufIwSt11char_traitsIwEEC1Ev
__ZN9__gnu_cxx13stdio_filebufIwSt11char_traitsIwEEC2EP6_iobufSt13_Ios_Openmodej
__ZN9__gnu_cxx13stdio_filebufIwSt11char_traitsIwEEC2EiSt13_Ios_Openmodej
__ZN9__gnu_cxx13stdio_filebufIwSt11char_traitsIwEEC2Ev
__ZN9__gnu_cxx13stdio_filebufIwSt11char_traitsIwEED0Ev
__ZN9__gnu_cxx13stdio_filebufIwSt11char_traitsIwEED1Ev
__ZN9__gnu_cxx13stdio_filebufIwSt11char_traitsIwEED2Ev
__ZN9__gnu_cxx18stdio_sync_filebufIcSt11char_traitsIcEE4fileEv
__ZN9__gnu_cxx18stdio_sync_filebufIcSt11char_traitsIcEE4swapERS3_
__ZN9__gnu_cxx18stdio_sync_filebufIcSt11char_traitsIcEE4syncEv
__ZN9__gnu_cxx18stdio_sync_filebufIcSt11char_traitsIcEE5uflowEv
__ZN9__gnu_cxx18stdio_sync_filebufIcSt11char_traitsIcEE6xsgetnEPci
__ZN9__gnu_cxx18stdio_sync_filebufIcSt11char_traitsIcEE6xsputnEPKci
__ZN9__gnu_cxx18stdio_sync_filebufIcSt11char_traitsIcEE7seekoffExSt12_Ios_SeekdirSt13_Ios_Openmode
__ZN9__gnu_cxx18stdio_sync_filebufIcSt11char_traitsIcEE7seekposESt4fposIiESt13_Ios_Openmode
__ZN9__gnu_cxx18stdio_sync_filebufIcSt11char_traitsIcEE8overflowEi
__ZN9__gnu_cxx18stdio_sync_filebufIcSt11char_traitsIcEE9pbackfailEi
__ZN9__gnu_cxx18stdio_sync_filebufIcSt11char_traitsIcEE9underflowEv
__ZN9__gnu_cxx18stdio_sync_filebufIcSt11char_traitsIcEEC1EOS3_
__ZN9__gnu_cxx18stdio_sync_filebufIcSt11char_traitsIcEEC1EP6_iobuf
__ZN9__gnu_cxx18stdio_sync_filebufIcSt11char_traitsIcEEC2EOS3_
__ZN9__gnu_cxx18stdio_sync_filebufIcSt11char_traitsIcEEC2EP6_iobuf
__ZN9__gnu_cxx18stdio_sync_filebufIcSt11char_traitsIcEED0Ev
__ZN9__gnu_cxx18stdio_sync_filebufIcSt11char_traitsIcEED1Ev
__ZN9__gnu_cxx18stdio_sync_filebufIcSt11char_traitsIcEEaSEOS3_
__ZN9__gnu_cxx18stdio_sync_filebufIwSt11char_traitsIwEE4fileEv
__ZN9__gnu_cxx18stdio_sync_filebufIwSt11char_traitsIwEE4swapERS3_
__ZN9__gnu_cxx18stdio_sync_filebufIwSt11char_traitsIwEE4syncEv
__ZN9__gnu_cxx18stdio_sync_filebufIwSt11char_traitsIwEE5uflowEv
__ZN9__gnu_cxx18stdio_sync_filebufIwSt11char_traitsIwEE6xsgetnEPwi
__ZN9__gnu_cxx18stdio_sync_filebufIwSt11char_traitsIwEE6xsputnEPKwi
__ZN9__gnu_cxx18stdio_sync_filebufIwSt11char_traitsIwEE7seekoffExSt12_Ios_SeekdirSt13_Ios_Openmode
__ZN9__gnu_cxx18stdio_sync_filebufIwSt11char_traitsIwEE7seekposESt4fposIiESt13_Ios_Openmode
__ZN9__gnu_cxx18stdio_sync_filebufIwSt11char_traitsIwEE8overflowEt
__ZN9__gnu_cxx18stdio_sync_filebufIwSt11char_traitsIwEE9pbackfailEt
__ZN9__gnu_cxx18stdio_sync_filebufIwSt11char_traitsIwEE9underflowEv
__ZN9__gnu_cxx18stdio_sync_filebufIwSt11char_traitsIwEEC1EOS3_
__ZN9__gnu_cxx18stdio_sync_filebufIwSt11char_traitsIwEEC1EP6_iobuf
__ZN9__gnu_cxx18stdio_sync_filebufIwSt11char_traitsIwEEC2EOS3_
__ZN9__gnu_cxx18stdio_sync_filebufIwSt11char_traitsIwEEC2EP6_iobuf
__ZN9__gnu_cxx18stdio_sync_filebufIwSt11char_traitsIwEED0Ev
__ZN9__gnu_cxx18stdio_sync_filebufIwSt11char_traitsIwEED1Ev
__ZN9__gnu_cxx18stdio_sync_filebufIwSt11char_traitsIwEEaSEOS3_
__ZNKSt13basic_filebufIcSt11char_traitsIcEE7is_openEv
__ZNKSt13basic_filebufIwSt11char_traitsIwEE7is_openEv
__ZNKSt13basic_fstreamIcSt11char_traitsIcEE5rdbufEv
__ZNKSt13basic_fstreamIcSt11char_traitsIcEE7is_openEv
__ZNKSt13basic_fstreamIwSt11char_traitsIwEE5rdbufEv
__ZNKSt13basic_fstreamIwSt11char_traitsIwEE7is_openEv
__ZNKSt14basic_ifstreamIcSt11char_traitsIcEE5rdbufEv
__ZNKSt14basic_ifstreamIcSt11char_traitsIcEE7is_openEv
__ZNKSt14basic_ifstreamIwSt11char_traitsIwEE5rdbufEv
__ZNKSt14basic_ifstreamIwSt11char_traitsIwEE7is_openEv
__ZNKSt14basic_ofstreamIcSt11char_traitsIcEE5rdbufEv
__ZNKSt14basic_ofstreamIcSt11char_traitsIcEE7is_openEv
__ZNKSt14basic_ofstreamIwSt11char_traitsIwEE5rdbufEv
__ZNKSt14basic_ofstreamIwSt11char_traitsIwEE7is_openEv
__ZNSt13basic_filebufIcSt11char_traitsIcEE13_M_set_bufferEi
__ZNSt13basic_filebufIcSt11char_traitsIcEE14_M_get_ext_posERi
__ZNSt13basic_filebufIcSt11char_traitsIcEE15_M_create_pbackEv
__ZNSt13basic_filebufIcSt11char_traitsIcEE16_M_destroy_pbackEv
__ZNSt13basic_filebufIcSt11char_traitsIcEE19_M_terminate_outputEv
__ZNSt13basic_filebufIcSt11char_traitsIcEE22_M_convert_to_externalEPci
__ZNSt13basic_filebufIcSt11char_traitsIcEE26_M_destroy_internal_bufferEv
__ZNSt13basic_filebufIcSt11char_traitsIcEE27_M_allocate_internal_bufferEv
__ZNSt13basic_filebufIcSt11char_traitsIcEE4openEPKcSt13_Ios_Openmode
__ZNSt13basic_filebufIcSt11char_traitsIcEE4openEPKwSt13_Ios_Openmode
__ZNSt13basic_filebufIcSt11char_traitsIcEE4openERKNSt7__cxx1112basic_stringIcS1_SaIcEEESt13_Ios_Openmode
__ZNSt13basic_filebufIcSt11char_traitsIcEE4swapERS2_
__ZNSt13basic_filebufIcSt11char_traitsIcEE4syncEv
__ZNSt13basic_filebufIcSt11char_traitsIcEE5closeEv
__ZNSt13basic_filebufIcSt11char_traitsIcEE5imbueERKSt6locale
__ZNSt13basic_filebufIcSt11char_traitsIcEE6setbufEPci
__ZNSt13basic_filebufIcSt11char_traitsIcEE6xsgetnEPci
__ZNSt13basic_filebufIcSt11char_traitsIcEE6xsputnEPKci
__ZNSt13basic_filebufIcSt11char_traitsIcEE7_M_seekExSt12_Ios_Seekdiri
__ZNSt13basic_filebufIcSt11char_traitsIcEE7seekoffExSt12_Ios_SeekdirSt13_Ios_Openmode
__ZNSt13basic_filebufIcSt11char_traitsIcEE7seekposESt4fposIiESt13_Ios_Openmode
__ZNSt13basic_filebufIcSt11char_traitsIcEE8overflowEi
__ZNSt13basic_filebufIcSt11char_traitsIcEE9pbackfailEi
__ZNSt13basic_filebufIcSt11char_traitsIcEE9showmanycEv
__ZNSt13basic_filebufIcSt11char_traitsIcEE9underflowEv
__ZNSt13basic_filebufIcSt11char_traitsIcEEC1EOS2_
__ZNSt13basic_filebufIcSt11char_traitsIcEEC1Ev
__ZNSt13basic_filebufIcSt11char_traitsIcEEC2EOS2_
__ZNSt13basic_filebufIcSt11char_traitsIcEEC2Ev
__ZNSt13basic_filebufIcSt11char_traitsIcEED0Ev
__ZNSt13basic_filebufIcSt11char_traitsIcEED1Ev
__ZNSt13basic_filebufIcSt11char_traitsIcEED2Ev
__ZNSt13basic_filebufIcSt11char_traitsIcEEaSEOS2_
__ZNSt13basic_filebufIwSt11char_traitsIwEE13_M_set_bufferEi
__ZNSt13basic_filebufIwSt11char_traitsIwEE14_M_get_ext_posERi
__ZNSt13basic_filebufIwSt11char_traitsIwEE15_M_create_pbackEv
__ZNSt13basic_filebufIwSt11char_traitsIwEE16_M_destroy_pbackEv
__ZNSt13basic_filebufIwSt11char_traitsIwEE19_M_terminate_outputEv
__ZNSt13basic_filebufIwSt11char_traitsIwEE22_M_convert_to_externalEPwi
__ZNSt13basic_filebufIwSt11char_traitsIwEE26_M_destroy_internal_bufferEv
__ZNSt13basic_filebufIwSt11char_traitsIwEE27_M_allocate_internal_bufferEv
__ZNSt13basic_filebufIwSt11char_traitsIwEE4openEPKcSt13_Ios_Openmode
__ZNSt13basic_filebufIwSt11char_traitsIwEE4openEPKwSt13_Ios_Openmode
__ZNSt13basic_filebufIwSt11char_traitsIwEE4openERKNSt7__cxx1112basic_stringIcS0_IcESaIcEEESt13_Ios_Openmode
__ZNSt13basic_filebufIwSt11char_traitsIwEE4swapERS2_
__ZNSt13basic_filebufIwSt11char_traitsIwEE4syncEv
__ZNSt13basic_filebufIwSt11char_traitsIwEE5closeEv
__ZNSt13basic_filebufIwSt11char_traitsIwEE5imbueERKSt6locale
__ZNSt13basic_filebufIwSt11char_traitsIwEE6setbufEPwi
__ZNSt13basic_filebufIwSt11char_traitsIwEE6xsgetnEPwi
__ZNSt13basic_filebufIwSt11char_traitsIwEE6xsputnEPKwi
__ZNSt13basic_filebufIwSt11char_traitsIwEE7_M_seekExSt12_Ios_Seekdiri
__ZNSt13basic_filebufIwSt11char_traitsIwEE7seekoffExSt12_Ios_SeekdirSt13_Ios_Openmode
__ZNSt13basic_filebufIwSt11char_traitsIwEE7seekposESt4fposIiESt13_Ios_Openmode
__ZNSt13basic_filebufIwSt11char_traitsIwEE8overflowEt
__ZNSt13basic_filebufIwSt11char_traitsIwEE9pbackfailEt
__ZNSt13basic_filebufIwSt11char_traitsIwEE9showmanycEv
__ZNSt13basic_filebufIwSt11char_traitsIwEE9underflowEv
__ZNSt13basic_filebufIwSt11char_traitsIwEEC1EOS2_
__ZNSt13basic_filebufIwSt11char_traitsIwEEC1Ev
__ZNSt13basic_filebufIwSt11char_traitsIwEEC2EOS2_
__ZNSt13basic_filebufIwSt11char_traitsIwEEC2Ev
__ZNSt13basic_filebufIwSt11char_traitsIwEED0Ev
__ZNSt13basic_filebufIwSt11char_traitsIwEED1Ev
__ZNSt13basic_filebufIwSt11char_traitsIwEED2Ev
__ZNSt13basic_filebufIwSt11char_traitsIwEEaSEOS2_
__ZNSt13basic_fstreamIcSt11char_traitsIcEE4openEPKcSt13_Ios_Openmode
__ZNSt13basic_fstreamIcSt11char_traitsIcEE4openEPKwSt13_Ios_Openmode
__ZNSt13basic_fstreamIcSt11char_traitsIcEE4openERKNSt7__cxx1112basic_stringIcS1_SaIcEEESt13_Ios_Openmode
__ZNSt13basic_fstreamIcSt11char_traitsIcEE4swapERS2_
__ZNSt13basic_fstreamIcSt11char_traitsIcEE5closeEv
__ZNSt13basic_fstreamIcSt11char_traitsIcEE7is_openEv
__ZNSt13basic_fstreamIcSt11char_traitsIcEEC1EOS2_
__ZNSt13basic_fstreamIcSt11char_traitsIcEEC1EPKcSt13_Ios_Openmode
__ZNSt13basic_fstreamIcSt11char_traitsIcEEC1EPKwSt13_Ios_Openmode
__ZNSt13basic_fstreamIcSt11char_traitsIcEEC1ERKNSt7__cxx1112basic_stringIcS1_SaIcEEESt13_Ios_Openmode
__ZNSt13basic_fstreamIcSt11char_traitsIcEEC1Ev
__ZNSt13basic_fstreamIcSt11char_traitsIcEEC2EOS2_
__ZNSt13basic_fstreamIcSt11char_traitsIcEEC2EPKcSt13_Ios_Openmode
__ZNSt13basic_fstreamIcSt11char_traitsIcEEC2EPKwSt13_Ios_Openmode
__ZNSt13basic_fstreamIcSt11char_traitsIcEEC2ERKNSt7__cxx1112basic_stringIcS1_SaIcEEESt13_Ios_Openmode
__ZNSt13basic_fstreamIcSt11char_traitsIcEEC2Ev
__ZNSt13basic_fstreamIcSt11char_traitsIcEED0Ev
__ZNSt13basic_fstreamIcSt11char_traitsIcEED1Ev
__ZNSt13basic_fstreamIcSt11char_traitsIcEED2Ev
__ZNSt13basic_fstreamIcSt11char_traitsIcEEaSEOS2_
__ZNSt13basic_fstreamIwSt11char_traitsIwEE4openEPKcSt13_Ios_Openmode
__ZNSt13basic_fstreamIwSt11char_traitsIwEE4openEPKwSt13_Ios_Openmode
__ZNSt13basic_fstreamIwSt11char_traitsIwEE4openERKNSt7__cxx1112basic_stringIcS0_IcESaIcEEESt13_Ios_Openmode
__ZNSt13basic_fstreamIwSt11char_traitsIwEE4swapERS2_
__ZNSt13basic_fstreamIwSt11char_traitsIwEE5closeEv
__ZNSt13basic_fstreamIwSt11char_traitsIwEE7is_openEv
__ZNSt13basic_fstreamIwSt11char_traitsIwEEC1EOS2_
__ZNSt13basic_fstreamIwSt11char_traitsIwEEC1EPKcSt13_Ios_Openmode
__ZNSt13basic_fstreamIwSt11char_traitsIwEEC1EPKwSt13_Ios_Openmode
__ZNSt13basic_fstreamIwSt11char_traitsIwEEC1ERKNSt7__cxx1112basic_stringIcS0_IcESaIcEEESt13_Ios_Openmode
__ZNSt13basic_fstreamIwSt11char_traitsIwEEC1Ev
__ZNSt13basic_fstreamIwSt11char_traitsIwEEC2EOS2_
__ZNSt13basic_fstreamIwSt11char_traitsIwEEC2EPKcSt13_Ios_Openmode
__ZNSt13basic_fstreamIwSt11char_traitsIwEEC2EPKwSt13_Ios_Openmode
__ZNSt13basic_fstreamIwSt11char_traitsIwEEC2ERKNSt7__cxx1112basic_stringIcS0_IcESaIcEEESt13_Ios_Openmode
__ZNSt13basic_fstreamIwSt11char_traitsIwEEC2Ev
__ZNSt13basic_fstreamIwSt11char_traitsIwEED0Ev
__ZNSt13basic_fstreamIwSt11char_traitsIwEED1Ev
__ZNSt13basic_fstreamIwSt11char_traitsIwEED2Ev
__ZNSt13basic_fstreamIwSt11char_traitsIwEEaSEOS2_
__ZNSt14basic_ifstreamIcSt11char_traitsIcEE4openEPKcSt13_Ios_Openmode
__ZNSt14basic_ifstreamIcSt11char_traitsIcEE4openEPKwSt13_Ios_Openmode
__ZNSt14basic_ifstreamIcSt11char_traitsIcEE4openERKNSt7__cxx1112basic_stringIcS1_SaIcEEESt13_Ios_Openmode
__ZNSt14basic_ifstreamIcSt11char_traitsIcEE4swapERS2_
__ZNSt14basic_ifstreamIcSt11char_traitsIcEE5closeEv
__ZNSt14basic_ifstreamIcSt11char_traitsIcEE7is_openEv
__ZNSt14basic_ifstreamIcSt11char_traitsIcEEC1EOS2_
__ZNSt14basic_ifstreamIcSt11char_traitsIcEEC1EPKcSt13_Ios_Openmode
__ZNSt14basic_ifstreamIcSt11char_traitsIcEEC1EPKwSt13_Ios_Openmode
__ZNSt14basic_ifstreamIcSt11char_traitsIcEEC1ERKNSt7__cxx1112basic_stringIcS1_SaIcEEESt13_Ios_Openmode
__ZNSt14basic_ifstreamIcSt11char_traitsIcEEC1Ev
__ZNSt14basic_ifstreamIcSt11char_traitsIcEEC2EOS2_
__ZNSt14basic_ifstreamIcSt11char_traitsIcEEC2EPKcSt13_Ios_Openmode
__ZNSt14basic_ifstreamIcSt11char_traitsIcEEC2EPKwSt13_Ios_Openmode
__ZNSt14basic_ifstreamIcSt11char_traitsIcEEC2ERKNSt7__cxx1112basic_stringIcS1_SaIcEEESt13_Ios_Openmode
__ZNSt14basic_ifstreamIcSt11char_traitsIcEEC2Ev
__ZNSt14basic_ifstreamIcSt11char_traitsIcEED0Ev
__ZNSt14basic_ifstreamIcSt11char_traitsIcEED1Ev
__ZNSt14basic_ifstreamIcSt11char_traitsIcEED2Ev
__ZNSt14basic_ifstreamIcSt11char_traitsIcEEaSEOS2_
__ZNSt14basic_ifstreamIwSt11char_traitsIwEE4openEPKcSt13_Ios_Openmode
__ZNSt14basic_ifstreamIwSt11char_traitsIwEE4openEPKwSt13_Ios_Openmode
__ZNSt14basic_ifstreamIwSt11char_traitsIwEE4openERKNSt7__cxx1112basic_stringIcS0_IcESaIcEEESt13_Ios_Openmode
__ZNSt14basic_ifstreamIwSt11char_traitsIwEE4swapERS2_
__ZNSt14basic_ifstreamIwSt11char_traitsIwEE5closeEv
__ZNSt14basic_ifstreamIwSt11char_traitsIwEE7is_openEv
__ZNSt14basic_ifstreamIwSt11char_traitsIwEEC1EOS2_
__ZNSt14basic_ifstreamIwSt11char_traitsIwEEC1EPKcSt13_Ios_Openmode
__ZNSt14basic_ifstreamIwSt11char_traitsIwEEC1EPKwSt13_Ios_Openmode
__ZNSt14basic_ifstreamIwSt11char_traitsIwEEC1ERKNSt7__cxx1112basic_stringIcS0_IcESaIcEEESt13_Ios_Openmode
__ZNSt14basic_ifstreamIwSt11char_traitsIwEEC1Ev
__ZNSt14basic_ifstreamIwSt11char_traitsIwEEC2EOS2_
__ZNSt14basic_ifstreamIwSt11char_traitsIwEEC2EPKcSt13_Ios_Openmode
__ZNSt14basic_ifstreamIwSt11char_traitsIwEEC2EPKwSt13_Ios_Openmode
__ZNSt14basic_ifstreamIwSt11char_traitsIwEEC2ERKNSt7__cxx1112basic_stringIcS0_IcESaIcEEESt13_Ios_Openmode
__ZNSt14basic_ifstreamIwSt11char_traitsIwEEC2Ev
__ZNSt14basic_ifstreamIwSt11char_traitsIwEED0Ev
__ZNSt14basic_ifstreamIwSt11char_traitsIwEED1Ev
__ZNSt14basic_ifstreamIwSt11char_traitsIwEED2Ev
__ZNSt14basic_ifstreamIwSt11char_traitsIwEEaSEOS2_
__ZNSt14basic_ofstreamIcSt11char_traitsIcEE4openEPKcSt13_Ios_Openmode
__ZNSt14basic_ofstreamIcSt11char_traitsIcEE4openEPKwSt13_Ios_Openmode
__ZNSt14basic_ofstreamIcSt11char_traitsIcEE4openERKNSt7__cxx1112basic_stringIcS1_SaIcEEESt13_Ios_Openmode
__ZNSt14basic_ofstreamIcSt11char_traitsIcEE4swapERS2_
__ZNSt14basic_ofstreamIcSt11char_traitsIcEE5closeEv
__ZNSt14basic_ofstreamIcSt11char_traitsIcEE7is_openEv
__ZNSt14basic_ofstreamIcSt11char_traitsIcEEC1EOS2_
__ZNSt14basic_ofstreamIcSt11char_traitsIcEEC1EPKcSt13_Ios_Openmode
__ZNSt14basic_ofstreamIcSt11char_traitsIcEEC1EPKwSt13_Ios_Openmode
__ZNSt14basic_ofstreamIcSt11char_traitsIcEEC1ERKNSt7__cxx1112basic_stringIcS1_SaIcEEESt13_Ios_Openmode
__ZNSt14basic_ofstreamIcSt11char_traitsIcEEC1Ev
__ZNSt14basic_ofstreamIcSt11char_traitsIcEEC2EOS2_
__ZNSt14basic_ofstreamIcSt11char_traitsIcEEC2EPKcSt13_Ios_Openmode
__ZNSt14basic_ofstreamIcSt11char_traitsIcEEC2EPKwSt13_Ios_Openmode
__ZNSt14basic_ofstreamIcSt11char_traitsIcEEC2ERKNSt7__cxx1112basic_stringIcS1_SaIcEEESt13_Ios_Openmode
__ZNSt14basic_ofstreamIcSt11char_traitsIcEEC2Ev
__ZNSt14basic_ofstreamIcSt11char_traitsIcEED0Ev
__ZNSt14basic_ofstreamIcSt11char_traitsIcEED1Ev
__ZNSt14basic_ofstreamIcSt11char_traitsIcEED2Ev
__ZNSt14basic_ofstreamIcSt11char_traitsIcEEaSEOS2_
__ZNSt14basic_ofstreamIwSt11char_traitsIwEE4openEPKcSt13_Ios_Openmode
__ZNSt14basic_ofstreamIwSt11char_traitsIwEE4openEPKwSt13_Ios_Openmode
__ZNSt14basic_ofstreamIwSt11char_traitsIwEE4openERKNSt7__cxx1112basic_stringIcS0_IcESaIcEEESt13_Ios_Openmode
__ZNSt14basic_ofstreamIwSt11char_traitsIwEE4swapERS2_
__ZNSt14basic_ofstreamIwSt11char_traitsIwEE5closeEv
__ZNSt14basic_ofstreamIwSt11char_traitsIwEE7is_openEv
__ZNSt14basic_ofstreamIwSt11char_traitsIwEEC1EOS2_
__ZNSt14basic_ofstreamIwSt11char_traitsIwEEC1EPKcSt13_Ios_Openmode
__ZNSt14basic_ofstreamIwSt11char_traitsIwEEC1EPKwSt13_Ios_Openmode
__ZNSt14basic_ofstreamIwSt11char_traitsIwEEC1ERKNSt7__cxx1112basic_stringIcS0_IcESaIcEEESt13_Ios_Openmode
__ZNSt14basic_ofstreamIwSt11char_traitsIwEEC1Ev
__ZNSt14basic_ofstreamIwSt11char_traitsIwEEC2EOS2_
__ZNSt14basic_ofstreamIwSt11char_traitsIwEEC2EPKcSt13_Ios_Openmode
__ZNSt14basic_ofstreamIwSt11char_traitsIwEEC2EPKwSt13_Ios_Openmode
__ZNSt14basic_ofstreamIwSt11char_traitsIwEEC2ERKNSt7__cxx1112basic_stringIcS0_IcESaIcEEESt13_Ios_Openmode
__ZNSt14basic_ofstreamIwSt11char_traitsIwEEC2Ev
__ZNSt14basic_ofstreamIwSt11char_traitsIwEED0Ev
__ZNSt14basic_ofstreamIwSt11char_traitsIwEED1Ev
__ZNSt14basic_ofstreamIwSt11char_traitsIwEED2Ev
__ZNSt14basic_ofstreamIwSt11char_traitsIwEEaSEOS2_
__ZThn8_NSt13basic_fstreamIcSt11char_traitsIcEED0Ev
__ZThn8_NSt13basic_fstreamIcSt11char_traitsIcEED1Ev
__ZThn8_NSt13basic_fstreamIwSt11char_traitsIwEED0Ev
__ZThn8_NSt13basic_fstreamIwSt11char_traitsIwEED1Ev
__ZTv0_n12_NSt13basic_fstreamIcSt11char_traitsIcEED0Ev
__ZTv0_n12_NSt13basic_fstreamIcSt11char_traitsIcEED1Ev
__ZTv0_n12_NSt13basic_fstreamIwSt11char_traitsIwEED0Ev
__ZTv0_n12_NSt13basic_fstreamIwSt11char_traitsIwEED1Ev
__ZTv0_n12_NSt14basic_ifstreamIcSt11char_traitsIcEED0Ev
__ZTv0_n12_NSt14basic_ifstreamIcSt11char_traitsIcEED1Ev
__ZTv0_n12_NSt14basic_ifstreamIwSt11char_traitsIwEED0Ev
__ZTv0_n12_NSt14basic_ifstreamIwSt11char_traitsIwEED1Ev
__ZTv0_n12_NSt14basic_ofstreamIcSt11char_traitsIcEED0Ev
__ZTv0_n12_NSt14basic_ofstreamIcSt11char_traitsIcEED1Ev
__ZTv0_n12_NSt14basic_ofstreamIwSt11char_traitsIwEED0Ev
__ZTv0_n12_NSt14basic_ofstreamIwSt11char_traitsIwEED1Ev
__ZZNSt13basic_filebufIcSt11char_traitsIcEE5closeEvEN14__close_sentryD1Ev
__ZZNSt13basic_filebufIwSt11char_traitsIwEE5closeEvEN14__close_sentryD1Ev
__ZSt16__throw_bad_castv
__ZSt17__throw_bad_allocv
__ZSt18__throw_bad_typeidv
__ZSt19__throw_logic_errorPKc
__ZSt19__throw_range_errorPKc
__ZSt20__throw_domain_errorPKc
__ZSt20__throw_length_errorPKc
__ZSt20__throw_out_of_rangePKc
__ZSt21__throw_bad_exceptionv
__ZSt21__throw_runtime_errorPKc
__ZSt22__throw_overflow_errorPKc
__ZSt23__throw_underflow_errorPKc
__ZSt24__throw_invalid_argumentPKc
__ZSt24__throw_out_of_range_fmtPKcz
__ZNKSt17bad_function_call4whatEv
__ZNSt17bad_function_callD0Ev
__ZNSt17bad_function_callD1Ev
__ZNSt17bad_function_callD2Ev
__ZSt25__throw_bad_function_callv
__ZNKSt12future_error4whatEv
__ZNSt12future_errorC1ESt10error_code
__ZNSt12future_errorD0Ev
__ZNSt12future_errorD1Ev
__ZNSt12future_errorD2Ev
__ZNSt13__future_base12_Result_baseC1Ev
__ZNSt13__future_base12_Result_baseC2Ev
__ZNSt13__future_base12_Result_baseD0Ev
__ZNSt13__future_base12_Result_baseD1Ev
__ZNSt13__future_base12_Result_baseD2Ev
__ZNSt13__future_base13_State_baseV211_Make_ready6_M_setEv
__ZNSt13__future_base13_State_baseV211_Make_ready6_S_runEPv
__ZNSt15_Sp_counted_ptrIDnLN9__gnu_cxx12_Lock_policyE2EE10_M_disposeEv
__ZNSt16_Sp_counted_baseILN9__gnu_cxx12_Lock_policyE2EE10_M_destroyEv
__ZNSt16_Sp_counted_baseILN9__gnu_cxx12_Lock_policyE2EE10_M_releaseEv
__ZSt15future_categoryv
__ZSt20__throw_future_errori
__ZNKSt4hashIeEclEe
__ZNKSt8__detail20_Prime_rehash_policy11_M_next_bktEj
__ZNKSt8__detail20_Prime_rehash_policy14_M_need_rehashEjjj
__ZNKSt5ctypeIcE8do_widenEc
__ZNKSt5ctypeIcE9do_narrowEcc
__ZNKSt9basic_iosIcSt11char_traitsIcEE10exceptionsEv
__ZNKSt9basic_iosIcSt11char_traitsIcEE3badEv
__ZNKSt9basic_iosIcSt11char_traitsIcEE3eofEv
__ZNKSt9basic_iosIcSt11char_traitsIcEE3tieEv
__ZNKSt9basic_iosIcSt11char_traitsIcEE4failEv
__ZNKSt9basic_iosIcSt11char_traitsIcEE4fillEv
__ZNKSt9basic_iosIcSt11char_traitsIcEE4goodEv
__ZNKSt9basic_iosIcSt11char_traitsIcEE5rdbufEv
__ZNKSt9basic_iosIcSt11char_traitsIcEE5widenEc
__ZNKSt9basic_iosIcSt11char_traitsIcEE6narrowEcc
__ZNKSt9basic_iosIcSt11char_traitsIcEE7rdstateEv
__ZNKSt9basic_iosIcSt11char_traitsIcEEcvbEv
__ZNKSt9basic_iosIcSt11char_traitsIcEEntEv
__ZNKSt9basic_iosIwSt11char_traitsIwEE10exceptionsEv
__ZNKSt9basic_iosIwSt11char_traitsIwEE3badEv
__ZNKSt9basic_iosIwSt11char_traitsIwEE3eofEv
__ZNKSt9basic_iosIwSt11char_traitsIwEE3tieEv
__ZNKSt9basic_iosIwSt11char_traitsIwEE4failEv
__ZNKSt9basic_iosIwSt11char_traitsIwEE4fillEv
__ZNKSt9basic_iosIwSt11char_traitsIwEE4goodEv
__ZNKSt9basic_iosIwSt11char_traitsIwEE5rdbufEv
__ZNKSt9basic_iosIwSt11char_traitsIwEE5widenEc
__ZNKSt9basic_iosIwSt11char_traitsIwEE6narrowEwc
__ZNKSt9basic_iosIwSt11char_traitsIwEE7rdstateEv
__ZNKSt9basic_iosIwSt11char_traitsIwEEcvbEv
__ZNKSt9basic_iosIwSt11char_traitsIwEEntEv
__ZNSt9basic_iosIcSt11char_traitsIcEE10exceptionsESt12_Ios_Iostate
__ZNSt9basic_iosIcSt11char_traitsIcEE11_M_setstateESt12_Ios_Iostate
__ZNSt9basic_iosIcSt11char_traitsIcEE15_M_cache_localeERKSt6locale
__ZNSt9basic_iosIcSt11char_traitsIcEE3tieEPSo
__ZNSt9basic_iosIcSt11char_traitsIcEE4fillEc
__ZNSt9basic_iosIcSt11char_traitsIcEE4initEPSt15basic_streambufIcS1_E
__ZNSt9basic_iosIcSt11char_traitsIcEE4moveEOS2_
__ZNSt9basic_iosIcSt11char_traitsIcEE4moveERS2_
__ZNSt9basic_iosIcSt11char_traitsIcEE4swapERS2_
__ZNSt9basic_iosIcSt11char_traitsIcEE5clearESt12_Ios_Iostate
__ZNSt9basic_iosIcSt11char_traitsIcEE5imbueERKSt6locale
__ZNSt9basic_iosIcSt11char_traitsIcEE5rdbufEPSt15basic_streambufIcS1_E
__ZNSt9basic_iosIcSt11char_traitsIcEE7copyfmtERKS2_
__ZNSt9basic_iosIcSt11char_traitsIcEE8setstateESt12_Ios_Iostate
__ZNSt9basic_iosIcSt11char_traitsIcEE9set_rdbufEPSt15basic_streambufIcS1_E
__ZNSt9basic_iosIcSt11char_traitsIcEEC1EPSt15basic_streambufIcS1_E
__ZNSt9basic_iosIcSt11char_traitsIcEEC1Ev
__ZNSt9basic_iosIcSt11char_traitsIcEEC2EPSt15basic_streambufIcS1_E
__ZNSt9basic_iosIcSt11char_traitsIcEEC2Ev
__ZNSt9basic_iosIcSt11char_traitsIcEED0Ev
__ZNSt9basic_iosIcSt11char_traitsIcEED1Ev
__ZNSt9basic_iosIcSt11char_traitsIcEED2Ev
__ZNSt9basic_iosIwSt11char_traitsIwEE10exceptionsESt12_Ios_Iostate
__ZNSt9basic_iosIwSt11char_traitsIwEE11_M_setstateESt12_Ios_Iostate
__ZNSt9basic_iosIwSt11char_traitsIwEE15_M_cache_localeERKSt6locale
__ZNSt9basic_iosIwSt11char_traitsIwEE3tieEPSt13basic_ostreamIwS1_E
__ZNSt9basic_iosIwSt11char_traitsIwEE4fillEw
__ZNSt9basic_iosIwSt11char_traitsIwEE4initEPSt15basic_streambufIwS1_E
__ZNSt9basic_iosIwSt11char_traitsIwEE4moveEOS2_
__ZNSt9basic_iosIwSt11char_traitsIwEE4moveERS2_
__ZNSt9basic_iosIwSt11char_traitsIwEE4swapERS2_
__ZNSt9basic_iosIwSt11char_traitsIwEE5clearESt12_Ios_Iostate
__ZNSt9basic_iosIwSt11char_traitsIwEE5imbueERKSt6locale
__ZNSt9basic_iosIwSt11char_traitsIwEE5rdbufEPSt15basic_streambufIwS1_E
__ZNSt9basic_iosIwSt11char_traitsIwEE7copyfmtERKS2_
__ZNSt9basic_iosIwSt11char_traitsIwEE8setstateESt12_Ios_Iostate
__ZNSt9basic_iosIwSt11char_traitsIwEE9set_rdbufEPSt15basic_streambufIwS1_E
__ZNSt9basic_iosIwSt11char_traitsIwEEC1EPSt15basic_streambufIwS1_E
__ZNSt9basic_iosIwSt11char_traitsIwEEC1Ev
__ZNSt9basic_iosIwSt11char_traitsIwEEC2EPSt15basic_streambufIwS1_E
__ZNSt9basic_iosIwSt11char_traitsIwEEC2Ev
__ZNSt9basic_iosIwSt11char_traitsIwEED0Ev
__ZNSt9basic_iosIwSt11char_traitsIwEED1Ev
__ZNSt9basic_iosIwSt11char_traitsIwEED2Ev
__ZNSt8ios_base13_M_grow_wordsEib
__ZNSt8ios_base17_M_call_callbacksENS_5eventE
__ZNSt8ios_base17register_callbackEPFvNS_5eventERS_iEi
__ZNSt8ios_base20_M_dispose_callbacksEv
__ZNSt8ios_base6xallocEv
__ZNSt8ios_base7_M_moveERS_
__ZNSt8ios_base7_M_swapERS_
__ZNSt8ios_baseC1Ev
__ZNSt8ios_baseC2Ev
__ZNSt8ios_baseD0Ev
__ZNSt8ios_baseD1Ev
__ZNSt8ios_baseD2Ev
__ZNSd4swapERSd
__ZNSdC1EOSd
__ZNSdC1EPSt15basic_streambufIcSt11char_traitsIcEE
__ZNSdC1Ev
__ZNSdC2EOSd
__ZNSdC2EPSt15basic_streambufIcSt11char_traitsIcEE
__ZNSdC2Ev
__ZNSdD0Ev
__ZNSdD1Ev
__ZNSdD2Ev
__ZNSdaSEOSd
__ZNSt14basic_iostreamIwSt11char_traitsIwEE4swapERS2_
__ZNSt14basic_iostreamIwSt11char_traitsIwEEC1EOS2_
__ZNSt14basic_iostreamIwSt11char_traitsIwEEC1EPSt15basic_streambufIwS1_E
__ZNSt14basic_iostreamIwSt11char_traitsIwEEC1Ev
__ZNSt14basic_iostreamIwSt11char_traitsIwEEC2EOS2_
__ZNSt14basic_iostreamIwSt11char_traitsIwEEC2EPSt15basic_streambufIwS1_E
__ZNSt14basic_iostreamIwSt11char_traitsIwEEC2Ev
__ZNSt14basic_iostreamIwSt11char_traitsIwEED0Ev
__ZNSt14basic_iostreamIwSt11char_traitsIwEED1Ev
__ZNSt14basic_iostreamIwSt11char_traitsIwEED2Ev
__ZNSt14basic_iostreamIwSt11char_traitsIwEEaSEOS2_
__ZSt7setfillIcESt8_SetfillIT_ES1_
__ZSt7setfillIwESt8_SetfillIT_ES1_
__ZThn8_NSdD0Ev
__ZThn8_NSdD1Ev
__ZThn8_NSt14basic_iostreamIwSt11char_traitsIwEED0Ev
__ZThn8_NSt14basic_iostreamIwSt11char_traitsIwEED1Ev
__ZTv0_n12_NSdD0Ev
__ZTv0_n12_NSdD1Ev
__ZTv0_n12_NSt14basic_iostreamIwSt11char_traitsIwEED0Ev
__ZTv0_n12_NSt14basic_iostreamIwSt11char_traitsIwEED1Ev
__ZNKSi6gcountEv
__ZNKSi6sentrycvbEv
__ZNKSt13basic_istreamIwSt11char_traitsIwEE6gcountEv
__ZNKSt13basic_istreamIwSt11char_traitsIwEE6sentrycvbEv
__ZNKSt5ctypeIcE8do_widenEc
__ZNSi10_M_extractIPvEERSiRT_
__ZNSi10_M_extractIbEERSiRT_
__ZNSi10_M_extractIdEERSiRT_
__ZNSi10_M_extractIeEERSiRT_
__ZNSi10_M_extractIfEERSiRT_
__ZNSi10_M_extractIjEERSiRT_
__ZNSi10_M_extractIlEERSiRT_
__ZNSi10_M_extractImEERSiRT_
__ZNSi10_M_extractItEERSiRT_
__ZNSi10_M_extractIxEERSiRT_
__ZNSi10_M_extractIyEERSiRT_
__ZNSi3getEPci
__ZNSi3getEPcic
__ZNSi3getERSt15basic_streambufIcSt11char_traitsIcEE
__ZNSi3getERSt15basic_streambufIcSt11char_traitsIcEEc
__ZNSi3getERc
__ZNSi3getEv
__ZNSi4peekEv
__ZNSi4readEPci
__ZNSi4swapERSi
__ZNSi4syncEv
__ZNSi5seekgESt4fposIiE
__ZNSi5seekgExSt12_Ios_Seekdir
__ZNSi5tellgEv
__ZNSi5ungetEv
__ZNSi6ignoreEv
__ZNSi6sentryC1ERSib
__ZNSi6sentryC2ERSib
__ZNSi7getlineEPci
__ZNSi7putbackEc
__ZNSi8readsomeEPci
__ZNSiC1EOSi
__ZNSiC1EPSt15basic_streambufIcSt11char_traitsIcEE
__ZNSiC1Ev
__ZNSiC2EOSi
__ZNSiC2EPSt15basic_streambufIcSt11char_traitsIcEE
__ZNSiC2Ev
__ZNSiD0Ev
__ZNSiD1Ev
__ZNSiD2Ev
__ZNSiaSEOSi
__ZNSirsEPFRSiS_E
__ZNSirsEPFRSt8ios_baseS0_E
__ZNSirsEPFRSt9basic_iosIcSt11char_traitsIcEES3_E
__ZNSirsEPSt15basic_streambufIcSt11char_traitsIcEE
__ZNSirsERPv
__ZNSirsERb
__ZNSirsERd
__ZNSirsERe
__ZNSirsERf
__ZNSirsERi
__ZNSirsERj
__ZNSirsERl
__ZNSirsERm
__ZNSirsERs
__ZNSirsERt
__ZNSirsERx
__ZNSirsERy
__ZNSt13basic_istreamIwSt11char_traitsIwEE10_M_extractIPvEERS2_RT_
__ZNSt13basic_istreamIwSt11char_traitsIwEE10_M_extractIbEERS2_RT_
__ZNSt13basic_istreamIwSt11char_traitsIwEE10_M_extractIdEERS2_RT_
__ZNSt13basic_istreamIwSt11char_traitsIwEE10_M_extractIeEERS2_RT_
__ZNSt13basic_istreamIwSt11char_traitsIwEE10_M_extractIfEERS2_RT_
__ZNSt13basic_istreamIwSt11char_traitsIwEE10_M_extractIjEERS2_RT_
__ZNSt13basic_istreamIwSt11char_traitsIwEE10_M_extractIlEERS2_RT_
__ZNSt13basic_istreamIwSt11char_traitsIwEE10_M_extractImEERS2_RT_
__ZNSt13basic_istreamIwSt11char_traitsIwEE10_M_extractItEERS2_RT_
__ZNSt13basic_istreamIwSt11char_traitsIwEE10_M_extractIxEERS2_RT_
__ZNSt13basic_istreamIwSt11char_traitsIwEE10_M_extractIyEERS2_RT_
__ZNSt13basic_istreamIwSt11char_traitsIwEE3getEPwi
__ZNSt13basic_istreamIwSt11char_traitsIwEE3getEPwiw
__ZNSt13basic_istreamIwSt11char_traitsIwEE3getERSt15basic_streambufIwS1_E
__ZNSt13basic_istreamIwSt11char_traitsIwEE3getERSt15basic_streambufIwS1_Ew
__ZNSt13basic_istreamIwSt11char_traitsIwEE3getERw
__ZNSt13basic_istreamIwSt11char_traitsIwEE3getEv
__ZNSt13basic_istreamIwSt11char_traitsIwEE4peekEv
__ZNSt13basic_istreamIwSt11char_traitsIwEE4readEPwi
__ZNSt13basic_istreamIwSt11char_traitsIwEE4swapERS2_
__ZNSt13basic_istreamIwSt11char_traitsIwEE4syncEv
__ZNSt13basic_istreamIwSt11char_traitsIwEE5seekgESt4fposIiE
__ZNSt13basic_istreamIwSt11char_traitsIwEE5seekgExSt12_Ios_Seekdir
__ZNSt13basic_istreamIwSt11char_traitsIwEE5tellgEv
__ZNSt13basic_istreamIwSt11char_traitsIwEE5ungetEv
__ZNSt13basic_istreamIwSt11char_traitsIwEE6ignoreEv
__ZNSt13basic_istreamIwSt11char_traitsIwEE6sentryC1ERS2_b
__ZNSt13basic_istreamIwSt11char_traitsIwEE6sentryC2ERS2_b
__ZNSt13basic_istreamIwSt11char_traitsIwEE7getlineEPwi
__ZNSt13basic_istreamIwSt11char_traitsIwEE7putbackEw
__ZNSt13basic_istreamIwSt11char_traitsIwEE8readsomeEPwi
__ZNSt13basic_istreamIwSt11char_traitsIwEEC1EOS2_
__ZNSt13basic_istreamIwSt11char_traitsIwEEC1EPSt15basic_streambufIwS1_E
__ZNSt13basic_istreamIwSt11char_traitsIwEEC1Ev
__ZNSt13basic_istreamIwSt11char_traitsIwEEC2EOS2_
__ZNSt13basic_istreamIwSt11char_traitsIwEEC2EPSt15basic_streambufIwS1_E
__ZNSt13basic_istreamIwSt11char_traitsIwEEC2Ev
__ZNSt13basic_istreamIwSt11char_traitsIwEED0Ev
__ZNSt13basic_istreamIwSt11char_traitsIwEED1Ev
__ZNSt13basic_istreamIwSt11char_traitsIwEED2Ev
__ZNSt13basic_istreamIwSt11char_traitsIwEEaSEOS2_
__ZNSt13basic_istreamIwSt11char_traitsIwEErsEPFRS2_S3_E
__ZNSt13basic_istreamIwSt11char_traitsIwEErsEPFRSt8ios_baseS4_E
__ZNSt13basic_istreamIwSt11char_traitsIwEErsEPFRSt9basic_iosIwS1_ES5_E
__ZNSt13basic_istreamIwSt11char_traitsIwEErsEPSt15basic_streambufIwS1_E
__ZNSt13basic_istreamIwSt11char_traitsIwEErsERPv
__ZNSt13basic_istreamIwSt11char_traitsIwEErsERb
__ZNSt13basic_istreamIwSt11char_traitsIwEErsERd
__ZNSt13basic_istreamIwSt11char_traitsIwEErsERe
__ZNSt13basic_istreamIwSt11char_traitsIwEErsERf
__ZNSt13basic_istreamIwSt11char_traitsIwEErsERi
__ZNSt13basic_istreamIwSt11char_traitsIwEErsERj
__ZNSt13basic_istreamIwSt11char_traitsIwEErsERl
__ZNSt13basic_istreamIwSt11char_traitsIwEErsERm
__ZNSt13basic_istreamIwSt11char_traitsIwEErsERs
__ZNSt13basic_istreamIwSt11char_traitsIwEErsERt
__ZNSt13basic_istreamIwSt11char_traitsIwEErsERx
__ZNSt13basic_istreamIwSt11char_traitsIwEErsERy
__ZSt2wsIcSt11char_traitsIcEERSt13basic_istreamIT_T0_ES6_
__ZSt2wsIwSt11char_traitsIwEERSt13basic_istreamIT_T0_ES6_
__ZStrsISt11char_traitsIcEERSt13basic_istreamIcT_ES5_Pa
__ZStrsISt11char_traitsIcEERSt13basic_istreamIcT_ES5_Ph
__ZStrsISt11char_traitsIcEERSt13basic_istreamIcT_ES5_Ra
__ZStrsISt11char_traitsIcEERSt13basic_istreamIcT_ES5_Rh
__ZStrsIcSt11char_traitsIcEERSt13basic_istreamIT_T0_ES6_RS3_
__ZStrsIcSt11char_traitsIcEERSt13basic_istreamIT_T0_ES6_St12_Setiosflags
__ZStrsIcSt11char_traitsIcEERSt13basic_istreamIT_T0_ES6_St13_Setprecision
__ZStrsIcSt11char_traitsIcEERSt13basic_istreamIT_T0_ES6_St14_Resetiosflags
__ZStrsIcSt11char_traitsIcEERSt13basic_istreamIT_T0_ES6_St5_Setw
__ZStrsIcSt11char_traitsIcEERSt13basic_istreamIT_T0_ES6_St8_Setbase
__ZStrsIcSt11char_traitsIcEERSt13basic_istreamIT_T0_ES6_St8_SetfillIS3_E
__ZStrsIwSt11char_traitsIwEERSt13basic_istreamIT_T0_ES6_PS3_
__ZStrsIwSt11char_traitsIwEERSt13basic_istreamIT_T0_ES6_RS3_
__ZStrsIwSt11char_traitsIwEERSt13basic_istreamIT_T0_ES6_St12_Setiosflags
__ZStrsIwSt11char_traitsIwEERSt13basic_istreamIT_T0_ES6_St13_Setprecision
__ZStrsIwSt11char_traitsIwEERSt13basic_istreamIT_T0_ES6_St14_Resetiosflags
__ZStrsIwSt11char_traitsIwEERSt13basic_istreamIT_T0_ES6_St5_Setw
__ZStrsIwSt11char_traitsIwEERSt13basic_istreamIT_T0_ES6_St8_Setbase
__ZStrsIwSt11char_traitsIwEERSt13basic_istreamIT_T0_ES6_St8_SetfillIS3_E
__ZTv0_n12_NSiD0Ev
__ZTv0_n12_NSiD1Ev
__ZTv0_n12_NSt13basic_istreamIwSt11char_traitsIwEED0Ev
__ZTv0_n12_NSt13basic_istreamIwSt11char_traitsIwEED1Ev
__ZNKSt10moneypunctIcLb0EE10neg_formatEv
__ZNKSt10moneypunctIcLb0EE10pos_formatEv
__ZNKSt10moneypunctIcLb0EE11curr_symbolEv
__ZNKSt10moneypunctIcLb0EE11do_groupingEv
__ZNKSt10moneypunctIcLb0EE11frac_digitsEv
__ZNKSt10moneypunctIcLb0EE13decimal_pointEv
__ZNKSt10moneypunctIcLb0EE13do_neg_formatEv
__ZNKSt10moneypunctIcLb0EE13do_pos_formatEv
__ZNKSt10moneypunctIcLb0EE13negative_signEv
__ZNKSt10moneypunctIcLb0EE13positive_signEv
__ZNKSt10moneypunctIcLb0EE13thousands_sepEv
__ZNKSt10moneypunctIcLb0EE14do_curr_symbolEv
__ZNKSt10moneypunctIcLb0EE14do_frac_digitsEv
__ZNKSt10moneypunctIcLb0EE16do_decimal_pointEv
__ZNKSt10moneypunctIcLb0EE16do_negative_signEv
__ZNKSt10moneypunctIcLb0EE16do_positive_signEv
__ZNKSt10moneypunctIcLb0EE16do_thousands_sepEv
__ZNKSt10moneypunctIcLb0EE8groupingEv
__ZNKSt10moneypunctIcLb1EE10neg_formatEv
__ZNKSt10moneypunctIcLb1EE10pos_formatEv
__ZNKSt10moneypunctIcLb1EE11curr_symbolEv
__ZNKSt10moneypunctIcLb1EE11do_groupingEv
__ZNKSt10moneypunctIcLb1EE11frac_digitsEv
__ZNKSt10moneypunctIcLb1EE13decimal_pointEv
__ZNKSt10moneypunctIcLb1EE13do_neg_formatEv
__ZNKSt10moneypunctIcLb1EE13do_pos_formatEv
__ZNKSt10moneypunctIcLb1EE13negative_signEv
__ZNKSt10moneypunctIcLb1EE13positive_signEv
__ZNKSt10moneypunctIcLb1EE13thousands_sepEv
__ZNKSt10moneypunctIcLb1EE14do_curr_symbolEv
__ZNKSt10moneypunctIcLb1EE14do_frac_digitsEv
__ZNKSt10moneypunctIcLb1EE16do_decimal_pointEv
__ZNKSt10moneypunctIcLb1EE16do_negative_signEv
__ZNKSt10moneypunctIcLb1EE16do_positive_signEv
__ZNKSt10moneypunctIcLb1EE16do_thousands_sepEv
__ZNKSt10moneypunctIcLb1EE8groupingEv
__ZNKSt11__timepunctIcE15_M_am_pm_formatEPKc
__ZNKSt11__timepunctIcE15_M_date_formatsEPPKc
__ZNKSt11__timepunctIcE15_M_time_formatsEPPKc
__ZNKSt11__timepunctIcE19_M_days_abbreviatedEPPKc
__ZNKSt11__timepunctIcE20_M_date_time_formatsEPPKc
__ZNKSt11__timepunctIcE21_M_months_abbreviatedEPPKc
__ZNKSt11__timepunctIcE7_M_daysEPPKc
__ZNKSt11__timepunctIcE8_M_am_pmEPPKc
__ZNKSt11__timepunctIcE9_M_monthsEPPKc
__ZNKSt11__use_cacheISt16__numpunct_cacheIcEEclERKSt6locale
__ZNKSt19istreambuf_iteratorIcSt11char_traitsIcEE5equalERKS2_
__ZNKSt19istreambuf_iteratorIcSt11char_traitsIcEE6_M_getEv
__ZNKSt5ctypeIcE5widenEPKcS2_Pc
__ZNKSt5ctypeIcE6narrowEcc
__ZNKSt5ctypeIcE8do_widenEPKcS2_Pc
__ZNKSt5ctypeIcE8do_widenEc
__ZNKSt5ctypeIcE9do_narrowEcc
__ZNKSt7collateIcE10do_compareEPKcS2_S2_S2_
__ZNKSt7collateIcE12do_transformEPKcS2_
__ZNKSt7collateIcE4hashEPKcS2_
__ZNKSt7collateIcE7compareEPKcS2_S2_S2_
__ZNKSt7collateIcE7do_hashEPKcS2_
__ZNKSt7collateIcE9transformEPKcS2_
__ZNKSt7num_getIcSt19istreambuf_iteratorIcSt11char_traitsIcEEE14_M_extract_intIjEES3_S3_S3_RSt8ios_baseRSt12_Ios_IostateRT_
__ZNKSt7num_getIcSt19istreambuf_iteratorIcSt11char_traitsIcEEE14_M_extract_intIlEES3_S3_S3_RSt8ios_baseRSt12_Ios_IostateRT_
__ZNKSt7num_getIcSt19istreambuf_iteratorIcSt11char_traitsIcEEE14_M_extract_intImEES3_S3_S3_RSt8ios_baseRSt12_Ios_IostateRT_
__ZNKSt7num_getIcSt19istreambuf_iteratorIcSt11char_traitsIcEEE14_M_extract_intItEES3_S3_S3_RSt8ios_baseRSt12_Ios_IostateRT_
__ZNKSt7num_getIcSt19istreambuf_iteratorIcSt11char_traitsIcEEE14_M_extract_intIxEES3_S3_S3_RSt8ios_baseRSt12_Ios_IostateRT_
__ZNKSt7num_getIcSt19istreambuf_iteratorIcSt11char_traitsIcEEE14_M_extract_intIyEES3_S3_S3_RSt8ios_baseRSt12_Ios_IostateRT_
__ZNKSt7num_getIcSt19istreambuf_iteratorIcSt11char_traitsIcEEE16_M_extract_floatES3_S3_RSt8ios_baseRSt12_Ios_IostateRSs
__ZNKSt7num_getIcSt19istreambuf_iteratorIcSt11char_traitsIcEEE3getES3_S3_RSt8ios_baseRSt12_Ios_IostateRPv
__ZNKSt7num_getIcSt19istreambuf_iteratorIcSt11char_traitsIcEEE3getES3_S3_RSt8ios_baseRSt12_Ios_IostateRb
__ZNKSt7num_getIcSt19istreambuf_iteratorIcSt11char_traitsIcEEE3getES3_S3_RSt8ios_baseRSt12_Ios_IostateRd
__ZNKSt7num_getIcSt19istreambuf_iteratorIcSt11char_traitsIcEEE3getES3_S3_RSt8ios_baseRSt12_Ios_IostateRe
__ZNKSt7num_getIcSt19istreambuf_iteratorIcSt11char_traitsIcEEE3getES3_S3_RSt8ios_baseRSt12_Ios_IostateRf
__ZNKSt7num_getIcSt19istreambuf_iteratorIcSt11char_traitsIcEEE3getES3_S3_RSt8ios_baseRSt12_Ios_IostateRj
__ZNKSt7num_getIcSt19istreambuf_iteratorIcSt11char_traitsIcEEE3getES3_S3_RSt8ios_baseRSt12_Ios_IostateRl
__ZNKSt7num_getIcSt19istreambuf_iteratorIcSt11char_traitsIcEEE3getES3_S3_RSt8ios_baseRSt12_Ios_IostateRm
__ZNKSt7num_getIcSt19istreambuf_iteratorIcSt11char_traitsIcEEE3getES3_S3_RSt8ios_baseRSt12_Ios_IostateRt
__ZNKSt7num_getIcSt19istreambuf_iteratorIcSt11char_traitsIcEEE3getES3_S3_RSt8ios_baseRSt12_Ios_IostateRx
__ZNKSt7num_getIcSt19istreambuf_iteratorIcSt11char_traitsIcEEE3getES3_S3_RSt8ios_baseRSt12_Ios_IostateRy
__ZNKSt7num_getIcSt19istreambuf_iteratorIcSt11char_traitsIcEEE6do_getES3_S3_RSt8ios_baseRSt12_Ios_IostateRPv
__ZNKSt7num_getIcSt19istreambuf_iteratorIcSt11char_traitsIcEEE6do_getES3_S3_RSt8ios_baseRSt12_Ios_IostateRb
__ZNKSt7num_getIcSt19istreambuf_iteratorIcSt11char_traitsIcEEE6do_getES3_S3_RSt8ios_baseRSt12_Ios_IostateRd
__ZNKSt7num_getIcSt19istreambuf_iteratorIcSt11char_traitsIcEEE6do_getES3_S3_RSt8ios_baseRSt12_Ios_IostateRe
__ZNKSt7num_getIcSt19istreambuf_iteratorIcSt11char_traitsIcEEE6do_getES3_S3_RSt8ios_baseRSt12_Ios_IostateRf
__ZNKSt7num_getIcSt19istreambuf_iteratorIcSt11char_traitsIcEEE6do_getES3_S3_RSt8ios_baseRSt12_Ios_IostateRj
__ZNKSt7num_getIcSt19istreambuf_iteratorIcSt11char_traitsIcEEE6do_getES3_S3_RSt8ios_baseRSt12_Ios_IostateRl
__ZNKSt7num_getIcSt19istreambuf_iteratorIcSt11char_traitsIcEEE6do_getES3_S3_RSt8ios_baseRSt12_Ios_IostateRm
__ZNKSt7num_getIcSt19istreambuf_iteratorIcSt11char_traitsIcEEE6do_getES3_S3_RSt8ios_baseRSt12_Ios_IostateRt
__ZNKSt7num_getIcSt19istreambuf_iteratorIcSt11char_traitsIcEEE6do_getES3_S3_RSt8ios_baseRSt12_Ios_IostateRx
__ZNKSt7num_getIcSt19istreambuf_iteratorIcSt11char_traitsIcEEE6do_getES3_S3_RSt8ios_baseRSt12_Ios_IostateRy
__ZNKSt7num_putIcSt19ostreambuf_iteratorIcSt11char_traitsIcEEE12_M_group_intEPKcjcRSt8ios_basePcS9_Ri
__ZNKSt7num_putIcSt19ostreambuf_iteratorIcSt11char_traitsIcEEE13_M_insert_intIlEES3_S3_RSt8ios_basecT_
__ZNKSt7num_putIcSt19ostreambuf_iteratorIcSt11char_traitsIcEEE13_M_insert_intImEES3_S3_RSt8ios_basecT_
__ZNKSt7num_putIcSt19ostreambuf_iteratorIcSt11char_traitsIcEEE13_M_insert_intIxEES3_S3_RSt8ios_basecT_
__ZNKSt7num_putIcSt19ostreambuf_iteratorIcSt11char_traitsIcEEE13_M_insert_intIyEES3_S3_RSt8ios_basecT_
__ZNKSt7num_putIcSt19ostreambuf_iteratorIcSt11char_traitsIcEEE14_M_group_floatEPKcjcS6_PcS7_Ri
__ZNKSt7num_putIcSt19ostreambuf_iteratorIcSt11char_traitsIcEEE15_M_insert_floatIdEES3_S3_RSt8ios_baseccT_
__ZNKSt7num_putIcSt19ostreambuf_iteratorIcSt11char_traitsIcEEE15_M_insert_floatIeEES3_S3_RSt8ios_baseccT_
__ZNKSt7num_putIcSt19ostreambuf_iteratorIcSt11char_traitsIcEEE3putES3_RSt8ios_basecPKv
__ZNKSt7num_putIcSt19ostreambuf_iteratorIcSt11char_traitsIcEEE3putES3_RSt8ios_basecb
__ZNKSt7num_putIcSt19ostreambuf_iteratorIcSt11char_traitsIcEEE3putES3_RSt8ios_basecd
__ZNKSt7num_putIcSt19ostreambuf_iteratorIcSt11char_traitsIcEEE3putES3_RSt8ios_basece
__ZNKSt7num_putIcSt19ostreambuf_iteratorIcSt11char_traitsIcEEE3putES3_RSt8ios_basecl
__ZNKSt7num_putIcSt19ostreambuf_iteratorIcSt11char_traitsIcEEE3putES3_RSt8ios_basecm
__ZNKSt7num_putIcSt19ostreambuf_iteratorIcSt11char_traitsIcEEE3putES3_RSt8ios_basecx
__ZNKSt7num_putIcSt19ostreambuf_iteratorIcSt11char_traitsIcEEE3putES3_RSt8ios_basecy
__ZNKSt7num_putIcSt19ostreambuf_iteratorIcSt11char_traitsIcEEE6_M_padEciRSt8ios_basePcPKcRi
__ZNKSt7num_putIcSt19ostreambuf_iteratorIcSt11char_traitsIcEEE6do_putES3_RSt8ios_basecPKv
__ZNKSt7num_putIcSt19ostreambuf_iteratorIcSt11char_traitsIcEEE6do_putES3_RSt8ios_basecb
__ZNKSt7num_putIcSt19ostreambuf_iteratorIcSt11char_traitsIcEEE6do_putES3_RSt8ios_basecd
__ZNKSt7num_putIcSt19ostreambuf_iteratorIcSt11char_traitsIcEEE6do_putES3_RSt8ios_basece
__ZNKSt7num_putIcSt19ostreambuf_iteratorIcSt11char_traitsIcEEE6do_putES3_RSt8ios_basecl
__ZNKSt7num_putIcSt19ostreambuf_iteratorIcSt11char_traitsIcEEE6do_putES3_RSt8ios_basecm
__ZNKSt7num_putIcSt19ostreambuf_iteratorIcSt11char_traitsIcEEE6do_putES3_RSt8ios_basecx
__ZNKSt7num_putIcSt19ostreambuf_iteratorIcSt11char_traitsIcEEE6do_putES3_RSt8ios_basecy
__ZNKSt8messagesIcE18_M_convert_to_charERKSs
__ZNKSt8messagesIcE20_M_convert_from_charEPc
__ZNKSt8messagesIcE3getEiiiRKSs
__ZNKSt8messagesIcE4openERKSsRKSt6locale
__ZNKSt8messagesIcE4openERKSsRKSt6localePKc
__ZNKSt8messagesIcE5closeEi
__ZNKSt8messagesIcE7do_openERKSsRKSt6locale
__ZNKSt8messagesIcE8do_closeEi
__ZNKSt8numpunctIcE11do_groupingEv
__ZNKSt8numpunctIcE11do_truenameEv
__ZNKSt8numpunctIcE12do_falsenameEv
__ZNKSt8numpunctIcE13decimal_pointEv
__ZNKSt8numpunctIcE13thousands_sepEv
__ZNKSt8numpunctIcE16do_decimal_pointEv
__ZNKSt8numpunctIcE16do_thousands_sepEv
__ZNKSt8numpunctIcE8groupingEv
__ZNKSt8numpunctIcE8truenameEv
__ZNKSt8numpunctIcE9falsenameEv
__ZNKSt8time_getIcSt19istreambuf_iteratorIcSt11char_traitsIcEEE10date_orderEv
__ZNKSt8time_getIcSt19istreambuf_iteratorIcSt11char_traitsIcEEE11do_get_dateES3_S3_RSt8ios_baseRSt12_Ios_IostateP2tm
__ZNKSt8time_getIcSt19istreambuf_iteratorIcSt11char_traitsIcEEE11do_get_timeES3_S3_RSt8ios_baseRSt12_Ios_IostateP2tm
__ZNKSt8time_getIcSt19istreambuf_iteratorIcSt11char_traitsIcEEE11do_get_yearES3_S3_RSt8ios_baseRSt12_Ios_IostateP2tm
__ZNKSt8time_getIcSt19istreambuf_iteratorIcSt11char_traitsIcEEE11get_weekdayES3_S3_RSt8ios_baseRSt12_Ios_IostateP2tm
__ZNKSt8time_getIcSt19istreambuf_iteratorIcSt11char_traitsIcEEE13do_date_orderEv
__ZNKSt8time_getIcSt19istreambuf_iteratorIcSt11char_traitsIcEEE13get_monthnameES3_S3_RSt8ios_baseRSt12_Ios_IostateP2tm
__ZNKSt8time_getIcSt19istreambuf_iteratorIcSt11char_traitsIcEEE14_M_extract_numES3_S3_RiiijRSt8ios_baseRSt12_Ios_Iostate
__ZNKSt8time_getIcSt19istreambuf_iteratorIcSt11char_traitsIcEEE14do_get_weekdayES3_S3_RSt8ios_baseRSt12_Ios_IostateP2tm
__ZNKSt8time_getIcSt19istreambuf_iteratorIcSt11char_traitsIcEEE15_M_extract_nameES3_S3_RiPPKcjRSt8ios_baseRSt12_Ios_Iostate
__ZNKSt8time_getIcSt19istreambuf_iteratorIcSt11char_traitsIcEEE16do_get_monthnameES3_S3_RSt8ios_baseRSt12_Ios_IostateP2tm
__ZNKSt8time_getIcSt19istreambuf_iteratorIcSt11char_traitsIcEEE21_M_extract_via_formatES3_S3_RSt8ios_baseRSt12_Ios_IostateP2tmPKc
__ZNKSt8time_getIcSt19istreambuf_iteratorIcSt11char_traitsIcEEE24_M_extract_wday_or_monthES3_S3_RiPPKcjRSt8ios_baseRSt12_Ios_Iostate
__ZNKSt8time_getIcSt19istreambuf_iteratorIcSt11char_traitsIcEEE3getES3_S3_RSt8ios_baseRSt12_Ios_IostateP2tmPKcSC_
__ZNKSt8time_getIcSt19istreambuf_iteratorIcSt11char_traitsIcEEE3getES3_S3_RSt8ios_baseRSt12_Ios_IostateP2tmcc
__ZNKSt8time_getIcSt19istreambuf_iteratorIcSt11char_traitsIcEEE6do_getES3_S3_RSt8ios_baseRSt12_Ios_IostateP2tmcc
__ZNKSt8time_getIcSt19istreambuf_iteratorIcSt11char_traitsIcEEE8get_dateES3_S3_RSt8ios_baseRSt12_Ios_IostateP2tm
__ZNKSt8time_getIcSt19istreambuf_iteratorIcSt11char_traitsIcEEE8get_timeES3_S3_RSt8ios_baseRSt12_Ios_IostateP2tm
__ZNKSt8time_getIcSt19istreambuf_iteratorIcSt11char_traitsIcEEE8get_yearES3_S3_RSt8ios_baseRSt12_Ios_IostateP2tm
__ZNKSt8time_putIcSt19ostreambuf_iteratorIcSt11char_traitsIcEEE3putES3_RSt8ios_basecPK2tmPKcSB_
__ZNKSt8time_putIcSt19ostreambuf_iteratorIcSt11char_traitsIcEEE3putES3_RSt8ios_basecPK2tmcc
__ZNKSt8time_putIcSt19ostreambuf_iteratorIcSt11char_traitsIcEEE6do_putES3_RSt8ios_basecPK2tmcc
__ZNKSt9money_getIcSt19istreambuf_iteratorIcSt11char_traitsIcEEE10_M_extractILb0EEES3_S3_S3_RSt8ios_baseRSt12_Ios_IostateRSs
__ZNKSt9money_getIcSt19istreambuf_iteratorIcSt11char_traitsIcEEE10_M_extractILb1EEES3_S3_S3_RSt8ios_baseRSt12_Ios_IostateRSs
__ZNKSt9money_getIcSt19istreambuf_iteratorIcSt11char_traitsIcEEE3getES3_S3_bRSt8ios_baseRSt12_Ios_IostateRSs
__ZNKSt9money_getIcSt19istreambuf_iteratorIcSt11char_traitsIcEEE3getES3_S3_bRSt8ios_baseRSt12_Ios_IostateRe
__ZNKSt9money_getIcSt19istreambuf_iteratorIcSt11char_traitsIcEEE6do_getES3_S3_bRSt8ios_baseRSt12_Ios_IostateRSs
__ZNKSt9money_getIcSt19istreambuf_iteratorIcSt11char_traitsIcEEE6do_getES3_S3_bRSt8ios_baseRSt12_Ios_IostateRe
__ZNKSt9money_putIcSt19ostreambuf_iteratorIcSt11char_traitsIcEEE3putES3_bRSt8ios_basecRKSs
__ZNKSt9money_putIcSt19ostreambuf_iteratorIcSt11char_traitsIcEEE3putES3_bRSt8ios_basece
__ZNKSt9money_putIcSt19ostreambuf_iteratorIcSt11char_traitsIcEEE6do_putES3_bRSt8ios_basecRKSs
__ZNKSt9money_putIcSt19ostreambuf_iteratorIcSt11char_traitsIcEEE6do_putES3_bRSt8ios_basece
__ZNKSt9money_putIcSt19ostreambuf_iteratorIcSt11char_traitsIcEEE9_M_insertILb0EEES3_S3_RSt8ios_basecRKSs
__ZNKSt9money_putIcSt19ostreambuf_iteratorIcSt11char_traitsIcEEE9_M_insertILb1EEES3_S3_RSt8ios_basecRKSs
__ZNSt10moneypunctIcLb0EEC1EPSt18__moneypunct_cacheIcLb0EEj
__ZNSt10moneypunctIcLb0EEC1EPiPKcj
__ZNSt10moneypunctIcLb0EEC1Ej
__ZNSt10moneypunctIcLb0EEC2EPSt18__moneypunct_cacheIcLb0EEj
__ZNSt10moneypunctIcLb0EEC2EPiPKcj
__ZNSt10moneypunctIcLb0EEC2Ej
__ZNSt10moneypunctIcLb1EEC1EPSt18__moneypunct_cacheIcLb1EEj
__ZNSt10moneypunctIcLb1EEC1EPiPKcj
__ZNSt10moneypunctIcLb1EEC1Ej
__ZNSt10moneypunctIcLb1EEC2EPSt18__moneypunct_cacheIcLb1EEj
__ZNSt10moneypunctIcLb1EEC2EPiPKcj
__ZNSt10moneypunctIcLb1EEC2Ej
__ZNSt11__timepunctIcEC1EPSt17__timepunct_cacheIcEj
__ZNSt11__timepunctIcEC1EPiPKcj
__ZNSt11__timepunctIcEC1Ej
__ZNSt11__timepunctIcEC2EPSt17__timepunct_cacheIcEj
__ZNSt11__timepunctIcEC2EPiPKcj
__ZNSt11__timepunctIcEC2Ej
__ZNSt11__timepunctIcED0Ev
__ZNSt11__timepunctIcED1Ev
__ZNSt11__timepunctIcED2Ev
__ZNSt12ctype_bynameIcEC1ERKSsj
__ZNSt12ctype_bynameIcEC2ERKSsj
__ZNSt14codecvt_bynameIcciEC1EPKcj
__ZNSt14codecvt_bynameIcciEC1ERKSsj
__ZNSt14codecvt_bynameIcciEC2EPKcj
__ZNSt14codecvt_bynameIcciEC2ERKSsj
__ZNSt14codecvt_bynameIcciED0Ev
__ZNSt14codecvt_bynameIcciED1Ev
__ZNSt14codecvt_bynameIcciED2Ev
__ZNSt14collate_bynameIcEC1EPKcj
__ZNSt14collate_bynameIcEC1ERKSsj
__ZNSt14collate_bynameIcEC2EPKcj
__ZNSt14collate_bynameIcEC2ERKSsj
__ZNSt14collate_bynameIcED0Ev
__ZNSt14collate_bynameIcED1Ev
__ZNSt14collate_bynameIcED2Ev
__ZNSt15messages_bynameIcEC1EPKcj
__ZNSt15messages_bynameIcEC1ERKSsj
__ZNSt15messages_bynameIcEC2EPKcj
__ZNSt15messages_bynameIcEC2ERKSsj
__ZNSt15messages_bynameIcED0Ev
__ZNSt15messages_bynameIcED1Ev
__ZNSt15messages_bynameIcED2Ev
__ZNSt15numpunct_bynameIcEC1EPKcj
__ZNSt15numpunct_bynameIcEC1ERKSsj
__ZNSt15numpunct_bynameIcEC2EPKcj
__ZNSt15numpunct_bynameIcEC2ERKSsj
__ZNSt15numpunct_bynameIcED0Ev
__ZNSt15numpunct_bynameIcED1Ev
__ZNSt15numpunct_bynameIcED2Ev
__ZNSt15time_get_bynameIcSt19istreambuf_iteratorIcSt11char_traitsIcEEEC1EPKcj
__ZNSt15time_get_bynameIcSt19istreambuf_iteratorIcSt11char_traitsIcEEEC1ERKSsj
__ZNSt15time_get_bynameIcSt19istreambuf_iteratorIcSt11char_traitsIcEEEC2EPKcj
__ZNSt15time_get_bynameIcSt19istreambuf_iteratorIcSt11char_traitsIcEEEC2ERKSsj
__ZNSt15time_get_bynameIcSt19istreambuf_iteratorIcSt11char_traitsIcEEED0Ev
__ZNSt15time_get_bynameIcSt19istreambuf_iteratorIcSt11char_traitsIcEEED1Ev
__ZNSt15time_get_bynameIcSt19istreambuf_iteratorIcSt11char_traitsIcEEED2Ev
__ZNSt15time_put_bynameIcSt19ostreambuf_iteratorIcSt11char_traitsIcEEEC1EPKcj
__ZNSt15time_put_bynameIcSt19ostreambuf_iteratorIcSt11char_traitsIcEEEC1ERKSsj
__ZNSt15time_put_bynameIcSt19ostreambuf_iteratorIcSt11char_traitsIcEEEC2EPKcj
__ZNSt15time_put_bynameIcSt19ostreambuf_iteratorIcSt11char_traitsIcEEEC2ERKSsj
__ZNSt15time_put_bynameIcSt19ostreambuf_iteratorIcSt11char_traitsIcEEED0Ev
__ZNSt15time_put_bynameIcSt19ostreambuf_iteratorIcSt11char_traitsIcEEED1Ev
__ZNSt15time_put_bynameIcSt19ostreambuf_iteratorIcSt11char_traitsIcEEED2Ev
__ZNSt16__numpunct_cacheIcE8_M_cacheERKSt6locale
__ZNSt16__numpunct_cacheIcEC1Ej
__ZNSt16__numpunct_cacheIcEC2Ej
__ZNSt16__numpunct_cacheIcED0Ev
__ZNSt16__numpunct_cacheIcED1Ev
__ZNSt16__numpunct_cacheIcED2Ev
__ZNSt17__timepunct_cacheIcEC1Ej
__ZNSt17__timepunct_cacheIcEC2Ej
__ZNSt17__timepunct_cacheIcED0Ev
__ZNSt17__timepunct_cacheIcED1Ev
__ZNSt17__timepunct_cacheIcED2Ev
__ZNSt17moneypunct_bynameIcLb0EEC1EPKcj
__ZNSt17moneypunct_bynameIcLb0EEC1ERKSsj
__ZNSt17moneypunct_bynameIcLb0EEC2EPKcj
__ZNSt17moneypunct_bynameIcLb0EEC2ERKSsj
__ZNSt17moneypunct_bynameIcLb0EED0Ev
__ZNSt17moneypunct_bynameIcLb0EED1Ev
__ZNSt17moneypunct_bynameIcLb0EED2Ev
__ZNSt17moneypunct_bynameIcLb1EEC1EPKcj
__ZNSt17moneypunct_bynameIcLb1EEC1ERKSsj
__ZNSt17moneypunct_bynameIcLb1EEC2EPKcj
__ZNSt17moneypunct_bynameIcLb1EEC2ERKSsj
__ZNSt17moneypunct_bynameIcLb1EED0Ev
__ZNSt17moneypunct_bynameIcLb1EED1Ev
__ZNSt17moneypunct_bynameIcLb1EED2Ev
__ZNSt18__moneypunct_cacheIcLb0EE8_M_cacheERKSt6locale
__ZNSt18__moneypunct_cacheIcLb0EEC1Ej
__ZNSt18__moneypunct_cacheIcLb0EEC2Ej
__ZNSt18__moneypunct_cacheIcLb0EED0Ev
__ZNSt18__moneypunct_cacheIcLb0EED1Ev
__ZNSt18__moneypunct_cacheIcLb0EED2Ev
__ZNSt18__moneypunct_cacheIcLb1EE8_M_cacheERKSt6locale
__ZNSt18__moneypunct_cacheIcLb1EEC1Ej
__ZNSt18__moneypunct_cacheIcLb1EEC2Ej
__ZNSt18__moneypunct_cacheIcLb1EED0Ev
__ZNSt18__moneypunct_cacheIcLb1EED1Ev
__ZNSt18__moneypunct_cacheIcLb1EED2Ev
__ZNSt5__padIcSt11char_traitsIcEE6_S_padERSt8ios_basecPcPKcii
__ZNSt7collateIcEC1EPij
__ZNSt7collateIcEC1Ej
__ZNSt7collateIcEC2EPij
__ZNSt7collateIcEC2Ej
__ZNSt7collateIcED0Ev
__ZNSt7collateIcED1Ev
__ZNSt7collateIcED2Ev
__ZNSt7num_getIcSt19istreambuf_iteratorIcSt11char_traitsIcEEEC1Ej
__ZNSt7num_getIcSt19istreambuf_iteratorIcSt11char_traitsIcEEEC2Ej
__ZNSt7num_getIcSt19istreambuf_iteratorIcSt11char_traitsIcEEED0Ev
__ZNSt7num_getIcSt19istreambuf_iteratorIcSt11char_traitsIcEEED1Ev
__ZNSt7num_getIcSt19istreambuf_iteratorIcSt11char_traitsIcEEED2Ev
__ZNSt7num_putIcSt19ostreambuf_iteratorIcSt11char_traitsIcEEEC1Ej
__ZNSt7num_putIcSt19ostreambuf_iteratorIcSt11char_traitsIcEEEC2Ej
__ZNSt7num_putIcSt19ostreambuf_iteratorIcSt11char_traitsIcEEED0Ev
__ZNSt7num_putIcSt19ostreambuf_iteratorIcSt11char_traitsIcEEED1Ev
__ZNSt7num_putIcSt19ostreambuf_iteratorIcSt11char_traitsIcEEED2Ev
__ZNSt8messagesIcEC1EPiPKcj
__ZNSt8messagesIcEC1Ej
__ZNSt8messagesIcEC2EPiPKcj
__ZNSt8messagesIcEC2Ej
__ZNSt8messagesIcED0Ev
__ZNSt8messagesIcED1Ev
__ZNSt8messagesIcED2Ev
__ZNSt8numpunctIcEC1EPSt16__numpunct_cacheIcEj
__ZNSt8numpunctIcEC1EPij
__ZNSt8numpunctIcEC1Ej
__ZNSt8numpunctIcEC2EPSt16__numpunct_cacheIcEj
__ZNSt8numpunctIcEC2EPij
__ZNSt8numpunctIcEC2Ej
__ZNSt8time_getIcSt19istreambuf_iteratorIcSt11char_traitsIcEEEC1Ej
__ZNSt8time_getIcSt19istreambuf_iteratorIcSt11char_traitsIcEEEC2Ej
__ZNSt8time_getIcSt19istreambuf_iteratorIcSt11char_traitsIcEEED0Ev
__ZNSt8time_getIcSt19istreambuf_iteratorIcSt11char_traitsIcEEED1Ev
__ZNSt8time_getIcSt19istreambuf_iteratorIcSt11char_traitsIcEEED2Ev
__ZNSt8time_putIcSt19ostreambuf_iteratorIcSt11char_traitsIcEEEC1Ej
__ZNSt8time_putIcSt19ostreambuf_iteratorIcSt11char_traitsIcEEEC2Ej
__ZNSt8time_putIcSt19ostreambuf_iteratorIcSt11char_traitsIcEEED0Ev
__ZNSt8time_putIcSt19ostreambuf_iteratorIcSt11char_traitsIcEEED1Ev
__ZNSt8time_putIcSt19ostreambuf_iteratorIcSt11char_traitsIcEEED2Ev
__ZNSt9money_getIcSt19istreambuf_iteratorIcSt11char_traitsIcEEEC1Ej
__ZNSt9money_getIcSt19istreambuf_iteratorIcSt11char_traitsIcEEEC2Ej
__ZNSt9money_getIcSt19istreambuf_iteratorIcSt11char_traitsIcEEED0Ev
__ZNSt9money_getIcSt19istreambuf_iteratorIcSt11char_traitsIcEEED1Ev
__ZNSt9money_getIcSt19istreambuf_iteratorIcSt11char_traitsIcEEED2Ev
__ZNSt9money_putIcSt19ostreambuf_iteratorIcSt11char_traitsIcEEEC1Ej
__ZNSt9money_putIcSt19ostreambuf_iteratorIcSt11char_traitsIcEEEC2Ej
__ZNSt9money_putIcSt19ostreambuf_iteratorIcSt11char_traitsIcEEED0Ev
__ZNSt9money_putIcSt19ostreambuf_iteratorIcSt11char_traitsIcEEED1Ev
__ZNSt9money_putIcSt19ostreambuf_iteratorIcSt11char_traitsIcEEED2Ev
__ZSt13__int_to_charIcmEiPT_T0_PKS0_St13_Ios_Fmtflagsb
__ZSt13__int_to_charIcyEiPT_T0_PKS0_St13_Ios_Fmtflagsb
__ZSt14__add_groupingIcEPT_S1_S0_PKcjPKS0_S5_
__ZSt16__convert_from_vRKPiPciPKcz
__ZSt9has_facetISt10moneypunctIcLb0EEEbRKSt6locale
__ZSt9has_facetISt11__timepunctIcEEbRKSt6locale
__ZSt9has_facetISt5ctypeIcEEbRKSt6locale
__ZSt9has_facetISt7codecvtIcciEEbRKSt6locale
__ZSt9has_facetISt7collateIcEEbRKSt6locale
__ZSt9has_facetISt7num_getIcSt19istreambuf_iteratorIcSt11char_traitsIcEEEEbRKSt6locale
__ZSt9has_facetISt7num_putIcSt19ostreambuf_iteratorIcSt11char_traitsIcEEEEbRKSt6locale
__ZSt9has_facetISt8messagesIcEEbRKSt6locale
__ZSt9has_facetISt8numpunctIcEEbRKSt6locale
__ZSt9has_facetISt8time_getIcSt19istreambuf_iteratorIcSt11char_traitsIcEEEEbRKSt6locale
__ZSt9has_facetISt8time_putIcSt19ostreambuf_iteratorIcSt11char_traitsIcEEEEbRKSt6locale
__ZSt9has_facetISt9money_getIcSt19istreambuf_iteratorIcSt11char_traitsIcEEEEbRKSt6locale
__ZSt9has_facetISt9money_putIcSt19ostreambuf_iteratorIcSt11char_traitsIcEEEEbRKSt6locale
__ZSt9use_facetISt10moneypunctIcLb0EEERKT_RKSt6locale
__ZSt9use_facetISt10moneypunctIcLb1EEERKT_RKSt6locale
__ZSt9use_facetISt11__timepunctIcEERKT_RKSt6locale
__ZSt9use_facetISt5ctypeIcEERKT_RKSt6locale
__ZSt9use_facetISt7codecvtIcciEERKT_RKSt6locale
__ZSt9use_facetISt7collateIcEERKT_RKSt6locale
__ZSt9use_facetISt7num_getIcSt19istreambuf_iteratorIcSt11char_traitsIcEEEERKT_RKSt6locale
__ZSt9use_facetISt7num_putIcSt19ostreambuf_iteratorIcSt11char_traitsIcEEEERKT_RKSt6locale
__ZSt9use_facetISt8messagesIcEERKT_RKSt6locale
__ZSt9use_facetISt8numpunctIcEERKT_RKSt6locale
__ZSt9use_facetISt8time_getIcSt19istreambuf_iteratorIcSt11char_traitsIcEEEERKT_RKSt6locale
__ZSt9use_facetISt8time_putIcSt19ostreambuf_iteratorIcSt11char_traitsIcEEEERKT_RKSt6locale
__ZSt9use_facetISt9money_getIcSt19istreambuf_iteratorIcSt11char_traitsIcEEEERKT_RKSt6locale
__ZSt9use_facetISt9money_putIcSt19ostreambuf_iteratorIcSt11char_traitsIcEEEERKT_RKSt6locale
__ZNKSt8functionIFvvEE11target_typeEv
__ZNKSt8functionIFvvEEclEv
__ZNKSt8functionIFvvEEcvbEv
__ZNSt14_Function_baseD2Ev
__ZNSt8functionIFvvEE4swapERS1_
__ZNSt8functionIFvvEEC1EDn
__ZNSt8functionIFvvEEC1EOS1_
__ZNSt8functionIFvvEEC1ERKS1_
__ZNSt8functionIFvvEEC1Ev
__ZNSt8functionIFvvEEC2EDn
__ZNSt8functionIFvvEEC2EOS1_
__ZNSt8functionIFvvEEC2ERKS1_
__ZNSt8functionIFvvEEC2Ev
__ZNSt8functionIFvvEEaSEDn
__ZNSt8functionIFvvEEaSEOS1_
__ZNSt8functionIFvvEEaSERKS1_
__ZSt16__get_once_mutexv
__ZSt23__get_once_functor_lockv
__ZSt27__set_once_functor_lock_ptrPSt11unique_lockISt5mutexE
___once_proxy
__ZNKSo6sentrycvbEv
__ZNKSt13basic_ostreamIwSt11char_traitsIwEE6sentrycvbEv
__ZNKSt5ctypeIcE8do_widenEc
__ZNSo3putEc
__ZNSo4swapERSo
__ZNSo5flushEv
__ZNSo5seekpESt4fposIiE
__ZNSo5seekpExSt12_Ios_Seekdir
__ZNSo5tellpEv
__ZNSo5writeEPKci
__ZNSo6sentryC1ERSo
__ZNSo6sentryC2ERSo
__ZNSo6sentryD1Ev
__ZNSo6sentryD2Ev
__ZNSo8_M_writeEPKci
__ZNSo9_M_insertIPKvEERSoT_
__ZNSo9_M_insertIbEERSoT_
__ZNSo9_M_insertIdEERSoT_
__ZNSo9_M_insertIeEERSoT_
__ZNSo9_M_insertIlEERSoT_
__ZNSo9_M_insertImEERSoT_
__ZNSo9_M_insertIxEERSoT_
__ZNSo9_M_insertIyEERSoT_
__ZNSoC1EOSo
__ZNSoC1EPSt15basic_streambufIcSt11char_traitsIcEE
__ZNSoC1ERSd
__ZNSoC1Ev
__ZNSoC2EOSo
__ZNSoC2EPSt15basic_streambufIcSt11char_traitsIcEE
__ZNSoC2ERSd
__ZNSoC2Ev
__ZNSoD0Ev
__ZNSoD1Ev
__ZNSoD2Ev
__ZNSoaSEOSo
__ZNSolsEPFRSoS_E
__ZNSolsEPFRSt8ios_baseS0_E
__ZNSolsEPFRSt9basic_iosIcSt11char_traitsIcEES3_E
__ZNSolsEPKv
__ZNSolsEPSt15basic_streambufIcSt11char_traitsIcEE
__ZNSolsEb
__ZNSolsEd
__ZNSolsEe
__ZNSolsEf
__ZNSolsEi
__ZNSolsEj
__ZNSolsEl
__ZNSolsEm
__ZNSolsEs
__ZNSolsEt
__ZNSolsEx
__ZNSolsEy
__ZNSt13basic_ostreamIwSt11char_traitsIwEE3putEw
__ZNSt13basic_ostreamIwSt11char_traitsIwEE4swapERS2_
__ZNSt13basic_ostreamIwSt11char_traitsIwEE5flushEv
__ZNSt13basic_ostreamIwSt11char_traitsIwEE5seekpESt4fposIiE
__ZNSt13basic_ostreamIwSt11char_traitsIwEE5seekpExSt12_Ios_Seekdir
__ZNSt13basic_ostreamIwSt11char_traitsIwEE5tellpEv
__ZNSt13basic_ostreamIwSt11char_traitsIwEE5writeEPKwi
__ZNSt13basic_ostreamIwSt11char_traitsIwEE6sentryC1ERS2_
__ZNSt13basic_ostreamIwSt11char_traitsIwEE6sentryC2ERS2_
__ZNSt13basic_ostreamIwSt11char_traitsIwEE6sentryD1Ev
__ZNSt13basic_ostreamIwSt11char_traitsIwEE6sentryD2Ev
__ZNSt13basic_ostreamIwSt11char_traitsIwEE8_M_writeEPKwi
__ZNSt13basic_ostreamIwSt11char_traitsIwEE9_M_insertIPKvEERS2_T_
__ZNSt13basic_ostreamIwSt11char_traitsIwEE9_M_insertIbEERS2_T_
__ZNSt13basic_ostreamIwSt11char_traitsIwEE9_M_insertIdEERS2_T_
__ZNSt13basic_ostreamIwSt11char_traitsIwEE9_M_insertIeEERS2_T_
__ZNSt13basic_ostreamIwSt11char_traitsIwEE9_M_insertIlEERS2_T_
__ZNSt13basic_ostreamIwSt11char_traitsIwEE9_M_insertImEERS2_T_
__ZNSt13basic_ostreamIwSt11char_traitsIwEE9_M_insertIxEERS2_T_
__ZNSt13basic_ostreamIwSt11char_traitsIwEE9_M_insertIyEERS2_T_
__ZNSt13basic_ostreamIwSt11char_traitsIwEEC1EOS2_
__ZNSt13basic_ostreamIwSt11char_traitsIwEEC1EPSt15basic_streambufIwS1_E
__ZNSt13basic_ostreamIwSt11char_traitsIwEEC1ERSt14basic_iostreamIwS1_E
__ZNSt13basic_ostreamIwSt11char_traitsIwEEC1Ev
__ZNSt13basic_ostreamIwSt11char_traitsIwEEC2EOS2_
__ZNSt13basic_ostreamIwSt11char_traitsIwEEC2EPSt15basic_streambufIwS1_E
__ZNSt13basic_ostreamIwSt11char_traitsIwEEC2ERSt14basic_iostreamIwS1_E
__ZNSt13basic_ostreamIwSt11char_traitsIwEEC2Ev
__ZNSt13basic_ostreamIwSt11char_traitsIwEED0Ev
__ZNSt13basic_ostreamIwSt11char_traitsIwEED1Ev
__ZNSt13basic_ostreamIwSt11char_traitsIwEED2Ev
__ZNSt13basic_ostreamIwSt11char_traitsIwEEaSEOS2_
__ZNSt13basic_ostreamIwSt11char_traitsIwEElsEPFRS2_S3_E
__ZNSt13basic_ostreamIwSt11char_traitsIwEElsEPFRSt8ios_baseS4_E
__ZNSt13basic_ostreamIwSt11char_traitsIwEElsEPFRSt9basic_iosIwS1_ES5_E
__ZNSt13basic_ostreamIwSt11char_traitsIwEElsEPKv
__ZNSt13basic_ostreamIwSt11char_traitsIwEElsEPSt15basic_streambufIwS1_E
__ZNSt13basic_ostreamIwSt11char_traitsIwEElsEb
__ZNSt13basic_ostreamIwSt11char_traitsIwEElsEd
__ZNSt13basic_ostreamIwSt11char_traitsIwEElsEe
__ZNSt13basic_ostreamIwSt11char_traitsIwEElsEf
__ZNSt13basic_ostreamIwSt11char_traitsIwEElsEi
__ZNSt13basic_ostreamIwSt11char_traitsIwEElsEj
__ZNSt13basic_ostreamIwSt11char_traitsIwEElsEl
__ZNSt13basic_ostreamIwSt11char_traitsIwEElsEm
__ZNSt13basic_ostreamIwSt11char_traitsIwEElsEs
__ZNSt13basic_ostreamIwSt11char_traitsIwEElsEt
__ZNSt13basic_ostreamIwSt11char_traitsIwEElsEx
__ZNSt13basic_ostreamIwSt11char_traitsIwEElsEy
__ZSt16__ostream_insertIcSt11char_traitsIcEERSt13basic_ostreamIT_T0_ES6_PKS3_i
__ZSt16__ostream_insertIwSt11char_traitsIwEERSt13basic_ostreamIT_T0_ES6_PKS3_i
__ZSt4endlIcSt11char_traitsIcEERSt13basic_ostreamIT_T0_ES6_
__ZSt4endlIwSt11char_traitsIwEERSt13basic_ostreamIT_T0_ES6_
__ZSt4endsIcSt11char_traitsIcEERSt13basic_ostreamIT_T0_ES6_
__ZSt4endsIwSt11char_traitsIwEERSt13basic_ostreamIT_T0_ES6_
__ZSt5flushIcSt11char_traitsIcEERSt13basic_ostreamIT_T0_ES6_
__ZSt5flushIwSt11char_traitsIwEERSt13basic_ostreamIT_T0_ES6_
__ZStlsISt11char_traitsIcEERSt13basic_ostreamIcT_ES5_PKa
__ZStlsISt11char_traitsIcEERSt13basic_ostreamIcT_ES5_PKc
__ZStlsISt11char_traitsIcEERSt13basic_ostreamIcT_ES5_PKh
__ZStlsISt11char_traitsIcEERSt13basic_ostreamIcT_ES5_a
__ZStlsISt11char_traitsIcEERSt13basic_ostreamIcT_ES5_c
__ZStlsISt11char_traitsIcEERSt13basic_ostreamIcT_ES5_h
__ZStlsIcSt11char_traitsIcEERSt13basic_ostreamIT_T0_ES6_St12_Setiosflags
__ZStlsIcSt11char_traitsIcEERSt13basic_ostreamIT_T0_ES6_St13_Setprecision
__ZStlsIcSt11char_traitsIcEERSt13basic_ostreamIT_T0_ES6_St14_Resetiosflags
__ZStlsIcSt11char_traitsIcEERSt13basic_ostreamIT_T0_ES6_St5_Setw
__ZStlsIcSt11char_traitsIcEERSt13basic_ostreamIT_T0_ES6_St8_Setbase
__ZStlsIcSt11char_traitsIcEERSt13basic_ostreamIT_T0_ES6_St8_SetfillIS3_E
__ZStlsIwSt11char_traitsIwEERSt13basic_ostreamIT_T0_ES6_PKS3_
__ZStlsIwSt11char_traitsIwEERSt13basic_ostreamIT_T0_ES6_PKc
__ZStlsIwSt11char_traitsIwEERSt13basic_ostreamIT_T0_ES6_S3_
__ZStlsIwSt11char_traitsIwEERSt13basic_ostreamIT_T0_ES6_St12_Setiosflags
__ZStlsIwSt11char_traitsIwEERSt13basic_ostreamIT_T0_ES6_St13_Setprecision
__ZStlsIwSt11char_traitsIwEERSt13basic_ostreamIT_T0_ES6_St14_Resetiosflags
__ZStlsIwSt11char_traitsIwEERSt13basic_ostreamIT_T0_ES6_St5_Setw
__ZStlsIwSt11char_traitsIwEERSt13basic_ostreamIT_T0_ES6_St8_Setbase
__ZStlsIwSt11char_traitsIwEERSt13basic_ostreamIT_T0_ES6_St8_SetfillIS3_E
__ZStlsIwSt11char_traitsIwEERSt13basic_ostreamIT_T0_ES6_c
__ZTv0_n12_NSoD0Ev
__ZTv0_n12_NSoD1Ev
__ZTv0_n12_NSt13basic_ostreamIwSt11char_traitsIwEED0Ev
__ZTv0_n12_NSt13basic_ostreamIwSt11char_traitsIwEED1Ev
__ZNKSt13random_device13_M_getentropyEv
__ZNSt13random_device14_M_init_pretr1ERKNSt7__cxx1112basic_stringIcSt11char_traitsIcESaIcEEE
__ZNSt13random_device16_M_getval_pretr1Ev
__ZNSt13random_device7_M_finiEv
__ZNSt13random_device7_M_initEPKcj
__ZNSt13random_device7_M_initERKNSt7__cxx1112basic_stringIcSt11char_traitsIcESaIcEEE
__ZNSt13random_device9_M_getvalEv
__ZNSt11regex_errorC1ENSt15regex_constants10error_typeE
__ZNSt11regex_errorC2ENSt15regex_constants10error_typeE
__ZNSt11regex_errorD0Ev
__ZNSt11regex_errorD1Ev
__ZNSt11regex_errorD2Ev
__ZSt19__throw_regex_errorNSt15regex_constants10error_typeE
__ZN14__gnu_internal9get_mutexEh
__ZN9__gnu_cxx24__concurrence_lock_errorD0Ev
__ZN9__gnu_cxx24__concurrence_lock_errorD1Ev
__ZN9__gnu_cxx26__concurrence_unlock_errorD0Ev
__ZN9__gnu_cxx26__concurrence_unlock_errorD1Ev
__ZN9__gnu_cxx30__throw_concurrence_lock_errorEv
__ZN9__gnu_cxx32__throw_concurrence_unlock_errorEv
__ZNK9__gnu_cxx24__concurrence_lock_error4whatEv
__ZNK9__gnu_cxx26__concurrence_unlock_error4whatEv
__ZNKSt12bad_weak_ptr4whatEv
__ZNSt10_Sp_lockerC1EPKv
__ZNSt10_Sp_lockerC1EPKvS1_
__ZNSt10_Sp_lockerC2EPKv
__ZNSt10_Sp_lockerC2EPKvS1_
__ZNSt10_Sp_lockerD1Ev
__ZNSt10_Sp_lockerD2Ev
__ZNSt12bad_weak_ptrD0Ev
__ZNSt12bad_weak_ptrD1Ev
__ZNSt12bad_weak_ptrD2Ev
__ZNSt19_Sp_make_shared_tag5_S_eqERKSt9type_info
__ZN9__gnu_cxx15__concat_size_tEPcjj
__ZN9__gnu_cxx15__snprintf_liteEPcjPKcS0_
__ZN9__gnu_cxx26__throw_insufficient_spaceEPKcS1_
__ZNSt12__sso_stringC1EOS_
__ZNSt12__sso_stringC1EPKcj
__ZNSt12__sso_stringC1ERKNSt7__cxx1112basic_stringIcSt11char_traitsIcESaIcEEE
__ZNSt12__sso_stringC1ERKS_
__ZNSt12__sso_stringC1Ev
__ZNSt12__sso_stringC2EOS_
__ZNSt12__sso_stringC2EPKcj
__ZNSt12__sso_stringC2ERKNSt7__cxx1112basic_stringIcSt11char_traitsIcESaIcEEE
__ZNSt12__sso_stringC2ERKS_
__ZNSt12__sso_stringC2Ev
__ZNSt12__sso_stringD1Ev
__ZNSt12__sso_stringD2Ev
__ZNSt12__sso_stringaSEOS_
__ZNSt12__sso_stringaSERKS_
__ZNKSt7__cxx1115basic_stringbufIcSt11char_traitsIcESaIcEE3strEv
__ZNKSt7__cxx1115basic_stringbufIwSt11char_traitsIwESaIwEE3strEv
__ZNKSt7__cxx1118basic_stringstreamIcSt11char_traitsIcESaIcEE3strEv
__ZNKSt7__cxx1118basic_stringstreamIcSt11char_traitsIcESaIcEE5rdbufEv
__ZNKSt7__cxx1118basic_stringstreamIwSt11char_traitsIwESaIwEE3strEv
__ZNKSt7__cxx1118basic_stringstreamIwSt11char_traitsIwESaIwEE5rdbufEv
__ZNKSt7__cxx1119basic_istringstreamIcSt11char_traitsIcESaIcEE3strEv
__ZNKSt7__cxx1119basic_istringstreamIcSt11char_traitsIcESaIcEE5rdbufEv
__ZNKSt7__cxx1119basic_istringstreamIwSt11char_traitsIwESaIwEE3strEv
__ZNKSt7__cxx1119basic_istringstreamIwSt11char_traitsIwESaIwEE5rdbufEv
__ZNKSt7__cxx1119basic_ostringstreamIcSt11char_traitsIcESaIcEE3strEv
__ZNKSt7__cxx1119basic_ostringstreamIcSt11char_traitsIcESaIcEE5rdbufEv
__ZNKSt7__cxx1119basic_ostringstreamIwSt11char_traitsIwESaIwEE3strEv
__ZNKSt7__cxx1119basic_ostringstreamIwSt11char_traitsIwESaIwEE5rdbufEv
__ZNSt7__cxx1115basic_stringbufIcSt11char_traitsIcESaIcEE14__xfer_bufptrsC1ERKS4_PS4_
__ZNSt7__cxx1115basic_stringbufIcSt11char_traitsIcESaIcEE14__xfer_bufptrsC2ERKS4_PS4_
__ZNSt7__cxx1115basic_stringbufIcSt11char_traitsIcESaIcEE14__xfer_bufptrsD1Ev
__ZNSt7__cxx1115basic_stringbufIcSt11char_traitsIcESaIcEE14__xfer_bufptrsD2Ev
__ZNSt7__cxx1115basic_stringbufIcSt11char_traitsIcESaIcEE15_M_update_egptrEv
__ZNSt7__cxx1115basic_stringbufIcSt11char_traitsIcESaIcEE17_M_stringbuf_initESt13_Ios_Openmode
__ZNSt7__cxx1115basic_stringbufIcSt11char_traitsIcESaIcEE3strERKNS_12basic_stringIcS2_S3_EE
__ZNSt7__cxx1115basic_stringbufIcSt11char_traitsIcESaIcEE4swapERS4_
__ZNSt7__cxx1115basic_stringbufIcSt11char_traitsIcESaIcEE6setbufEPci
__ZNSt7__cxx1115basic_stringbufIcSt11char_traitsIcESaIcEE7_M_syncEPcjj
__ZNSt7__cxx1115basic_stringbufIcSt11char_traitsIcESaIcEE7seekoffExSt12_Ios_SeekdirSt13_Ios_Openmode
__ZNSt7__cxx1115basic_stringbufIcSt11char_traitsIcESaIcEE7seekposESt4fposIiESt13_Ios_Openmode
__ZNSt7__cxx1115basic_stringbufIcSt11char_traitsIcESaIcEE8_M_pbumpEPcS5_x
__ZNSt7__cxx1115basic_stringbufIcSt11char_traitsIcESaIcEE8overflowEi
__ZNSt7__cxx1115basic_stringbufIcSt11char_traitsIcESaIcEE9pbackfailEi
__ZNSt7__cxx1115basic_stringbufIcSt11char_traitsIcESaIcEE9showmanycEv
__ZNSt7__cxx1115basic_stringbufIcSt11char_traitsIcESaIcEE9underflowEv
__ZNSt7__cxx1115basic_stringbufIcSt11char_traitsIcESaIcEEC1EOS4_
__ZNSt7__cxx1115basic_stringbufIcSt11char_traitsIcESaIcEEC1EOS4_ONS4_14__xfer_bufptrsE
__ZNSt7__cxx1115basic_stringbufIcSt11char_traitsIcESaIcEEC1ERKNS_12basic_stringIcS2_S3_EESt13_Ios_Openmode
__ZNSt7__cxx1115basic_stringbufIcSt11char_traitsIcESaIcEEC1ESt13_Ios_Openmode
__ZNSt7__cxx1115basic_stringbufIcSt11char_traitsIcESaIcEEC1Ev
__ZNSt7__cxx1115basic_stringbufIcSt11char_traitsIcESaIcEEC2EOS4_
__ZNSt7__cxx1115basic_stringbufIcSt11char_traitsIcESaIcEEC2EOS4_ONS4_14__xfer_bufptrsE
__ZNSt7__cxx1115basic_stringbufIcSt11char_traitsIcESaIcEEC2ERKNS_12basic_stringIcS2_S3_EESt13_Ios_Openmode
__ZNSt7__cxx1115basic_stringbufIcSt11char_traitsIcESaIcEEC2ESt13_Ios_Openmode
__ZNSt7__cxx1115basic_stringbufIcSt11char_traitsIcESaIcEEC2Ev
__ZNSt7__cxx1115basic_stringbufIcSt11char_traitsIcESaIcEED0Ev
__ZNSt7__cxx1115basic_stringbufIcSt11char_traitsIcESaIcEED1Ev
__ZNSt7__cxx1115basic_stringbufIcSt11char_traitsIcESaIcEEaSEOS4_
__ZNSt7__cxx1115basic_stringbufIwSt11char_traitsIwESaIwEE14__xfer_bufptrsC1ERKS4_PS4_
__ZNSt7__cxx1115basic_stringbufIwSt11char_traitsIwESaIwEE14__xfer_bufptrsC2ERKS4_PS4_
__ZNSt7__cxx1115basic_stringbufIwSt11char_traitsIwESaIwEE14__xfer_bufptrsD1Ev
__ZNSt7__cxx1115basic_stringbufIwSt11char_traitsIwESaIwEE14__xfer_bufptrsD2Ev
__ZNSt7__cxx1115basic_stringbufIwSt11char_traitsIwESaIwEE15_M_update_egptrEv
__ZNSt7__cxx1115basic_stringbufIwSt11char_traitsIwESaIwEE17_M_stringbuf_initESt13_Ios_Openmode
__ZNSt7__cxx1115basic_stringbufIwSt11char_traitsIwESaIwEE3strERKNS_12basic_stringIwS2_S3_EE
__ZNSt7__cxx1115basic_stringbufIwSt11char_traitsIwESaIwEE4swapERS4_
__ZNSt7__cxx1115basic_stringbufIwSt11char_traitsIwESaIwEE6setbufEPwi
__ZNSt7__cxx1115basic_stringbufIwSt11char_traitsIwESaIwEE7_M_syncEPwjj
__ZNSt7__cxx1115basic_stringbufIwSt11char_traitsIwESaIwEE7seekoffExSt12_Ios_SeekdirSt13_Ios_Openmode
__ZNSt7__cxx1115basic_stringbufIwSt11char_traitsIwESaIwEE7seekposESt4fposIiESt13_Ios_Openmode
__ZNSt7__cxx1115basic_stringbufIwSt11char_traitsIwESaIwEE8_M_pbumpEPwS5_x
__ZNSt7__cxx1115basic_stringbufIwSt11char_traitsIwESaIwEE8overflowEt
__ZNSt7__cxx1115basic_stringbufIwSt11char_traitsIwESaIwEE9pbackfailEt
__ZNSt7__cxx1115basic_stringbufIwSt11char_traitsIwESaIwEE9showmanycEv
__ZNSt7__cxx1115basic_stringbufIwSt11char_traitsIwESaIwEE9underflowEv
__ZNSt7__cxx1115basic_stringbufIwSt11char_traitsIwESaIwEEC1EOS4_
__ZNSt7__cxx1115basic_stringbufIwSt11char_traitsIwESaIwEEC1EOS4_ONS4_14__xfer_bufptrsE
__ZNSt7__cxx1115basic_stringbufIwSt11char_traitsIwESaIwEEC1ERKNS_12basic_stringIwS2_S3_EESt13_Ios_Openmode
__ZNSt7__cxx1115basic_stringbufIwSt11char_traitsIwESaIwEEC1ESt13_Ios_Openmode
__ZNSt7__cxx1115basic_stringbufIwSt11char_traitsIwESaIwEEC1Ev
__ZNSt7__cxx1115basic_stringbufIwSt11char_traitsIwESaIwEEC2EOS4_
__ZNSt7__cxx1115basic_stringbufIwSt11char_traitsIwESaIwEEC2EOS4_ONS4_14__xfer_bufptrsE
__ZNSt7__cxx1115basic_stringbufIwSt11char_traitsIwESaIwEEC2ERKNS_12basic_stringIwS2_S3_EESt13_Ios_Openmode
__ZNSt7__cxx1115basic_stringbufIwSt11char_traitsIwESaIwEEC2ESt13_Ios_Openmode
__ZNSt7__cxx1115basic_stringbufIwSt11char_traitsIwESaIwEEC2Ev
__ZNSt7__cxx1115basic_stringbufIwSt11char_traitsIwESaIwEED0Ev
__ZNSt7__cxx1115basic_stringbufIwSt11char_traitsIwESaIwEED1Ev
__ZNSt7__cxx1115basic_stringbufIwSt11char_traitsIwESaIwEEaSEOS4_
__ZNSt7__cxx1118basic_stringstreamIcSt11char_traitsIcESaIcEE3strERKNS_12basic_stringIcS2_S3_EE
__ZNSt7__cxx1118basic_stringstreamIcSt11char_traitsIcESaIcEE4swapERS4_
__ZNSt7__cxx1118basic_stringstreamIcSt11char_traitsIcESaIcEEC1EOS4_
__ZNSt7__cxx1118basic_stringstreamIcSt11char_traitsIcESaIcEEC1ERKNS_12basic_stringIcS2_S3_EESt13_Ios_Openmode
__ZNSt7__cxx1118basic_stringstreamIcSt11char_traitsIcESaIcEEC1ESt13_Ios_Openmode
__ZNSt7__cxx1118basic_stringstreamIcSt11char_traitsIcESaIcEEC1Ev
__ZNSt7__cxx1118basic_stringstreamIcSt11char_traitsIcESaIcEEC2EOS4_
__ZNSt7__cxx1118basic_stringstreamIcSt11char_traitsIcESaIcEEC2ERKNS_12basic_stringIcS2_S3_EESt13_Ios_Openmode
__ZNSt7__cxx1118basic_stringstreamIcSt11char_traitsIcESaIcEEC2ESt13_Ios_Openmode
__ZNSt7__cxx1118basic_stringstreamIcSt11char_traitsIcESaIcEEC2Ev
__ZNSt7__cxx1118basic_stringstreamIcSt11char_traitsIcESaIcEED0Ev
__ZNSt7__cxx1118basic_stringstreamIcSt11char_traitsIcESaIcEED1Ev
__ZNSt7__cxx1118basic_stringstreamIcSt11char_traitsIcESaIcEED2Ev
__ZNSt7__cxx1118basic_stringstreamIcSt11char_traitsIcESaIcEEaSEOS4_
__ZNSt7__cxx1118basic_stringstreamIwSt11char_traitsIwESaIwEE3strERKNS_12basic_stringIwS2_S3_EE
__ZNSt7__cxx1118basic_stringstreamIwSt11char_traitsIwESaIwEE4swapERS4_
__ZNSt7__cxx1118basic_stringstreamIwSt11char_traitsIwESaIwEEC1EOS4_
__ZNSt7__cxx1118basic_stringstreamIwSt11char_traitsIwESaIwEEC1ERKNS_12basic_stringIwS2_S3_EESt13_Ios_Openmode
__ZNSt7__cxx1118basic_stringstreamIwSt11char_traitsIwESaIwEEC1ESt13_Ios_Openmode
__ZNSt7__cxx1118basic_stringstreamIwSt11char_traitsIwESaIwEEC1Ev
__ZNSt7__cxx1118basic_stringstreamIwSt11char_traitsIwESaIwEEC2EOS4_
__ZNSt7__cxx1118basic_stringstreamIwSt11char_traitsIwESaIwEEC2ERKNS_12basic_stringIwS2_S3_EESt13_Ios_Openmode
__ZNSt7__cxx1118basic_stringstreamIwSt11char_traitsIwESaIwEEC2ESt13_Ios_Openmode
__ZNSt7__cxx1118basic_stringstreamIwSt11char_traitsIwESaIwEEC2Ev
__ZNSt7__cxx1118basic_stringstreamIwSt11char_traitsIwESaIwEED0Ev
__ZNSt7__cxx1118basic_stringstreamIwSt11char_traitsIwESaIwEED1Ev
__ZNSt7__cxx1118basic_stringstreamIwSt11char_traitsIwESaIwEED2Ev
__ZNSt7__cxx1118basic_stringstreamIwSt11char_traitsIwESaIwEEaSEOS4_
__ZNSt7__cxx1119basic_istringstreamIcSt11char_traitsIcESaIcEE3strERKNS_12basic_stringIcS2_S3_EE
__ZNSt7__cxx1119basic_istringstreamIcSt11char_traitsIcESaIcEE4swapERS4_
__ZNSt7__cxx1119basic_istringstreamIcSt11char_traitsIcESaIcEEC1EOS4_
__ZNSt7__cxx1119basic_istringstreamIcSt11char_traitsIcESaIcEEC1ERKNS_12basic_stringIcS2_S3_EESt13_Ios_Openmode
__ZNSt7__cxx1119basic_istringstreamIcSt11char_traitsIcESaIcEEC1ESt13_Ios_Openmode
__ZNSt7__cxx1119basic_istringstreamIcSt11char_traitsIcESaIcEEC1Ev
__ZNSt7__cxx1119basic_istringstreamIcSt11char_traitsIcESaIcEEC2EOS4_
__ZNSt7__cxx1119basic_istringstreamIcSt11char_traitsIcESaIcEEC2ERKNS_12basic_stringIcS2_S3_EESt13_Ios_Openmode
__ZNSt7__cxx1119basic_istringstreamIcSt11char_traitsIcESaIcEEC2ESt13_Ios_Openmode
__ZNSt7__cxx1119basic_istringstreamIcSt11char_traitsIcESaIcEEC2Ev
__ZNSt7__cxx1119basic_istringstreamIcSt11char_traitsIcESaIcEED0Ev
__ZNSt7__cxx1119basic_istringstreamIcSt11char_traitsIcESaIcEED1Ev
__ZNSt7__cxx1119basic_istringstreamIcSt11char_traitsIcESaIcEED2Ev
__ZNSt7__cxx1119basic_istringstreamIcSt11char_traitsIcESaIcEEaSEOS4_
__ZNSt7__cxx1119basic_istringstreamIwSt11char_traitsIwESaIwEE3strERKNS_12basic_stringIwS2_S3_EE
__ZNSt7__cxx1119basic_istringstreamIwSt11char_traitsIwESaIwEE4swapERS4_
__ZNSt7__cxx1119basic_istringstreamIwSt11char_traitsIwESaIwEEC1EOS4_
__ZNSt7__cxx1119basic_istringstreamIwSt11char_traitsIwESaIwEEC1ERKNS_12basic_stringIwS2_S3_EESt13_Ios_Openmode
__ZNSt7__cxx1119basic_istringstreamIwSt11char_traitsIwESaIwEEC1ESt13_Ios_Openmode
__ZNSt7__cxx1119basic_istringstreamIwSt11char_traitsIwESaIwEEC1Ev
__ZNSt7__cxx1119basic_istringstreamIwSt11char_traitsIwESaIwEEC2EOS4_
__ZNSt7__cxx1119basic_istringstreamIwSt11char_traitsIwESaIwEEC2ERKNS_12basic_stringIwS2_S3_EESt13_Ios_Openmode
__ZNSt7__cxx1119basic_istringstreamIwSt11char_traitsIwESaIwEEC2ESt13_Ios_Openmode
__ZNSt7__cxx1119basic_istringstreamIwSt11char_traitsIwESaIwEEC2Ev
__ZNSt7__cxx1119basic_istringstreamIwSt11char_traitsIwESaIwEED0Ev
__ZNSt7__cxx1119basic_istringstreamIwSt11char_traitsIwESaIwEED1Ev
__ZNSt7__cxx1119basic_istringstreamIwSt11char_traitsIwESaIwEED2Ev
__ZNSt7__cxx1119basic_istringstreamIwSt11char_traitsIwESaIwEEaSEOS4_
__ZNSt7__cxx1119basic_ostringstreamIcSt11char_traitsIcESaIcEE3strERKNS_12basic_stringIcS2_S3_EE
__ZNSt7__cxx1119basic_ostringstreamIcSt11char_traitsIcESaIcEE4swapERS4_
__ZNSt7__cxx1119basic_ostringstreamIcSt11char_traitsIcESaIcEEC1EOS4_
__ZNSt7__cxx1119basic_ostringstreamIcSt11char_traitsIcESaIcEEC1ERKNS_12basic_stringIcS2_S3_EESt13_Ios_Openmode
__ZNSt7__cxx1119basic_ostringstreamIcSt11char_traitsIcESaIcEEC1ESt13_Ios_Openmode
__ZNSt7__cxx1119basic_ostringstreamIcSt11char_traitsIcESaIcEEC1Ev
__ZNSt7__cxx1119basic_ostringstreamIcSt11char_traitsIcESaIcEEC2EOS4_
__ZNSt7__cxx1119basic_ostringstreamIcSt11char_traitsIcESaIcEEC2ERKNS_12basic_stringIcS2_S3_EESt13_Ios_Openmode
__ZNSt7__cxx1119basic_ostringstreamIcSt11char_traitsIcESaIcEEC2ESt13_Ios_Openmode
__ZNSt7__cxx1119basic_ostringstreamIcSt11char_traitsIcESaIcEEC2Ev
__ZNSt7__cxx1119basic_ostringstreamIcSt11char_traitsIcESaIcEED0Ev
__ZNSt7__cxx1119basic_ostringstreamIcSt11char_traitsIcESaIcEED1Ev
__ZNSt7__cxx1119basic_ostringstreamIcSt11char_traitsIcESaIcEED2Ev
__ZNSt7__cxx1119basic_ostringstreamIcSt11char_traitsIcESaIcEEaSEOS4_
__ZNSt7__cxx1119basic_ostringstreamIwSt11char_traitsIwESaIwEE3strERKNS_12basic_stringIwS2_S3_EE
__ZNSt7__cxx1119basic_ostringstreamIwSt11char_traitsIwESaIwEE4swapERS4_
__ZNSt7__cxx1119basic_ostringstreamIwSt11char_traitsIwESaIwEEC1EOS4_
__ZNSt7__cxx1119basic_ostringstreamIwSt11char_traitsIwESaIwEEC1ERKNS_12basic_stringIwS2_S3_EESt13_Ios_Openmode
__ZNSt7__cxx1119basic_ostringstreamIwSt11char_traitsIwESaIwEEC1ESt13_Ios_Openmode
__ZNSt7__cxx1119basic_ostringstreamIwSt11char_traitsIwESaIwEEC1Ev
__ZNSt7__cxx1119basic_ostringstreamIwSt11char_traitsIwESaIwEEC2EOS4_
__ZNSt7__cxx1119basic_ostringstreamIwSt11char_traitsIwESaIwEEC2ERKNS_12basic_stringIwS2_S3_EESt13_Ios_Openmode
__ZNSt7__cxx1119basic_ostringstreamIwSt11char_traitsIwESaIwEEC2ESt13_Ios_Openmode
__ZNSt7__cxx1119basic_ostringstreamIwSt11char_traitsIwESaIwEEC2Ev
__ZNSt7__cxx1119basic_ostringstreamIwSt11char_traitsIwESaIwEED0Ev
__ZNSt7__cxx1119basic_ostringstreamIwSt11char_traitsIwESaIwEED1Ev
__ZNSt7__cxx1119basic_ostringstreamIwSt11char_traitsIwESaIwEED2Ev
__ZNSt7__cxx1119basic_ostringstreamIwSt11char_traitsIwESaIwEEaSEOS4_
__ZThn8_NSt7__cxx1118basic_stringstreamIcSt11char_traitsIcESaIcEED0Ev
__ZThn8_NSt7__cxx1118basic_stringstreamIcSt11char_traitsIcESaIcEED1Ev
__ZThn8_NSt7__cxx1118basic_stringstreamIwSt11char_traitsIwESaIwEED0Ev
__ZThn8_NSt7__cxx1118basic_stringstreamIwSt11char_traitsIwESaIwEED1Ev
__ZTv0_n12_NSt7__cxx1118basic_stringstreamIcSt11char_traitsIcESaIcEED0Ev
__ZTv0_n12_NSt7__cxx1118basic_stringstreamIcSt11char_traitsIcESaIcEED1Ev
__ZTv0_n12_NSt7__cxx1118basic_stringstreamIwSt11char_traitsIwESaIwEED0Ev
__ZTv0_n12_NSt7__cxx1118basic_stringstreamIwSt11char_traitsIwESaIwEED1Ev
__ZTv0_n12_NSt7__cxx1119basic_istringstreamIcSt11char_traitsIcESaIcEED0Ev
__ZTv0_n12_NSt7__cxx1119basic_istringstreamIcSt11char_traitsIcESaIcEED1Ev
__ZTv0_n12_NSt7__cxx1119basic_istringstreamIwSt11char_traitsIwESaIwEED0Ev
__ZTv0_n12_NSt7__cxx1119basic_istringstreamIwSt11char_traitsIwESaIwEED1Ev
__ZTv0_n12_NSt7__cxx1119basic_ostringstreamIcSt11char_traitsIcESaIcEED0Ev
__ZTv0_n12_NSt7__cxx1119basic_ostringstreamIcSt11char_traitsIcESaIcEED1Ev
__ZTv0_n12_NSt7__cxx1119basic_ostringstreamIwSt11char_traitsIwESaIwEED0Ev
__ZTv0_n12_NSt7__cxx1119basic_ostringstreamIwSt11char_traitsIwESaIwEED1Ev
__ZNKSt15basic_streambufIcSt11char_traitsIcEE4gptrEv
__ZNKSt15basic_streambufIcSt11char_traitsIcEE4pptrEv
__ZNKSt15basic_streambufIcSt11char_traitsIcEE5ebackEv
__ZNKSt15basic_streambufIcSt11char_traitsIcEE5egptrEv
__ZNKSt15basic_streambufIcSt11char_traitsIcEE5epptrEv
__ZNKSt15basic_streambufIcSt11char_traitsIcEE5pbaseEv
__ZNKSt15basic_streambufIcSt11char_traitsIcEE6getlocEv
__ZNKSt15basic_streambufIwSt11char_traitsIwEE4gptrEv
__ZNKSt15basic_streambufIwSt11char_traitsIwEE4pptrEv
__ZNKSt15basic_streambufIwSt11char_traitsIwEE5ebackEv
__ZNKSt15basic_streambufIwSt11char_traitsIwEE5egptrEv
__ZNKSt15basic_streambufIwSt11char_traitsIwEE5epptrEv
__ZNKSt15basic_streambufIwSt11char_traitsIwEE5pbaseEv
__ZNKSt15basic_streambufIwSt11char_traitsIwEE6getlocEv
__ZNSt15basic_streambufIcSt11char_traitsIcEE10pubseekoffExSt12_Ios_SeekdirSt13_Ios_Openmode
__ZNSt15basic_streambufIcSt11char_traitsIcEE10pubseekposESt4fposIiESt13_Ios_Openmode
__ZNSt15basic_streambufIcSt11char_traitsIcEE12__safe_gbumpEi
__ZNSt15basic_streambufIcSt11char_traitsIcEE12__safe_pbumpEi
__ZNSt15basic_streambufIcSt11char_traitsIcEE4setgEPcS3_S3_
__ZNSt15basic_streambufIcSt11char_traitsIcEE4setpEPcS3_
__ZNSt15basic_streambufIcSt11char_traitsIcEE4swapERS2_
__ZNSt15basic_streambufIcSt11char_traitsIcEE4syncEv
__ZNSt15basic_streambufIcSt11char_traitsIcEE5gbumpEi
__ZNSt15basic_streambufIcSt11char_traitsIcEE5imbueERKSt6locale
__ZNSt15basic_streambufIcSt11char_traitsIcEE5pbumpEi
__ZNSt15basic_streambufIcSt11char_traitsIcEE5sgetcEv
__ZNSt15basic_streambufIcSt11char_traitsIcEE5sgetnEPci
__ZNSt15basic_streambufIcSt11char_traitsIcEE5sputcEc
__ZNSt15basic_streambufIcSt11char_traitsIcEE5sputnEPKci
__ZNSt15basic_streambufIcSt11char_traitsIcEE5uflowEv
__ZNSt15basic_streambufIcSt11char_traitsIcEE6sbumpcEv
__ZNSt15basic_streambufIcSt11char_traitsIcEE6setbufEPci
__ZNSt15basic_streambufIcSt11char_traitsIcEE6snextcEv
__ZNSt15basic_streambufIcSt11char_traitsIcEE6stosscEv
__ZNSt15basic_streambufIcSt11char_traitsIcEE6xsgetnEPci
__ZNSt15basic_streambufIcSt11char_traitsIcEE6xsputnEPKci
__ZNSt15basic_streambufIcSt11char_traitsIcEE7pubsyncEv
__ZNSt15basic_streambufIcSt11char_traitsIcEE7seekoffExSt12_Ios_SeekdirSt13_Ios_Openmode
__ZNSt15basic_streambufIcSt11char_traitsIcEE7seekposESt4fposIiESt13_Ios_Openmode
__ZNSt15basic_streambufIcSt11char_traitsIcEE7sungetcEv
__ZNSt15basic_streambufIcSt11char_traitsIcEE8in_availEv
__ZNSt15basic_streambufIcSt11char_traitsIcEE8overflowEi
__ZNSt15basic_streambufIcSt11char_traitsIcEE8pubimbueERKSt6locale
__ZNSt15basic_streambufIcSt11char_traitsIcEE9pbackfailEi
__ZNSt15basic_streambufIcSt11char_traitsIcEE9pubsetbufEPci
__ZNSt15basic_streambufIcSt11char_traitsIcEE9showmanycEv
__ZNSt15basic_streambufIcSt11char_traitsIcEE9sputbackcEc
__ZNSt15basic_streambufIcSt11char_traitsIcEE9underflowEv
__ZNSt15basic_streambufIcSt11char_traitsIcEEC1ERKS2_
__ZNSt15basic_streambufIcSt11char_traitsIcEEC1Ev
__ZNSt15basic_streambufIcSt11char_traitsIcEEC2ERKS2_
__ZNSt15basic_streambufIcSt11char_traitsIcEEC2Ev
__ZNSt15basic_streambufIcSt11char_traitsIcEED0Ev
__ZNSt15basic_streambufIcSt11char_traitsIcEED1Ev
__ZNSt15basic_streambufIcSt11char_traitsIcEED2Ev
__ZNSt15basic_streambufIcSt11char_traitsIcEEaSERKS2_
__ZNSt15basic_streambufIwSt11char_traitsIwEE10pubseekoffExSt12_Ios_SeekdirSt13_Ios_Openmode
__ZNSt15basic_streambufIwSt11char_traitsIwEE10pubseekposESt4fposIiESt13_Ios_Openmode
__ZNSt15basic_streambufIwSt11char_traitsIwEE12__safe_gbumpEi
__ZNSt15basic_streambufIwSt11char_traitsIwEE12__safe_pbumpEi
__ZNSt15basic_streambufIwSt11char_traitsIwEE4setgEPwS3_S3_
__ZNSt15basic_streambufIwSt11char_traitsIwEE4setpEPwS3_
__ZNSt15basic_streambufIwSt11char_traitsIwEE4swapERS2_
__ZNSt15basic_streambufIwSt11char_traitsIwEE4syncEv
__ZNSt15basic_streambufIwSt11char_traitsIwEE5gbumpEi
__ZNSt15basic_streambufIwSt11char_traitsIwEE5imbueERKSt6locale
__ZNSt15basic_streambufIwSt11char_traitsIwEE5pbumpEi
__ZNSt15basic_streambufIwSt11char_traitsIwEE5sgetcEv
__ZNSt15basic_streambufIwSt11char_traitsIwEE5sgetnEPwi
__ZNSt15basic_streambufIwSt11char_traitsIwEE5sputcEw
__ZNSt15basic_streambufIwSt11char_traitsIwEE5sputnEPKwi
__ZNSt15basic_streambufIwSt11char_traitsIwEE5uflowEv
__ZNSt15basic_streambufIwSt11char_traitsIwEE6sbumpcEv
__ZNSt15basic_streambufIwSt11char_traitsIwEE6setbufEPwi
__ZNSt15basic_streambufIwSt11char_traitsIwEE6snextcEv
__ZNSt15basic_streambufIwSt11char_traitsIwEE6stosscEv
__ZNSt15basic_streambufIwSt11char_traitsIwEE6xsgetnEPwi
__ZNSt15basic_streambufIwSt11char_traitsIwEE6xsputnEPKwi
__ZNSt15basic_streambufIwSt11char_traitsIwEE7pubsyncEv
__ZNSt15basic_streambufIwSt11char_traitsIwEE7seekoffExSt12_Ios_SeekdirSt13_Ios_Openmode
__ZNSt15basic_streambufIwSt11char_traitsIwEE7seekposESt4fposIiESt13_Ios_Openmode
__ZNSt15basic_streambufIwSt11char_traitsIwEE7sungetcEv
__ZNSt15basic_streambufIwSt11char_traitsIwEE8in_availEv
__ZNSt15basic_streambufIwSt11char_traitsIwEE8overflowEt
__ZNSt15basic_streambufIwSt11char_traitsIwEE8pubimbueERKSt6locale
__ZNSt15basic_streambufIwSt11char_traitsIwEE9pbackfailEt
__ZNSt15basic_streambufIwSt11char_traitsIwEE9pubsetbufEPwi
__ZNSt15basic_streambufIwSt11char_traitsIwEE9showmanycEv
__ZNSt15basic_streambufIwSt11char_traitsIwEE9sputbackcEw
__ZNSt15basic_streambufIwSt11char_traitsIwEE9underflowEv
__ZNSt15basic_streambufIwSt11char_traitsIwEEC1ERKS2_
__ZNSt15basic_streambufIwSt11char_traitsIwEEC1Ev
__ZNSt15basic_streambufIwSt11char_traitsIwEEC2ERKS2_
__ZNSt15basic_streambufIwSt11char_traitsIwEEC2Ev
__ZNSt15basic_streambufIwSt11char_traitsIwEED0Ev
__ZNSt15basic_streambufIwSt11char_traitsIwEED1Ev
__ZNSt15basic_streambufIwSt11char_traitsIwEED2Ev
__ZNSt15basic_streambufIwSt11char_traitsIwEEaSERKS2_
__ZSt17__copy_streambufsIcSt11char_traitsIcEEiPSt15basic_streambufIT_T0_ES6_
__ZSt17__copy_streambufsIwSt11char_traitsIwEEiPSt15basic_streambufIT_T0_ES6_
__ZN9__gnu_cxxeqIPKcNSt7__cxx1112basic_stringIcSt11char_traitsIcESaIcEEEEEbRKNS_17__normal_iteratorIT_T0_EESE_
__ZN9__gnu_cxxeqIPcNSt7__cxx1112basic_stringIcSt11char_traitsIcESaIcEEEEEbRKNS_17__normal_iteratorIT_T0_EESD_
__ZNKSt7__cxx1112basic_stringIcSt11char_traitsIcESaIcEE11_M_disjunctEPKc
__ZNKSt7__cxx1112basic_stringIcSt11char_traitsIcESaIcEE11_M_is_localEv
__ZNKSt7__cxx1112basic_stringIcSt11char_traitsIcESaIcEE12find_last_ofEPKcj
__ZNKSt7__cxx1112basic_stringIcSt11char_traitsIcESaIcEE12find_last_ofEPKcjj
__ZNKSt7__cxx1112basic_stringIcSt11char_traitsIcESaIcEE12find_last_ofERKS4_j
__ZNKSt7__cxx1112basic_stringIcSt11char_traitsIcESaIcEE12find_last_ofEcj
__ZNKSt7__cxx1112basic_stringIcSt11char_traitsIcESaIcEE13_M_local_dataEv
__ZNKSt7__cxx1112basic_stringIcSt11char_traitsIcESaIcEE13find_first_ofEPKcj
__ZNKSt7__cxx1112basic_stringIcSt11char_traitsIcESaIcEE13find_first_ofEPKcjj
__ZNKSt7__cxx1112basic_stringIcSt11char_traitsIcESaIcEE13find_first_ofERKS4_j
__ZNKSt7__cxx1112basic_stringIcSt11char_traitsIcESaIcEE13find_first_ofEcj
__ZNKSt7__cxx1112basic_stringIcSt11char_traitsIcESaIcEE13get_allocatorEv
__ZNKSt7__cxx1112basic_stringIcSt11char_traitsIcESaIcEE15_M_check_lengthEjjPKc
__ZNKSt7__cxx1112basic_stringIcSt11char_traitsIcESaIcEE16_M_get_allocatorEv
__ZNKSt7__cxx1112basic_stringIcSt11char_traitsIcESaIcEE16find_last_not_ofEPKcj
__ZNKSt7__cxx1112basic_stringIcSt11char_traitsIcESaIcEE16find_last_not_ofEPKcjj
__ZNKSt7__cxx1112basic_stringIcSt11char_traitsIcESaIcEE16find_last_not_ofERKS4_j
__ZNKSt7__cxx1112basic_stringIcSt11char_traitsIcESaIcEE16find_last_not_ofEcj
__ZNKSt7__cxx1112basic_stringIcSt11char_traitsIcESaIcEE17find_first_not_ofEPKcj
__ZNKSt7__cxx1112basic_stringIcSt11char_traitsIcESaIcEE17find_first_not_ofEPKcjj
__ZNKSt7__cxx1112basic_stringIcSt11char_traitsIcESaIcEE17find_first_not_ofERKS4_j
__ZNKSt7__cxx1112basic_stringIcSt11char_traitsIcESaIcEE17find_first_not_ofEcj
__ZNKSt7__cxx1112basic_stringIcSt11char_traitsIcESaIcEE2atEj
__ZNKSt7__cxx1112basic_stringIcSt11char_traitsIcESaIcEE3endEv
__ZNKSt7__cxx1112basic_stringIcSt11char_traitsIcESaIcEE4backEv
__ZNKSt7__cxx1112basic_stringIcSt11char_traitsIcESaIcEE4cendEv
__ZNKSt7__cxx1112basic_stringIcSt11char_traitsIcESaIcEE4copyEPcjj
__ZNKSt7__cxx1112basic_stringIcSt11char_traitsIcESaIcEE4dataEv
__ZNKSt7__cxx1112basic_stringIcSt11char_traitsIcESaIcEE4findEPKcj
__ZNKSt7__cxx1112basic_stringIcSt11char_traitsIcESaIcEE4findEPKcjj
__ZNKSt7__cxx1112basic_stringIcSt11char_traitsIcESaIcEE4findERKS4_j
__ZNKSt7__cxx1112basic_stringIcSt11char_traitsIcESaIcEE4findEcj
__ZNKSt7__cxx1112basic_stringIcSt11char_traitsIcESaIcEE4rendEv
__ZNKSt7__cxx1112basic_stringIcSt11char_traitsIcESaIcEE4sizeEv
__ZNKSt7__cxx1112basic_stringIcSt11char_traitsIcESaIcEE5beginEv
__ZNKSt7__cxx1112basic_stringIcSt11char_traitsIcESaIcEE5c_strEv
__ZNKSt7__cxx1112basic_stringIcSt11char_traitsIcESaIcEE5crendEv
__ZNKSt7__cxx1112basic_stringIcSt11char_traitsIcESaIcEE5emptyEv
__ZNKSt7__cxx1112basic_stringIcSt11char_traitsIcESaIcEE5frontEv
__ZNKSt7__cxx1112basic_stringIcSt11char_traitsIcESaIcEE5rfindEPKcj
__ZNKSt7__cxx1112basic_stringIcSt11char_traitsIcESaIcEE5rfindEPKcjj
__ZNKSt7__cxx1112basic_stringIcSt11char_traitsIcESaIcEE5rfindERKS4_j
__ZNKSt7__cxx1112basic_stringIcSt11char_traitsIcESaIcEE5rfindEcj
__ZNKSt7__cxx1112basic_stringIcSt11char_traitsIcESaIcEE6cbeginEv
__ZNKSt7__cxx1112basic_stringIcSt11char_traitsIcESaIcEE6lengthEv
__ZNKSt7__cxx1112basic_stringIcSt11char_traitsIcESaIcEE6rbeginEv
__ZNKSt7__cxx1112basic_stringIcSt11char_traitsIcESaIcEE6substrEjj
__ZNKSt7__cxx1112basic_stringIcSt11char_traitsIcESaIcEE7_M_dataEv
__ZNKSt7__cxx1112basic_stringIcSt11char_traitsIcESaIcEE7compareEPKc
__ZNKSt7__cxx1112basic_stringIcSt11char_traitsIcESaIcEE7compareERKS4_
__ZNKSt7__cxx1112basic_stringIcSt11char_traitsIcESaIcEE7compareEjjPKc
__ZNKSt7__cxx1112basic_stringIcSt11char_traitsIcESaIcEE7compareEjjPKcj
__ZNKSt7__cxx1112basic_stringIcSt11char_traitsIcESaIcEE7compareEjjRKS4_
__ZNKSt7__cxx1112basic_stringIcSt11char_traitsIcESaIcEE7compareEjjRKS4_jj
__ZNKSt7__cxx1112basic_stringIcSt11char_traitsIcESaIcEE7crbeginEv
__ZNKSt7__cxx1112basic_stringIcSt11char_traitsIcESaIcEE8_M_checkEjPKc
__ZNKSt7__cxx1112basic_stringIcSt11char_traitsIcESaIcEE8_M_limitEjj
__ZNKSt7__cxx1112basic_stringIcSt11char_traitsIcESaIcEE8capacityEv
__ZNKSt7__cxx1112basic_stringIcSt11char_traitsIcESaIcEE8max_sizeEv
__ZNKSt7__cxx1112basic_stringIcSt11char_traitsIcESaIcEEixEj
__ZNSt7__cxx1112basic_stringIcSt11char_traitsIcESaIcEE10_M_destroyEj
__ZNSt7__cxx1112basic_stringIcSt11char_traitsIcESaIcEE10_M_disposeEv
__ZNSt7__cxx1112basic_stringIcSt11char_traitsIcESaIcEE10_M_replaceEjjPKcj
__ZNSt7__cxx1112basic_stringIcSt11char_traitsIcESaIcEE10_S_compareEjj
__ZNSt7__cxx1112basic_stringIcSt11char_traitsIcESaIcEE11_M_capacityEj
__ZNSt7__cxx1112basic_stringIcSt11char_traitsIcESaIcEE12_Alloc_hiderC1EPcOS3_
__ZNSt7__cxx1112basic_stringIcSt11char_traitsIcESaIcEE12_Alloc_hiderC1EPcRKS3_
__ZNSt7__cxx1112basic_stringIcSt11char_traitsIcESaIcEE12_Alloc_hiderC2EPcOS3_
__ZNSt7__cxx1112basic_stringIcSt11char_traitsIcESaIcEE12_Alloc_hiderC2EPcRKS3_
__ZNSt7__cxx1112basic_stringIcSt11char_traitsIcESaIcEE12_M_constructEjc
__ZNSt7__cxx1112basic_stringIcSt11char_traitsIcESaIcEE12_M_constructIN9__gnu_cxx17__normal_iteratorIPKcS4_EEEEvT_SB_St20forward_iterator_tag
__ZNSt7__cxx1112basic_stringIcSt11char_traitsIcESaIcEE12_M_constructIN9__gnu_cxx17__normal_iteratorIPcS4_EEEEvT_SA_St20forward_iterator_tag
__ZNSt7__cxx1112basic_stringIcSt11char_traitsIcESaIcEE12_M_constructIPKcEEvT_S8_St20forward_iterator_tag
__ZNSt7__cxx1112basic_stringIcSt11char_traitsIcESaIcEE12_M_constructIPcEEvT_S7_St20forward_iterator_tag
__ZNSt7__cxx1112basic_stringIcSt11char_traitsIcESaIcEE13_M_local_dataEv
__ZNSt7__cxx1112basic_stringIcSt11char_traitsIcESaIcEE13_M_set_lengthEj
__ZNSt7__cxx1112basic_stringIcSt11char_traitsIcESaIcEE13_S_copy_charsEPcN9__gnu_cxx17__normal_iteratorIPKcS4_EESA_
__ZNSt7__cxx1112basic_stringIcSt11char_traitsIcESaIcEE13_S_copy_charsEPcN9__gnu_cxx17__normal_iteratorIS5_S4_EES8_
__ZNSt7__cxx1112basic_stringIcSt11char_traitsIcESaIcEE13_S_copy_charsEPcPKcS7_
__ZNSt7__cxx1112basic_stringIcSt11char_traitsIcESaIcEE13_S_copy_charsEPcS5_S5_
__ZNSt7__cxx1112basic_stringIcSt11char_traitsIcESaIcEE13shrink_to_fitEv
__ZNSt7__cxx1112basic_stringIcSt11char_traitsIcESaIcEE14_M_replace_auxEjjjc
__ZNSt7__cxx1112basic_stringIcSt11char_traitsIcESaIcEE16_M_get_allocatorEv
__ZNSt7__cxx1112basic_stringIcSt11char_traitsIcESaIcEE18_M_construct_aux_2Ejc
__ZNSt7__cxx1112basic_stringIcSt11char_traitsIcESaIcEE2atEj
__ZNSt7__cxx1112basic_stringIcSt11char_traitsIcESaIcEE3endEv
__ZNSt7__cxx1112basic_stringIcSt11char_traitsIcESaIcEE4backEv
__ZNSt7__cxx1112basic_stringIcSt11char_traitsIcESaIcEE4rendEv
__ZNSt7__cxx1112basic_stringIcSt11char_traitsIcESaIcEE4swapERS4_
__ZNSt7__cxx1112basic_stringIcSt11char_traitsIcESaIcEE5beginEv
__ZNSt7__cxx1112basic_stringIcSt11char_traitsIcESaIcEE5clearEv
__ZNSt7__cxx1112basic_stringIcSt11char_traitsIcESaIcEE5eraseEN9__gnu_cxx17__normal_iteratorIPKcS4_EE
__ZNSt7__cxx1112basic_stringIcSt11char_traitsIcESaIcEE5eraseEN9__gnu_cxx17__normal_iteratorIPKcS4_EES9_
__ZNSt7__cxx1112basic_stringIcSt11char_traitsIcESaIcEE5eraseEjj
__ZNSt7__cxx1112basic_stringIcSt11char_traitsIcESaIcEE5frontEv
__ZNSt7__cxx1112basic_stringIcSt11char_traitsIcESaIcEE6appendEPKc
__ZNSt7__cxx1112basic_stringIcSt11char_traitsIcESaIcEE6appendEPKcj
__ZNSt7__cxx1112basic_stringIcSt11char_traitsIcESaIcEE6appendERKS4_
__ZNSt7__cxx1112basic_stringIcSt11char_traitsIcESaIcEE6appendERKS4_jj
__ZNSt7__cxx1112basic_stringIcSt11char_traitsIcESaIcEE6appendESt16initializer_listIcE
__ZNSt7__cxx1112basic_stringIcSt11char_traitsIcESaIcEE6appendEjc
__ZNSt7__cxx1112basic_stringIcSt11char_traitsIcESaIcEE6assignEOS4_
__ZNSt7__cxx1112basic_stringIcSt11char_traitsIcESaIcEE6assignEPKc
__ZNSt7__cxx1112basic_stringIcSt11char_traitsIcESaIcEE6assignEPKcj
__ZNSt7__cxx1112basic_stringIcSt11char_traitsIcESaIcEE6assignERKS4_
__ZNSt7__cxx1112basic_stringIcSt11char_traitsIcESaIcEE6assignERKS4_jj
__ZNSt7__cxx1112basic_stringIcSt11char_traitsIcESaIcEE6assignESt16initializer_listIcE
__ZNSt7__cxx1112basic_stringIcSt11char_traitsIcESaIcEE6assignEjc
__ZNSt7__cxx1112basic_stringIcSt11char_traitsIcESaIcEE6insertEN9__gnu_cxx17__normal_iteratorIPKcS4_EESt16initializer_listIcE
__ZNSt7__cxx1112basic_stringIcSt11char_traitsIcESaIcEE6insertEN9__gnu_cxx17__normal_iteratorIPKcS4_EEc
__ZNSt7__cxx1112basic_stringIcSt11char_traitsIcESaIcEE6insertEN9__gnu_cxx17__normal_iteratorIPKcS4_EEjc
__ZNSt7__cxx1112basic_stringIcSt11char_traitsIcESaIcEE6insertEN9__gnu_cxx17__normal_iteratorIPcS4_EESt16initializer_listIcE
__ZNSt7__cxx1112basic_stringIcSt11char_traitsIcESaIcEE6insertEjPKc
__ZNSt7__cxx1112basic_stringIcSt11char_traitsIcESaIcEE6insertEjPKcj
__ZNSt7__cxx1112basic_stringIcSt11char_traitsIcESaIcEE6insertEjRKS4_
__ZNSt7__cxx1112basic_stringIcSt11char_traitsIcESaIcEE6insertEjRKS4_jj
__ZNSt7__cxx1112basic_stringIcSt11char_traitsIcESaIcEE6insertEjjc
__ZNSt7__cxx1112basic_stringIcSt11char_traitsIcESaIcEE6rbeginEv
__ZNSt7__cxx1112basic_stringIcSt11char_traitsIcESaIcEE6resizeEj
__ZNSt7__cxx1112basic_stringIcSt11char_traitsIcESaIcEE6resizeEjc
__ZNSt7__cxx1112basic_stringIcSt11char_traitsIcESaIcEE7_M_dataEPc
__ZNSt7__cxx1112basic_stringIcSt11char_traitsIcESaIcEE7_S_copyEPcPKcj
__ZNSt7__cxx1112basic_stringIcSt11char_traitsIcESaIcEE7_S_moveEPcPKcj
__ZNSt7__cxx1112basic_stringIcSt11char_traitsIcESaIcEE7replaceEN9__gnu_cxx17__normal_iteratorIPKcS4_EES9_NS6_IPcS4_EESB_
__ZNSt7__cxx1112basic_stringIcSt11char_traitsIcESaIcEE7replaceEN9__gnu_cxx17__normal_iteratorIPKcS4_EES9_PcSA_
__ZNSt7__cxx1112basic_stringIcSt11char_traitsIcESaIcEE7replaceEN9__gnu_cxx17__normal_iteratorIPKcS4_EES9_RKS4_
__ZNSt7__cxx1112basic_stringIcSt11char_traitsIcESaIcEE7replaceEN9__gnu_cxx17__normal_iteratorIPKcS4_EES9_S8_
__ZNSt7__cxx1112basic_stringIcSt11char_traitsIcESaIcEE7replaceEN9__gnu_cxx17__normal_iteratorIPKcS4_EES9_S8_S8_
__ZNSt7__cxx1112basic_stringIcSt11char_traitsIcESaIcEE7replaceEN9__gnu_cxx17__normal_iteratorIPKcS4_EES9_S8_j
__ZNSt7__cxx1112basic_stringIcSt11char_traitsIcESaIcEE7replaceEN9__gnu_cxx17__normal_iteratorIPKcS4_EES9_S9_S9_
__ZNSt7__cxx1112basic_stringIcSt11char_traitsIcESaIcEE7replaceEN9__gnu_cxx17__normal_iteratorIPKcS4_EES9_St16initializer_listIcE
__ZNSt7__cxx1112basic_stringIcSt11char_traitsIcESaIcEE7replaceEN9__gnu_cxx17__normal_iteratorIPKcS4_EES9_jc
__ZNSt7__cxx1112basic_stringIcSt11char_traitsIcESaIcEE7replaceEjjPKc
__ZNSt7__cxx1112basic_stringIcSt11char_traitsIcESaIcEE7replaceEjjPKcj
__ZNSt7__cxx1112basic_stringIcSt11char_traitsIcESaIcEE7replaceEjjRKS4_
__ZNSt7__cxx1112basic_stringIcSt11char_traitsIcESaIcEE7replaceEjjRKS4_jj
__ZNSt7__cxx1112basic_stringIcSt11char_traitsIcESaIcEE7replaceEjjjc
__ZNSt7__cxx1112basic_stringIcSt11char_traitsIcESaIcEE7reserveEj
__ZNSt7__cxx1112basic_stringIcSt11char_traitsIcESaIcEE8_M_eraseEjj
__ZNSt7__cxx1112basic_stringIcSt11char_traitsIcESaIcEE8pop_backEv
__ZNSt7__cxx1112basic_stringIcSt11char_traitsIcESaIcEE9_M_appendEPKcj
__ZNSt7__cxx1112basic_stringIcSt11char_traitsIcESaIcEE9_M_assignERKS4_
__ZNSt7__cxx1112basic_stringIcSt11char_traitsIcESaIcEE9_M_createERjj
__ZNSt7__cxx1112basic_stringIcSt11char_traitsIcESaIcEE9_M_lengthEj
__ZNSt7__cxx1112basic_stringIcSt11char_traitsIcESaIcEE9_M_mutateEjjPKcj
__ZNSt7__cxx1112basic_stringIcSt11char_traitsIcESaIcEE9_S_assignEPcjc
__ZNSt7__cxx1112basic_stringIcSt11char_traitsIcESaIcEE9push_backEc
__ZNSt7__cxx1112basic_stringIcSt11char_traitsIcESaIcEEC1EOS4_
__ZNSt7__cxx1112basic_stringIcSt11char_traitsIcESaIcEEC1EOS4_RKS3_
__ZNSt7__cxx1112basic_stringIcSt11char_traitsIcESaIcEEC1EPKcRKS3_
__ZNSt7__cxx1112basic_stringIcSt11char_traitsIcESaIcEEC1EPKcjRKS3_
__ZNSt7__cxx1112basic_stringIcSt11char_traitsIcESaIcEEC1ERKS3_
__ZNSt7__cxx1112basic_stringIcSt11char_traitsIcESaIcEEC1ERKS4_
__ZNSt7__cxx1112basic_stringIcSt11char_traitsIcESaIcEEC1ERKS4_RKS3_
__ZNSt7__cxx1112basic_stringIcSt11char_traitsIcESaIcEEC1ERKS4_jRKS3_
__ZNSt7__cxx1112basic_stringIcSt11char_traitsIcESaIcEEC1ERKS4_jj
__ZNSt7__cxx1112basic_stringIcSt11char_traitsIcESaIcEEC1ERKS4_jjRKS3_
__ZNSt7__cxx1112basic_stringIcSt11char_traitsIcESaIcEEC1ESt16initializer_listIcERKS3_
__ZNSt7__cxx1112basic_stringIcSt11char_traitsIcESaIcEEC1EjcRKS3_
__ZNSt7__cxx1112basic_stringIcSt11char_traitsIcESaIcEEC1Ev
__ZNSt7__cxx1112basic_stringIcSt11char_traitsIcESaIcEEC1IN9__gnu_cxx17__normal_iteratorIPcS4_EEvEET_SA_RKS3_
__ZNSt7__cxx1112basic_stringIcSt11char_traitsIcESaIcEEC1IPKcvEET_S8_RKS3_
__ZNSt7__cxx1112basic_stringIcSt11char_traitsIcESaIcEEC1IPcvEET_S7_RKS3_
__ZNSt7__cxx1112basic_stringIcSt11char_traitsIcESaIcEEC2EOS4_
__ZNSt7__cxx1112basic_stringIcSt11char_traitsIcESaIcEEC2EOS4_RKS3_
__ZNSt7__cxx1112basic_stringIcSt11char_traitsIcESaIcEEC2EPKcRKS3_
__ZNSt7__cxx1112basic_stringIcSt11char_traitsIcESaIcEEC2EPKcjRKS3_
__ZNSt7__cxx1112basic_stringIcSt11char_traitsIcESaIcEEC2ERKS3_
__ZNSt7__cxx1112basic_stringIcSt11char_traitsIcESaIcEEC2ERKS4_
__ZNSt7__cxx1112basic_stringIcSt11char_traitsIcESaIcEEC2ERKS4_RKS3_
__ZNSt7__cxx1112basic_stringIcSt11char_traitsIcESaIcEEC2ERKS4_jRKS3_
__ZNSt7__cxx1112basic_stringIcSt11char_traitsIcESaIcEEC2ERKS4_jj
__ZNSt7__cxx1112basic_stringIcSt11char_traitsIcESaIcEEC2ERKS4_jjRKS3_
__ZNSt7__cxx1112basic_stringIcSt11char_traitsIcESaIcEEC2ESt16initializer_listIcERKS3_
__ZNSt7__cxx1112basic_stringIcSt11char_traitsIcESaIcEEC2EjcRKS3_
__ZNSt7__cxx1112basic_stringIcSt11char_traitsIcESaIcEEC2Ev
__ZNSt7__cxx1112basic_stringIcSt11char_traitsIcESaIcEEC2IN9__gnu_cxx17__normal_iteratorIPcS4_EEvEET_SA_RKS3_
__ZNSt7__cxx1112basic_stringIcSt11char_traitsIcESaIcEEC2IPKcvEET_S8_RKS3_
__ZNSt7__cxx1112basic_stringIcSt11char_traitsIcESaIcEEC2IPcvEET_S7_RKS3_
__ZNSt7__cxx1112basic_stringIcSt11char_traitsIcESaIcEED1Ev
__ZNSt7__cxx1112basic_stringIcSt11char_traitsIcESaIcEED2Ev
__ZNSt7__cxx1112basic_stringIcSt11char_traitsIcESaIcEEaSEOS4_
__ZNSt7__cxx1112basic_stringIcSt11char_traitsIcESaIcEEaSEPKc
__ZNSt7__cxx1112basic_stringIcSt11char_traitsIcESaIcEEaSERKS4_
__ZNSt7__cxx1112basic_stringIcSt11char_traitsIcESaIcEEaSESt16initializer_listIcE
__ZNSt7__cxx1112basic_stringIcSt11char_traitsIcESaIcEEaSEc
__ZNSt7__cxx1112basic_stringIcSt11char_traitsIcESaIcEEixEj
__ZNSt7__cxx1112basic_stringIcSt11char_traitsIcESaIcEEpLEPKc
__ZNSt7__cxx1112basic_stringIcSt11char_traitsIcESaIcEEpLERKS4_
__ZNSt7__cxx1112basic_stringIcSt11char_traitsIcESaIcEEpLESt16initializer_listIcE
__ZNSt7__cxx1112basic_stringIcSt11char_traitsIcESaIcEEpLEc
__ZStplIcSt11char_traitsIcESaIcEENSt7__cxx1112basic_stringIT_T0_T1_EEPKS5_RKS8_
__ZStplIcSt11char_traitsIcESaIcEENSt7__cxx1112basic_stringIT_T0_T1_EERKS8_SA_
__ZStplIcSt11char_traitsIcESaIcEENSt7__cxx1112basic_stringIT_T0_T1_EES5_RKS8_
__ZNKSt5ctypeIcE8do_widenEc
__ZSt7getlineIcSt11char_traitsIcESaIcEERSt13basic_istreamIT_T0_ES7_RNSt7__cxx1112basic_stringIS4_S5_T1_EE
__ZStlsIcSt11char_traitsIcESaIcEERSt13basic_ostreamIT_T0_ES7_RKNSt7__cxx1112basic_stringIS4_S5_T1_EE
__ZNKSt10error_code23default_error_conditionEv
__ZNKSt3_V214error_category10_M_messageB5cxx11Ei
__ZNKSt3_V214error_category10equivalentERKSt10error_codei
__ZNKSt3_V214error_category10equivalentEiRKSt15error_condition
__ZNKSt3_V214error_category23default_error_conditionEi
__ZNSt12system_errorD0Ev
__ZNSt12system_errorD1Ev
__ZNSt12system_errorD2Ev
__ZNSt3_V214error_categoryD0Ev
__ZNSt3_V214error_categoryD1Ev
__ZNSt3_V214error_categoryD2Ev
__ZNSt3_V215system_categoryEv
__ZNSt3_V216generic_categoryEv
__ZSt20__throw_system_errori
__ZNSt11this_thread11__sleep_forENSt6chrono8durationIxSt5ratioILx1ELx1EEEENS1_IxS2_ILx1ELx1000000000EEEE
__ZNSt15_Sp_counted_ptrIDnLN9__gnu_cxx12_Lock_policyE2EE10_M_disposeEv
__ZNSt16_Sp_counted_baseILN9__gnu_cxx12_Lock_policyE2EE10_M_destroyEv
__ZNSt16_Sp_counted_baseILN9__gnu_cxx12_Lock_policyE2EE10_M_releaseEv
__ZNSt6thread15_M_start_threadESt10shared_ptrINS_10_Impl_baseEE
__ZNSt6thread15_M_start_threadESt10shared_ptrINS_10_Impl_baseEEPFvvE
__ZNSt6thread15_M_start_threadESt10unique_ptrINS_6_StateESt14default_deleteIS1_EEPFvvE
__ZNSt6thread20hardware_concurrencyEv
__ZNSt6thread4joinEv
__ZNSt6thread6_StateD0Ev
__ZNSt6thread6_StateD1Ev
__ZNSt6thread6_StateD2Ev
__ZNSt6thread6detachEv
__ZNKSt10moneypunctIwLb0EE10neg_formatEv
__ZNKSt10moneypunctIwLb0EE10pos_formatEv
__ZNKSt10moneypunctIwLb0EE11curr_symbolEv
__ZNKSt10moneypunctIwLb0EE11do_groupingEv
__ZNKSt10moneypunctIwLb0EE11frac_digitsEv
__ZNKSt10moneypunctIwLb0EE13decimal_pointEv
__ZNKSt10moneypunctIwLb0EE13do_neg_formatEv
__ZNKSt10moneypunctIwLb0EE13do_pos_formatEv
__ZNKSt10moneypunctIwLb0EE13negative_signEv
__ZNKSt10moneypunctIwLb0EE13positive_signEv
__ZNKSt10moneypunctIwLb0EE13thousands_sepEv
__ZNKSt10moneypunctIwLb0EE14do_curr_symbolEv
__ZNKSt10moneypunctIwLb0EE14do_frac_digitsEv
__ZNKSt10moneypunctIwLb0EE16do_decimal_pointEv
__ZNKSt10moneypunctIwLb0EE16do_negative_signEv
__ZNKSt10moneypunctIwLb0EE16do_positive_signEv
__ZNKSt10moneypunctIwLb0EE16do_thousands_sepEv
__ZNKSt10moneypunctIwLb0EE8groupingEv
__ZNKSt10moneypunctIwLb1EE10neg_formatEv
__ZNKSt10moneypunctIwLb1EE10pos_formatEv
__ZNKSt10moneypunctIwLb1EE11curr_symbolEv
__ZNKSt10moneypunctIwLb1EE11do_groupingEv
__ZNKSt10moneypunctIwLb1EE11frac_digitsEv
__ZNKSt10moneypunctIwLb1EE13decimal_pointEv
__ZNKSt10moneypunctIwLb1EE13do_neg_formatEv
__ZNKSt10moneypunctIwLb1EE13do_pos_formatEv
__ZNKSt10moneypunctIwLb1EE13negative_signEv
__ZNKSt10moneypunctIwLb1EE13positive_signEv
__ZNKSt10moneypunctIwLb1EE13thousands_sepEv
__ZNKSt10moneypunctIwLb1EE14do_curr_symbolEv
__ZNKSt10moneypunctIwLb1EE14do_frac_digitsEv
__ZNKSt10moneypunctIwLb1EE16do_decimal_pointEv
__ZNKSt10moneypunctIwLb1EE16do_negative_signEv
__ZNKSt10moneypunctIwLb1EE16do_positive_signEv
__ZNKSt10moneypunctIwLb1EE16do_thousands_sepEv
__ZNKSt10moneypunctIwLb1EE8groupingEv
__ZNKSt11__timepunctIwE15_M_am_pm_formatEPKw
__ZNKSt11__timepunctIwE15_M_date_formatsEPPKw
__ZNKSt11__timepunctIwE15_M_time_formatsEPPKw
__ZNKSt11__timepunctIwE19_M_days_abbreviatedEPPKw
__ZNKSt11__timepunctIwE20_M_date_time_formatsEPPKw
__ZNKSt11__timepunctIwE21_M_months_abbreviatedEPPKw
__ZNKSt11__timepunctIwE7_M_daysEPPKw
__ZNKSt11__timepunctIwE8_M_am_pmEPPKw
__ZNKSt11__timepunctIwE9_M_monthsEPPKw
__ZNKSt11__use_cacheISt16__numpunct_cacheIwEEclERKSt6locale
__ZNKSt19istreambuf_iteratorIwSt11char_traitsIwEE5equalERKS2_
__ZNKSt19istreambuf_iteratorIwSt11char_traitsIwEE6_M_getEv
__ZNKSt7collateIwE10do_compareEPKwS2_S2_S2_
__ZNKSt7collateIwE12do_transformEPKwS2_
__ZNKSt7collateIwE4hashEPKwS2_
__ZNKSt7collateIwE7compareEPKwS2_S2_S2_
__ZNKSt7collateIwE7do_hashEPKwS2_
__ZNKSt7collateIwE9transformEPKwS2_
__ZNKSt7num_getIwSt19istreambuf_iteratorIwSt11char_traitsIwEEE14_M_extract_intIjEES3_S3_S3_RSt8ios_baseRSt12_Ios_IostateRT_
__ZNKSt7num_getIwSt19istreambuf_iteratorIwSt11char_traitsIwEEE14_M_extract_intIlEES3_S3_S3_RSt8ios_baseRSt12_Ios_IostateRT_
__ZNKSt7num_getIwSt19istreambuf_iteratorIwSt11char_traitsIwEEE14_M_extract_intImEES3_S3_S3_RSt8ios_baseRSt12_Ios_IostateRT_
__ZNKSt7num_getIwSt19istreambuf_iteratorIwSt11char_traitsIwEEE14_M_extract_intItEES3_S3_S3_RSt8ios_baseRSt12_Ios_IostateRT_
__ZNKSt7num_getIwSt19istreambuf_iteratorIwSt11char_traitsIwEEE14_M_extract_intIxEES3_S3_S3_RSt8ios_baseRSt12_Ios_IostateRT_
__ZNKSt7num_getIwSt19istreambuf_iteratorIwSt11char_traitsIwEEE14_M_extract_intIyEES3_S3_S3_RSt8ios_baseRSt12_Ios_IostateRT_
__ZNKSt7num_getIwSt19istreambuf_iteratorIwSt11char_traitsIwEEE16_M_extract_floatES3_S3_RSt8ios_baseRSt12_Ios_IostateRSs
__ZNKSt7num_getIwSt19istreambuf_iteratorIwSt11char_traitsIwEEE3getES3_S3_RSt8ios_baseRSt12_Ios_IostateRPv
__ZNKSt7num_getIwSt19istreambuf_iteratorIwSt11char_traitsIwEEE3getES3_S3_RSt8ios_baseRSt12_Ios_IostateRb
__ZNKSt7num_getIwSt19istreambuf_iteratorIwSt11char_traitsIwEEE3getES3_S3_RSt8ios_baseRSt12_Ios_IostateRd
__ZNKSt7num_getIwSt19istreambuf_iteratorIwSt11char_traitsIwEEE3getES3_S3_RSt8ios_baseRSt12_Ios_IostateRe
__ZNKSt7num_getIwSt19istreambuf_iteratorIwSt11char_traitsIwEEE3getES3_S3_RSt8ios_baseRSt12_Ios_IostateRf
__ZNKSt7num_getIwSt19istreambuf_iteratorIwSt11char_traitsIwEEE3getES3_S3_RSt8ios_baseRSt12_Ios_IostateRj
__ZNKSt7num_getIwSt19istreambuf_iteratorIwSt11char_traitsIwEEE3getES3_S3_RSt8ios_baseRSt12_Ios_IostateRl
__ZNKSt7num_getIwSt19istreambuf_iteratorIwSt11char_traitsIwEEE3getES3_S3_RSt8ios_baseRSt12_Ios_IostateRm
__ZNKSt7num_getIwSt19istreambuf_iteratorIwSt11char_traitsIwEEE3getES3_S3_RSt8ios_baseRSt12_Ios_IostateRt
__ZNKSt7num_getIwSt19istreambuf_iteratorIwSt11char_traitsIwEEE3getES3_S3_RSt8ios_baseRSt12_Ios_IostateRx
__ZNKSt7num_getIwSt19istreambuf_iteratorIwSt11char_traitsIwEEE3getES3_S3_RSt8ios_baseRSt12_Ios_IostateRy
__ZNKSt7num_getIwSt19istreambuf_iteratorIwSt11char_traitsIwEEE6do_getES3_S3_RSt8ios_baseRSt12_Ios_IostateRPv
__ZNKSt7num_getIwSt19istreambuf_iteratorIwSt11char_traitsIwEEE6do_getES3_S3_RSt8ios_baseRSt12_Ios_IostateRb
__ZNKSt7num_getIwSt19istreambuf_iteratorIwSt11char_traitsIwEEE6do_getES3_S3_RSt8ios_baseRSt12_Ios_IostateRd
__ZNKSt7num_getIwSt19istreambuf_iteratorIwSt11char_traitsIwEEE6do_getES3_S3_RSt8ios_baseRSt12_Ios_IostateRe
__ZNKSt7num_getIwSt19istreambuf_iteratorIwSt11char_traitsIwEEE6do_getES3_S3_RSt8ios_baseRSt12_Ios_IostateRf
__ZNKSt7num_getIwSt19istreambuf_iteratorIwSt11char_traitsIwEEE6do_getES3_S3_RSt8ios_baseRSt12_Ios_IostateRj
__ZNKSt7num_getIwSt19istreambuf_iteratorIwSt11char_traitsIwEEE6do_getES3_S3_RSt8ios_baseRSt12_Ios_IostateRl
__ZNKSt7num_getIwSt19istreambuf_iteratorIwSt11char_traitsIwEEE6do_getES3_S3_RSt8ios_baseRSt12_Ios_IostateRm
__ZNKSt7num_getIwSt19istreambuf_iteratorIwSt11char_traitsIwEEE6do_getES3_S3_RSt8ios_baseRSt12_Ios_IostateRt
__ZNKSt7num_getIwSt19istreambuf_iteratorIwSt11char_traitsIwEEE6do_getES3_S3_RSt8ios_baseRSt12_Ios_IostateRx
__ZNKSt7num_getIwSt19istreambuf_iteratorIwSt11char_traitsIwEEE6do_getES3_S3_RSt8ios_baseRSt12_Ios_IostateRy
__ZNKSt7num_putIwSt19ostreambuf_iteratorIwSt11char_traitsIwEEE12_M_group_intEPKcjwRSt8ios_basePwS9_Ri
__ZNKSt7num_putIwSt19ostreambuf_iteratorIwSt11char_traitsIwEEE13_M_insert_intIlEES3_S3_RSt8ios_basewT_
__ZNKSt7num_putIwSt19ostreambuf_iteratorIwSt11char_traitsIwEEE13_M_insert_intImEES3_S3_RSt8ios_basewT_
__ZNKSt7num_putIwSt19ostreambuf_iteratorIwSt11char_traitsIwEEE13_M_insert_intIxEES3_S3_RSt8ios_basewT_
__ZNKSt7num_putIwSt19ostreambuf_iteratorIwSt11char_traitsIwEEE13_M_insert_intIyEES3_S3_RSt8ios_basewT_
__ZNKSt7num_putIwSt19ostreambuf_iteratorIwSt11char_traitsIwEEE14_M_group_floatEPKcjwPKwPwS9_Ri
__ZNKSt7num_putIwSt19ostreambuf_iteratorIwSt11char_traitsIwEEE15_M_insert_floatIdEES3_S3_RSt8ios_basewcT_
__ZNKSt7num_putIwSt19ostreambuf_iteratorIwSt11char_traitsIwEEE15_M_insert_floatIeEES3_S3_RSt8ios_basewcT_
__ZNKSt7num_putIwSt19ostreambuf_iteratorIwSt11char_traitsIwEEE3putES3_RSt8ios_basewPKv
__ZNKSt7num_putIwSt19ostreambuf_iteratorIwSt11char_traitsIwEEE3putES3_RSt8ios_basewb
__ZNKSt7num_putIwSt19ostreambuf_iteratorIwSt11char_traitsIwEEE3putES3_RSt8ios_basewd
__ZNKSt7num_putIwSt19ostreambuf_iteratorIwSt11char_traitsIwEEE3putES3_RSt8ios_basewe
__ZNKSt7num_putIwSt19ostreambuf_iteratorIwSt11char_traitsIwEEE3putES3_RSt8ios_basewl
__ZNKSt7num_putIwSt19ostreambuf_iteratorIwSt11char_traitsIwEEE3putES3_RSt8ios_basewm
__ZNKSt7num_putIwSt19ostreambuf_iteratorIwSt11char_traitsIwEEE3putES3_RSt8ios_basewx
__ZNKSt7num_putIwSt19ostreambuf_iteratorIwSt11char_traitsIwEEE3putES3_RSt8ios_basewy
__ZNKSt7num_putIwSt19ostreambuf_iteratorIwSt11char_traitsIwEEE6_M_padEwiRSt8ios_basePwPKwRi
__ZNKSt7num_putIwSt19ostreambuf_iteratorIwSt11char_traitsIwEEE6do_putES3_RSt8ios_basewPKv
__ZNKSt7num_putIwSt19ostreambuf_iteratorIwSt11char_traitsIwEEE6do_putES3_RSt8ios_basewb
__ZNKSt7num_putIwSt19ostreambuf_iteratorIwSt11char_traitsIwEEE6do_putES3_RSt8ios_basewd
__ZNKSt7num_putIwSt19ostreambuf_iteratorIwSt11char_traitsIwEEE6do_putES3_RSt8ios_basewe
__ZNKSt7num_putIwSt19ostreambuf_iteratorIwSt11char_traitsIwEEE6do_putES3_RSt8ios_basewl
__ZNKSt7num_putIwSt19ostreambuf_iteratorIwSt11char_traitsIwEEE6do_putES3_RSt8ios_basewm
__ZNKSt7num_putIwSt19ostreambuf_iteratorIwSt11char_traitsIwEEE6do_putES3_RSt8ios_basewx
__ZNKSt7num_putIwSt19ostreambuf_iteratorIwSt11char_traitsIwEEE6do_putES3_RSt8ios_basewy
__ZNKSt8messagesIwE18_M_convert_to_charERKSbIwSt11char_traitsIwESaIwEE
__ZNKSt8messagesIwE20_M_convert_from_charEPc
__ZNKSt8messagesIwE3getEiiiRKSbIwSt11char_traitsIwESaIwEE
__ZNKSt8messagesIwE4openERKSsRKSt6locale
__ZNKSt8messagesIwE4openERKSsRKSt6localePKc
__ZNKSt8messagesIwE5closeEi
__ZNKSt8messagesIwE7do_openERKSsRKSt6locale
__ZNKSt8messagesIwE8do_closeEi
__ZNKSt8numpunctIwE11do_groupingEv
__ZNKSt8numpunctIwE11do_truenameEv
__ZNKSt8numpunctIwE12do_falsenameEv
__ZNKSt8numpunctIwE13decimal_pointEv
__ZNKSt8numpunctIwE13thousands_sepEv
__ZNKSt8numpunctIwE16do_decimal_pointEv
__ZNKSt8numpunctIwE16do_thousands_sepEv
__ZNKSt8numpunctIwE8groupingEv
__ZNKSt8numpunctIwE8truenameEv
__ZNKSt8numpunctIwE9falsenameEv
__ZNKSt8time_getIwSt19istreambuf_iteratorIwSt11char_traitsIwEEE10date_orderEv
__ZNKSt8time_getIwSt19istreambuf_iteratorIwSt11char_traitsIwEEE11do_get_dateES3_S3_RSt8ios_baseRSt12_Ios_IostateP2tm
__ZNKSt8time_getIwSt19istreambuf_iteratorIwSt11char_traitsIwEEE11do_get_timeES3_S3_RSt8ios_baseRSt12_Ios_IostateP2tm
__ZNKSt8time_getIwSt19istreambuf_iteratorIwSt11char_traitsIwEEE11do_get_yearES3_S3_RSt8ios_baseRSt12_Ios_IostateP2tm
__ZNKSt8time_getIwSt19istreambuf_iteratorIwSt11char_traitsIwEEE11get_weekdayES3_S3_RSt8ios_baseRSt12_Ios_IostateP2tm
__ZNKSt8time_getIwSt19istreambuf_iteratorIwSt11char_traitsIwEEE13do_date_orderEv
__ZNKSt8time_getIwSt19istreambuf_iteratorIwSt11char_traitsIwEEE13get_monthnameES3_S3_RSt8ios_baseRSt12_Ios_IostateP2tm
__ZNKSt8time_getIwSt19istreambuf_iteratorIwSt11char_traitsIwEEE14_M_extract_numES3_S3_RiiijRSt8ios_baseRSt12_Ios_Iostate
__ZNKSt8time_getIwSt19istreambuf_iteratorIwSt11char_traitsIwEEE14do_get_weekdayES3_S3_RSt8ios_baseRSt12_Ios_IostateP2tm
__ZNKSt8time_getIwSt19istreambuf_iteratorIwSt11char_traitsIwEEE15_M_extract_nameES3_S3_RiPPKwjRSt8ios_baseRSt12_Ios_Iostate
__ZNKSt8time_getIwSt19istreambuf_iteratorIwSt11char_traitsIwEEE16do_get_monthnameES3_S3_RSt8ios_baseRSt12_Ios_IostateP2tm
__ZNKSt8time_getIwSt19istreambuf_iteratorIwSt11char_traitsIwEEE21_M_extract_via_formatES3_S3_RSt8ios_baseRSt12_Ios_IostateP2tmPKw
__ZNKSt8time_getIwSt19istreambuf_iteratorIwSt11char_traitsIwEEE24_M_extract_wday_or_monthES3_S3_RiPPKwjRSt8ios_baseRSt12_Ios_Iostate
__ZNKSt8time_getIwSt19istreambuf_iteratorIwSt11char_traitsIwEEE3getES3_S3_RSt8ios_baseRSt12_Ios_IostateP2tmPKwSC_
__ZNKSt8time_getIwSt19istreambuf_iteratorIwSt11char_traitsIwEEE3getES3_S3_RSt8ios_baseRSt12_Ios_IostateP2tmcc
__ZNKSt8time_getIwSt19istreambuf_iteratorIwSt11char_traitsIwEEE6do_getES3_S3_RSt8ios_baseRSt12_Ios_IostateP2tmcc
__ZNKSt8time_getIwSt19istreambuf_iteratorIwSt11char_traitsIwEEE8get_dateES3_S3_RSt8ios_baseRSt12_Ios_IostateP2tm
__ZNKSt8time_getIwSt19istreambuf_iteratorIwSt11char_traitsIwEEE8get_timeES3_S3_RSt8ios_baseRSt12_Ios_IostateP2tm
__ZNKSt8time_getIwSt19istreambuf_iteratorIwSt11char_traitsIwEEE8get_yearES3_S3_RSt8ios_baseRSt12_Ios_IostateP2tm
__ZNKSt8time_putIwSt19ostreambuf_iteratorIwSt11char_traitsIwEEE3putES3_RSt8ios_basewPK2tmPKwSB_
__ZNKSt8time_putIwSt19ostreambuf_iteratorIwSt11char_traitsIwEEE3putES3_RSt8ios_basewPK2tmcc
__ZNKSt8time_putIwSt19ostreambuf_iteratorIwSt11char_traitsIwEEE6do_putES3_RSt8ios_basewPK2tmcc
__ZNKSt9money_getIwSt19istreambuf_iteratorIwSt11char_traitsIwEEE10_M_extractILb0EEES3_S3_S3_RSt8ios_baseRSt12_Ios_IostateRSs
__ZNKSt9money_getIwSt19istreambuf_iteratorIwSt11char_traitsIwEEE10_M_extractILb1EEES3_S3_S3_RSt8ios_baseRSt12_Ios_IostateRSs
__ZNKSt9money_getIwSt19istreambuf_iteratorIwSt11char_traitsIwEEE3getES3_S3_bRSt8ios_baseRSt12_Ios_IostateRSbIwS2_SaIwEE
__ZNKSt9money_getIwSt19istreambuf_iteratorIwSt11char_traitsIwEEE3getES3_S3_bRSt8ios_baseRSt12_Ios_IostateRe
__ZNKSt9money_getIwSt19istreambuf_iteratorIwSt11char_traitsIwEEE6do_getES3_S3_bRSt8ios_baseRSt12_Ios_IostateRSbIwS2_SaIwEE
__ZNKSt9money_getIwSt19istreambuf_iteratorIwSt11char_traitsIwEEE6do_getES3_S3_bRSt8ios_baseRSt12_Ios_IostateRe
__ZNKSt9money_putIwSt19ostreambuf_iteratorIwSt11char_traitsIwEEE3putES3_bRSt8ios_basewRKSbIwS2_SaIwEE
__ZNKSt9money_putIwSt19ostreambuf_iteratorIwSt11char_traitsIwEEE3putES3_bRSt8ios_basewe
__ZNKSt9money_putIwSt19ostreambuf_iteratorIwSt11char_traitsIwEEE6do_putES3_bRSt8ios_basewRKSbIwS2_SaIwEE
__ZNKSt9money_putIwSt19ostreambuf_iteratorIwSt11char_traitsIwEEE6do_putES3_bRSt8ios_basewe
__ZNKSt9money_putIwSt19ostreambuf_iteratorIwSt11char_traitsIwEEE9_M_insertILb0EEES3_S3_RSt8ios_basewRKSbIwS2_SaIwEE
__ZNKSt9money_putIwSt19ostreambuf_iteratorIwSt11char_traitsIwEEE9_M_insertILb1EEES3_S3_RSt8ios_basewRKSbIwS2_SaIwEE
__ZNSt10moneypunctIwLb0EEC1EPSt18__moneypunct_cacheIwLb0EEj
__ZNSt10moneypunctIwLb0EEC1EPiPKcj
__ZNSt10moneypunctIwLb0EEC1Ej
__ZNSt10moneypunctIwLb0EEC2EPSt18__moneypunct_cacheIwLb0EEj
__ZNSt10moneypunctIwLb0EEC2EPiPKcj
__ZNSt10moneypunctIwLb0EEC2Ej
__ZNSt10moneypunctIwLb1EEC1EPSt18__moneypunct_cacheIwLb1EEj
__ZNSt10moneypunctIwLb1EEC1EPiPKcj
__ZNSt10moneypunctIwLb1EEC1Ej
__ZNSt10moneypunctIwLb1EEC2EPSt18__moneypunct_cacheIwLb1EEj
__ZNSt10moneypunctIwLb1EEC2EPiPKcj
__ZNSt10moneypunctIwLb1EEC2Ej
__ZNSt11__timepunctIwEC1EPSt17__timepunct_cacheIwEj
__ZNSt11__timepunctIwEC1EPiPKcj
__ZNSt11__timepunctIwEC1Ej
__ZNSt11__timepunctIwEC2EPSt17__timepunct_cacheIwEj
__ZNSt11__timepunctIwEC2EPiPKcj
__ZNSt11__timepunctIwEC2Ej
__ZNSt11__timepunctIwED0Ev
__ZNSt11__timepunctIwED1Ev
__ZNSt11__timepunctIwED2Ev
__ZNSt12ctype_bynameIwEC1ERKSsj
__ZNSt12ctype_bynameIwEC2ERKSsj
__ZNSt14codecvt_bynameIwciEC1EPKcj
__ZNSt14codecvt_bynameIwciEC1ERKSsj
__ZNSt14codecvt_bynameIwciEC2EPKcj
__ZNSt14codecvt_bynameIwciEC2ERKSsj
__ZNSt14codecvt_bynameIwciED0Ev
__ZNSt14codecvt_bynameIwciED1Ev
__ZNSt14codecvt_bynameIwciED2Ev
__ZNSt14collate_bynameIwEC1EPKcj
__ZNSt14collate_bynameIwEC1ERKSsj
__ZNSt14collate_bynameIwEC2EPKcj
__ZNSt14collate_bynameIwEC2ERKSsj
__ZNSt14collate_bynameIwED0Ev
__ZNSt14collate_bynameIwED1Ev
__ZNSt14collate_bynameIwED2Ev
__ZNSt15messages_bynameIwEC1EPKcj
__ZNSt15messages_bynameIwEC1ERKSsj
__ZNSt15messages_bynameIwEC2EPKcj
__ZNSt15messages_bynameIwEC2ERKSsj
__ZNSt15messages_bynameIwED0Ev
__ZNSt15messages_bynameIwED1Ev
__ZNSt15messages_bynameIwED2Ev
__ZNSt15numpunct_bynameIwEC1EPKcj
__ZNSt15numpunct_bynameIwEC1ERKSsj
__ZNSt15numpunct_bynameIwEC2EPKcj
__ZNSt15numpunct_bynameIwEC2ERKSsj
__ZNSt15numpunct_bynameIwED0Ev
__ZNSt15numpunct_bynameIwED1Ev
__ZNSt15numpunct_bynameIwED2Ev
__ZNSt15time_get_bynameIwSt19istreambuf_iteratorIwSt11char_traitsIwEEEC1EPKcj
__ZNSt15time_get_bynameIwSt19istreambuf_iteratorIwSt11char_traitsIwEEEC1ERKSsj
__ZNSt15time_get_bynameIwSt19istreambuf_iteratorIwSt11char_traitsIwEEEC2EPKcj
__ZNSt15time_get_bynameIwSt19istreambuf_iteratorIwSt11char_traitsIwEEEC2ERKSsj
__ZNSt15time_get_bynameIwSt19istreambuf_iteratorIwSt11char_traitsIwEEED0Ev
__ZNSt15time_get_bynameIwSt19istreambuf_iteratorIwSt11char_traitsIwEEED1Ev
__ZNSt15time_get_bynameIwSt19istreambuf_iteratorIwSt11char_traitsIwEEED2Ev
__ZNSt15time_put_bynameIwSt19ostreambuf_iteratorIwSt11char_traitsIwEEEC1EPKcj
__ZNSt15time_put_bynameIwSt19ostreambuf_iteratorIwSt11char_traitsIwEEEC1ERKSsj
__ZNSt15time_put_bynameIwSt19ostreambuf_iteratorIwSt11char_traitsIwEEEC2EPKcj
__ZNSt15time_put_bynameIwSt19ostreambuf_iteratorIwSt11char_traitsIwEEEC2ERKSsj
__ZNSt15time_put_bynameIwSt19ostreambuf_iteratorIwSt11char_traitsIwEEED0Ev
__ZNSt15time_put_bynameIwSt19ostreambuf_iteratorIwSt11char_traitsIwEEED1Ev
__ZNSt15time_put_bynameIwSt19ostreambuf_iteratorIwSt11char_traitsIwEEED2Ev
__ZNSt16__numpunct_cacheIwE8_M_cacheERKSt6locale
__ZNSt16__numpunct_cacheIwEC1Ej
__ZNSt16__numpunct_cacheIwEC2Ej
__ZNSt16__numpunct_cacheIwED0Ev
__ZNSt16__numpunct_cacheIwED1Ev
__ZNSt16__numpunct_cacheIwED2Ev
__ZNSt17__timepunct_cacheIwEC1Ej
__ZNSt17__timepunct_cacheIwEC2Ej
__ZNSt17__timepunct_cacheIwED0Ev
__ZNSt17__timepunct_cacheIwED1Ev
__ZNSt17__timepunct_cacheIwED2Ev
__ZNSt17moneypunct_bynameIwLb0EEC1EPKcj
__ZNSt17moneypunct_bynameIwLb0EEC1ERKSsj
__ZNSt17moneypunct_bynameIwLb0EEC2EPKcj
__ZNSt17moneypunct_bynameIwLb0EEC2ERKSsj
__ZNSt17moneypunct_bynameIwLb0EED0Ev
__ZNSt17moneypunct_bynameIwLb0EED1Ev
__ZNSt17moneypunct_bynameIwLb0EED2Ev
__ZNSt17moneypunct_bynameIwLb1EEC1EPKcj
__ZNSt17moneypunct_bynameIwLb1EEC1ERKSsj
__ZNSt17moneypunct_bynameIwLb1EEC2EPKcj
__ZNSt17moneypunct_bynameIwLb1EEC2ERKSsj
__ZNSt17moneypunct_bynameIwLb1EED0Ev
__ZNSt17moneypunct_bynameIwLb1EED1Ev
__ZNSt17moneypunct_bynameIwLb1EED2Ev
__ZNSt18__moneypunct_cacheIwLb0EE8_M_cacheERKSt6locale
__ZNSt18__moneypunct_cacheIwLb0EEC1Ej
__ZNSt18__moneypunct_cacheIwLb0EEC2Ej
__ZNSt18__moneypunct_cacheIwLb0EED0Ev
__ZNSt18__moneypunct_cacheIwLb0EED1Ev
__ZNSt18__moneypunct_cacheIwLb0EED2Ev
__ZNSt18__moneypunct_cacheIwLb1EE8_M_cacheERKSt6locale
__ZNSt18__moneypunct_cacheIwLb1EEC1Ej
__ZNSt18__moneypunct_cacheIwLb1EEC2Ej
__ZNSt18__moneypunct_cacheIwLb1EED0Ev
__ZNSt18__moneypunct_cacheIwLb1EED1Ev
__ZNSt18__moneypunct_cacheIwLb1EED2Ev
__ZNSt5__padIwSt11char_traitsIwEE6_S_padERSt8ios_basewPwPKwii
__ZNSt7collateIwEC1EPij
__ZNSt7collateIwEC1Ej
__ZNSt7collateIwEC2EPij
__ZNSt7collateIwEC2Ej
__ZNSt7collateIwED0Ev
__ZNSt7collateIwED1Ev
__ZNSt7collateIwED2Ev
__ZNSt7num_getIwSt19istreambuf_iteratorIwSt11char_traitsIwEEEC1Ej
__ZNSt7num_getIwSt19istreambuf_iteratorIwSt11char_traitsIwEEEC2Ej
__ZNSt7num_getIwSt19istreambuf_iteratorIwSt11char_traitsIwEEED0Ev
__ZNSt7num_getIwSt19istreambuf_iteratorIwSt11char_traitsIwEEED1Ev
__ZNSt7num_getIwSt19istreambuf_iteratorIwSt11char_traitsIwEEED2Ev
__ZNSt7num_putIwSt19ostreambuf_iteratorIwSt11char_traitsIwEEEC1Ej
__ZNSt7num_putIwSt19ostreambuf_iteratorIwSt11char_traitsIwEEEC2Ej
__ZNSt7num_putIwSt19ostreambuf_iteratorIwSt11char_traitsIwEEED0Ev
__ZNSt7num_putIwSt19ostreambuf_iteratorIwSt11char_traitsIwEEED1Ev
__ZNSt7num_putIwSt19ostreambuf_iteratorIwSt11char_traitsIwEEED2Ev
__ZNSt8messagesIwEC1EPiPKcj
__ZNSt8messagesIwEC1Ej
__ZNSt8messagesIwEC2EPiPKcj
__ZNSt8messagesIwEC2Ej
__ZNSt8messagesIwED0Ev
__ZNSt8messagesIwED1Ev
__ZNSt8messagesIwED2Ev
__ZNSt8numpunctIwEC1EPSt16__numpunct_cacheIwEj
__ZNSt8numpunctIwEC1EPij
__ZNSt8numpunctIwEC1Ej
__ZNSt8numpunctIwEC2EPSt16__numpunct_cacheIwEj
__ZNSt8numpunctIwEC2EPij
__ZNSt8numpunctIwEC2Ej
__ZNSt8time_getIwSt19istreambuf_iteratorIwSt11char_traitsIwEEEC1Ej
__ZNSt8time_getIwSt19istreambuf_iteratorIwSt11char_traitsIwEEEC2Ej
__ZNSt8time_getIwSt19istreambuf_iteratorIwSt11char_traitsIwEEED0Ev
__ZNSt8time_getIwSt19istreambuf_iteratorIwSt11char_traitsIwEEED1Ev
__ZNSt8time_getIwSt19istreambuf_iteratorIwSt11char_traitsIwEEED2Ev
__ZNSt8time_putIwSt19ostreambuf_iteratorIwSt11char_traitsIwEEEC1Ej
__ZNSt8time_putIwSt19ostreambuf_iteratorIwSt11char_traitsIwEEEC2Ej
__ZNSt8time_putIwSt19ostreambuf_iteratorIwSt11char_traitsIwEEED0Ev
__ZNSt8time_putIwSt19ostreambuf_iteratorIwSt11char_traitsIwEEED1Ev
__ZNSt8time_putIwSt19ostreambuf_iteratorIwSt11char_traitsIwEEED2Ev
__ZNSt9money_getIwSt19istreambuf_iteratorIwSt11char_traitsIwEEEC1Ej
__ZNSt9money_getIwSt19istreambuf_iteratorIwSt11char_traitsIwEEEC2Ej
__ZNSt9money_getIwSt19istreambuf_iteratorIwSt11char_traitsIwEEED0Ev
__ZNSt9money_getIwSt19istreambuf_iteratorIwSt11char_traitsIwEEED1Ev
__ZNSt9money_getIwSt19istreambuf_iteratorIwSt11char_traitsIwEEED2Ev
__ZNSt9money_putIwSt19ostreambuf_iteratorIwSt11char_traitsIwEEEC1Ej
__ZNSt9money_putIwSt19ostreambuf_iteratorIwSt11char_traitsIwEEEC2Ej
__ZNSt9money_putIwSt19ostreambuf_iteratorIwSt11char_traitsIwEEED0Ev
__ZNSt9money_putIwSt19ostreambuf_iteratorIwSt11char_traitsIwEEED1Ev
__ZNSt9money_putIwSt19ostreambuf_iteratorIwSt11char_traitsIwEEED2Ev
__ZSt13__int_to_charIwmEiPT_T0_PKS0_St13_Ios_Fmtflagsb
__ZSt13__int_to_charIwyEiPT_T0_PKS0_St13_Ios_Fmtflagsb
__ZSt14__add_groupingIwEPT_S1_S0_PKcjPKS0_S5_
__ZSt16__convert_from_vRKPiPciPKcz
__ZSt9has_facetISt10moneypunctIwLb0EEEbRKSt6locale
__ZSt9has_facetISt11__timepunctIwEEbRKSt6locale
__ZSt9has_facetISt5ctypeIwEEbRKSt6locale
__ZSt9has_facetISt7codecvtIwciEEbRKSt6locale
__ZSt9has_facetISt7collateIwEEbRKSt6locale
__ZSt9has_facetISt7num_getIwSt19istreambuf_iteratorIwSt11char_traitsIwEEEEbRKSt6locale
__ZSt9has_facetISt7num_putIwSt19ostreambuf_iteratorIwSt11char_traitsIwEEEEbRKSt6locale
__ZSt9has_facetISt8messagesIwEEbRKSt6locale
__ZSt9has_facetISt8numpunctIwEEbRKSt6locale
__ZSt9has_facetISt8time_getIwSt19istreambuf_iteratorIwSt11char_traitsIwEEEEbRKSt6locale
__ZSt9has_facetISt8time_putIwSt19ostreambuf_iteratorIwSt11char_traitsIwEEEEbRKSt6locale
__ZSt9has_facetISt9money_getIwSt19istreambuf_iteratorIwSt11char_traitsIwEEEEbRKSt6locale
__ZSt9has_facetISt9money_putIwSt19ostreambuf_iteratorIwSt11char_traitsIwEEEEbRKSt6locale
__ZSt9use_facetISt10moneypunctIwLb0EEERKT_RKSt6locale
__ZSt9use_facetISt10moneypunctIwLb1EEERKT_RKSt6locale
__ZSt9use_facetISt11__timepunctIwEERKT_RKSt6locale
__ZSt9use_facetISt5ctypeIwEERKT_RKSt6locale
__ZSt9use_facetISt7codecvtIwciEERKT_RKSt6locale
__ZSt9use_facetISt7collateIwEERKT_RKSt6locale
__ZSt9use_facetISt7num_getIwSt19istreambuf_iteratorIwSt11char_traitsIwEEEERKT_RKSt6locale
__ZSt9use_facetISt7num_putIwSt19ostreambuf_iteratorIwSt11char_traitsIwEEEERKT_RKSt6locale
__ZSt9use_facetISt8messagesIwEERKT_RKSt6locale
__ZSt9use_facetISt8numpunctIwEERKT_RKSt6locale
__ZSt9use_facetISt8time_getIwSt19istreambuf_iteratorIwSt11char_traitsIwEEEERKT_RKSt6locale
__ZSt9use_facetISt8time_putIwSt19ostreambuf_iteratorIwSt11char_traitsIwEEEERKT_RKSt6locale
__ZSt9use_facetISt9money_getIwSt19istreambuf_iteratorIwSt11char_traitsIwEEEERKT_RKSt6locale
__ZSt9use_facetISt9money_putIwSt19ostreambuf_iteratorIwSt11char_traitsIwEEEERKT_RKSt6locale
__ZN9__gnu_cxxeqIPKwNSt7__cxx1112basic_stringIwSt11char_traitsIwESaIwEEEEEbRKNS_17__normal_iteratorIT_T0_EESE_
__ZN9__gnu_cxxeqIPwNSt7__cxx1112basic_stringIwSt11char_traitsIwESaIwEEEEEbRKNS_17__normal_iteratorIT_T0_EESD_
__ZNKSt7__cxx1112basic_stringIwSt11char_traitsIwESaIwEE11_M_disjunctEPKw
__ZNKSt7__cxx1112basic_stringIwSt11char_traitsIwESaIwEE11_M_is_localEv
__ZNKSt7__cxx1112basic_stringIwSt11char_traitsIwESaIwEE12find_last_ofEPKwj
__ZNKSt7__cxx1112basic_stringIwSt11char_traitsIwESaIwEE12find_last_ofEPKwjj
__ZNKSt7__cxx1112basic_stringIwSt11char_traitsIwESaIwEE12find_last_ofERKS4_j
__ZNKSt7__cxx1112basic_stringIwSt11char_traitsIwESaIwEE12find_last_ofEwj
__ZNKSt7__cxx1112basic_stringIwSt11char_traitsIwESaIwEE13_M_local_dataEv
__ZNKSt7__cxx1112basic_stringIwSt11char_traitsIwESaIwEE13find_first_ofEPKwj
__ZNKSt7__cxx1112basic_stringIwSt11char_traitsIwESaIwEE13find_first_ofEPKwjj
__ZNKSt7__cxx1112basic_stringIwSt11char_traitsIwESaIwEE13find_first_ofERKS4_j
__ZNKSt7__cxx1112basic_stringIwSt11char_traitsIwESaIwEE13find_first_ofEwj
__ZNKSt7__cxx1112basic_stringIwSt11char_traitsIwESaIwEE13get_allocatorEv
__ZNKSt7__cxx1112basic_stringIwSt11char_traitsIwESaIwEE15_M_check_lengthEjjPKc
__ZNKSt7__cxx1112basic_stringIwSt11char_traitsIwESaIwEE16_M_get_allocatorEv
__ZNKSt7__cxx1112basic_stringIwSt11char_traitsIwESaIwEE16find_last_not_ofEPKwj
__ZNKSt7__cxx1112basic_stringIwSt11char_traitsIwESaIwEE16find_last_not_ofEPKwjj
__ZNKSt7__cxx1112basic_stringIwSt11char_traitsIwESaIwEE16find_last_not_ofERKS4_j
__ZNKSt7__cxx1112basic_stringIwSt11char_traitsIwESaIwEE16find_last_not_ofEwj
__ZNKSt7__cxx1112basic_stringIwSt11char_traitsIwESaIwEE17find_first_not_ofEPKwj
__ZNKSt7__cxx1112basic_stringIwSt11char_traitsIwESaIwEE17find_first_not_ofEPKwjj
__ZNKSt7__cxx1112basic_stringIwSt11char_traitsIwESaIwEE17find_first_not_ofERKS4_j
__ZNKSt7__cxx1112basic_stringIwSt11char_traitsIwESaIwEE17find_first_not_ofEwj
__ZNKSt7__cxx1112basic_stringIwSt11char_traitsIwESaIwEE2atEj
__ZNKSt7__cxx1112basic_stringIwSt11char_traitsIwESaIwEE3endEv
__ZNKSt7__cxx1112basic_stringIwSt11char_traitsIwESaIwEE4backEv
__ZNKSt7__cxx1112basic_stringIwSt11char_traitsIwESaIwEE4cendEv
__ZNKSt7__cxx1112basic_stringIwSt11char_traitsIwESaIwEE4copyEPwjj
__ZNKSt7__cxx1112basic_stringIwSt11char_traitsIwESaIwEE4dataEv
__ZNKSt7__cxx1112basic_stringIwSt11char_traitsIwESaIwEE4findEPKwj
__ZNKSt7__cxx1112basic_stringIwSt11char_traitsIwESaIwEE4findEPKwjj
__ZNKSt7__cxx1112basic_stringIwSt11char_traitsIwESaIwEE4findERKS4_j
__ZNKSt7__cxx1112basic_stringIwSt11char_traitsIwESaIwEE4findEwj
__ZNKSt7__cxx1112basic_stringIwSt11char_traitsIwESaIwEE4rendEv
__ZNKSt7__cxx1112basic_stringIwSt11char_traitsIwESaIwEE4sizeEv
__ZNKSt7__cxx1112basic_stringIwSt11char_traitsIwESaIwEE5beginEv
__ZNKSt7__cxx1112basic_stringIwSt11char_traitsIwESaIwEE5c_strEv
__ZNKSt7__cxx1112basic_stringIwSt11char_traitsIwESaIwEE5crendEv
__ZNKSt7__cxx1112basic_stringIwSt11char_traitsIwESaIwEE5emptyEv
__ZNKSt7__cxx1112basic_stringIwSt11char_traitsIwESaIwEE5frontEv
__ZNKSt7__cxx1112basic_stringIwSt11char_traitsIwESaIwEE5rfindEPKwj
__ZNKSt7__cxx1112basic_stringIwSt11char_traitsIwESaIwEE5rfindEPKwjj
__ZNKSt7__cxx1112basic_stringIwSt11char_traitsIwESaIwEE5rfindERKS4_j
__ZNKSt7__cxx1112basic_stringIwSt11char_traitsIwESaIwEE5rfindEwj
__ZNKSt7__cxx1112basic_stringIwSt11char_traitsIwESaIwEE6cbeginEv
__ZNKSt7__cxx1112basic_stringIwSt11char_traitsIwESaIwEE6lengthEv
__ZNKSt7__cxx1112basic_stringIwSt11char_traitsIwESaIwEE6rbeginEv
__ZNKSt7__cxx1112basic_stringIwSt11char_traitsIwESaIwEE6substrEjj
__ZNKSt7__cxx1112basic_stringIwSt11char_traitsIwESaIwEE7_M_dataEv
__ZNKSt7__cxx1112basic_stringIwSt11char_traitsIwESaIwEE7compareEPKw
__ZNKSt7__cxx1112basic_stringIwSt11char_traitsIwESaIwEE7compareERKS4_
__ZNKSt7__cxx1112basic_stringIwSt11char_traitsIwESaIwEE7compareEjjPKw
__ZNKSt7__cxx1112basic_stringIwSt11char_traitsIwESaIwEE7compareEjjPKwj
__ZNKSt7__cxx1112basic_stringIwSt11char_traitsIwESaIwEE7compareEjjRKS4_
__ZNKSt7__cxx1112basic_stringIwSt11char_traitsIwESaIwEE7compareEjjRKS4_jj
__ZNKSt7__cxx1112basic_stringIwSt11char_traitsIwESaIwEE7crbeginEv
__ZNKSt7__cxx1112basic_stringIwSt11char_traitsIwESaIwEE8_M_checkEjPKc
__ZNKSt7__cxx1112basic_stringIwSt11char_traitsIwESaIwEE8_M_limitEjj
__ZNKSt7__cxx1112basic_stringIwSt11char_traitsIwESaIwEE8capacityEv
__ZNKSt7__cxx1112basic_stringIwSt11char_traitsIwESaIwEE8max_sizeEv
__ZNKSt7__cxx1112basic_stringIwSt11char_traitsIwESaIwEEixEj
__ZNSt7__cxx1112basic_stringIwSt11char_traitsIwESaIwEE10_M_destroyEj
__ZNSt7__cxx1112basic_stringIwSt11char_traitsIwESaIwEE10_M_disposeEv
__ZNSt7__cxx1112basic_stringIwSt11char_traitsIwESaIwEE10_M_replaceEjjPKwj
__ZNSt7__cxx1112basic_stringIwSt11char_traitsIwESaIwEE10_S_compareEjj
__ZNSt7__cxx1112basic_stringIwSt11char_traitsIwESaIwEE11_M_capacityEj
__ZNSt7__cxx1112basic_stringIwSt11char_traitsIwESaIwEE12_Alloc_hiderC1EPwOS3_
__ZNSt7__cxx1112basic_stringIwSt11char_traitsIwESaIwEE12_Alloc_hiderC1EPwRKS3_
__ZNSt7__cxx1112basic_stringIwSt11char_traitsIwESaIwEE12_Alloc_hiderC2EPwOS3_
__ZNSt7__cxx1112basic_stringIwSt11char_traitsIwESaIwEE12_Alloc_hiderC2EPwRKS3_
__ZNSt7__cxx1112basic_stringIwSt11char_traitsIwESaIwEE12_M_constructEjw
__ZNSt7__cxx1112basic_stringIwSt11char_traitsIwESaIwEE12_M_constructIN9__gnu_cxx17__normal_iteratorIPKwS4_EEEEvT_SB_St20forward_iterator_tag
__ZNSt7__cxx1112basic_stringIwSt11char_traitsIwESaIwEE12_M_constructIN9__gnu_cxx17__normal_iteratorIPwS4_EEEEvT_SA_St20forward_iterator_tag
__ZNSt7__cxx1112basic_stringIwSt11char_traitsIwESaIwEE12_M_constructIPKwEEvT_S8_St20forward_iterator_tag
__ZNSt7__cxx1112basic_stringIwSt11char_traitsIwESaIwEE12_M_constructIPwEEvT_S7_St20forward_iterator_tag
__ZNSt7__cxx1112basic_stringIwSt11char_traitsIwESaIwEE13_M_local_dataEv
__ZNSt7__cxx1112basic_stringIwSt11char_traitsIwESaIwEE13_M_set_lengthEj
__ZNSt7__cxx1112basic_stringIwSt11char_traitsIwESaIwEE13_S_copy_charsEPwN9__gnu_cxx17__normal_iteratorIPKwS4_EESA_
__ZNSt7__cxx1112basic_stringIwSt11char_traitsIwESaIwEE13_S_copy_charsEPwN9__gnu_cxx17__normal_iteratorIS5_S4_EES8_
__ZNSt7__cxx1112basic_stringIwSt11char_traitsIwESaIwEE13_S_copy_charsEPwPKwS7_
__ZNSt7__cxx1112basic_stringIwSt11char_traitsIwESaIwEE13_S_copy_charsEPwS5_S5_
__ZNSt7__cxx1112basic_stringIwSt11char_traitsIwESaIwEE13shrink_to_fitEv
__ZNSt7__cxx1112basic_stringIwSt11char_traitsIwESaIwEE14_M_replace_auxEjjjw
__ZNSt7__cxx1112basic_stringIwSt11char_traitsIwESaIwEE16_M_get_allocatorEv
__ZNSt7__cxx1112basic_stringIwSt11char_traitsIwESaIwEE18_M_construct_aux_2Ejw
__ZNSt7__cxx1112basic_stringIwSt11char_traitsIwESaIwEE2atEj
__ZNSt7__cxx1112basic_stringIwSt11char_traitsIwESaIwEE3endEv
__ZNSt7__cxx1112basic_stringIwSt11char_traitsIwESaIwEE4backEv
__ZNSt7__cxx1112basic_stringIwSt11char_traitsIwESaIwEE4rendEv
__ZNSt7__cxx1112basic_stringIwSt11char_traitsIwESaIwEE4swapERS4_
__ZNSt7__cxx1112basic_stringIwSt11char_traitsIwESaIwEE5beginEv
__ZNSt7__cxx1112basic_stringIwSt11char_traitsIwESaIwEE5clearEv
__ZNSt7__cxx1112basic_stringIwSt11char_traitsIwESaIwEE5eraseEN9__gnu_cxx17__normal_iteratorIPKwS4_EE
__ZNSt7__cxx1112basic_stringIwSt11char_traitsIwESaIwEE5eraseEN9__gnu_cxx17__normal_iteratorIPKwS4_EES9_
__ZNSt7__cxx1112basic_stringIwSt11char_traitsIwESaIwEE5eraseEjj
__ZNSt7__cxx1112basic_stringIwSt11char_traitsIwESaIwEE5frontEv
__ZNSt7__cxx1112basic_stringIwSt11char_traitsIwESaIwEE6appendEPKw
__ZNSt7__cxx1112basic_stringIwSt11char_traitsIwESaIwEE6appendEPKwj
__ZNSt7__cxx1112basic_stringIwSt11char_traitsIwESaIwEE6appendERKS4_
__ZNSt7__cxx1112basic_stringIwSt11char_traitsIwESaIwEE6appendERKS4_jj
__ZNSt7__cxx1112basic_stringIwSt11char_traitsIwESaIwEE6appendESt16initializer_listIwE
__ZNSt7__cxx1112basic_stringIwSt11char_traitsIwESaIwEE6appendEjw
__ZNSt7__cxx1112basic_stringIwSt11char_traitsIwESaIwEE6assignEOS4_
__ZNSt7__cxx1112basic_stringIwSt11char_traitsIwESaIwEE6assignEPKw
__ZNSt7__cxx1112basic_stringIwSt11char_traitsIwESaIwEE6assignEPKwj
__ZNSt7__cxx1112basic_stringIwSt11char_traitsIwESaIwEE6assignERKS4_
__ZNSt7__cxx1112basic_stringIwSt11char_traitsIwESaIwEE6assignERKS4_jj
__ZNSt7__cxx1112basic_stringIwSt11char_traitsIwESaIwEE6assignESt16initializer_listIwE
__ZNSt7__cxx1112basic_stringIwSt11char_traitsIwESaIwEE6assignEjw
__ZNSt7__cxx1112basic_stringIwSt11char_traitsIwESaIwEE6insertEN9__gnu_cxx17__normal_iteratorIPKwS4_EESt16initializer_listIwE
__ZNSt7__cxx1112basic_stringIwSt11char_traitsIwESaIwEE6insertEN9__gnu_cxx17__normal_iteratorIPKwS4_EEjw
__ZNSt7__cxx1112basic_stringIwSt11char_traitsIwESaIwEE6insertEN9__gnu_cxx17__normal_iteratorIPKwS4_EEw
__ZNSt7__cxx1112basic_stringIwSt11char_traitsIwESaIwEE6insertEN9__gnu_cxx17__normal_iteratorIPwS4_EESt16initializer_listIwE
__ZNSt7__cxx1112basic_stringIwSt11char_traitsIwESaIwEE6insertEjPKw
__ZNSt7__cxx1112basic_stringIwSt11char_traitsIwESaIwEE6insertEjPKwj
__ZNSt7__cxx1112basic_stringIwSt11char_traitsIwESaIwEE6insertEjRKS4_
__ZNSt7__cxx1112basic_stringIwSt11char_traitsIwESaIwEE6insertEjRKS4_jj
__ZNSt7__cxx1112basic_stringIwSt11char_traitsIwESaIwEE6insertEjjw
__ZNSt7__cxx1112basic_stringIwSt11char_traitsIwESaIwEE6rbeginEv
__ZNSt7__cxx1112basic_stringIwSt11char_traitsIwESaIwEE6resizeEj
__ZNSt7__cxx1112basic_stringIwSt11char_traitsIwESaIwEE6resizeEjw
__ZNSt7__cxx1112basic_stringIwSt11char_traitsIwESaIwEE7_M_dataEPw
__ZNSt7__cxx1112basic_stringIwSt11char_traitsIwESaIwEE7_S_copyEPwPKwj
__ZNSt7__cxx1112basic_stringIwSt11char_traitsIwESaIwEE7_S_moveEPwPKwj
__ZNSt7__cxx1112basic_stringIwSt11char_traitsIwESaIwEE7replaceEN9__gnu_cxx17__normal_iteratorIPKwS4_EES9_NS6_IPwS4_EESB_
__ZNSt7__cxx1112basic_stringIwSt11char_traitsIwESaIwEE7replaceEN9__gnu_cxx17__normal_iteratorIPKwS4_EES9_PwSA_
__ZNSt7__cxx1112basic_stringIwSt11char_traitsIwESaIwEE7replaceEN9__gnu_cxx17__normal_iteratorIPKwS4_EES9_RKS4_
__ZNSt7__cxx1112basic_stringIwSt11char_traitsIwESaIwEE7replaceEN9__gnu_cxx17__normal_iteratorIPKwS4_EES9_S8_
__ZNSt7__cxx1112basic_stringIwSt11char_traitsIwESaIwEE7replaceEN9__gnu_cxx17__normal_iteratorIPKwS4_EES9_S8_S8_
__ZNSt7__cxx1112basic_stringIwSt11char_traitsIwESaIwEE7replaceEN9__gnu_cxx17__normal_iteratorIPKwS4_EES9_S8_j
__ZNSt7__cxx1112basic_stringIwSt11char_traitsIwESaIwEE7replaceEN9__gnu_cxx17__normal_iteratorIPKwS4_EES9_S9_S9_
__ZNSt7__cxx1112basic_stringIwSt11char_traitsIwESaIwEE7replaceEN9__gnu_cxx17__normal_iteratorIPKwS4_EES9_St16initializer_listIwE
__ZNSt7__cxx1112basic_stringIwSt11char_traitsIwESaIwEE7replaceEN9__gnu_cxx17__normal_iteratorIPKwS4_EES9_jw
__ZNSt7__cxx1112basic_stringIwSt11char_traitsIwESaIwEE7replaceEjjPKw
__ZNSt7__cxx1112basic_stringIwSt11char_traitsIwESaIwEE7replaceEjjPKwj
__ZNSt7__cxx1112basic_stringIwSt11char_traitsIwESaIwEE7replaceEjjRKS4_
__ZNSt7__cxx1112basic_stringIwSt11char_traitsIwESaIwEE7replaceEjjRKS4_jj
__ZNSt7__cxx1112basic_stringIwSt11char_traitsIwESaIwEE7replaceEjjjw
__ZNSt7__cxx1112basic_stringIwSt11char_traitsIwESaIwEE7reserveEj
__ZNSt7__cxx1112basic_stringIwSt11char_traitsIwESaIwEE8_M_eraseEjj
__ZNSt7__cxx1112basic_stringIwSt11char_traitsIwESaIwEE8pop_backEv
__ZNSt7__cxx1112basic_stringIwSt11char_traitsIwESaIwEE9_M_appendEPKwj
__ZNSt7__cxx1112basic_stringIwSt11char_traitsIwESaIwEE9_M_assignERKS4_
__ZNSt7__cxx1112basic_stringIwSt11char_traitsIwESaIwEE9_M_createERjj
__ZNSt7__cxx1112basic_stringIwSt11char_traitsIwESaIwEE9_M_lengthEj
__ZNSt7__cxx1112basic_stringIwSt11char_traitsIwESaIwEE9_M_mutateEjjPKwj
__ZNSt7__cxx1112basic_stringIwSt11char_traitsIwESaIwEE9_S_assignEPwjw
__ZNSt7__cxx1112basic_stringIwSt11char_traitsIwESaIwEE9push_backEw
__ZNSt7__cxx1112basic_stringIwSt11char_traitsIwESaIwEEC1EOS4_
__ZNSt7__cxx1112basic_stringIwSt11char_traitsIwESaIwEEC1EOS4_RKS3_
__ZNSt7__cxx1112basic_stringIwSt11char_traitsIwESaIwEEC1EPKwRKS3_
__ZNSt7__cxx1112basic_stringIwSt11char_traitsIwESaIwEEC1EPKwjRKS3_
__ZNSt7__cxx1112basic_stringIwSt11char_traitsIwESaIwEEC1ERKS3_
__ZNSt7__cxx1112basic_stringIwSt11char_traitsIwESaIwEEC1ERKS4_
__ZNSt7__cxx1112basic_stringIwSt11char_traitsIwESaIwEEC1ERKS4_RKS3_
__ZNSt7__cxx1112basic_stringIwSt11char_traitsIwESaIwEEC1ERKS4_jRKS3_
__ZNSt7__cxx1112basic_stringIwSt11char_traitsIwESaIwEEC1ERKS4_jj
__ZNSt7__cxx1112basic_stringIwSt11char_traitsIwESaIwEEC1ERKS4_jjRKS3_
__ZNSt7__cxx1112basic_stringIwSt11char_traitsIwESaIwEEC1ESt16initializer_listIwERKS3_
__ZNSt7__cxx1112basic_stringIwSt11char_traitsIwESaIwEEC1EjwRKS3_
__ZNSt7__cxx1112basic_stringIwSt11char_traitsIwESaIwEEC1Ev
__ZNSt7__cxx1112basic_stringIwSt11char_traitsIwESaIwEEC1IN9__gnu_cxx17__normal_iteratorIPwS4_EEvEET_SA_RKS3_
__ZNSt7__cxx1112basic_stringIwSt11char_traitsIwESaIwEEC1IPKwvEET_S8_RKS3_
__ZNSt7__cxx1112basic_stringIwSt11char_traitsIwESaIwEEC1IPwvEET_S7_RKS3_
__ZNSt7__cxx1112basic_stringIwSt11char_traitsIwESaIwEEC2EOS4_
__ZNSt7__cxx1112basic_stringIwSt11char_traitsIwESaIwEEC2EOS4_RKS3_
__ZNSt7__cxx1112basic_stringIwSt11char_traitsIwESaIwEEC2EPKwRKS3_
__ZNSt7__cxx1112basic_stringIwSt11char_traitsIwESaIwEEC2EPKwjRKS3_
__ZNSt7__cxx1112basic_stringIwSt11char_traitsIwESaIwEEC2ERKS3_
__ZNSt7__cxx1112basic_stringIwSt11char_traitsIwESaIwEEC2ERKS4_
__ZNSt7__cxx1112basic_stringIwSt11char_traitsIwESaIwEEC2ERKS4_RKS3_
__ZNSt7__cxx1112basic_stringIwSt11char_traitsIwESaIwEEC2ERKS4_jRKS3_
__ZNSt7__cxx1112basic_stringIwSt11char_traitsIwESaIwEEC2ERKS4_jj
__ZNSt7__cxx1112basic_stringIwSt11char_traitsIwESaIwEEC2ERKS4_jjRKS3_
__ZNSt7__cxx1112basic_stringIwSt11char_traitsIwESaIwEEC2ESt16initializer_listIwERKS3_
__ZNSt7__cxx1112basic_stringIwSt11char_traitsIwESaIwEEC2EjwRKS3_
__ZNSt7__cxx1112basic_stringIwSt11char_traitsIwESaIwEEC2Ev
__ZNSt7__cxx1112basic_stringIwSt11char_traitsIwESaIwEEC2IN9__gnu_cxx17__normal_iteratorIPwS4_EEvEET_SA_RKS3_
__ZNSt7__cxx1112basic_stringIwSt11char_traitsIwESaIwEEC2IPKwvEET_S8_RKS3_
__ZNSt7__cxx1112basic_stringIwSt11char_traitsIwESaIwEEC2IPwvEET_S7_RKS3_
__ZNSt7__cxx1112basic_stringIwSt11char_traitsIwESaIwEED1Ev
__ZNSt7__cxx1112basic_stringIwSt11char_traitsIwESaIwEED2Ev
__ZNSt7__cxx1112basic_stringIwSt11char_traitsIwESaIwEEaSEOS4_
__ZNSt7__cxx1112basic_stringIwSt11char_traitsIwESaIwEEaSEPKw
__ZNSt7__cxx1112basic_stringIwSt11char_traitsIwESaIwEEaSERKS4_
__ZNSt7__cxx1112basic_stringIwSt11char_traitsIwESaIwEEaSESt16initializer_listIwE
__ZNSt7__cxx1112basic_stringIwSt11char_traitsIwESaIwEEaSEw
__ZNSt7__cxx1112basic_stringIwSt11char_traitsIwESaIwEEixEj
__ZNSt7__cxx1112basic_stringIwSt11char_traitsIwESaIwEEpLEPKw
__ZNSt7__cxx1112basic_stringIwSt11char_traitsIwESaIwEEpLERKS4_
__ZNSt7__cxx1112basic_stringIwSt11char_traitsIwESaIwEEpLESt16initializer_listIwE
__ZNSt7__cxx1112basic_stringIwSt11char_traitsIwESaIwEEpLEw
__ZStplIwSt11char_traitsIwESaIwEENSt7__cxx1112basic_stringIT_T0_T1_EEPKS5_RKS8_
__ZStplIwSt11char_traitsIwESaIwEENSt7__cxx1112basic_stringIT_T0_T1_EERKS8_SA_
__ZStplIwSt11char_traitsIwESaIwEENSt7__cxx1112basic_stringIT_T0_T1_EES5_RKS8_
__ZSt7getlineIwSt11char_traitsIwESaIwEERSt13basic_istreamIT_T0_ES7_RNSt7__cxx1112basic_stringIS4_S5_T1_EE
__ZStlsIwSt11char_traitsIwESaIwEERSt13basic_ostreamIT_T0_ES7_RKNSt7__cxx1112basic_stringIS4_S5_T1_EE
__ZStrsIwSt11char_traitsIwESaIwEERSt13basic_istreamIT_T0_ES7_RNSt7__cxx1112basic_stringIS4_S5_T1_EE
.weak.__ZNSt5dequeINSt10filesystem4_DirESaIS1_EE12emplace_backIIS1_EEERS1_DpOT_.__ZNSt23_Sp_counted_ptr_inplaceINSt10filesystem28recursive_directory_iterator10_Dir_stackESaIS2_ELN9__gnu_cxx12_Lock_policyE2EED1Ev
.weak.__ZNSt5dequeINSt10filesystem4_DirESaIS1_EE16_M_push_back_auxIIRP5_WDIRRKNS0_4pathEEEEvDpOT_.__ZNSt23_Sp_counted_ptr_inplaceINSt10filesystem28recursive_directory_iterator10_Dir_stackESaIS2_ELN9__gnu_cxx12_Lock_policyE2EED1Ev
__ZNKSt10filesystem18directory_iteratordeEv
__ZNKSt10filesystem28recursive_directory_iterator17recursion_pendingEv
__ZNKSt10filesystem28recursive_directory_iterator5depthEv
__ZNKSt10filesystem28recursive_directory_iterator7optionsEv
__ZNKSt10filesystem28recursive_directory_iteratordeEv
__ZNKSt12__shared_ptrINSt10filesystem28recursive_directory_iterator10_Dir_stackELN9__gnu_cxx12_Lock_policyE2EE14_M_get_deleterERKSt9type_info
__ZNKSt12__shared_ptrINSt10filesystem28recursive_directory_iterator10_Dir_stackELN9__gnu_cxx12_Lock_policyE2EE3getEv
__ZNKSt12__shared_ptrINSt10filesystem28recursive_directory_iterator10_Dir_stackELN9__gnu_cxx12_Lock_policyE2EE6uniqueEv
__ZNKSt12__shared_ptrINSt10filesystem28recursive_directory_iterator10_Dir_stackELN9__gnu_cxx12_Lock_policyE2EE9use_countEv
__ZNKSt12__shared_ptrINSt10filesystem28recursive_directory_iterator10_Dir_stackELN9__gnu_cxx12_Lock_policyE2EEcvbEv
__ZNKSt12__shared_ptrINSt10filesystem4_DirELN9__gnu_cxx12_Lock_policyE2EE14_M_get_deleterERKSt9type_info
__ZNKSt12__shared_ptrINSt10filesystem4_DirELN9__gnu_cxx12_Lock_policyE2EE3getEv
__ZNKSt12__shared_ptrINSt10filesystem4_DirELN9__gnu_cxx12_Lock_policyE2EE6uniqueEv
__ZNKSt12__shared_ptrINSt10filesystem4_DirELN9__gnu_cxx12_Lock_policyE2EE9use_countEv
__ZNKSt12__shared_ptrINSt10filesystem4_DirELN9__gnu_cxx12_Lock_policyE2EEcvbEv
__ZNSt10filesystem18directory_iterator9incrementERSt10error_code
__ZNSt10filesystem18directory_iteratorC1ERKNS_4pathENS_17directory_optionsEPSt10error_code
__ZNSt10filesystem18directory_iteratorC2ERKNS_4pathENS_17directory_optionsEPSt10error_code
__ZNSt10filesystem18directory_iteratorppEv
__ZNSt10filesystem28recursive_directory_iterator25disable_recursion_pendingEv
__ZNSt10filesystem28recursive_directory_iterator3popERSt10error_code
__ZNSt10filesystem28recursive_directory_iterator3popEv
__ZNSt10filesystem28recursive_directory_iterator9incrementERSt10error_code
__ZNSt10filesystem28recursive_directory_iteratorC1ERKNS_4pathENS_17directory_optionsEPSt10error_code
__ZNSt10filesystem28recursive_directory_iteratorC2ERKNS_4pathENS_17directory_optionsEPSt10error_code
__ZNSt10filesystem28recursive_directory_iteratorD1Ev
__ZNSt10filesystem28recursive_directory_iteratorD2Ev
__ZNSt10filesystem28recursive_directory_iteratoraSEOS0_
__ZNSt10filesystem28recursive_directory_iteratoraSERKS0_
__ZNSt10filesystem28recursive_directory_iteratorppEv
__ZNSt10filesystem4_Dir7advanceEbRSt10error_code
__ZNSt10filesystem4_DirD1Ev
__ZNSt10filesystem9_Dir_base7advanceEbRSt10error_code
__ZNSt10unique_ptrINSt10filesystem4path5_List5_ImplENS2_13_Impl_deleterEED1Ev
__ZNSt12__shared_ptrINSt10filesystem28recursive_directory_iterator10_Dir_stackELN9__gnu_cxx12_Lock_policyE2EE4swapERS5_
__ZNSt12__shared_ptrINSt10filesystem28recursive_directory_iterator10_Dir_stackELN9__gnu_cxx12_Lock_policyE2EE5resetEv
__ZNSt12__shared_ptrINSt10filesystem28recursive_directory_iterator10_Dir_stackELN9__gnu_cxx12_Lock_policyE2EEC1EDn
__ZNSt12__shared_ptrINSt10filesystem28recursive_directory_iterator10_Dir_stackELN9__gnu_cxx12_Lock_policyE2EEC1EOS5_
__ZNSt12__shared_ptrINSt10filesystem28recursive_directory_iterator10_Dir_stackELN9__gnu_cxx12_Lock_policyE2EEC1ERKSt10__weak_ptrIS2_LS4_2EESt9nothrow_t
__ZNSt12__shared_ptrINSt10filesystem28recursive_directory_iterator10_Dir_stackELN9__gnu_cxx12_Lock_policyE2EEC1Ev
__ZNSt12__shared_ptrINSt10filesystem28recursive_directory_iterator10_Dir_stackELN9__gnu_cxx12_Lock_policyE2EEC2EDn
__ZNSt12__shared_ptrINSt10filesystem28recursive_directory_iterator10_Dir_stackELN9__gnu_cxx12_Lock_policyE2EEC2EOS5_
__ZNSt12__shared_ptrINSt10filesystem28recursive_directory_iterator10_Dir_stackELN9__gnu_cxx12_Lock_policyE2EEC2ERKSt10__weak_ptrIS2_LS4_2EESt9nothrow_t
__ZNSt12__shared_ptrINSt10filesystem28recursive_directory_iterator10_Dir_stackELN9__gnu_cxx12_Lock_policyE2EEC2Ev
__ZNSt12__shared_ptrINSt10filesystem28recursive_directory_iterator10_Dir_stackELN9__gnu_cxx12_Lock_policyE2EEaSEOS5_
__ZNSt12__shared_ptrINSt10filesystem4_DirELN9__gnu_cxx12_Lock_policyE2EE4swapERS4_
__ZNSt12__shared_ptrINSt10filesystem4_DirELN9__gnu_cxx12_Lock_policyE2EE5resetEv
__ZNSt12__shared_ptrINSt10filesystem4_DirELN9__gnu_cxx12_Lock_policyE2EEC1EDn
__ZNSt12__shared_ptrINSt10filesystem4_DirELN9__gnu_cxx12_Lock_policyE2EEC1EOS4_
__ZNSt12__shared_ptrINSt10filesystem4_DirELN9__gnu_cxx12_Lock_policyE2EEC1ERKSt10__weak_ptrIS1_LS3_2EESt9nothrow_t
__ZNSt12__shared_ptrINSt10filesystem4_DirELN9__gnu_cxx12_Lock_policyE2EEC1Ev
__ZNSt12__shared_ptrINSt10filesystem4_DirELN9__gnu_cxx12_Lock_policyE2EEC2EDn
__ZNSt12__shared_ptrINSt10filesystem4_DirELN9__gnu_cxx12_Lock_policyE2EEC2EOS4_
__ZNSt12__shared_ptrINSt10filesystem4_DirELN9__gnu_cxx12_Lock_policyE2EEC2ERKSt10__weak_ptrIS1_LS3_2EESt9nothrow_t
__ZNSt12__shared_ptrINSt10filesystem4_DirELN9__gnu_cxx12_Lock_policyE2EEC2Ev
__ZNSt12__shared_ptrINSt10filesystem4_DirELN9__gnu_cxx12_Lock_policyE2EEaSEOS4_
__ZNSt16_Sp_counted_baseILN9__gnu_cxx12_Lock_policyE2EE10_M_releaseEv
__ZNSt23_Sp_counted_ptr_inplaceINSt10filesystem28recursive_directory_iterator10_Dir_stackESaIS2_ELN9__gnu_cxx12_Lock_policyE2EE10_M_destroyEv
__ZNSt23_Sp_counted_ptr_inplaceINSt10filesystem28recursive_directory_iterator10_Dir_stackESaIS2_ELN9__gnu_cxx12_Lock_policyE2EE10_M_disposeEv
__ZNSt23_Sp_counted_ptr_inplaceINSt10filesystem28recursive_directory_iterator10_Dir_stackESaIS2_ELN9__gnu_cxx12_Lock_policyE2EE14_M_get_deleterERKSt9type_info
__ZNSt23_Sp_counted_ptr_inplaceINSt10filesystem28recursive_directory_iterator10_Dir_stackESaIS2_ELN9__gnu_cxx12_Lock_policyE2EED0Ev
__ZNSt23_Sp_counted_ptr_inplaceINSt10filesystem28recursive_directory_iterator10_Dir_stackESaIS2_ELN9__gnu_cxx12_Lock_policyE2EED1Ev
__ZNSt23_Sp_counted_ptr_inplaceINSt10filesystem4_DirESaIS1_ELN9__gnu_cxx12_Lock_policyE2EE10_M_destroyEv
__ZNSt23_Sp_counted_ptr_inplaceINSt10filesystem4_DirESaIS1_ELN9__gnu_cxx12_Lock_policyE2EE10_M_disposeEv
__ZNSt23_Sp_counted_ptr_inplaceINSt10filesystem4_DirESaIS1_ELN9__gnu_cxx12_Lock_policyE2EE14_M_get_deleterERKSt9type_info
__ZNSt23_Sp_counted_ptr_inplaceINSt10filesystem4_DirESaIS1_ELN9__gnu_cxx12_Lock_policyE2EED0Ev
__ZNSt23_Sp_counted_ptr_inplaceINSt10filesystem4_DirESaIS1_ELN9__gnu_cxx12_Lock_policyE2EED1Ev
__ZNSt5dequeINSt10filesystem4_DirESaIS1_EE12emplace_backIJS1_EEERS1_DpOT_
__ZNSt5dequeINSt10filesystem4_DirESaIS1_EE16_M_push_back_auxIJRP5_WDIRRKNS0_4pathEEEEvDpOT_
__ZNSt5dequeINSt10filesystem4_DirESaIS1_EE17_M_reallocate_mapEjb
__ZNSt5dequeINSt10filesystem4_DirESaIS1_EED1Ev
.weak.__ZNSt5dequeINSt10filesystem4pathESaIS1_EE12emplace_backIIS1_EEERS1_DpOT_.__ZNSt15_Sp_counted_ptrIDnLN9__gnu_cxx12_Lock_policyE2EE10_M_disposeEv
.weak.__ZNSt5dequeINSt10filesystem4pathESaIS1_EE16_M_push_back_auxIIRKS1_EEEvDpOT_.__ZNSt15_Sp_counted_ptrIDnLN9__gnu_cxx12_Lock_policyE2EE10_M_disposeEv
__ZNSt10filesystem10equivalentERKNS_4pathES2_
__ZNSt10filesystem10equivalentERKNS_4pathES2_RSt10error_code
__ZNSt10filesystem10remove_allERKNS_4pathE
__ZNSt10filesystem10remove_allERKNS_4pathERSt10error_code
__ZNSt10filesystem11permissionsERKNS_4pathENS_5permsENS_12perm_optionsE
__ZNSt10filesystem11permissionsERKNS_4pathENS_5permsENS_12perm_optionsERSt10error_code
__ZNSt10filesystem11resize_fileERKNS_4pathEy
__ZNSt10filesystem11resize_fileERKNS_4pathEyRSt10error_code
__ZNSt10filesystem12copy_symlinkERKNS_4pathES2_
__ZNSt10filesystem12copy_symlinkERKNS_4pathES2_RSt10error_code
__ZNSt10filesystem12current_pathERKNS_4pathE
__ZNSt10filesystem12current_pathERKNS_4pathERSt10error_code
__ZNSt10filesystem12current_pathERSt10error_code
__ZNSt10filesystem12current_pathEv
__ZNSt10filesystem12read_symlinkERKNS_4pathE
__ZNSt10filesystem12read_symlinkERKNS_4pathERSt10error_code
__ZNSt10filesystem14create_symlinkERKNS_4pathES2_
__ZNSt10filesystem14create_symlinkERKNS_4pathES2_RSt10error_code
__ZNSt10filesystem14symlink_statusERKNS_4pathE
__ZNSt10filesystem14symlink_statusERKNS_4pathERSt10error_code
__ZNSt10filesystem15hard_link_countERKNS_4pathE
__ZNSt10filesystem15hard_link_countERKNS_4pathERSt10error_code
__ZNSt10filesystem15last_write_timeERKNS_4pathE
__ZNSt10filesystem15last_write_timeERKNS_4pathENSt6chrono10time_pointINS_12__file_clockENS3_8durationIxSt5ratioILx1ELx1000000000EEEEEE
__ZNSt10filesystem15last_write_timeERKNS_4pathENSt6chrono10time_pointINS_12__file_clockENS3_8durationIxSt5ratioILx1ELx1000000000EEEEEERSt10error_code
__ZNSt10filesystem15last_write_timeERKNS_4pathERSt10error_code
__ZNSt10filesystem16create_directoryERKNS_4pathE
__ZNSt10filesystem16create_directoryERKNS_4pathERSt10error_code
__ZNSt10filesystem16create_directoryERKNS_4pathES2_
__ZNSt10filesystem16create_directoryERKNS_4pathES2_RSt10error_code
__ZNSt10filesystem16create_hard_linkERKNS_4pathES2_
__ZNSt10filesystem16create_hard_linkERKNS_4pathES2_RSt10error_code
__ZNSt10filesystem16weakly_canonicalERKNS_4pathE
__ZNSt10filesystem16weakly_canonicalERKNS_4pathERSt10error_code
__ZNSt10filesystem18create_directoriesERKNS_4pathE
__ZNSt10filesystem18create_directoriesERKNS_4pathERSt10error_code
__ZNSt10filesystem19temp_directory_pathERSt10error_code
__ZNSt10filesystem19temp_directory_pathEv
__ZNSt10filesystem24create_directory_symlinkERKNS_4pathES2_
__ZNSt10filesystem24create_directory_symlinkERKNS_4pathES2_RSt10error_code
__ZNSt10filesystem4copyERKNS_4pathES2_NS_12copy_optionsE
__ZNSt10filesystem4copyERKNS_4pathES2_NS_12copy_optionsERSt10error_code
__ZNSt10filesystem5spaceERKNS_4pathE
__ZNSt10filesystem5spaceERKNS_4pathERSt10error_code
__ZNSt10filesystem6removeERKNS_4pathE
__ZNSt10filesystem6removeERKNS_4pathERSt10error_code
__ZNSt10filesystem6renameERKNS_4pathES2_
__ZNSt10filesystem6renameERKNS_4pathES2_RSt10error_code
__ZNSt10filesystem6statusERKNS_4pathE
__ZNSt10filesystem6statusERKNS_4pathERSt10error_code
__ZNSt10filesystem8absoluteERKNS_4pathE
__ZNSt10filesystem8absoluteERKNS_4pathERSt10error_code
__ZNSt10filesystem8is_emptyERKNS_4pathE
__ZNSt10filesystem8is_emptyERKNS_4pathERSt10error_code
__ZNSt10filesystem8relativeERKNS_4pathES2_
__ZNSt10filesystem8relativeERKNS_4pathES2_RSt10error_code
__ZNSt10filesystem9canonicalERKNS_4pathE
__ZNSt10filesystem9canonicalERKNS_4pathERSt10error_code
__ZNSt10filesystem9copy_fileERKNS_4pathES2_NS_12copy_optionsE
__ZNSt10filesystem9copy_fileERKNS_4pathES2_NS_12copy_optionsERSt10error_code
__ZNSt10filesystem9file_sizeERKNS_4pathE
__ZNSt10filesystem9file_sizeERKNS_4pathERSt10error_code
__ZNSt10filesystem9proximateERKNS_4pathES2_
__ZNSt10filesystem9proximateERKNS_4pathES2_RSt10error_code
__ZNSt10unique_ptrINSt10filesystem4path5_List5_ImplENS2_13_Impl_deleterEED1Ev
__ZNSt11_Deque_baseINSt10filesystem4pathESaIS1_EE17_M_initialize_mapEj
__ZNSt15_Sp_counted_ptrIDnLN9__gnu_cxx12_Lock_policyE2EE10_M_disposeEv
__ZNSt16_Sp_counted_baseILN9__gnu_cxx12_Lock_policyE2EE10_M_destroyEv
__ZNSt16_Sp_counted_baseILN9__gnu_cxx12_Lock_policyE2EE10_M_releaseEv
__ZNSt5dequeINSt10filesystem4pathESaIS1_EE12emplace_backIJS1_EEERS1_DpOT_
__ZNSt5dequeINSt10filesystem4pathESaIS1_EE16_M_push_back_auxIJRKS1_EEEvDpOT_
__ZNSt5dequeINSt10filesystem4pathESaIS1_EE17_M_reallocate_mapEjb
__ZNSt5dequeINSt10filesystem4pathESaIS1_EED1Ev
.weak.__ZNSt10filesystem4pathaSIA2_cEERNSt9enable_ifIXsrSt6__and_IISt6__not_ISt7is_sameINSt9remove_cvIT_E4typeES0_EES5_ISt7is_voidINSt14remove_pointerIS8_E4typeEEENS_8__detail20__constructible_fromIS8_vEEEE5valueES0_E4typeERKS8_.__ZNKSt10filesystem16filesystem_error4whatEv
__ZNKSt10filesystem16filesystem_error4whatEv
__ZNKSt10filesystem16filesystem_error5path1Ev
__ZNKSt10filesystem16filesystem_error5path2Ev
__ZNKSt10filesystem4path11parent_pathEv
__ZNKSt10filesystem4path12has_filenameEv
__ZNKSt10filesystem4path13has_root_nameEv
__ZNKSt10filesystem4path13has_root_pathEv
__ZNKSt10filesystem4path13relative_pathEv
__ZNKSt10filesystem4path14root_directoryEv
__ZNKSt10filesystem4path15has_parent_pathEv
__ZNKSt10filesystem4path16lexically_normalEv
__ZNKSt10filesystem4path17_M_find_extensionEv
__ZNKSt10filesystem4path17has_relative_pathEv
__ZNKSt10filesystem4path18has_root_directoryEv
__ZNKSt10filesystem4path18lexically_relativeERKS0_
__ZNKSt10filesystem4path19lexically_proximateERKS0_
__ZNKSt10filesystem4path5_List13_Impl_deleterclEPNS1_5_ImplE
__ZNKSt10filesystem4path5_List3endEv
__ZNKSt10filesystem4path5_List5_Impl4copyEv
__ZNKSt10filesystem4path5_List5beginEv
__ZNKSt10filesystem4path7compareERKS0_
__ZNKSt10filesystem4path7compareESt17basic_string_viewIwSt11char_traitsIwEE
__ZNKSt10filesystem4path8u8stringEv
__ZNKSt10filesystem4path9root_nameEv
__ZNKSt10filesystem4path9root_pathEv
__ZNKSt12__shared_ptrIKNSt10filesystem16filesystem_error5_ImplELN9__gnu_cxx12_Lock_policyE2EE14_M_get_deleterERKSt9type_info
__ZNKSt12__shared_ptrIKNSt10filesystem16filesystem_error5_ImplELN9__gnu_cxx12_Lock_policyE2EE3getEv
__ZNKSt12__shared_ptrIKNSt10filesystem16filesystem_error5_ImplELN9__gnu_cxx12_Lock_policyE2EE6uniqueEv
__ZNKSt12__shared_ptrIKNSt10filesystem16filesystem_error5_ImplELN9__gnu_cxx12_Lock_policyE2EE9use_countEv
__ZNKSt12__shared_ptrIKNSt10filesystem16filesystem_error5_ImplELN9__gnu_cxx12_Lock_policyE2EEcvbEv
__ZNKSt23__codecvt_abstract_baseIwciE2inERiPKcS3_RS3_PwS5_RS5_
__ZNKSt23__codecvt_abstract_baseIwciE3outERiPKwS3_RS3_PcS5_RS5_
__ZNSt10filesystem10hash_valueERKNS_4pathE
__ZNSt10filesystem16filesystem_error5_Impl9make_whatESt17basic_string_viewIcSt11char_traitsIcEEPKNS_4pathES8_
__ZNSt10filesystem16filesystem_errorC1ERKSsRKNS_4pathES5_St10error_code
__ZNSt10filesystem16filesystem_errorC1ERKSsRKNS_4pathESt10error_code
__ZNSt10filesystem16filesystem_errorC1ERKSsSt10error_code
__ZNSt10filesystem16filesystem_errorC2ERKSsRKNS_4pathES5_St10error_code
__ZNSt10filesystem16filesystem_errorC2ERKSsRKNS_4pathESt10error_code
__ZNSt10filesystem16filesystem_errorC2ERKSsSt10error_code
__ZNSt10filesystem16filesystem_errorD0Ev
__ZNSt10filesystem16filesystem_errorD1Ev
__ZNSt10filesystem16filesystem_errorD2Ev
__ZNSt10filesystem4path14_M_split_cmptsEv
__ZNSt10filesystem4path14_S_convert_locEPKcS2_RKSt6locale
__ZNSt10filesystem4path15remove_filenameEv
__ZNSt10filesystem4path16replace_filenameERKS0_
__ZNSt10filesystem4path17replace_extensionERKS0_
__ZNSt10filesystem4path5_CmptD1Ev
__ZNSt10filesystem4path5_List5_Impl13_M_erase_fromEPKNS0_5_CmptE
__ZNSt10filesystem4path5_List5clearEv
__ZNSt10filesystem4path5_List7reserveEib
__ZNSt10filesystem4path5_ListC1ERKS1_
__ZNSt10filesystem4path5_ListC1Ev
__ZNSt10filesystem4path5_ListC2ERKS1_
__ZNSt10filesystem4path5_ListC2Ev
__ZNSt10filesystem4path5_ListaSERKS1_
__ZNSt10filesystem4path7_Parser4nextEv
__ZNSt10filesystem4path7_Parser9root_pathEv
__ZNSt10filesystem4path9_M_appendESt17basic_string_viewIwSt11char_traitsIwEE
__ZNSt10filesystem4path9_M_concatESt17basic_string_viewIwSt11char_traitsIwEE
__ZNSt10filesystem4pathaSERKS0_
__ZNSt10filesystem4pathaSIA2_cEERNSt9enable_ifIXsrSt6__and_IJSt6__not_ISt7is_sameINSt9remove_cvIT_E4typeES0_EES5_ISt7is_voidINSt14remove_pointerIS8_E4typeEEENS_8__detail20__constructible_fromIS8_vEEEE5valueES0_E4typeERKS8_
__ZNSt10filesystem4pathdVERKS0_
__ZNSt10filesystem4pathpLERKS0_
__ZNSt10unique_ptrINSt10filesystem4path5_List5_ImplENS2_13_Impl_deleterEED1Ev
__ZNSt12__shared_ptrIKNSt10filesystem16filesystem_error5_ImplELN9__gnu_cxx12_Lock_policyE2EE4swapERS6_
__ZNSt12__shared_ptrIKNSt10filesystem16filesystem_error5_ImplELN9__gnu_cxx12_Lock_policyE2EE5resetEv
__ZNSt12__shared_ptrIKNSt10filesystem16filesystem_error5_ImplELN9__gnu_cxx12_Lock_policyE2EEC1EDn
__ZNSt12__shared_ptrIKNSt10filesystem16filesystem_error5_ImplELN9__gnu_cxx12_Lock_policyE2EEC1EOS6_
__ZNSt12__shared_ptrIKNSt10filesystem16filesystem_error5_ImplELN9__gnu_cxx12_Lock_policyE2EEC1ERKSt10__weak_ptrIS3_LS5_2EESt9nothrow_t
__ZNSt12__shared_ptrIKNSt10filesystem16filesystem_error5_ImplELN9__gnu_cxx12_Lock_policyE2EEC1Ev
__ZNSt12__shared_ptrIKNSt10filesystem16filesystem_error5_ImplELN9__gnu_cxx12_Lock_policyE2EEC2EDn
__ZNSt12__shared_ptrIKNSt10filesystem16filesystem_error5_ImplELN9__gnu_cxx12_Lock_policyE2EEC2EOS6_
__ZNSt12__shared_ptrIKNSt10filesystem16filesystem_error5_ImplELN9__gnu_cxx12_Lock_policyE2EEC2ERKSt10__weak_ptrIS3_LS5_2EESt9nothrow_t
__ZNSt12__shared_ptrIKNSt10filesystem16filesystem_error5_ImplELN9__gnu_cxx12_Lock_policyE2EEC2Ev
__ZNSt12__shared_ptrIKNSt10filesystem16filesystem_error5_ImplELN9__gnu_cxx12_Lock_policyE2EEaSEOS6_
__ZNSt12system_errorC2ESt10error_codeRKSs
__ZNSt15__allocated_ptrISaISt23_Sp_counted_ptr_inplaceINSt10filesystem16filesystem_error5_ImplESaIS3_ELN9__gnu_cxx12_Lock_policyE2EEEED1Ev
__ZNSt18codecvt_utf8_utf16IwLm1114111ELSt12codecvt_mode0EED0Ev
__ZNSt18codecvt_utf8_utf16IwLm1114111ELSt12codecvt_mode0EED1Ev
__ZNSt23_Sp_counted_ptr_inplaceINSt10filesystem16filesystem_error5_ImplESaIS2_ELN9__gnu_cxx12_Lock_policyE2EE10_M_destroyEv
__ZNSt23_Sp_counted_ptr_inplaceINSt10filesystem16filesystem_error5_ImplESaIS2_ELN9__gnu_cxx12_Lock_policyE2EE10_M_disposeEv
__ZNSt23_Sp_counted_ptr_inplaceINSt10filesystem16filesystem_error5_ImplESaIS2_ELN9__gnu_cxx12_Lock_policyE2EE14_M_get_deleterERKSt9type_info
__ZNSt23_Sp_counted_ptr_inplaceINSt10filesystem16filesystem_error5_ImplESaIS2_ELN9__gnu_cxx12_Lock_policyE2EED0Ev
__ZNSt23_Sp_counted_ptr_inplaceINSt10filesystem16filesystem_error5_ImplESaIS2_ELN9__gnu_cxx12_Lock_policyE2EED1Ev
__ZSt16__do_str_codecvtISbIwSt11char_traitsIwESaIwEEcSt7codecvtIwciEiMS5_KFNSt12codecvt_base6resultERiPKcSA_RSA_PwSC_RSC_EEbPKT0_SI_RT_RKT1_RT2_RjT3_
__ZZNSt10filesystem4path4_CvtIcE10_S_convertEPKcS4_EN5_UCvtD0Ev
__ZZNSt10filesystem4path4_CvtIcE10_S_convertEPKcS4_EN5_UCvtD1Ev
__ZNKSbIwSt11char_traitsIwESaIwEEcvSt17basic_string_viewIwS0_EEv
__ZNKSscvSt17basic_string_viewIcSt11char_traitsIcEEEv
__ZNSbIwSt11char_traitsIwESaIwEE12__sv_wrapperC1ESt17basic_string_viewIwS0_E
__ZNSbIwSt11char_traitsIwESaIwEE12__sv_wrapperC2ESt17basic_string_viewIwS0_E
__ZNSbIwSt11char_traitsIwESaIwEE17_S_to_string_viewESt17basic_string_viewIwS0_E
__ZNSbIwSt11char_traitsIwESaIwEE4dataEv
__ZNSbIwSt11char_traitsIwESaIwEEC1ENS2_12__sv_wrapperERKS1_
__ZNSbIwSt11char_traitsIwESaIwEEC2ENS2_12__sv_wrapperERKS1_
__ZNSs12__sv_wrapperC1ESt17basic_string_viewIcSt11char_traitsIcEE
__ZNSs12__sv_wrapperC2ESt17basic_string_viewIcSt11char_traitsIcEE
__ZNSs17_S_to_string_viewESt17basic_string_viewIcSt11char_traitsIcEE
__ZNSs4dataEv
__ZNSsC1ENSs12__sv_wrapperERKSaIcE
__ZNSsC2ENSs12__sv_wrapperERKSaIcE
.weak.__ZNSt5dequeINSt10filesystem7__cxx114_DirESaIS2_EE12emplace_backIIS2_EEERS2_DpOT_.__ZNSt23_Sp_counted_ptr_inplaceINSt10filesystem7__cxx1128recursive_directory_iterator10_Dir_stackESaIS3_ELN9__gnu_cxx12_Lock_policyE2EED1Ev
.weak.__ZNSt5dequeINSt10filesystem7__cxx114_DirESaIS2_EE16_M_push_back_auxIIRP5_WDIRRKNS1_4pathEEEEvDpOT_.__ZNSt23_Sp_counted_ptr_inplaceINSt10filesystem7__cxx1128recursive_directory_iterator10_Dir_stackESaIS3_ELN9__gnu_cxx12_Lock_policyE2EED1Ev
__ZNKSt10filesystem7__cxx1118directory_iteratordeEv
__ZNKSt10filesystem7__cxx1128recursive_directory_iterator17recursion_pendingEv
__ZNKSt10filesystem7__cxx1128recursive_directory_iterator5depthEv
__ZNKSt10filesystem7__cxx1128recursive_directory_iterator7optionsEv
__ZNKSt10filesystem7__cxx1128recursive_directory_iteratordeEv
__ZNKSt12__shared_ptrINSt10filesystem7__cxx1128recursive_directory_iterator10_Dir_stackELN9__gnu_cxx12_Lock_policyE2EE14_M_get_deleterERKSt9type_info
__ZNKSt12__shared_ptrINSt10filesystem7__cxx1128recursive_directory_iterator10_Dir_stackELN9__gnu_cxx12_Lock_policyE2EE3getEv
__ZNKSt12__shared_ptrINSt10filesystem7__cxx1128recursive_directory_iterator10_Dir_stackELN9__gnu_cxx12_Lock_policyE2EE6uniqueEv
__ZNKSt12__shared_ptrINSt10filesystem7__cxx1128recursive_directory_iterator10_Dir_stackELN9__gnu_cxx12_Lock_policyE2EE9use_countEv
__ZNKSt12__shared_ptrINSt10filesystem7__cxx1128recursive_directory_iterator10_Dir_stackELN9__gnu_cxx12_Lock_policyE2EEcvbEv
__ZNKSt12__shared_ptrINSt10filesystem7__cxx114_DirELN9__gnu_cxx12_Lock_policyE2EE14_M_get_deleterERKSt9type_info
__ZNKSt12__shared_ptrINSt10filesystem7__cxx114_DirELN9__gnu_cxx12_Lock_policyE2EE3getEv
__ZNKSt12__shared_ptrINSt10filesystem7__cxx114_DirELN9__gnu_cxx12_Lock_policyE2EE6uniqueEv
__ZNKSt12__shared_ptrINSt10filesystem7__cxx114_DirELN9__gnu_cxx12_Lock_policyE2EE9use_countEv
__ZNKSt12__shared_ptrINSt10filesystem7__cxx114_DirELN9__gnu_cxx12_Lock_policyE2EEcvbEv
__ZNSt10filesystem7__cxx1118directory_iterator9incrementERSt10error_code
__ZNSt10filesystem7__cxx1118directory_iteratorC1ERKNS0_4pathENS_17directory_optionsEPSt10error_code
__ZNSt10filesystem7__cxx1118directory_iteratorC2ERKNS0_4pathENS_17directory_optionsEPSt10error_code
__ZNSt10filesystem7__cxx1118directory_iteratorppEv
__ZNSt10filesystem7__cxx1128recursive_directory_iterator25disable_recursion_pendingEv
__ZNSt10filesystem7__cxx1128recursive_directory_iterator3popERSt10error_code
__ZNSt10filesystem7__cxx1128recursive_directory_iterator3popEv
__ZNSt10filesystem7__cxx1128recursive_directory_iterator9incrementERSt10error_code
__ZNSt10filesystem7__cxx1128recursive_directory_iteratorC1ERKNS0_4pathENS_17directory_optionsEPSt10error_code
__ZNSt10filesystem7__cxx1128recursive_directory_iteratorC2ERKNS0_4pathENS_17directory_optionsEPSt10error_code
__ZNSt10filesystem7__cxx1128recursive_directory_iteratorD1Ev
__ZNSt10filesystem7__cxx1128recursive_directory_iteratorD2Ev
__ZNSt10filesystem7__cxx1128recursive_directory_iteratoraSEOS1_
__ZNSt10filesystem7__cxx1128recursive_directory_iteratoraSERKS1_
__ZNSt10filesystem7__cxx1128recursive_directory_iteratorppEv
__ZNSt10filesystem7__cxx114_Dir7advanceEbRSt10error_code
__ZNSt10filesystem7__cxx114_DirD1Ev
__ZNSt10filesystem9_Dir_base7advanceEbRSt10error_code
__ZNSt10unique_ptrINSt10filesystem7__cxx114path5_List5_ImplENS3_13_Impl_deleterEED1Ev
__ZNSt12__shared_ptrINSt10filesystem7__cxx1128recursive_directory_iterator10_Dir_stackELN9__gnu_cxx12_Lock_policyE2EE4swapERS6_
__ZNSt12__shared_ptrINSt10filesystem7__cxx1128recursive_directory_iterator10_Dir_stackELN9__gnu_cxx12_Lock_policyE2EE5resetEv
__ZNSt12__shared_ptrINSt10filesystem7__cxx1128recursive_directory_iterator10_Dir_stackELN9__gnu_cxx12_Lock_policyE2EEC1EDn
__ZNSt12__shared_ptrINSt10filesystem7__cxx1128recursive_directory_iterator10_Dir_stackELN9__gnu_cxx12_Lock_policyE2EEC1EOS6_
__ZNSt12__shared_ptrINSt10filesystem7__cxx1128recursive_directory_iterator10_Dir_stackELN9__gnu_cxx12_Lock_policyE2EEC1ERKSt10__weak_ptrIS3_LS5_2EESt9nothrow_t
__ZNSt12__shared_ptrINSt10filesystem7__cxx1128recursive_directory_iterator10_Dir_stackELN9__gnu_cxx12_Lock_policyE2EEC1Ev
__ZNSt12__shared_ptrINSt10filesystem7__cxx1128recursive_directory_iterator10_Dir_stackELN9__gnu_cxx12_Lock_policyE2EEC2EDn
__ZNSt12__shared_ptrINSt10filesystem7__cxx1128recursive_directory_iterator10_Dir_stackELN9__gnu_cxx12_Lock_policyE2EEC2EOS6_
__ZNSt12__shared_ptrINSt10filesystem7__cxx1128recursive_directory_iterator10_Dir_stackELN9__gnu_cxx12_Lock_policyE2EEC2ERKSt10__weak_ptrIS3_LS5_2EESt9nothrow_t
__ZNSt12__shared_ptrINSt10filesystem7__cxx1128recursive_directory_iterator10_Dir_stackELN9__gnu_cxx12_Lock_policyE2EEC2Ev
__ZNSt12__shared_ptrINSt10filesystem7__cxx1128recursive_directory_iterator10_Dir_stackELN9__gnu_cxx12_Lock_policyE2EEaSEOS6_
__ZNSt12__shared_ptrINSt10filesystem7__cxx114_DirELN9__gnu_cxx12_Lock_policyE2EE4swapERS5_
__ZNSt12__shared_ptrINSt10filesystem7__cxx114_DirELN9__gnu_cxx12_Lock_policyE2EE5resetEv
__ZNSt12__shared_ptrINSt10filesystem7__cxx114_DirELN9__gnu_cxx12_Lock_policyE2EEC1EDn
__ZNSt12__shared_ptrINSt10filesystem7__cxx114_DirELN9__gnu_cxx12_Lock_policyE2EEC1EOS5_
__ZNSt12__shared_ptrINSt10filesystem7__cxx114_DirELN9__gnu_cxx12_Lock_policyE2EEC1ERKSt10__weak_ptrIS2_LS4_2EESt9nothrow_t
__ZNSt12__shared_ptrINSt10filesystem7__cxx114_DirELN9__gnu_cxx12_Lock_policyE2EEC1Ev
__ZNSt12__shared_ptrINSt10filesystem7__cxx114_DirELN9__gnu_cxx12_Lock_policyE2EEC2EDn
__ZNSt12__shared_ptrINSt10filesystem7__cxx114_DirELN9__gnu_cxx12_Lock_policyE2EEC2EOS5_
__ZNSt12__shared_ptrINSt10filesystem7__cxx114_DirELN9__gnu_cxx12_Lock_policyE2EEC2ERKSt10__weak_ptrIS2_LS4_2EESt9nothrow_t
__ZNSt12__shared_ptrINSt10filesystem7__cxx114_DirELN9__gnu_cxx12_Lock_policyE2EEC2Ev
__ZNSt12__shared_ptrINSt10filesystem7__cxx114_DirELN9__gnu_cxx12_Lock_policyE2EEaSEOS5_
__ZNSt16_Sp_counted_baseILN9__gnu_cxx12_Lock_policyE2EE10_M_releaseEv
__ZNSt23_Sp_counted_ptr_inplaceINSt10filesystem7__cxx1128recursive_directory_iterator10_Dir_stackESaIS3_ELN9__gnu_cxx12_Lock_policyE2EE10_M_destroyEv
__ZNSt23_Sp_counted_ptr_inplaceINSt10filesystem7__cxx1128recursive_directory_iterator10_Dir_stackESaIS3_ELN9__gnu_cxx12_Lock_policyE2EE10_M_disposeEv
__ZNSt23_Sp_counted_ptr_inplaceINSt10filesystem7__cxx1128recursive_directory_iterator10_Dir_stackESaIS3_ELN9__gnu_cxx12_Lock_policyE2EE14_M_get_deleterERKSt9type_info
__ZNSt23_Sp_counted_ptr_inplaceINSt10filesystem7__cxx1128recursive_directory_iterator10_Dir_stackESaIS3_ELN9__gnu_cxx12_Lock_policyE2EED0Ev
__ZNSt23_Sp_counted_ptr_inplaceINSt10filesystem7__cxx1128recursive_directory_iterator10_Dir_stackESaIS3_ELN9__gnu_cxx12_Lock_policyE2EED1Ev
__ZNSt23_Sp_counted_ptr_inplaceINSt10filesystem7__cxx114_DirESaIS2_ELN9__gnu_cxx12_Lock_policyE2EE10_M_destroyEv
__ZNSt23_Sp_counted_ptr_inplaceINSt10filesystem7__cxx114_DirESaIS2_ELN9__gnu_cxx12_Lock_policyE2EE10_M_disposeEv
__ZNSt23_Sp_counted_ptr_inplaceINSt10filesystem7__cxx114_DirESaIS2_ELN9__gnu_cxx12_Lock_policyE2EE14_M_get_deleterERKSt9type_info
__ZNSt23_Sp_counted_ptr_inplaceINSt10filesystem7__cxx114_DirESaIS2_ELN9__gnu_cxx12_Lock_policyE2EED0Ev
__ZNSt23_Sp_counted_ptr_inplaceINSt10filesystem7__cxx114_DirESaIS2_ELN9__gnu_cxx12_Lock_policyE2EED1Ev
__ZNSt5dequeINSt10filesystem7__cxx114_DirESaIS2_EE12emplace_backIJS2_EEERS2_DpOT_
__ZNSt5dequeINSt10filesystem7__cxx114_DirESaIS2_EE16_M_push_back_auxIJRP5_WDIRRKNS1_4pathEEEEvDpOT_
__ZNSt5dequeINSt10filesystem7__cxx114_DirESaIS2_EE17_M_reallocate_mapEjb
__ZNSt5dequeINSt10filesystem7__cxx114_DirESaIS2_EED1Ev
.weak.__ZNSt5dequeINSt10filesystem7__cxx114pathESaIS2_EE16_M_push_back_auxIIRKS2_EEEvDpOT_.__ZNSt15_Sp_counted_ptrIDnLN9__gnu_cxx12_Lock_policyE2EE10_M_disposeEv
__ZN9__gnu_cxx13stdio_filebufIcSt11char_traitsIcEEC1EiSt13_Ios_Openmodej
__ZN9__gnu_cxx13stdio_filebufIcSt11char_traitsIcEED0Ev
__ZN9__gnu_cxx13stdio_filebufIcSt11char_traitsIcEED1Ev
__ZNKSt10filesystem7__cxx114path8filenameEv
__ZNSt10filesystem10equivalentERKNS_7__cxx114pathES3_
__ZNSt10filesystem10equivalentERKNS_7__cxx114pathES3_RSt10error_code
__ZNSt10filesystem10remove_allERKNS_7__cxx114pathE
__ZNSt10filesystem10remove_allERKNS_7__cxx114pathERSt10error_code
__ZNSt10filesystem11permissionsERKNS_7__cxx114pathENS_5permsENS_12perm_optionsE
__ZNSt10filesystem11permissionsERKNS_7__cxx114pathENS_5permsENS_12perm_optionsERSt10error_code
__ZNSt10filesystem11resize_fileERKNS_7__cxx114pathEy
__ZNSt10filesystem11resize_fileERKNS_7__cxx114pathEyRSt10error_code
__ZNSt10filesystem12copy_symlinkERKNS_7__cxx114pathES3_
__ZNSt10filesystem12copy_symlinkERKNS_7__cxx114pathES3_RSt10error_code
__ZNSt10filesystem12current_pathB5cxx11ERSt10error_code
__ZNSt10filesystem12current_pathB5cxx11Ev
__ZNSt10filesystem12current_pathERKNS_7__cxx114pathE
__ZNSt10filesystem12current_pathERKNS_7__cxx114pathERSt10error_code
__ZNSt10filesystem12do_copy_fileEPKwS1_NS_26copy_options_existing_fileEP7_stat32S4_RSt10error_code
__ZNSt10filesystem12read_symlinkERKNS_7__cxx114pathE
__ZNSt10filesystem12read_symlinkERKNS_7__cxx114pathERSt10error_code
__ZNSt10filesystem14create_symlinkERKNS_7__cxx114pathES3_
__ZNSt10filesystem14create_symlinkERKNS_7__cxx114pathES3_RSt10error_code
__ZNSt10filesystem14symlink_statusERKNS_7__cxx114pathE
__ZNSt10filesystem14symlink_statusERKNS_7__cxx114pathERSt10error_code
__ZNSt10filesystem15hard_link_countERKNS_7__cxx114pathE
__ZNSt10filesystem15hard_link_countERKNS_7__cxx114pathERSt10error_code
__ZNSt10filesystem15last_write_timeERKNS_7__cxx114pathE
__ZNSt10filesystem15last_write_timeERKNS_7__cxx114pathENSt6chrono10time_pointINS_12__file_clockENS4_8durationIxSt5ratioILx1ELx1000000000EEEEEE
__ZNSt10filesystem15last_write_timeERKNS_7__cxx114pathENSt6chrono10time_pointINS_12__file_clockENS4_8durationIxSt5ratioILx1ELx1000000000EEEEEERSt10error_code
__ZNSt10filesystem15last_write_timeERKNS_7__cxx114pathERSt10error_code
__ZNSt10filesystem16create_directoryERKNS_7__cxx114pathE
__ZNSt10filesystem16create_directoryERKNS_7__cxx114pathERSt10error_code
__ZNSt10filesystem16create_directoryERKNS_7__cxx114pathES3_
__ZNSt10filesystem16create_directoryERKNS_7__cxx114pathES3_RSt10error_code
__ZNSt10filesystem16create_hard_linkERKNS_7__cxx114pathES3_
__ZNSt10filesystem16create_hard_linkERKNS_7__cxx114pathES3_RSt10error_code
__ZNSt10filesystem16weakly_canonicalERKNS_7__cxx114pathE
__ZNSt10filesystem16weakly_canonicalERKNS_7__cxx114pathERSt10error_code
__ZNSt10filesystem18create_directoriesERKNS_7__cxx114pathE
__ZNSt10filesystem18create_directoriesERKNS_7__cxx114pathERSt10error_code
__ZNSt10filesystem19temp_directory_pathB5cxx11ERSt10error_code
__ZNSt10filesystem19temp_directory_pathB5cxx11Ev
__ZNSt10filesystem24create_directory_symlinkERKNS_7__cxx114pathES3_
__ZNSt10filesystem24create_directory_symlinkERKNS_7__cxx114pathES3_RSt10error_code
__ZNSt10filesystem4copyERKNS_7__cxx114pathES3_NS_12copy_optionsE
__ZNSt10filesystem4copyERKNS_7__cxx114pathES3_NS_12copy_optionsERSt10error_code
__ZNSt10filesystem5spaceERKNS_7__cxx114pathE
__ZNSt10filesystem5spaceERKNS_7__cxx114pathERSt10error_code
__ZNSt10filesystem6removeERKNS_7__cxx114pathE
__ZNSt10filesystem6removeERKNS_7__cxx114pathERSt10error_code
__ZNSt10filesystem6renameERKNS_7__cxx114pathES3_
__ZNSt10filesystem6renameERKNS_7__cxx114pathES3_RSt10error_code
__ZNSt10filesystem6statusERKNS_7__cxx114pathE
__ZNSt10filesystem6statusERKNS_7__cxx114pathERSt10error_code
__ZNSt10filesystem8absoluteERKNS_7__cxx114pathE
__ZNSt10filesystem8absoluteERKNS_7__cxx114pathERSt10error_code
__ZNSt10filesystem8do_spaceEPKwRyS2_S2_RSt10error_code
__ZNSt10filesystem8is_emptyERKNS_7__cxx114pathE
__ZNSt10filesystem8is_emptyERKNS_7__cxx114pathERSt10error_code
__ZNSt10filesystem8relativeERKNS_7__cxx114pathES3_
__ZNSt10filesystem8relativeERKNS_7__cxx114pathES3_RSt10error_code
__ZNSt10filesystem9canonicalERKNS_7__cxx114pathE
__ZNSt10filesystem9canonicalERKNS_7__cxx114pathERSt10error_code
__ZNSt10filesystem9copy_fileERKNS_7__cxx114pathES3_NS_12copy_optionsE
__ZNSt10filesystem9copy_fileERKNS_7__cxx114pathES3_NS_12copy_optionsERSt10error_code
__ZNSt10filesystem9file_sizeERKNS_7__cxx114pathE
__ZNSt10filesystem9file_sizeERKNS_7__cxx114pathERSt10error_code
__ZNSt10filesystem9proximateERKNS_7__cxx114pathES3_
__ZNSt10filesystem9proximateERKNS_7__cxx114pathES3_RSt10error_code
__ZNSt10unique_ptrINSt10filesystem7__cxx114path5_List5_ImplENS3_13_Impl_deleterEED1Ev
__ZNSt11_Deque_baseINSt10filesystem7__cxx114pathESaIS2_EE17_M_initialize_mapEj
__ZNSt15_Sp_counted_ptrIDnLN9__gnu_cxx12_Lock_policyE2EE10_M_disposeEv
__ZNSt16_Sp_counted_baseILN9__gnu_cxx12_Lock_policyE2EE10_M_destroyEv
__ZNSt16_Sp_counted_baseILN9__gnu_cxx12_Lock_policyE2EE10_M_releaseEv
__ZNSt5dequeINSt10filesystem7__cxx114pathESaIS2_EE16_M_push_back_auxIJRKS2_EEEvDpOT_
__ZNSt5dequeINSt10filesystem7__cxx114pathESaIS2_EE17_M_reallocate_mapEjb
__ZNSt5dequeINSt10filesystem7__cxx114pathESaIS2_EED1Ev
.weak.__ZNSt10filesystem7__cxx114pathaSIA2_cEERNSt9enable_ifIXsrSt6__and_IISt6__not_ISt7is_sameINSt9remove_cvIT_E4typeES1_EES6_ISt7is_voidINSt14remove_pointerIS9_E4typeEEENS0_8__detail20__constructible_fromIS9_vEEEE5valueES1_E4typeERKS9_.__ZNKSt10filesystem7__cxx1116filesystem_error4whatEv
__ZNKSt10filesystem7__cxx1116filesystem_error4whatEv
__ZNKSt10filesystem7__cxx1116filesystem_error5path1Ev
__ZNKSt10filesystem7__cxx1116filesystem_error5path2Ev
__ZNKSt10filesystem7__cxx114path11parent_pathEv
__ZNKSt10filesystem7__cxx114path12has_filenameEv
__ZNKSt10filesystem7__cxx114path13has_root_nameEv
__ZNKSt10filesystem7__cxx114path13has_root_pathEv
__ZNKSt10filesystem7__cxx114path13relative_pathEv
__ZNKSt10filesystem7__cxx114path14root_directoryEv
__ZNKSt10filesystem7__cxx114path15has_parent_pathEv
__ZNKSt10filesystem7__cxx114path16lexically_normalEv
__ZNKSt10filesystem7__cxx114path17_M_find_extensionEv
__ZNKSt10filesystem7__cxx114path17has_relative_pathEv
__ZNKSt10filesystem7__cxx114path18has_root_directoryEv
__ZNKSt10filesystem7__cxx114path18lexically_relativeERKS1_
__ZNKSt10filesystem7__cxx114path19lexically_proximateERKS1_
__ZNKSt10filesystem7__cxx114path5_List13_Impl_deleterclEPNS2_5_ImplE
__ZNKSt10filesystem7__cxx114path5_List3endEv
__ZNKSt10filesystem7__cxx114path5_List5beginEv
__ZNKSt10filesystem7__cxx114path7compareERKS1_
__ZNKSt10filesystem7__cxx114path7compareESt17basic_string_viewIwSt11char_traitsIwEE
__ZNKSt10filesystem7__cxx114path9root_nameEv
__ZNKSt10filesystem7__cxx114path9root_pathEv
__ZNKSt12__shared_ptrIKNSt10filesystem7__cxx1116filesystem_error5_ImplELN9__gnu_cxx12_Lock_policyE2EE14_M_get_deleterERKSt9type_info
__ZNKSt12__shared_ptrIKNSt10filesystem7__cxx1116filesystem_error5_ImplELN9__gnu_cxx12_Lock_policyE2EE3getEv
__ZNKSt12__shared_ptrIKNSt10filesystem7__cxx1116filesystem_error5_ImplELN9__gnu_cxx12_Lock_policyE2EE6uniqueEv
__ZNKSt12__shared_ptrIKNSt10filesystem7__cxx1116filesystem_error5_ImplELN9__gnu_cxx12_Lock_policyE2EE9use_countEv
__ZNKSt12__shared_ptrIKNSt10filesystem7__cxx1116filesystem_error5_ImplELN9__gnu_cxx12_Lock_policyE2EEcvbEv
__ZNKSt23__codecvt_abstract_baseIwciE2inERiPKcS3_RS3_PwS5_RS5_
__ZNKSt23__codecvt_abstract_baseIwciE3outERiPKwS3_RS3_PcS5_RS5_
__ZNSt10filesystem7__cxx1110hash_valueERKNS0_4pathE
__ZNSt10filesystem7__cxx1116filesystem_error5_Impl9make_whatESt17basic_string_viewIcSt11char_traitsIcEEPKNS0_4pathES9_
__ZNSt10filesystem7__cxx1116filesystem_errorC1ERKNSt7__cxx1112basic_stringIcSt11char_traitsIcESaIcEEERKNS0_4pathESC_St10error_code
__ZNSt10filesystem7__cxx1116filesystem_errorC1ERKNSt7__cxx1112basic_stringIcSt11char_traitsIcESaIcEEERKNS0_4pathESt10error_code
__ZNSt10filesystem7__cxx1116filesystem_errorC1ERKNSt7__cxx1112basic_stringIcSt11char_traitsIcESaIcEEESt10error_code
__ZNSt10filesystem7__cxx1116filesystem_errorC2ERKNSt7__cxx1112basic_stringIcSt11char_traitsIcESaIcEEERKNS0_4pathESC_St10error_code
__ZNSt10filesystem7__cxx1116filesystem_errorC2ERKNSt7__cxx1112basic_stringIcSt11char_traitsIcESaIcEEERKNS0_4pathESt10error_code
__ZNSt10filesystem7__cxx1116filesystem_errorC2ERKNSt7__cxx1112basic_stringIcSt11char_traitsIcESaIcEEESt10error_code
__ZNSt10filesystem7__cxx1116filesystem_errorD0Ev
__ZNSt10filesystem7__cxx1116filesystem_errorD1Ev
__ZNSt10filesystem7__cxx1116filesystem_errorD2Ev
__ZNSt10filesystem7__cxx114path14_M_split_cmptsEv
__ZNSt10filesystem7__cxx114path14_S_convert_locEPKcS3_RKSt6locale
__ZNSt10filesystem7__cxx114path15remove_filenameEv
__ZNSt10filesystem7__cxx114path16replace_filenameERKS1_
__ZNSt10filesystem7__cxx114path17replace_extensionERKS1_
__ZNSt10filesystem7__cxx114path5_CmptD1Ev
__ZNSt10filesystem7__cxx114path5_List5_Impl13_M_erase_fromEPKNS1_5_CmptE
__ZNSt10filesystem7__cxx114path5_List5clearEv
__ZNSt10filesystem7__cxx114path5_List7reserveEib
__ZNSt10filesystem7__cxx114path5_ListC1ERKS2_
__ZNSt10filesystem7__cxx114path5_ListC1Ev
__ZNSt10filesystem7__cxx114path5_ListC2ERKS2_
__ZNSt10filesystem7__cxx114path5_ListC2Ev
__ZNSt10filesystem7__cxx114path5_ListaSERKS2_
__ZNSt10filesystem7__cxx114path7_Parser4nextEv
__ZNSt10filesystem7__cxx114path7_Parser9root_pathEv
__ZNSt10filesystem7__cxx114path9_M_appendESt17basic_string_viewIwSt11char_traitsIwEE
__ZNSt10filesystem7__cxx114path9_M_concatESt17basic_string_viewIwSt11char_traitsIwEE
__ZNSt10filesystem7__cxx114pathC1ERKS1_
__ZNSt10filesystem7__cxx114pathaSERKS1_
__ZNSt10filesystem7__cxx114pathaSIA2_cEERNSt9enable_ifIXsrSt6__and_IJSt6__not_ISt7is_sameINSt9remove_cvIT_E4typeES1_EES6_ISt7is_voidINSt14remove_pointerIS9_E4typeEEENS0_8__detail20__constructible_fromIS9_vEEEE5valueES1_E4typeERKS9_
__ZNSt10filesystem7__cxx114pathdVERKS1_
__ZNSt10filesystem7__cxx114pathpLERKS1_
__ZNSt10unique_ptrINSt10filesystem7__cxx114path5_List5_ImplENS3_13_Impl_deleterEED1Ev
__ZNSt12__shared_ptrIKNSt10filesystem7__cxx1116filesystem_error5_ImplELN9__gnu_cxx12_Lock_policyE2EE4swapERS7_
__ZNSt12__shared_ptrIKNSt10filesystem7__cxx1116filesystem_error5_ImplELN9__gnu_cxx12_Lock_policyE2EE5resetEv
__ZNSt12__shared_ptrIKNSt10filesystem7__cxx1116filesystem_error5_ImplELN9__gnu_cxx12_Lock_policyE2EEC1EDn
__ZNSt12__shared_ptrIKNSt10filesystem7__cxx1116filesystem_error5_ImplELN9__gnu_cxx12_Lock_policyE2EEC1EOS7_
__ZNSt12__shared_ptrIKNSt10filesystem7__cxx1116filesystem_error5_ImplELN9__gnu_cxx12_Lock_policyE2EEC1ERKSt10__weak_ptrIS4_LS6_2EESt9nothrow_t
__ZNSt12__shared_ptrIKNSt10filesystem7__cxx1116filesystem_error5_ImplELN9__gnu_cxx12_Lock_policyE2EEC1Ev
__ZNSt12__shared_ptrIKNSt10filesystem7__cxx1116filesystem_error5_ImplELN9__gnu_cxx12_Lock_policyE2EEC2EDn
__ZNSt12__shared_ptrIKNSt10filesystem7__cxx1116filesystem_error5_ImplELN9__gnu_cxx12_Lock_policyE2EEC2EOS7_
__ZNSt12__shared_ptrIKNSt10filesystem7__cxx1116filesystem_error5_ImplELN9__gnu_cxx12_Lock_policyE2EEC2ERKSt10__weak_ptrIS4_LS6_2EESt9nothrow_t
__ZNSt12__shared_ptrIKNSt10filesystem7__cxx1116filesystem_error5_ImplELN9__gnu_cxx12_Lock_policyE2EEC2Ev
__ZNSt12__shared_ptrIKNSt10filesystem7__cxx1116filesystem_error5_ImplELN9__gnu_cxx12_Lock_policyE2EEaSEOS7_
__ZNSt12system_errorC2ESt10error_codeRKNSt7__cxx1112basic_stringIcSt11char_traitsIcESaIcEEE
__ZNSt15__allocated_ptrISaISt23_Sp_counted_ptr_inplaceINSt10filesystem7__cxx1116filesystem_error5_ImplESaIS4_ELN9__gnu_cxx12_Lock_policyE2EEEED1Ev
__ZNSt18codecvt_utf8_utf16IwLm1114111ELSt12codecvt_mode0EED0Ev
__ZNSt18codecvt_utf8_utf16IwLm1114111ELSt12codecvt_mode0EED1Ev
__ZNSt23_Sp_counted_ptr_inplaceINSt10filesystem7__cxx1116filesystem_error5_ImplESaIS3_ELN9__gnu_cxx12_Lock_policyE2EE10_M_destroyEv
__ZNSt23_Sp_counted_ptr_inplaceINSt10filesystem7__cxx1116filesystem_error5_ImplESaIS3_ELN9__gnu_cxx12_Lock_policyE2EE10_M_disposeEv
__ZNSt23_Sp_counted_ptr_inplaceINSt10filesystem7__cxx1116filesystem_error5_ImplESaIS3_ELN9__gnu_cxx12_Lock_policyE2EE14_M_get_deleterERKSt9type_info
__ZNSt23_Sp_counted_ptr_inplaceINSt10filesystem7__cxx1116filesystem_error5_ImplESaIS3_ELN9__gnu_cxx12_Lock_policyE2EED0Ev
__ZNSt23_Sp_counted_ptr_inplaceINSt10filesystem7__cxx1116filesystem_error5_ImplESaIS3_ELN9__gnu_cxx12_Lock_policyE2EED1Ev
__ZSt16__do_str_codecvtINSt7__cxx1112basic_stringIcSt11char_traitsIcESaIcEEEwSt7codecvtIwciEiMS7_KFNSt12codecvt_base6resultERiPKwSC_RSC_PcSE_RSE_EEbPKT0_SK_RT_RKT1_RT2_RjT3_
__ZSt16__do_str_codecvtINSt7__cxx1112basic_stringIwSt11char_traitsIwESaIwEEEcSt7codecvtIwciEiMS7_KFNSt12codecvt_base6resultERiPKcSC_RSC_PwSE_RSE_EEbPKT0_SK_RT_RKT1_RT2_RjT3_
__ZZNSt10filesystem7__cxx114path4_CvtIcE10_S_convertEPKcS5_EN5_UCvtD0Ev
__ZZNSt10filesystem7__cxx114path4_CvtIcE10_S_convertEPKcS5_EN5_UCvtD1Ev
.weak.__ZNSt6vectorINSt3pmr15__pool_resource9_BigBlockENS0_21polymorphic_allocatorIS2_EEE17_M_realloc_insertIIRjS7_EEEvN9__gnu_cxx17__normal_iteratorIPS2_S5_EEDpOT_.__ZNKSt3pmr26synchronized_pool_resource11do_is_equalERKNS_15memory_resourceE
__ZNKSt3pmr25monotonic_buffer_resource11do_is_equalERKNS_15memory_resourceE
__ZNKSt3pmr26synchronized_pool_resource11do_is_equalERKNS_15memory_resourceE
__ZNKSt3pmr28unsynchronized_pool_resource11do_is_equalERKNS_15memory_resourceE
__ZNSt12_Vector_baseINSt3pmr15__pool_resource9_BigBlockENS0_21polymorphic_allocatorIS2_EEED2Ev
__ZNSt3pmr15__pool_resource10deallocateEPvjj
__ZNSt3pmr15__pool_resource14_M_alloc_poolsEv
__ZNSt3pmr15__pool_resource5_Pool10deallocateEPNS_15memory_resourceEPv
__ZNSt3pmr15__pool_resource5_Pool12try_allocateEv
__ZNSt3pmr15__pool_resource5_Pool9replenishEPNS_15memory_resourceERKNS_12pool_optionsE
__ZNSt3pmr15__pool_resource7releaseEv
__ZNSt3pmr15__pool_resource8allocateEjj
__ZNSt3pmr15__pool_resourceC1ERKNS_12pool_optionsEPNS_15memory_resourceE
__ZNSt3pmr15__pool_resourceC2ERKNS_12pool_optionsEPNS_15memory_resourceE
__ZNSt3pmr15__pool_resourceD1Ev
__ZNSt3pmr15__pool_resourceD2Ev
__ZNSt3pmr15memory_resourceD0Ev
__ZNSt3pmr15memory_resourceD1Ev
__ZNSt3pmr15memory_resourceD2Ev
__ZNSt3pmr19new_delete_resourceEv
__ZNSt3pmr20get_default_resourceEv
__ZNSt3pmr20null_memory_resourceEv
__ZNSt3pmr20set_default_resourceEPNS_15memory_resourceE
__ZNSt3pmr25monotonic_buffer_resource11do_allocateEjj
__ZNSt3pmr25monotonic_buffer_resource13_M_new_bufferEjj
__ZNSt3pmr25monotonic_buffer_resource13do_deallocateEPvjj
__ZNSt3pmr25monotonic_buffer_resource18_M_release_buffersEv
__ZNSt3pmr25monotonic_buffer_resourceD0Ev
__ZNSt3pmr25monotonic_buffer_resourceD1Ev
__ZNSt3pmr25monotonic_buffer_resourceD2Ev
__ZNSt3pmr26synchronized_pool_resource11do_allocateEjj
__ZNSt3pmr26synchronized_pool_resource13do_deallocateEPvjj
__ZNSt3pmr26synchronized_pool_resource15_M_alloc_tpoolsERSt10lock_guardISt12shared_mutexE
__ZNSt3pmr26synchronized_pool_resource22_M_alloc_shared_tpoolsERSt10lock_guardISt12shared_mutexE
__ZNSt3pmr26synchronized_pool_resource24_M_thread_specific_poolsEv
__ZNSt3pmr26synchronized_pool_resource7_TPoolsD1Ev
__ZNSt3pmr26synchronized_pool_resource7releaseEv
__ZNSt3pmr26synchronized_pool_resourceC1ERKNS_12pool_optionsEPNS_15memory_resourceE
__ZNSt3pmr26synchronized_pool_resourceC2ERKNS_12pool_optionsEPNS_15memory_resourceE
__ZNSt3pmr26synchronized_pool_resourceD0Ev
__ZNSt3pmr26synchronized_pool_resourceD1Ev
__ZNSt3pmr26synchronized_pool_resourceD2Ev
__ZNSt3pmr28unsynchronized_pool_resource11do_allocateEjj
__ZNSt3pmr28unsynchronized_pool_resource12_M_find_poolEj
__ZNSt3pmr28unsynchronized_pool_resource13do_deallocateEPvjj
__ZNSt3pmr28unsynchronized_pool_resource7releaseEv
__ZNSt3pmr28unsynchronized_pool_resourceC1ERKNS_12pool_optionsEPNS_15memory_resourceE
__ZNSt3pmr28unsynchronized_pool_resourceC2ERKNS_12pool_optionsEPNS_15memory_resourceE
__ZNSt3pmr28unsynchronized_pool_resourceD0Ev
__ZNSt3pmr28unsynchronized_pool_resourceD1Ev
__ZNSt3pmr28unsynchronized_pool_resourceD2Ev
__ZNSt6vectorINSt3pmr15__pool_resource9_BigBlockENS0_21polymorphic_allocatorIS2_EEE17_M_realloc_insertIJRjS7_EEEvN9__gnu_cxx17__normal_iteratorIPS2_S5_EEDpOT_
__ZNSolsEDn
__ZNSt13basic_ostreamIwSt11char_traitsIwEElsEDn
__ZNKSt7__cxx1112basic_stringIcSt11char_traitsIcESaIcEEcvSt17basic_string_viewIcS2_EEv
__ZNKSt7__cxx1112basic_stringIwSt11char_traitsIwESaIwEEcvSt17basic_string_viewIwS2_EEv
__ZNSt7__cxx1112basic_stringIcSt11char_traitsIcESaIcEE12__sv_wrapperC1ESt17basic_string_viewIcS2_E
__ZNSt7__cxx1112basic_stringIcSt11char_traitsIcESaIcEE12__sv_wrapperC2ESt17basic_string_viewIcS2_E
__ZNSt7__cxx1112basic_stringIcSt11char_traitsIcESaIcEE17_S_to_string_viewESt17basic_string_viewIcS2_E
__ZNSt7__cxx1112basic_stringIcSt11char_traitsIcESaIcEE4dataEv
__ZNSt7__cxx1112basic_stringIcSt11char_traitsIcESaIcEEC1ENS4_12__sv_wrapperERKS3_
__ZNSt7__cxx1112basic_stringIcSt11char_traitsIcESaIcEEC2ENS4_12__sv_wrapperERKS3_
__ZNSt7__cxx1112basic_stringIwSt11char_traitsIwESaIwEE12__sv_wrapperC1ESt17basic_string_viewIwS2_E
__ZNSt7__cxx1112basic_stringIwSt11char_traitsIwESaIwEE12__sv_wrapperC2ESt17basic_string_viewIwS2_E
__ZNSt7__cxx1112basic_stringIwSt11char_traitsIwESaIwEE17_S_to_string_viewESt17basic_string_viewIwS2_E
__ZNSt7__cxx1112basic_stringIwSt11char_traitsIwESaIwEE4dataEv
__ZNSt7__cxx1112basic_stringIwSt11char_traitsIwESaIwEEC1ENS4_12__sv_wrapperERKS3_
__ZNSt7__cxx1112basic_stringIwSt11char_traitsIwESaIwEEC2ENS4_12__sv_wrapperERKS3_
