LIBRARY STDC++FS.DLL
EXPORTS
.weak.__ZNSt5dequeINSt12experimental10filesystem2v17__cxx114_DirESaIS4_EE12emplace_backIIS4_EEERS4_DpOT_.__ZNSt23_Sp_counted_ptr_inplaceINSt12experimental10filesystem2v17__cxx1128recursive_directory_iterator10_Dir_stackESaIS5_ELN9__gnu_cxx12_Lock_policyE2EED1Ev
__ZNKSt12experimental10filesystem2v17__cxx1118directory_iteratordeEv
__ZNKSt12experimental10filesystem2v17__cxx1128recursive_directory_iterator5depthEv
__ZNKSt12experimental10filesystem2v17__cxx1128recursive_directory_iteratordeEv
__ZNSt10filesystem9_Dir_base7advanceEbRSt10error_code
__ZNSt12experimental10filesystem2v17__cxx1116filesystem_errorC1ERKNSt7__cxx1112basic_stringIcSt11char_traitsIcESaIcEEERKNS2_4pathESt10error_code
__ZNSt12experimental10filesystem2v17__cxx1116filesystem_errorC1ERKNSt7__cxx1112basic_stringIcSt11char_traitsIcESaIcEEESt10error_code
__ZNSt12experimental10filesystem2v17__cxx1118directory_iterator9incrementERSt10error_code
__ZNSt12experimental10filesystem2v17__cxx1118directory_iteratorC1ERKNS2_4pathENS1_17directory_optionsEPSt10error_code
__ZNSt12experimental10filesystem2v17__cxx1118directory_iteratorC2ERKNS2_4pathENS1_17directory_optionsEPSt10error_code
__ZNSt12experimental10filesystem2v17__cxx1118directory_iteratorppEv
__ZNSt12experimental10filesystem2v17__cxx1128recursive_directory_iterator3popERSt10error_code
__ZNSt12experimental10filesystem2v17__cxx1128recursive_directory_iterator3popEv
__ZNSt12experimental10filesystem2v17__cxx1128recursive_directory_iterator9incrementERSt10error_code
__ZNSt12experimental10filesystem2v17__cxx1128recursive_directory_iteratorC1ERKNS2_4pathENS1_17directory_optionsEPSt10error_code
__ZNSt12experimental10filesystem2v17__cxx1128recursive_directory_iteratorC2ERKNS2_4pathENS1_17directory_optionsEPSt10error_code
__ZNSt12experimental10filesystem2v17__cxx1128recursive_directory_iteratorD1Ev
__ZNSt12experimental10filesystem2v17__cxx1128recursive_directory_iteratorD2Ev
__ZNSt12experimental10filesystem2v17__cxx1128recursive_directory_iteratoraSEOS3_
__ZNSt12experimental10filesystem2v17__cxx1128recursive_directory_iteratoraSERKS3_
__ZNSt12experimental10filesystem2v17__cxx1128recursive_directory_iteratorppEv
__ZNSt12experimental10filesystem2v17__cxx114_Dir7advanceEbRSt10error_code
__ZNSt12experimental10filesystem2v17__cxx114_DirD1Ev
__ZNSt12experimental10filesystem2v17__cxx114path5_CmptD1Ev
__ZNSt12system_errorC2ESt10error_codeRKNSt7__cxx1112basic_stringIcSt11char_traitsIcESaIcEEE
__ZNSt16_Sp_counted_baseILN9__gnu_cxx12_Lock_policyE2EE10_M_releaseEv
__ZNSt23_Sp_counted_ptr_inplaceINSt12experimental10filesystem2v17__cxx1128recursive_directory_iterator10_Dir_stackESaIS5_ELN9__gnu_cxx12_Lock_policyE2EE10_M_destroyEv
__ZNSt23_Sp_counted_ptr_inplaceINSt12experimental10filesystem2v17__cxx1128recursive_directory_iterator10_Dir_stackESaIS5_ELN9__gnu_cxx12_Lock_policyE2EE10_M_disposeEv
__ZNSt23_Sp_counted_ptr_inplaceINSt12experimental10filesystem2v17__cxx1128recursive_directory_iterator10_Dir_stackESaIS5_ELN9__gnu_cxx12_Lock_policyE2EE14_M_get_deleterERKSt9type_info
__ZNSt23_Sp_counted_ptr_inplaceINSt12experimental10filesystem2v17__cxx1128recursive_directory_iterator10_Dir_stackESaIS5_ELN9__gnu_cxx12_Lock_policyE2EED0Ev
__ZNSt23_Sp_counted_ptr_inplaceINSt12experimental10filesystem2v17__cxx1128recursive_directory_iterator10_Dir_stackESaIS5_ELN9__gnu_cxx12_Lock_policyE2EED1Ev
__ZNSt23_Sp_counted_ptr_inplaceINSt12experimental10filesystem2v17__cxx114_DirESaIS4_ELN9__gnu_cxx12_Lock_policyE2EE10_M_destroyEv
__ZNSt23_Sp_counted_ptr_inplaceINSt12experimental10filesystem2v17__cxx114_DirESaIS4_ELN9__gnu_cxx12_Lock_policyE2EE10_M_disposeEv
__ZNSt23_Sp_counted_ptr_inplaceINSt12experimental10filesystem2v17__cxx114_DirESaIS4_ELN9__gnu_cxx12_Lock_policyE2EE14_M_get_deleterERKSt9type_info
__ZNSt23_Sp_counted_ptr_inplaceINSt12experimental10filesystem2v17__cxx114_DirESaIS4_ELN9__gnu_cxx12_Lock_policyE2EED0Ev
__ZNSt23_Sp_counted_ptr_inplaceINSt12experimental10filesystem2v17__cxx114_DirESaIS4_ELN9__gnu_cxx12_Lock_policyE2EED1Ev
__ZNSt5dequeINSt12experimental10filesystem2v17__cxx114_DirESaIS4_EE12emplace_backIJS4_EEERS4_DpOT_
__ZNSt6vectorINSt12experimental10filesystem2v17__cxx114path5_CmptESaIS5_EEC1ERKS7_
__ZNSt6vectorINSt12experimental10filesystem2v17__cxx114path5_CmptESaIS5_EED1Ev
.weak.__ZNSt5dequeINSt12experimental10filesystem2v17__cxx114pathESaIS4_EE16_M_push_back_auxIIRKS4_EEEvDpOT_.__ZNSt15_Sp_counted_ptrIDnLN9__gnu_cxx12_Lock_policyE2EE10_M_disposeEv
__ZN9__gnu_cxx13stdio_filebufIcSt11char_traitsIcEEC1EiSt13_Ios_Openmodej
__ZN9__gnu_cxx13stdio_filebufIcSt11char_traitsIcEED0Ev
__ZN9__gnu_cxx13stdio_filebufIcSt11char_traitsIcEED1Ev
__ZNSt11_Deque_baseINSt12experimental10filesystem2v17__cxx114pathESaIS4_EE17_M_initialize_mapEj
__ZNSt12experimental10filesystem12do_copy_fileEPKwS2_NSt10filesystem26copy_options_existing_fileEP7_stat32S6_RSt10error_code
__ZNSt12experimental10filesystem2v110equivalentERKNS1_7__cxx114pathES5_
__ZNSt12experimental10filesystem2v110equivalentERKNS1_7__cxx114pathES5_RSt10error_code
__ZNSt12experimental10filesystem2v110remove_allERKNS1_7__cxx114pathE
__ZNSt12experimental10filesystem2v110remove_allERKNS1_7__cxx114pathERSt10error_code
__ZNSt12experimental10filesystem2v111permissionsERKNS1_7__cxx114pathENS1_5permsE
__ZNSt12experimental10filesystem2v111permissionsERKNS1_7__cxx114pathENS1_5permsERSt10error_code
__ZNSt12experimental10filesystem2v111resize_fileERKNS1_7__cxx114pathEy
__ZNSt12experimental10filesystem2v111resize_fileERKNS1_7__cxx114pathEyRSt10error_code
__ZNSt12experimental10filesystem2v112copy_symlinkERKNS1_7__cxx114pathES5_
__ZNSt12experimental10filesystem2v112copy_symlinkERKNS1_7__cxx114pathES5_RSt10error_code
__ZNSt12experimental10filesystem2v112current_pathB5cxx11ERSt10error_code
__ZNSt12experimental10filesystem2v112current_pathB5cxx11Ev
__ZNSt12experimental10filesystem2v112current_pathERKNS1_7__cxx114pathE
__ZNSt12experimental10filesystem2v112current_pathERKNS1_7__cxx114pathERSt10error_code
__ZNSt12experimental10filesystem2v112read_symlinkERKNS1_7__cxx114pathE
__ZNSt12experimental10filesystem2v112read_symlinkERKNS1_7__cxx114pathERSt10error_code
__ZNSt12experimental10filesystem2v114create_symlinkERKNS1_7__cxx114pathES5_
__ZNSt12experimental10filesystem2v114create_symlinkERKNS1_7__cxx114pathES5_RSt10error_code
__ZNSt12experimental10filesystem2v114symlink_statusERKNS1_7__cxx114pathE
__ZNSt12experimental10filesystem2v114symlink_statusERKNS1_7__cxx114pathERSt10error_code
__ZNSt12experimental10filesystem2v115hard_link_countERKNS1_7__cxx114pathE
__ZNSt12experimental10filesystem2v115hard_link_countERKNS1_7__cxx114pathERSt10error_code
__ZNSt12experimental10filesystem2v115last_write_timeERKNS1_7__cxx114pathE
__ZNSt12experimental10filesystem2v115last_write_timeERKNS1_7__cxx114pathENSt6chrono10time_pointINS6_3_V212system_clockENS6_8durationIxSt5ratioILx1ELx1000000000EEEEEE
__ZNSt12experimental10filesystem2v115last_write_timeERKNS1_7__cxx114pathENSt6chrono10time_pointINS6_3_V212system_clockENS6_8durationIxSt5ratioILx1ELx1000000000EEEEEERSt10error_code
__ZNSt12experimental10filesystem2v115last_write_timeERKNS1_7__cxx114pathERSt10error_code
__ZNSt12experimental10filesystem2v115system_completeERKNS1_7__cxx114pathE
__ZNSt12experimental10filesystem2v115system_completeERKNS1_7__cxx114pathERSt10error_code
__ZNSt12experimental10filesystem2v116create_directoryERKNS1_7__cxx114pathE
__ZNSt12experimental10filesystem2v116create_directoryERKNS1_7__cxx114pathERSt10error_code
__ZNSt12experimental10filesystem2v116create_directoryERKNS1_7__cxx114pathES5_
__ZNSt12experimental10filesystem2v116create_directoryERKNS1_7__cxx114pathES5_RSt10error_code
__ZNSt12experimental10filesystem2v116create_hard_linkERKNS1_7__cxx114pathES5_
__ZNSt12experimental10filesystem2v116create_hard_linkERKNS1_7__cxx114pathES5_RSt10error_code
__ZNSt12experimental10filesystem2v118create_directoriesERKNS1_7__cxx114pathE
__ZNSt12experimental10filesystem2v118create_directoriesERKNS1_7__cxx114pathERSt10error_code
__ZNSt12experimental10filesystem2v119temp_directory_pathB5cxx11ERSt10error_code
__ZNSt12experimental10filesystem2v119temp_directory_pathB5cxx11Ev
__ZNSt12experimental10filesystem2v124create_directory_symlinkERKNS1_7__cxx114pathES5_
__ZNSt12experimental10filesystem2v124create_directory_symlinkERKNS1_7__cxx114pathES5_RSt10error_code
__ZNSt12experimental10filesystem2v14copyERKNS1_7__cxx114pathES5_NS1_12copy_optionsE
__ZNSt12experimental10filesystem2v14copyERKNS1_7__cxx114pathES5_NS1_12copy_optionsERSt10error_code
__ZNSt12experimental10filesystem2v15spaceERKNS1_7__cxx114pathE
__ZNSt12experimental10filesystem2v15spaceERKNS1_7__cxx114pathERSt10error_code
__ZNSt12experimental10filesystem2v16removeERKNS1_7__cxx114pathE
__ZNSt12experimental10filesystem2v16removeERKNS1_7__cxx114pathERSt10error_code
__ZNSt12experimental10filesystem2v16renameERKNS1_7__cxx114pathES5_
__ZNSt12experimental10filesystem2v16renameERKNS1_7__cxx114pathES5_RSt10error_code
__ZNSt12experimental10filesystem2v16statusERKNS1_7__cxx114pathE
__ZNSt12experimental10filesystem2v16statusERKNS1_7__cxx114pathERSt10error_code
__ZNSt12experimental10filesystem2v17__cxx1116filesystem_errorC1ERKNSt7__cxx1112basic_stringIcSt11char_traitsIcESaIcEEERKNS2_4pathESE_St10error_code
__ZNSt12experimental10filesystem2v17__cxx1116filesystem_errorC1ERKNSt7__cxx1112basic_stringIcSt11char_traitsIcESaIcEEERKNS2_4pathESt10error_code
__ZNSt12experimental10filesystem2v17__cxx1116filesystem_errorC1ERKNSt7__cxx1112basic_stringIcSt11char_traitsIcESaIcEEESt10error_code
__ZNSt12experimental10filesystem2v17__cxx114path5_CmptD1Ev
__ZNSt12experimental10filesystem2v18absoluteERKNS1_7__cxx114pathES5_
__ZNSt12experimental10filesystem2v18is_emptyERKNS1_7__cxx114pathE
__ZNSt12experimental10filesystem2v18is_emptyERKNS1_7__cxx114pathERSt10error_code
__ZNSt12experimental10filesystem2v19canonicalERKNS1_7__cxx114pathERSt10error_code
__ZNSt12experimental10filesystem2v19canonicalERKNS1_7__cxx114pathES5_
__ZNSt12experimental10filesystem2v19canonicalERKNS1_7__cxx114pathES5_RSt10error_code
__ZNSt12experimental10filesystem2v19copy_fileERKNS1_7__cxx114pathES5_NS1_12copy_optionsE
__ZNSt12experimental10filesystem2v19copy_fileERKNS1_7__cxx114pathES5_NS1_12copy_optionsERSt10error_code
__ZNSt12experimental10filesystem2v19file_sizeERKNS1_7__cxx114pathE
__ZNSt12experimental10filesystem2v19file_sizeERKNS1_7__cxx114pathERSt10error_code
__ZNSt12experimental10filesystem8do_spaceEPKwRyS3_S3_RSt10error_code
__ZNSt12system_errorC2ESt10error_codeRKNSt7__cxx1112basic_stringIcSt11char_traitsIcESaIcEEE
__ZNSt15_Sp_counted_ptrIDnLN9__gnu_cxx12_Lock_policyE2EE10_M_disposeEv
__ZNSt16_Sp_counted_baseILN9__gnu_cxx12_Lock_policyE2EE10_M_destroyEv
__ZNSt5dequeINSt12experimental10filesystem2v17__cxx114pathESaIS4_EE16_M_push_back_auxIJRKS4_EEEvDpOT_
__ZNSt5dequeINSt12experimental10filesystem2v17__cxx114pathESaIS4_EE17_M_reallocate_mapEjb
__ZNSt5dequeINSt12experimental10filesystem2v17__cxx114pathESaIS4_EED1Ev
__ZNSt6vectorINSt12experimental10filesystem2v17__cxx114path5_CmptESaIS5_EEC1ERKS7_
__ZNSt6vectorINSt12experimental10filesystem2v17__cxx114path5_CmptESaIS5_EED1Ev
.weak.__ZNSt6vectorINSt12experimental10filesystem2v17__cxx114path5_CmptESaIS5_EE12emplace_backIINSt7__cxx1112basic_stringIwSt11char_traitsIwESaIwEEENS4_5_TypeERjEEERS5_DpOT_.__ZNKSt12experimental10filesystem2v17__cxx1116filesystem_error4whatEv
.weak.__ZNSt6vectorINSt12experimental10filesystem2v17__cxx114path5_CmptESaIS5_EE17_M_realloc_insertIINSt7__cxx1112basic_stringIwSt11char_traitsIwESaIwEEENS4_5_TypeERjEEEvN9__gnu_cxx17__normal_iteratorIPS5_S7_EEDpOT_.__ZNKSt12experimental10filesystem2v17__cxx1116filesystem_error4whatEv
.weak.__ZNSt6vectorINSt12experimental10filesystem2v17__cxx114path5_CmptESaIS5_EE17_M_realloc_insertIINSt7__cxx1112basic_stringIwSt11char_traitsIwESaIwEEENS4_5_TypeEiEEEvN9__gnu_cxx17__normal_iteratorIPS5_S7_EEDpOT_.__ZNKSt12experimental10filesystem2v17__cxx1116filesystem_error4whatEv
__ZNKSt12experimental10filesystem2v17__cxx1116filesystem_error4whatEv
__ZNKSt12experimental10filesystem2v17__cxx114path11parent_pathEv
__ZNKSt12experimental10filesystem2v17__cxx114path12has_filenameEv
__ZNKSt12experimental10filesystem2v17__cxx114path13has_root_nameEv
__ZNKSt12experimental10filesystem2v17__cxx114path13has_root_pathEv
__ZNKSt12experimental10filesystem2v17__cxx114path13relative_pathEv
__ZNKSt12experimental10filesystem2v17__cxx114path14root_directoryEv
__ZNKSt12experimental10filesystem2v17__cxx114path15has_parent_pathEv
__ZNKSt12experimental10filesystem2v17__cxx114path17_M_find_extensionEv
__ZNKSt12experimental10filesystem2v17__cxx114path17has_relative_pathEv
__ZNKSt12experimental10filesystem2v17__cxx114path18has_root_directoryEv
__ZNKSt12experimental10filesystem2v17__cxx114path7compareERKS3_
__ZNKSt12experimental10filesystem2v17__cxx114path9root_nameEv
__ZNKSt12experimental10filesystem2v17__cxx114path9root_pathEv
__ZNKSt23__codecvt_abstract_baseIwciE2inERiPKcS3_RS3_PwS5_RS5_
__ZNKSt23__codecvt_abstract_baseIwciE3outERiPKwS3_RS3_PcS5_RS5_
__ZNSt12_Vector_baseINSt12experimental10filesystem2v17__cxx114path5_CmptESaIS5_EED2Ev
__ZNSt12experimental10filesystem2v17__cxx1110hash_valueERKNS2_4pathE
__ZNSt12experimental10filesystem2v17__cxx1116filesystem_error11_M_gen_whatEv
__ZNSt12experimental10filesystem2v17__cxx1116filesystem_errorC1ERKNSt7__cxx1112basic_stringIcSt11char_traitsIcESaIcEEESt10error_code
__ZNSt12experimental10filesystem2v17__cxx1116filesystem_errorD0Ev
__ZNSt12experimental10filesystem2v17__cxx1116filesystem_errorD1Ev
__ZNSt12experimental10filesystem2v17__cxx1116filesystem_errorD2Ev
__ZNSt12experimental10filesystem2v17__cxx114path14_M_split_cmptsEv
__ZNSt12experimental10filesystem2v17__cxx114path14_S_convert_locEPKcS5_RKSt6locale
__ZNSt12experimental10filesystem2v17__cxx114path15_M_add_filenameEjj
__ZNSt12experimental10filesystem2v17__cxx114path15_M_add_root_dirEj
__ZNSt12experimental10filesystem2v17__cxx114path15remove_filenameEv
__ZNSt12experimental10filesystem2v17__cxx114path16_M_add_root_nameEj
__ZNSt12experimental10filesystem2v17__cxx114path16replace_filenameERKS3_
__ZNSt12experimental10filesystem2v17__cxx114path17replace_extensionERKS3_
__ZNSt12experimental10filesystem2v17__cxx114path5_CmptD1Ev
__ZNSt12experimental10filesystem2v17__cxx114path7_M_trimEv
__ZNSt12system_errorC2ESt10error_codeRKNSt7__cxx1112basic_stringIcSt11char_traitsIcESaIcEEE
__ZNSt18codecvt_utf8_utf16IwLm1114111ELSt12codecvt_mode0EED0Ev
__ZNSt18codecvt_utf8_utf16IwLm1114111ELSt12codecvt_mode0EED1Ev
__ZNSt20__uninitialized_copyILb0EE13__uninit_copyIN9__gnu_cxx17__normal_iteratorIPKNSt12experimental10filesystem2v17__cxx114path5_CmptESt6vectorIS9_SaIS9_EEEEPS9_EET0_T_SI_SH_
__ZNSt6vectorINSt12experimental10filesystem2v17__cxx114path5_CmptESaIS5_EE12emplace_backIJNSt7__cxx1112basic_stringIwSt11char_traitsIwESaIwEEENS4_5_TypeERjEEERS5_DpOT_
__ZNSt6vectorINSt12experimental10filesystem2v17__cxx114path5_CmptESaIS5_EE17_M_realloc_insertIJNSt7__cxx1112basic_stringIwSt11char_traitsIwESaIwEEENS4_5_TypeERjEEEvN9__gnu_cxx17__normal_iteratorIPS5_S7_EEDpOT_
__ZNSt6vectorINSt12experimental10filesystem2v17__cxx114path5_CmptESaIS5_EE17_M_realloc_insertIJNSt7__cxx1112basic_stringIwSt11char_traitsIwESaIwEEENS4_5_TypeEiEEEvN9__gnu_cxx17__normal_iteratorIPS5_S7_EEDpOT_
__ZNSt6vectorINSt12experimental10filesystem2v17__cxx114path5_CmptESaIS5_EE7reserveEj
__ZNSt6vectorINSt12experimental10filesystem2v17__cxx114path5_CmptESaIS5_EED1Ev
__ZSt16__do_str_codecvtINSt7__cxx1112basic_stringIcSt11char_traitsIcESaIcEEEwSt7codecvtIwciEiMS7_KFNSt12codecvt_base6resultERiPKwSC_RSC_PcSE_RSE_EEbPKT0_SK_RT_RKT1_RT2_RjT3_
.weak.__ZNSt5dequeINSt12experimental10filesystem2v14_DirESaIS3_EE12emplace_backIIS3_EEERS3_DpOT_.__ZNSt23_Sp_counted_ptr_inplaceINSt12experimental10filesystem2v128recursive_directory_iterator10_Dir_stackESaIS4_ELN9__gnu_cxx12_Lock_policyE2EED1Ev
__ZNKSt12experimental10filesystem2v118directory_iteratordeEv
__ZNKSt12experimental10filesystem2v128recursive_directory_iterator5depthEv
__ZNKSt12experimental10filesystem2v128recursive_directory_iteratordeEv
__ZNSt10filesystem9_Dir_base7advanceEbRSt10error_code
__ZNSt12_Vector_baseINSt12experimental10filesystem2v14path5_CmptESaIS4_EED2Ev
__ZNSt12experimental10filesystem2v116filesystem_errorC1ERKSsRKNS1_4pathESt10error_code
__ZNSt12experimental10filesystem2v116filesystem_errorC1ERKSsSt10error_code
__ZNSt12experimental10filesystem2v118directory_iterator9incrementERSt10error_code
__ZNSt12experimental10filesystem2v118directory_iteratorC1ERKNS1_4pathENS1_17directory_optionsEPSt10error_code
__ZNSt12experimental10filesystem2v118directory_iteratorC2ERKNS1_4pathENS1_17directory_optionsEPSt10error_code
__ZNSt12experimental10filesystem2v118directory_iteratorppEv
__ZNSt12experimental10filesystem2v128recursive_directory_iterator3popERSt10error_code
__ZNSt12experimental10filesystem2v128recursive_directory_iterator3popEv
__ZNSt12experimental10filesystem2v128recursive_directory_iterator9incrementERSt10error_code
__ZNSt12experimental10filesystem2v128recursive_directory_iteratorC1ERKNS1_4pathENS1_17directory_optionsEPSt10error_code
__ZNSt12experimental10filesystem2v128recursive_directory_iteratorC2ERKNS1_4pathENS1_17directory_optionsEPSt10error_code
__ZNSt12experimental10filesystem2v128recursive_directory_iteratorD1Ev
__ZNSt12experimental10filesystem2v128recursive_directory_iteratorD2Ev
__ZNSt12experimental10filesystem2v128recursive_directory_iteratoraSEOS2_
__ZNSt12experimental10filesystem2v128recursive_directory_iteratoraSERKS2_
__ZNSt12experimental10filesystem2v128recursive_directory_iteratorppEv
__ZNSt12experimental10filesystem2v14_Dir7advanceEbRSt10error_code
__ZNSt12experimental10filesystem2v14_DirD1Ev
__ZNSt12experimental10filesystem2v14path5_CmptD1Ev
__ZNSt12system_errorC2ESt10error_codeRKSs
__ZNSt16_Sp_counted_baseILN9__gnu_cxx12_Lock_policyE2EE10_M_releaseEv
__ZNSt23_Sp_counted_ptr_inplaceINSt12experimental10filesystem2v128recursive_directory_iterator10_Dir_stackESaIS4_ELN9__gnu_cxx12_Lock_policyE2EE10_M_destroyEv
__ZNSt23_Sp_counted_ptr_inplaceINSt12experimental10filesystem2v128recursive_directory_iterator10_Dir_stackESaIS4_ELN9__gnu_cxx12_Lock_policyE2EE10_M_disposeEv
__ZNSt23_Sp_counted_ptr_inplaceINSt12experimental10filesystem2v128recursive_directory_iterator10_Dir_stackESaIS4_ELN9__gnu_cxx12_Lock_policyE2EE14_M_get_deleterERKSt9type_info
__ZNSt23_Sp_counted_ptr_inplaceINSt12experimental10filesystem2v128recursive_directory_iterator10_Dir_stackESaIS4_ELN9__gnu_cxx12_Lock_policyE2EED0Ev
__ZNSt23_Sp_counted_ptr_inplaceINSt12experimental10filesystem2v128recursive_directory_iterator10_Dir_stackESaIS4_ELN9__gnu_cxx12_Lock_policyE2EED1Ev
__ZNSt23_Sp_counted_ptr_inplaceINSt12experimental10filesystem2v14_DirESaIS3_ELN9__gnu_cxx12_Lock_policyE2EE10_M_destroyEv
__ZNSt23_Sp_counted_ptr_inplaceINSt12experimental10filesystem2v14_DirESaIS3_ELN9__gnu_cxx12_Lock_policyE2EE10_M_disposeEv
__ZNSt23_Sp_counted_ptr_inplaceINSt12experimental10filesystem2v14_DirESaIS3_ELN9__gnu_cxx12_Lock_policyE2EE14_M_get_deleterERKSt9type_info
__ZNSt23_Sp_counted_ptr_inplaceINSt12experimental10filesystem2v14_DirESaIS3_ELN9__gnu_cxx12_Lock_policyE2EED0Ev
__ZNSt23_Sp_counted_ptr_inplaceINSt12experimental10filesystem2v14_DirESaIS3_ELN9__gnu_cxx12_Lock_policyE2EED1Ev
__ZNSt5dequeINSt12experimental10filesystem2v14_DirESaIS3_EE12emplace_backIJS3_EEERS3_DpOT_
__ZNSt6vectorINSt12experimental10filesystem2v14path5_CmptESaIS4_EEC1ERKS6_
__ZNSt6vectorINSt12experimental10filesystem2v14path5_CmptESaIS4_EED1Ev
.weak.__ZNSt5dequeINSt12experimental10filesystem2v14pathESaIS3_EE16_M_push_back_auxIIRKS3_EEEvDpOT_.__ZNSt15_Sp_counted_ptrIDnLN9__gnu_cxx12_Lock_policyE2EE10_M_disposeEv
__ZNSt11_Deque_baseINSt12experimental10filesystem2v14pathESaIS3_EE17_M_initialize_mapEj
__ZNSt12_Vector_baseINSt12experimental10filesystem2v14path5_CmptESaIS4_EED2Ev
__ZNSt12experimental10filesystem2v110equivalentERKNS1_4pathES4_
__ZNSt12experimental10filesystem2v110equivalentERKNS1_4pathES4_RSt10error_code
__ZNSt12experimental10filesystem2v110remove_allERKNS1_4pathE
__ZNSt12experimental10filesystem2v110remove_allERKNS1_4pathERSt10error_code
__ZNSt12experimental10filesystem2v111permissionsERKNS1_4pathENS1_5permsE
__ZNSt12experimental10filesystem2v111permissionsERKNS1_4pathENS1_5permsERSt10error_code
__ZNSt12experimental10filesystem2v111resize_fileERKNS1_4pathEy
__ZNSt12experimental10filesystem2v111resize_fileERKNS1_4pathEyRSt10error_code
__ZNSt12experimental10filesystem2v112copy_symlinkERKNS1_4pathES4_
__ZNSt12experimental10filesystem2v112copy_symlinkERKNS1_4pathES4_RSt10error_code
__ZNSt12experimental10filesystem2v112current_pathERKNS1_4pathE
__ZNSt12experimental10filesystem2v112current_pathERKNS1_4pathERSt10error_code
__ZNSt12experimental10filesystem2v112current_pathERSt10error_code
__ZNSt12experimental10filesystem2v112current_pathEv
__ZNSt12experimental10filesystem2v112read_symlinkERKNS1_4pathE
__ZNSt12experimental10filesystem2v112read_symlinkERKNS1_4pathERSt10error_code
__ZNSt12experimental10filesystem2v114create_symlinkERKNS1_4pathES4_
__ZNSt12experimental10filesystem2v114create_symlinkERKNS1_4pathES4_RSt10error_code
__ZNSt12experimental10filesystem2v114symlink_statusERKNS1_4pathE
__ZNSt12experimental10filesystem2v114symlink_statusERKNS1_4pathERSt10error_code
__ZNSt12experimental10filesystem2v115hard_link_countERKNS1_4pathE
__ZNSt12experimental10filesystem2v115hard_link_countERKNS1_4pathERSt10error_code
__ZNSt12experimental10filesystem2v115last_write_timeERKNS1_4pathE
__ZNSt12experimental10filesystem2v115last_write_timeERKNS1_4pathENSt6chrono10time_pointINS5_3_V212system_clockENS5_8durationIxSt5ratioILx1ELx1000000000EEEEEE
__ZNSt12experimental10filesystem2v115last_write_timeERKNS1_4pathENSt6chrono10time_pointINS5_3_V212system_clockENS5_8durationIxSt5ratioILx1ELx1000000000EEEEEERSt10error_code
__ZNSt12experimental10filesystem2v115last_write_timeERKNS1_4pathERSt10error_code
__ZNSt12experimental10filesystem2v115system_completeERKNS1_4pathE
__ZNSt12experimental10filesystem2v115system_completeERKNS1_4pathERSt10error_code
__ZNSt12experimental10filesystem2v116create_directoryERKNS1_4pathE
__ZNSt12experimental10filesystem2v116create_directoryERKNS1_4pathERSt10error_code
__ZNSt12experimental10filesystem2v116create_directoryERKNS1_4pathES4_
__ZNSt12experimental10filesystem2v116create_directoryERKNS1_4pathES4_RSt10error_code
__ZNSt12experimental10filesystem2v116create_hard_linkERKNS1_4pathES4_
__ZNSt12experimental10filesystem2v116create_hard_linkERKNS1_4pathES4_RSt10error_code
__ZNSt12experimental10filesystem2v116filesystem_errorC1ERKSsRKNS1_4pathES7_St10error_code
__ZNSt12experimental10filesystem2v116filesystem_errorC1ERKSsRKNS1_4pathESt10error_code
__ZNSt12experimental10filesystem2v116filesystem_errorC1ERKSsSt10error_code
__ZNSt12experimental10filesystem2v118create_directoriesERKNS1_4pathE
__ZNSt12experimental10filesystem2v118create_directoriesERKNS1_4pathERSt10error_code
__ZNSt12experimental10filesystem2v119temp_directory_pathERSt10error_code
__ZNSt12experimental10filesystem2v119temp_directory_pathEv
__ZNSt12experimental10filesystem2v124create_directory_symlinkERKNS1_4pathES4_
__ZNSt12experimental10filesystem2v124create_directory_symlinkERKNS1_4pathES4_RSt10error_code
__ZNSt12experimental10filesystem2v14copyERKNS1_4pathES4_NS1_12copy_optionsE
__ZNSt12experimental10filesystem2v14copyERKNS1_4pathES4_NS1_12copy_optionsERSt10error_code
__ZNSt12experimental10filesystem2v14path5_CmptD1Ev
__ZNSt12experimental10filesystem2v14pathC1ERKS2_
__ZNSt12experimental10filesystem2v15spaceERKNS1_4pathE
__ZNSt12experimental10filesystem2v15spaceERKNS1_4pathERSt10error_code
__ZNSt12experimental10filesystem2v16removeERKNS1_4pathE
__ZNSt12experimental10filesystem2v16removeERKNS1_4pathERSt10error_code
__ZNSt12experimental10filesystem2v16renameERKNS1_4pathES4_
__ZNSt12experimental10filesystem2v16renameERKNS1_4pathES4_RSt10error_code
__ZNSt12experimental10filesystem2v16statusERKNS1_4pathE
__ZNSt12experimental10filesystem2v16statusERKNS1_4pathERSt10error_code
__ZNSt12experimental10filesystem2v18absoluteERKNS1_4pathES4_
__ZNSt12experimental10filesystem2v18is_emptyERKNS1_4pathE
__ZNSt12experimental10filesystem2v18is_emptyERKNS1_4pathERSt10error_code
__ZNSt12experimental10filesystem2v19canonicalERKNS1_4pathERSt10error_code
__ZNSt12experimental10filesystem2v19canonicalERKNS1_4pathES4_
__ZNSt12experimental10filesystem2v19canonicalERKNS1_4pathES4_RSt10error_code
__ZNSt12experimental10filesystem2v19copy_fileERKNS1_4pathES4_NS1_12copy_optionsE
__ZNSt12experimental10filesystem2v19copy_fileERKNS1_4pathES4_NS1_12copy_optionsERSt10error_code
__ZNSt12experimental10filesystem2v19file_sizeERKNS1_4pathE
__ZNSt12experimental10filesystem2v19file_sizeERKNS1_4pathERSt10error_code
__ZNSt12experimental10filesystem2v1dvERKNS1_4pathES4_
__ZNSt12system_errorC2ESt10error_codeRKSs
__ZNSt15_Sp_counted_ptrIDnLN9__gnu_cxx12_Lock_policyE2EE10_M_disposeEv
__ZNSt16_Sp_counted_baseILN9__gnu_cxx12_Lock_policyE2EE10_M_destroyEv
__ZNSt5dequeINSt12experimental10filesystem2v14pathESaIS3_EE16_M_push_back_auxIJRKS3_EEEvDpOT_
__ZNSt5dequeINSt12experimental10filesystem2v14pathESaIS3_EE17_M_reallocate_mapEjb
__ZNSt5dequeINSt12experimental10filesystem2v14pathESaIS3_EED1Ev
__ZNSt6vectorINSt12experimental10filesystem2v14path5_CmptESaIS4_EEC1ERKS6_
__ZNSt6vectorINSt12experimental10filesystem2v14path5_CmptESaIS4_EED1Ev
.weak.__ZNSt6vectorINSt12experimental10filesystem2v14path5_CmptESaIS4_EE12emplace_backIISbIwSt11char_traitsIwESaIwEENS3_5_TypeERjEEERS4_DpOT_.__ZNKSt12experimental10filesystem2v116filesystem_error4whatEv
.weak.__ZNSt6vectorINSt12experimental10filesystem2v14path5_CmptESaIS4_EE17_M_realloc_insertIISbIwSt11char_traitsIwESaIwEENS3_5_TypeERjEEEvN9__gnu_cxx17__normal_iteratorIPS4_S6_EEDpOT_.__ZNKSt12experimental10filesystem2v116filesystem_error4whatEv
.weak.__ZNSt6vectorINSt12experimental10filesystem2v14path5_CmptESaIS4_EE17_M_realloc_insertIISbIwSt11char_traitsIwESaIwEENS3_5_TypeEiEEEvN9__gnu_cxx17__normal_iteratorIPS4_S6_EEDpOT_.__ZNKSt12experimental10filesystem2v116filesystem_error4whatEv
__ZNKSt12experimental10filesystem2v116filesystem_error4whatEv
__ZNKSt12experimental10filesystem2v14path11parent_pathEv
__ZNKSt12experimental10filesystem2v14path12has_filenameEv
__ZNKSt12experimental10filesystem2v14path13has_root_nameEv
__ZNKSt12experimental10filesystem2v14path13has_root_pathEv
__ZNKSt12experimental10filesystem2v14path13relative_pathEv
__ZNKSt12experimental10filesystem2v14path14root_directoryEv
__ZNKSt12experimental10filesystem2v14path15has_parent_pathEv
__ZNKSt12experimental10filesystem2v14path17_M_find_extensionEv
__ZNKSt12experimental10filesystem2v14path17has_relative_pathEv
__ZNKSt12experimental10filesystem2v14path18has_root_directoryEv
__ZNKSt12experimental10filesystem2v14path7compareERKS2_
__ZNKSt12experimental10filesystem2v14path8u8stringEv
__ZNKSt12experimental10filesystem2v14path9root_nameEv
__ZNKSt12experimental10filesystem2v14path9root_pathEv
__ZNKSt23__codecvt_abstract_baseIwciE2inERiPKcS3_RS3_PwS5_RS5_
__ZNKSt23__codecvt_abstract_baseIwciE3outERiPKwS3_RS3_PcS5_RS5_
__ZNSt12_Vector_baseINSt12experimental10filesystem2v14path5_CmptESaIS4_EED2Ev
__ZNSt12experimental10filesystem2v110hash_valueERKNS1_4pathE
__ZNSt12experimental10filesystem2v116filesystem_error11_M_gen_whatEv
__ZNSt12experimental10filesystem2v116filesystem_errorC1ERKSsSt10error_code
__ZNSt12experimental10filesystem2v116filesystem_errorD0Ev
__ZNSt12experimental10filesystem2v116filesystem_errorD1Ev
__ZNSt12experimental10filesystem2v116filesystem_errorD2Ev
__ZNSt12experimental10filesystem2v14path14_M_split_cmptsEv
__ZNSt12experimental10filesystem2v14path14_S_convert_locEPKcS4_RKSt6locale
__ZNSt12experimental10filesystem2v14path15_M_add_filenameEjj
__ZNSt12experimental10filesystem2v14path15_M_add_root_dirEj
__ZNSt12experimental10filesystem2v14path15remove_filenameEv
__ZNSt12experimental10filesystem2v14path16_M_add_root_nameEj
__ZNSt12experimental10filesystem2v14path16replace_filenameERKS2_
__ZNSt12experimental10filesystem2v14path17replace_extensionERKS2_
__ZNSt12experimental10filesystem2v14path5_CmptD1Ev
__ZNSt12experimental10filesystem2v14path7_M_trimEv
__ZNSt18codecvt_utf8_utf16IwLm1114111ELSt12codecvt_mode0EED0Ev
__ZNSt18codecvt_utf8_utf16IwLm1114111ELSt12codecvt_mode0EED1Ev
__ZNSt20__uninitialized_copyILb0EE13__uninit_copyIN9__gnu_cxx17__normal_iteratorIPKNSt12experimental10filesystem2v14path5_CmptESt6vectorIS8_SaIS8_EEEEPS8_EET0_T_SH_SG_
__ZNSt6vectorINSt12experimental10filesystem2v14path5_CmptESaIS4_EE12emplace_backIJSbIwSt11char_traitsIwESaIwEENS3_5_TypeERjEEERS4_DpOT_
__ZNSt6vectorINSt12experimental10filesystem2v14path5_CmptESaIS4_EE17_M_realloc_insertIJSbIwSt11char_traitsIwESaIwEENS3_5_TypeERjEEEvN9__gnu_cxx17__normal_iteratorIPS4_S6_EEDpOT_
__ZNSt6vectorINSt12experimental10filesystem2v14path5_CmptESaIS4_EE17_M_realloc_insertIJSbIwSt11char_traitsIwESaIwEENS3_5_TypeEiEEEvN9__gnu_cxx17__normal_iteratorIPS4_S6_EEDpOT_
__ZNSt6vectorINSt12experimental10filesystem2v14path5_CmptESaIS4_EE7reserveEj
__ZNSt6vectorINSt12experimental10filesystem2v14path5_CmptESaIS4_EE8_M_eraseEN9__gnu_cxx17__normal_iteratorIPS4_S6_EE
__ZNSt6vectorINSt12experimental10filesystem2v14path5_CmptESaIS4_EED1Ev
__ZSt16__do_str_codecvtISbIwSt11char_traitsIwESaIwEEcSt7codecvtIwciEiMS5_KFNSt12codecvt_base6resultERiPKcSA_RSA_PwSC_RSC_EEbPKT0_SI_RT_RKT1_RT2_RjT3_
