LIBRARY VSSAPI.DLL
EXPORTS
_VssFreeSnapshotPropertiesInternal@4
_VssFreeSnapshotProperties@4
_ShouldBlockRevertInternal@8
_ShouldBlockRevert@8
_IsVolumeSnapshottedInternal@12
_IsVolumeSnapshotted@12
_GetProviderMgmtInterfaceInternal@36
_GetProviderMgmtInterface@36
_CreateWriterEx@8
_CreateWriter@8
_CreateVssExpressWriterInternal@4
_CreateVssExamineWriterMetadataInternal@8
_CreateVssBackupComponentsInternal@4
?Unsubscribe@CVssWriter@@QAGJXZ
?Uninitialize@CVssJetWriter@@QAGXXZ
?Subscribe@CVssWriter@@QAGJK@Z
?SetWriterFailure@CVssWriter@@IAGJJ@Z
?SetWriterFailure@CVssJetWriter@@IAGJJ@Z
?OnVSSShutdown@CVssWriter@@UAG_NXZ
?OnVSSApplicationStartup@CVssWriter@@UAG_NXZ
?OnThawEnd@CVssJetWriter@@UAG_N_N@Z
?OnThawBegin@CVssJetWriter@@UAG_NXZ
?OnPrepareSnapshotEnd@CVssJetWriter@@UAG_N_N@Z
?OnPrepareSnapshotBegin@CVssJetWriter@@UAG_NXZ
?OnPrepareBackupEnd@CVssJetWriter@@UAG_NPAVIVssWriterComponents@@_N@Z
?OnPrepareBackupBegin@CVssJetWriter@@UAG_NPAVIVssWriterComponents@@@Z
?OnPrepareBackup@CVssWriter@@UAG_NPAVIVssWriterComponents@@@Z
?OnPreRestoreEnd@CVssJetWriter@@UAG_NPAVIVssWriterComponents@@_N@Z
?OnPreRestoreBegin@CVssJetWriter@@UAG_NPAVIVssWriterComponents@@@Z
?OnPreRestore@CVssWriter@@UAG_NPAVIVssWriterComponents@@@Z
?OnPostSnapshot@CVssWriter@@UAG_NPAVIVssWriterComponents@@@Z
?OnPostSnapshot@CVssJetWriter@@UAG_NPAVIVssWriterComponents@@@Z
?OnPostRestoreEnd@CVssJetWriter@@UAG_NPAVIVssWriterComponents@@_N@Z
?OnPostRestoreBegin@CVssJetWriter@@UAG_NPAVIVssWriterComponents@@@Z
?OnPostRestore@CVssWriter@@UAG_NPAVIVssWriterComponents@@@Z
?OnIdentify@CVssWriter@@UAG_NPAVIVssCreateWriterMetadata@@@Z
?OnIdentify@CVssJetWriter@@UAG_NPAVIVssCreateWriterMetadata@@@Z
?OnFreezeEnd@CVssJetWriter@@UAG_N_N@Z
?OnFreezeBegin@CVssJetWriter@@UAG_NXZ
?OnContinueIOOnVolume@CVssWriter@@UAG_NPAGU_GUID@@1@Z
?OnBackupShutdown@CVssWriter@@UAG_NU_GUID@@@Z
?OnBackupCompleteEnd@CVssJetWriter@@UAG_NPAVIVssWriterComponents@@_N@Z
?OnBackupCompleteBegin@CVssJetWriter@@UAG_NPAVIVssWriterComponents@@@Z
?OnBackupComplete@CVssWriter@@UAG_NPAVIVssWriterComponents@@@Z
?OnBackOffIOOnVolume@CVssWriter@@UAG_NPAGU_GUID@@1@Z
?OnAbortEnd@CVssJetWriter@@UAGXXZ
?OnAbortBegin@CVssJetWriter@@UAGXXZ
?LoadVssSnapshotSetDescription@@YGJPBGPAPAVIVssSnapshotSetDescription@@U_GUID@@@Z
?IsPathAffected@CVssWriter@@IBG_NPBG@Z
?IsPathAffected@CVssJetWriter@@IBG_NPBG@Z
?IsPartialFileSupportEnabled@CVssWriter@@IBG_NXZ
?IsPartialFileSupportEnabled@CVssJetWriter@@IBG_NXZ
?IsBootableSystemStateBackedUp@CVssWriter@@IBG_NXZ
?IsBootableSystemStateBackedUp@CVssJetWriter@@IBG_NXZ
?InstallAlternateWriter@CVssWriter@@QAGJU_GUID@@0@Z
?Initialize@CVssWriter@@QAGJU_GUID@@PBGW4VSS_USAGE_TYPE@@W4VSS_SOURCE_TYPE@@W4_VSS_APPLICATION_LEVEL@@KW4VSS_ALTERNATE_WRITER_STATE@@_N1@Z
?Initialize@CVssJetWriter@@QAGJU_GUID@@PBG_N211K@Z
?GetSnapshotDeviceName@CVssWriter@@IBGJPBGPAPBG@Z
?GetSnapshotDeviceName@CVssJetWriter@@IBGJPBGPAPBG@Z
?GetRestoreType@CVssWriter@@IBG?AW4_VSS_RESTORE_TYPE@@XZ
?GetRestoreType@CVssJetWriter@@IBG?AW4_VSS_RESTORE_TYPE@@XZ
?GetCurrentVolumeCount@CVssWriter@@IBGIXZ
?GetCurrentVolumeCount@CVssJetWriter@@IBGIXZ
?GetCurrentVolumeArray@CVssWriter@@IBGPAPBGXZ
?GetCurrentVolumeArray@CVssJetWriter@@IBGPAPBGXZ
?GetCurrentSnapshotSetId@CVssWriter@@IBG?AU_GUID@@XZ
?GetCurrentSnapshotSetId@CVssJetWriter@@IBG?AU_GUID@@XZ
?GetCurrentLevel@CVssWriter@@IBG?AW4_VSS_APPLICATION_LEVEL@@XZ
?GetCurrentLevel@CVssJetWriter@@IBG?AW4_VSS_APPLICATION_LEVEL@@XZ
?GetContext@CVssWriter@@IBGJXZ
?GetContext@CVssJetWriter@@IBGJXZ
?GetBackupType@CVssWriter@@IBG?AW4_VSS_BACKUP_TYPE@@XZ
?GetBackupType@CVssJetWriter@@IBG?AW4_VSS_BACKUP_TYPE@@XZ
?CreateVssSnapshotSetDescription@@YGJU_GUID@@JPAPAVIVssSnapshotSetDescription@@@Z
?CreateVssExamineWriterMetadata@@YGJPAGPAPAVIVssExamineWriterMetadata@@@Z
?CreateVssBackupComponents@@YGJPAPAVIVssBackupComponents@@@Z
?AreComponentsSelected@CVssWriter@@IBG_NXZ
?AreComponentsSelected@CVssJetWriter@@IBG_NXZ
??1CVssWriter@@UAE@XZ
??1CVssJetWriter@@UAE@XZ
??0CVssWriter@@QAE@XZ
??0CVssJetWriter@@QAE@XZ
