LIBRARY WDSCORE.DLL
EXPORTS
_WdsValidBlackboard@4
_WdsUnsubscribeEx@16
_WdsUnsubscribe@4
_WdsUnpackCollection@4
_WdsUnlockExecutionGroup
_WdsTerminate
_WdsSubscribeEx@20
_WdsSetupLogMessageW@44
_WdsSetupLogMessageA@44
_WdsSetupLogInit@12
_WdsSetupLogDestroy
_WdsSetUILanguage@4
_WdsSetNextExecutionGroup@4
_WdsSetBlackboardValue@16
_WdsSetAssertFlags@4
_WdsSeqFree@4
_WdsSeqAlloc@8
_WdsPublishOffline@24
_WdsPublishImmediateEx@20
_WdsPublishImmediateAsync@24
_WdsPublishEx@28
_WdsPublish@24
_WdsPackCollection@8
_WdsLogUnRegisterProvider@4
_WdsLogUnRegStockProviders
_WdsLogStructuredException@4
_WdsLogRegisterProvider@8
_WdsLogRegStockProviders
_WdsLogDestroy@4
_WdsLogCreate@12
_WdsLockExecutionGroup
_WdsLockBlackboardValue@16
_WdsIterateQueue@28
_WdsIterateOfflineQueue@28
_WdsIsDiagnosticModeEnabled
_WdsInitializeDataUInt64@12
_WdsInitializeDataUInt32@8
_WdsInitializeDataStringW@8
_WdsInitializeDataStringA@8
_WdsInitializeDataBinary@12
_WdsInitializeCallbackArray@12
_WdsInitialize@28
_WdsGetTempDir@12
_WdsGetSetupLog
_WdsGetPointer@4
_WdsGetCurrentExecutionGroup@8
_WdsGetBlackboardValue@16
_WdsGetBlackboardUintPtr@16
_WdsGetBlackboardStringW@20
_WdsGetBlackboardStringA@20
_WdsGetBlackboardBinaryData@24
_WdsGetAssertFlags
_WdsGenericSetupLogInit@8
_WdsFreeData@4
_WdsFreeCollection@4
_WdsExitImmediatelyEx@8
_WdsExitImmediately@4
_WdsExecuteWorkQueueEx@28
_WdsExecuteWorkQueue@24
_WdsExecuteWorkQueue2@24
_WdsEnumNextCollectionValue@4
_WdsEnumNextBlackboardItem@4
_WdsEnumFirstCollectionValue@8
_WdsEnumFirstBlackboardItem@20
_WdsEnableExitEx@8
_WdsEnableExit@4
_WdsEnableDiagnosticMode@4
_WdsDuplicateData@8
_WdsDestroyBlackboard@4
_WdsDeleteEvent@4
_WdsDeleteBlackboardValue@12
_WdsCreateBlackboard@12
_WdsCopyBlackboardItemsEx@24
_WdsCopyBlackboardItems@16
_WdsCollectionGetValue@12
_WdsCollectionAddValue@12
_WdsAllocCollection
_WdsAddUsmtLogStack@12
_WdsAddModule@16
_WdsAbortBlackboardItemEnum@4
_StartMinorTask@4
_StartMajorTask@4
_GetMinorTaskA
_GetMinorTask
_GetMajorTaskA
_GetMajorTask
_EndMinorTask
_EndMajorTask
_CurrentIP
_ConstructPartialMsgVW@12
_ConstructPartialMsgVA@12
_ConstructPartialMsgIfW
_ConstructPartialMsgIfA
?SetSize@?$CDynamicArray@_KPA_K@@QAEHK@Z
?SetSize@?$CDynamicArray@USKeeperEntry@CBlackboardFactory@@PAU12@@@QAEHK@Z
?SetSize@?$CDynamicArray@PAUSEnumBinContext@@PAPAU1@@@QAEHK@Z
?SetSize@?$CDynamicArray@GPAG@@QAEHK@Z
?SetSize@?$CDynamicArray@EPAUSValue@@@@QAEHK@Z
?SetSize@?$CDynamicArray@EPAUSKey@@@@QAEHK@Z
?SetSize@?$CDynamicArray@EPAE@@QAEHK@Z
?RemoveItemFromTail@?$CDynamicArray@PAUSEnumBinContext@@PAPAU1@@@QAEXXZ
?RemoveAll@?$CDynamicArray@_KPA_K@@QAEXXZ
?RemoveAll@?$CDynamicArray@USKeeperEntry@CBlackboardFactory@@PAU12@@@QAEXXZ
?Init@?$CDynamicArray@_KPA_K@@IAEXI@Z
?Init@?$CDynamicArray@USKeeperEntry@CBlackboardFactory@@PAU12@@@IAEXI@Z
?Init@?$CDynamicArray@PAUSEnumBinContext@@PAPAU1@@@IAEXI@Z
?Init@?$CDynamicArray@GPAG@@IAEXI@Z
?Init@?$CDynamicArray@EPAUSValue@@@@IAEXI@Z
?Init@?$CDynamicArray@EPAUSKey@@@@IAEXI@Z
?Init@?$CDynamicArray@EPAE@@IAEXI@Z
?GetSize@?$CDynamicArray@_KPA_K@@QBEIXZ
?GetSize@?$CDynamicArray@USKeeperEntry@CBlackboardFactory@@PAU12@@@QBEIXZ
?GetSize@?$CDynamicArray@PAUSEnumBinContext@@PAPAU1@@@QBEIXZ
?GetSize@?$CDynamicArray@GPAG@@QBEIXZ
?GetSize@?$CDynamicArray@EPAE@@QBEIXZ
?GetBuffer@?$CDynamicArray@GPAG@@QAEPAGI@Z
?GetBuffer@?$CDynamicArray@EPAUSValue@@@@QAEPAUSValue@@I@Z
?GetBuffer@?$CDynamicArray@EPAE@@QAEPAEI@Z
?ElementAt@?$CDynamicArray@USKeeperEntry@CBlackboardFactory@@PAU12@@@QAEAAUSKeeperEntry@CBlackboardFactory@@I@Z
?ElementAt@?$CDynamicArray@GPAG@@QAEAAGI@Z
?Add@?$CDynamicArray@_KPA_K@@QAEHAA_K@Z
?Add@?$CDynamicArray@USKeeperEntry@CBlackboardFactory@@PAU12@@@QAEHAAUSKeeperEntry@CBlackboardFactory@@AAI@Z
?Add@?$CDynamicArray@USKeeperEntry@CBlackboardFactory@@PAU12@@@QAEHAAUSKeeperEntry@CBlackboardFactory@@@Z
?Add@?$CDynamicArray@PAUSEnumBinContext@@PAPAU1@@@QAEHAAPAUSEnumBinContext@@@Z
??_F?$CDynamicArray@_KPA_K@@QAEXXZ
??_F?$CDynamicArray@USKeeperEntry@CBlackboardFactory@@PAU12@@@QAEXXZ
??_F?$CDynamicArray@PAUSEnumBinContext@@PAPAU1@@@QAEXXZ
??_F?$CDynamicArray@GPAG@@QAEXXZ
??_F?$CDynamicArray@EPAUSValue@@@@QAEXXZ
??_F?$CDynamicArray@EPAUSKey@@@@QAEXXZ
??_F?$CDynamicArray@EPAE@@QAEXXZ
??C?$CDynamicArray@EPAUSValue@@@@QBEPAUSValue@@XZ
??C?$CDynamicArray@EPAUSKey@@@@QBEPAUSKey@@XZ
??B?$CDynamicArray@GPAG@@QBEPAGXZ
??B?$CDynamicArray@EPAUSValue@@@@QBEPAUSValue@@XZ
??B?$CDynamicArray@EPAUSKey@@@@QBEPAUSKey@@XZ
??A?$CDynamicArray@_KPA_K@@QAEAA_KI@Z
??A?$CDynamicArray@PAUSEnumBinContext@@PAPAU1@@@QAEAAPAUSEnumBinContext@@I@Z
??4?$CDynamicArray@_KPA_K@@QAEAAV0@ABV0@@Z
??4?$CDynamicArray@USKeeperEntry@CBlackboardFactory@@PAU12@@@QAEAAV0@ABV0@@Z
??4?$CDynamicArray@PAUSEnumBinContext@@PAPAU1@@@QAEAAV0@ABV0@@Z
??4?$CDynamicArray@GPAG@@QAEAAV0@ABV0@@Z
??4?$CDynamicArray@EPAUSValue@@@@QAEAAV0@ABV0@@Z
??4?$CDynamicArray@EPAUSKey@@@@QAEAAV0@ABV0@@Z
??4?$CDynamicArray@EPAE@@QAEAAV0@ABV0@@Z
??1?$CDynamicArray@_KPA_K@@QAE@XZ
??1?$CDynamicArray@USKeeperEntry@CBlackboardFactory@@PAU12@@@QAE@XZ
??1?$CDynamicArray@PAUSEnumBinContext@@PAPAU1@@@QAE@XZ
??1?$CDynamicArray@GPAG@@QAE@XZ
??1?$CDynamicArray@EPAUSValue@@@@QAE@XZ
??1?$CDynamicArray@EPAUSKey@@@@QAE@XZ
??1?$CDynamicArray@EPAE@@QAE@XZ
??0?$CDynamicArray@_KPA_K@@QAE@I@Z
??0?$CDynamicArray@USKeeperEntry@CBlackboardFactory@@PAU12@@@QAE@I@Z
??0?$CDynamicArray@PAUSEnumBinContext@@PAPAU1@@@QAE@I@Z
??0?$CDynamicArray@GPAG@@QAE@I@Z
??0?$CDynamicArray@EPAUSValue@@@@QAE@I@Z
??0?$CDynamicArray@EPAUSKey@@@@QAE@I@Z
??0?$CDynamicArray@EPAE@@QAE@I@Z
