LIBRARY WDSUTIL.DLL
EXPORTS
_WdsValidateInstallDrive@20
_WdsPickTempDriveBasedOnInstallDrive@20
_WdsCollectionAddUInt64@16
_WdsCollectionAddUInt32@12
_WdsCollectionAddString@12
_SignalSetupComplianceBlock@8
_PublishMessage
_LogDiskRegionReasons@16
_LogDiskReasons@8
_IsCrossArchitectureInstall@8
_GetRegionKey@16
_GetDiskKey@8
_GetApplicableDiskRegionReason@28
_GetApplicableDiskReason@20
_FreeReason@4
_DiskSupportsCapabilityForType@20
_DiskRegionSupportsCapabilityForType@28
_CallbackGetArgumentUInt64@12
_CallbackGetArgumentString@12
_CallbackGetArgumentInt32@12
?set_UInt64@CSimpleUInt64UserSetting@@UAEJ_K@Z
?set_UInt64@CShimUInt64UserSetting@@UAEJ_K@Z
?set_UInt32@CUpgradeUserSetting@@UAEJI@Z
?set_UInt32@CSimpleUInt32UserSetting@@UAEJI@Z
?set_UInt32@CShimUInt32UserSetting@@UAEJI@Z
?set_UInt32@CDiskPartUserSetting@@UAEJI@Z
?set_String@CSimpleStringUserSetting@@UAEJPBG@Z
?set_String@CShimStringUserSetting@@UAEJPBG@Z
?set_String@CComputerNameSetting@@UAEJPBG@Z
?set_Show@CUserSetting@@QAEJH@Z
?set_Error@CUserSetting@@QAEJJ@Z
?get_ValidateID@CProductKeyUserSetting@@EAEHXZ
?get_ValidateID@CDiskPartUserSetting@@EAEHXZ
?get_ValidateID@CComputerNameSetting@@EAEHXZ
?get_UInt64@CSimpleUInt64UserSetting@@UAEJPA_K@Z
?get_UInt64@CShimUInt64UserSetting@@UAEJPA_K@Z
?get_UInt32@CSimpleUInt32UserSetting@@UAEJPAI@Z
?get_UInt32@CShimUInt32UserSetting@@UAEJPAI@Z
?get_UInt32@CDiskPartUserSetting@@UAEJPAI@Z
?get_String@CSimpleStringUserSetting@@UAEJPAPAG@Z
?get_String@CShimStringUserSetting@@UAEJPAPAG@Z
?get_Show@CSimpleUInt64UserSetting@@UAEJPAH@Z
?get_Show@CSimpleUInt32UserSetting@@UAEJPAH@Z
?get_Show@CSimpleStringUserSetting@@UAEJPAH@Z
?get_Show@CShowFlagUserSetting@@UAEJPAH@Z
?get_Show@CDiskPartUserSetting@@UAEJPAH@Z
?get_Show@CComputerNameSetting@@UAEJPAH@Z
?get_Show@?$CShimUserSetting@VCUInt64UserSetting@@@@UAEJPAH@Z
?get_Show@?$CShimUserSetting@VCUInt32UserSetting@@@@UAEJPAH@Z
?get_Show@?$CShimUserSetting@VCStringUserSetting@@@@UAEJPAH@Z
?get_Name@CWDSUIWelcomeSetting@@EAEPAGXZ
?get_Name@CWDSUIImageSelectionSetting@@EAEPAGXZ
?get_Name@CUpgradeUserSetting@@EAEPAGXZ
?get_Name@CUpgStoreUserSetting@@EAEPAGXZ
?get_Name@CTimezoneSetting@@EAEPAGXZ
?get_Name@CSetupUIWelcomeSetting@@EAEPAGXZ
?get_Name@CSetupUISummarySetting@@EAEPAGXZ
?get_Name@CProductKeyUserSetting@@EAEPAGXZ
?get_Name@COOBEUIWelcomeSetting@@EAEPAGXZ
?get_Name@COOBEUIFinishSetting@@EAEPAGXZ
?get_Name@CKeyboardSetting@@EAEPAGXZ
?get_Name@CIBSUIImageSelectionSetting@@EAEPAGXZ
?get_Name@CEulaSetting@@EAEPAGXZ
?get_Name@CDiskPartUserSetting@@EAEPAGXZ
?get_Name@CDiskPartFormatUserSetting@@EAEPAGXZ
?get_Name@CDiskPartFileSystemUserSetting@@EAEPAGXZ
?get_Name@CDUUIWelcomeSetting@@EAEPAGXZ
?get_Name@CDUUIProgressSetting@@EAEPAGXZ
?get_Name@CComputerNameSetting@@EAEPAGXZ
?get_Error@CSimpleUInt64UserSetting@@UAEJPAJ@Z
?get_Error@CSimpleUInt32UserSetting@@UAEJPAJ@Z
?get_Error@CSimpleStringUserSetting@@UAEJPAJ@Z
?get_Error@CShowFlagUserSetting@@UAEJPAJ@Z
?get_Error@?$CShimUserSetting@VCUInt64UserSetting@@@@UAEJPAJ@Z
?get_Error@?$CShimUserSetting@VCUInt32UserSetting@@@@UAEJPAJ@Z
?get_Error@?$CShimUserSetting@VCStringUserSetting@@@@UAEJPAJ@Z
?UnattendChecked@CUpgradeUserSetting@@SGHXZ
?Simple_set_UInt64@CUInt64UserSetting@@IAEJ_K@Z
?Simple_set_UInt32@CUInt32UserSetting@@IAEJI@Z
?Simple_set_String@CStringUserSetting@@IAEJPBG@Z
?Simple_get_UInt64@CUInt64UserSetting@@IAEJPA_K@Z
?Simple_get_UInt32@CUInt32UserSetting@@IAEJPAI@Z
?Simple_get_String@CStringUserSetting@@IAEJPAPAG@Z
?SetModuleId@CUserSetting@@QAEXPAX@Z
?SerializeUInt64@CUInt64UserSetting@@IAEX_K@Z
?SerializeUInt32@CUInt32UserSetting@@IAEXI@Z
?SerializeString@CStringUserSetting@@IAEXPBG@Z
?SerializeField@CUserSetting@@IAEXPBGPAUWDS_DATA@@@Z
?ReleaseMutex@CUserSetting@@IAEXXZ
?ReadShow@CUserSetting@@IAEJPAHH@Z
?ReadError@CUserSetting@@IAEJPAJH@Z
?IsUpgrade@CUpgradeUserSetting@@SGHXZ
?GetModuleId@CUserSetting@@QAEPAXXZ
?GetKeyName@CUserSetting@@IAEJPAGHH@Z
?GetBlackboard@CUserSetting@@IAEPAU_BLACKBOARD@@XZ
?DeserializeUInt64@CUInt64UserSetting@@IAEJPA_KH@Z
?DeserializeUInt32@CUInt32UserSetting@@IAEJPAIH@Z
?DeserializeString@CStringUserSetting@@IAEJPAPAGH@Z
?DeserializeField@CUserSetting@@IAEJPBGIPAUWDS_DATA@@H@Z
?AcquireMutex@CUserSetting@@IAEXXZ
??4CWDSUIWelcomeSetting@@QAEAAV0@ABV0@@Z
??4CWDSUIImageSelectionSetting@@QAEAAV0@ABV0@@Z
??4CUserSetting@@QAEAAV0@ABV0@@Z
??4CUpgradeUserSetting@@QAEAAV0@ABV0@@Z
??4CUpgStoreUserSetting@@QAEAAV0@ABV0@@Z
??4CUInt64UserSetting@@QAEAAV0@ABV0@@Z
??4CUInt32UserSetting@@QAEAAV0@ABV0@@Z
??4CTimezoneSetting@@QAEAAV0@ABV0@@Z
??4CStringUserSetting@@QAEAAV0@ABV0@@Z
??4CSimpleUInt64UserSetting@@QAEAAV0@ABV0@@Z
??4CSimpleUInt32UserSetting@@QAEAAV0@ABV0@@Z
??4CSimpleStringUserSetting@@QAEAAV0@ABV0@@Z
??4CShowFlagUserSetting@@QAEAAV0@ABV0@@Z
??4CShimUInt64UserSetting@@QAEAAV0@ABV0@@Z
??4CShimUInt32UserSetting@@QAEAAV0@ABV0@@Z
??4CShimStringUserSetting@@QAEAAV0@ABV0@@Z
??4CSetupUIWelcomeSetting@@QAEAAV0@ABV0@@Z
??4CSetupUISummarySetting@@QAEAAV0@ABV0@@Z
??4CProductKeyUserSetting@@QAEAAV0@ABV0@@Z
??4COOBEUIWelcomeSetting@@QAEAAV0@ABV0@@Z
??4COOBEUIFinishSetting@@QAEAAV0@ABV0@@Z
??4CKeyboardSetting@@QAEAAV0@ABV0@@Z
??4CIBSUIImageSelectionSetting@@QAEAAV0@ABV0@@Z
??4CEulaSetting@@QAEAAV0@ABV0@@Z
??4CDiskPartUserSetting@@QAEAAV0@ABV0@@Z
??4CDiskPartFormatUserSetting@@QAEAAV0@ABV0@@Z
??4CDiskPartFileSystemUserSetting@@QAEAAV0@ABV0@@Z
??4CDUUIWelcomeSetting@@QAEAAV0@ABV0@@Z
??4CDUUIProgressSetting@@QAEAAV0@ABV0@@Z
??4CComputerNameSetting@@QAEAAV0@ABV0@@Z
??4?$CShimUserSetting@VCUInt64UserSetting@@@@QAEAAV0@ABV0@@Z
??4?$CShimUserSetting@VCUInt32UserSetting@@@@QAEAAV0@ABV0@@Z
??4?$CShimUserSetting@VCStringUserSetting@@@@QAEAAV0@ABV0@@Z
??1CWDSUIWelcomeSetting@@QAE@XZ
??1CWDSUIImageSelectionSetting@@QAE@XZ
??1CUserSetting@@QAE@XZ
??1CUpgradeUserSetting@@QAE@XZ
??1CUpgStoreUserSetting@@QAE@XZ
??1CUInt64UserSetting@@IAE@XZ
??1CUInt32UserSetting@@IAE@XZ
??1CTimezoneSetting@@QAE@XZ
??1CStringUserSetting@@IAE@XZ
??1CSimpleUInt64UserSetting@@QAE@XZ
??1CSimpleUInt32UserSetting@@QAE@XZ
??1CSimpleStringUserSetting@@QAE@XZ
??1CShowFlagUserSetting@@IAE@XZ
??1CShimUInt64UserSetting@@QAE@XZ
??1CShimUInt32UserSetting@@QAE@XZ
??1CShimStringUserSetting@@QAE@XZ
??1CSetupUIWelcomeSetting@@QAE@XZ
??1CSetupUISummarySetting@@QAE@XZ
??1CProductKeyUserSetting@@QAE@XZ
??1COOBEUIWelcomeSetting@@QAE@XZ
??1COOBEUIFinishSetting@@QAE@XZ
??1CKeyboardSetting@@QAE@XZ
??1CIBSUIImageSelectionSetting@@QAE@XZ
??1CEulaSetting@@QAE@XZ
??1CDiskPartUserSetting@@QAE@XZ
??1CDiskPartFormatUserSetting@@QAE@XZ
??1CDiskPartFileSystemUserSetting@@QAE@XZ
??1CDUUIWelcomeSetting@@QAE@XZ
??1CDUUIProgressSetting@@QAE@XZ
??1CComputerNameSetting@@QAE@XZ
??1?$CShimUserSetting@VCUInt64UserSetting@@@@QAE@XZ
??1?$CShimUserSetting@VCUInt32UserSetting@@@@QAE@XZ
??1?$CShimUserSetting@VCStringUserSetting@@@@QAE@XZ
??0CWDSUIWelcomeSetting@@QAE@XZ
??0CWDSUIWelcomeSetting@@QAE@ABV0@@Z
??0CWDSUIImageSelectionSetting@@QAE@XZ
??0CWDSUIImageSelectionSetting@@QAE@ABV0@@Z
??0CUserSetting@@QAE@XZ
??0CUserSetting@@QAE@ABV0@@Z
??0CUpgradeUserSetting@@QAE@XZ
??0CUpgradeUserSetting@@QAE@ABV0@@Z
??0CUpgStoreUserSetting@@QAE@XZ
??0CUpgStoreUserSetting@@QAE@ABV0@@Z
??0CUInt64UserSetting@@QAE@ABV0@@Z
??0CUInt64UserSetting@@IAE@XZ
??0CUInt32UserSetting@@QAE@ABV0@@Z
??0CUInt32UserSetting@@IAE@XZ
??0CTimezoneSetting@@QAE@XZ
??0CTimezoneSetting@@QAE@ABV0@@Z
??0CStringUserSetting@@QAE@ABV0@@Z
??0CStringUserSetting@@IAE@XZ
??0CSimpleUInt64UserSetting@@QAE@XZ
??0CSimpleUInt64UserSetting@@QAE@ABV0@@Z
??0CSimpleUInt32UserSetting@@QAE@XZ
??0CSimpleUInt32UserSetting@@QAE@ABV0@@Z
??0CSimpleStringUserSetting@@QAE@XZ
??0CSimpleStringUserSetting@@QAE@ABV0@@Z
??0CShowFlagUserSetting@@QAE@ABV0@@Z
??0CShowFlagUserSetting@@IAE@XZ
??0CShimUInt64UserSetting@@QAE@XZ
??0CShimUInt64UserSetting@@QAE@ABV0@@Z
??0CShimUInt32UserSetting@@QAE@XZ
??0CShimUInt32UserSetting@@QAE@ABV0@@Z
??0CShimStringUserSetting@@QAE@XZ
??0CShimStringUserSetting@@QAE@ABV0@@Z
??0CSetupUIWelcomeSetting@@QAE@XZ
??0CSetupUIWelcomeSetting@@QAE@ABV0@@Z
??0CSetupUISummarySetting@@QAE@XZ
??0CSetupUISummarySetting@@QAE@ABV0@@Z
??0CProductKeyUserSetting@@QAE@XZ
??0CProductKeyUserSetting@@QAE@ABV0@@Z
??0COOBEUIWelcomeSetting@@QAE@XZ
??0COOBEUIWelcomeSetting@@QAE@ABV0@@Z
??0COOBEUIFinishSetting@@QAE@XZ
??0COOBEUIFinishSetting@@QAE@ABV0@@Z
??0CKeyboardSetting@@QAE@XZ
??0CKeyboardSetting@@QAE@ABV0@@Z
??0CIBSUIImageSelectionSetting@@QAE@XZ
??0CIBSUIImageSelectionSetting@@QAE@ABV0@@Z
??0CEulaSetting@@QAE@XZ
??0CEulaSetting@@QAE@ABV0@@Z
??0CDiskPartUserSetting@@QAE@XZ
??0CDiskPartUserSetting@@QAE@ABV0@@Z
??0CDiskPartFormatUserSetting@@QAE@XZ
??0CDiskPartFormatUserSetting@@QAE@ABV0@@Z
??0CDiskPartFileSystemUserSetting@@QAE@XZ
??0CDiskPartFileSystemUserSetting@@QAE@ABV0@@Z
??0CDUUIWelcomeSetting@@QAE@XZ
??0CDUUIWelcomeSetting@@QAE@ABV0@@Z
??0CDUUIProgressSetting@@QAE@XZ
??0CDUUIProgressSetting@@QAE@ABV0@@Z
??0CComputerNameSetting@@QAE@XZ
??0CComputerNameSetting@@QAE@ABV0@@Z
??0?$CShimUserSetting@VCUInt64UserSetting@@@@QAE@XZ
??0?$CShimUserSetting@VCUInt64UserSetting@@@@QAE@ABV0@@Z
??0?$CShimUserSetting@VCUInt32UserSetting@@@@QAE@XZ
??0?$CShimUserSetting@VCUInt32UserSetting@@@@QAE@ABV0@@Z
??0?$CShimUserSetting@VCStringUserSetting@@@@QAE@XZ
??0?$CShimUserSetting@VCStringUserSetting@@@@QAE@ABV0@@Z
