LIBRARY "WsmSvc.DLL"
EXPORTS
??0?$AutoCleanup@V?$AutoDelete@D@@PAD@@QAE@PAD@Z
??0?$AutoCleanup@V?$AutoDelete@G@@PAG@@QAE@PAG@Z
??0?$AutoCleanup@V?$AutoDelete@UIPRange@CWSManIPFilter@@@@PAUIPRange@CWSManIPFilter@@@@QAE@PAUIPRange@CWSManIPFilter@@@Z
??0?$AutoCleanup@V?$AutoDelete@U_SID@@@@PAU_SID@@@@QAE@PAU_SID@@@Z
??0?$AutoCleanup@V?$AutoDelete@U_WSMAN_STREAM_ID_SET@@@@PAU_WSMAN_STREAM_ID_SET@@@@QAE@PAU_WSMAN_STREAM_ID_SET@@@Z
??0?$AutoCleanup@V?$AutoDelete@V?$Handle@VISubscription@@@@@@PAV?$Handle@VISubscription@@@@@@QAE@PAV?$Handle@VISubscription@@@@@Z
??0?$AutoCleanup@V?$AutoDelete@V?$SafeMap_Iterator@VStringKeyCI@@K@@@@PAV?$SafeMap_Iterator@VStringKeyCI@@K@@@@QAE@PAV?$SafeMap_Iterator@VStringKeyCI@@K@@@Z
??0?$AutoCleanup@V?$AutoDelete@V?$SafeMap_Iterator@W4WSManSessionOption@@PAVOptionValue@SessionOptions@Client@WSMan@@@@@@PAV?$SafeMap_Iterator@W4WSManSessionOption@@PAVOptionValue@SessionOptions@Client@WSMan@@@@@@QAE@PAV?$SafeMap_Iterator@W4WSManSessionOption@@PAVOptionValue@SessionOptions@Client@WSMan@@@@@Z
??0?$AutoCleanup@V?$AutoDelete@V?$SafeSet@PAVCCertMapping@@@@@@PAV?$SafeSet@PAVCCertMapping@@@@@@QAE@PAV?$SafeSet@PAVCCertMapping@@@@@Z
??0?$AutoCleanup@V?$AutoDelete@V?$SafeSet@PAVCShellUriSettings@@@@@@PAV?$SafeSet@PAVCShellUriSettings@@@@@@QAE@PAV?$SafeSet@PAVCShellUriSettings@@@@@Z
??0?$AutoCleanup@V?$AutoDelete@V?$SafeSet_Iterator@PAVCListenerOperation@@@@@@PAV?$SafeSet_Iterator@PAVCListenerOperation@@@@@@QAE@PAV?$SafeSet_Iterator@PAVCListenerOperation@@@@@Z
??0?$AutoCleanup@V?$AutoDelete@V?$SimpleStack@VCListenerOperation@@@@@@PAV?$SimpleStack@VCListenerOperation@@@@@@QAE@PAV?$SimpleStack@VCListenerOperation@@@@@Z
??0?$AutoCleanup@V?$AutoDelete@V?$SimpleStack@VShellHostEntry@@@@@@PAV?$SimpleStack@VShellHostEntry@@@@@@QAE@PAV?$SimpleStack@VShellHostEntry@@@@@Z
??0?$AutoCleanup@V?$AutoDelete@V?$set@PAVCListenerSettings@@VCListenerSettingsLessFunctor@CServiceConfigSettings@@V?$transport_allocator@PAVCListenerSettings@@@@@std@@@@PAV?$set@PAVCListenerSettings@@VCListenerSettingsLessFunctor@CServiceConfigSettings@@V?$transport_allocator@PAVCListenerSettings@@@@@std@@@@QAE@PAV?$set@PAVCListenerSettings@@VCListenerSettingsLessFunctor@CServiceConfigSettings@@V?$transport_allocator@PAVCListenerSettings@@@@@std@@@Z
??0?$AutoCleanup@V?$AutoDelete@V?$set@Usockaddr_storage@@VSockAddrLessFunctor@CListenerSettings@@V?$transport_allocator@Usockaddr_storage@@@@@std@@@@PAV?$set@Usockaddr_storage@@VSockAddrLessFunctor@CListenerSettings@@V?$transport_allocator@Usockaddr_storage@@@@@std@@@@QAE@PAV?$set@Usockaddr_storage@@VSockAddrLessFunctor@CListenerSettings@@V?$transport_allocator@Usockaddr_storage@@@@@std@@@Z
??0?$AutoCleanup@V?$AutoDelete@V?$vector@PAVHandleImpl@Client@WSMan@@V?$transport_allocator@PAVHandleImpl@Client@WSMan@@@@@std@@@@PAV?$vector@PAVHandleImpl@Client@WSMan@@V?$transport_allocator@PAVHandleImpl@Client@WSMan@@@@@std@@@@QAE@PAV?$vector@PAVHandleImpl@Client@WSMan@@V?$transport_allocator@PAVHandleImpl@Client@WSMan@@@@@std@@@Z
??0?$AutoCleanup@V?$AutoDelete@V?$vector@PAVIServiceConfigObserver@@V?$transport_allocator@PAVIServiceConfigObserver@@@@@std@@@@PAV?$vector@PAVIServiceConfigObserver@@V?$transport_allocator@PAVIServiceConfigObserver@@@@@std@@@@QAE@PAV?$vector@PAVIServiceConfigObserver@@V?$transport_allocator@PAVIServiceConfigObserver@@@@@std@@@Z
??0?$AutoCleanup@V?$AutoDelete@VAdminSid@CSecurity@@@@PAVAdminSid@CSecurity@@@@QAE@PAVAdminSid@CSecurity@@@Z
??0?$AutoCleanup@V?$AutoDelete@VBlockedRecord@@@@PAVBlockedRecord@@@@QAE@PAVBlockedRecord@@@Z
??0?$AutoCleanup@V?$AutoDelete@VCBaseConfigCache@@@@PAVCBaseConfigCache@@@@QAE@PAVCBaseConfigCache@@@Z
??0?$AutoCleanup@V?$AutoDelete@VCCertMapping@@@@PAVCCertMapping@@@@QAE@PAVCCertMapping@@@Z
??0?$AutoCleanup@V?$AutoDelete@VCConfigChangeSource@@@@PAVCConfigChangeSource@@@@QAE@PAVCConfigChangeSource@@@Z
??0?$AutoCleanup@V?$AutoDelete@VCListenerSettings@@@@PAVCListenerSettings@@@@QAE@PAVCListenerSettings@@@Z
??0?$AutoCleanup@V?$AutoDelete@VCObserverConfigChangeErrors@@@@PAVCObserverConfigChangeErrors@@@@QAE@PAVCObserverConfigChangeErrors@@@Z
??0?$AutoCleanup@V?$AutoDelete@VCServiceWatcher@CServiceConfigCache@@@@PAVCServiceWatcher@CServiceConfigCache@@@@QAE@PAVCServiceWatcher@CServiceConfigCache@@@Z
??0?$AutoCleanup@V?$AutoDelete@VCShellUriSettings@@@@PAVCShellUriSettings@@@@QAE@PAVCShellUriSettings@@@Z
??0?$AutoCleanup@V?$AutoDelete@VCWSManEPR@@@@PAVCWSManEPR@@@@QAE@PAVCWSManEPR@@@Z
??0?$AutoCleanup@V?$AutoDelete@VCWSManResource@@@@PAVCWSManResource@@@@QAE@PAVCWSManResource@@@Z
??0?$AutoCleanup@V?$AutoDelete@VCertHash@@@@PAVCertHash@@@@QAE@PAVCertHash@@@Z
??0?$AutoCleanup@V?$AutoDelete@VConfigUpdate@@@@PAVConfigUpdate@@@@QAE@PAVConfigUpdate@@@Z
??0?$AutoCleanup@V?$AutoDelete@VEnumSinkEx@@@@PAVEnumSinkEx@@@@QAE@PAVEnumSinkEx@@@Z
??0?$AutoCleanup@V?$AutoDelete@VEnumSinkEx@@@@PAVEnumSinkEx@@@@QAE@XZ
??0?$AutoCleanup@V?$AutoDelete@VEventHandler@WSMan@@@@PAVEventHandler@WSMan@@@@QAE@PAVEventHandler@WSMan@@@Z
??0?$AutoCleanup@V?$AutoDelete@VExpiredOperationIdRecord@@@@PAVExpiredOperationIdRecord@@@@QAE@PAVExpiredOperationIdRecord@@@Z
??0?$AutoCleanup@V?$AutoDelete@VGPApiManager@@@@PAVGPApiManager@@@@QAE@PAVGPApiManager@@@Z
??0?$AutoCleanup@V?$AutoDelete@VGeneralSinkEx@@@@PAVGeneralSinkEx@@@@QAE@PAVGeneralSinkEx@@@Z
??0?$AutoCleanup@V?$AutoDelete@VGeneralSinkEx@@@@PAVGeneralSinkEx@@@@QAE@XZ
??0?$AutoCleanup@V?$AutoDelete@VIChannelObserverFactory@@@@PAVIChannelObserverFactory@@@@QAE@PAVIChannelObserverFactory@@@Z
??0?$AutoCleanup@V?$AutoDelete@VIQueryDASHSMASHInterface@@@@PAVIQueryDASHSMASHInterface@@@@QAE@PAVIQueryDASHSMASHInterface@@@Z
??0?$AutoCleanup@V?$AutoDelete@VIQueryDASHSMASHInterface@@@@PAVIQueryDASHSMASHInterface@@@@QAE@XZ
??0?$AutoCleanup@V?$AutoDelete@VISpecification@@@@PAVISpecification@@@@QAE@PAVISpecification@@@Z
??0?$AutoCleanup@V?$AutoDelete@VISpecification@@@@PAVISpecification@@@@QAE@XZ
??0?$AutoCleanup@V?$AutoDelete@VInteractiveSid@CSecurity@@@@PAVInteractiveSid@CSecurity@@@@QAE@PAVInteractiveSid@CSecurity@@@Z
??0?$AutoCleanup@V?$AutoDelete@VIpHlpApiDllLoader@@@@PAVIpHlpApiDllLoader@@@@QAE@PAVIpHlpApiDllLoader@@@Z
??0?$AutoCleanup@V?$AutoDelete@VMachineName@@@@PAVMachineName@@@@QAE@PAVMachineName@@@Z
??0?$AutoCleanup@V?$AutoDelete@VNetworkServiceSid@CSecurity@@@@PAVNetworkServiceSid@CSecurity@@@@QAE@PAVNetworkServiceSid@CSecurity@@@Z
??0?$AutoCleanup@V?$AutoDelete@VNtDsApiDllLoader@@@@PAVNtDsApiDllLoader@@@@QAE@PAVNtDsApiDllLoader@@@Z
??0?$AutoCleanup@V?$AutoDelete@VOptionValue@SessionOptions@Client@WSMan@@@@PAVOptionValue@SessionOptions@Client@WSMan@@@@QAE@PAVOptionValue@SessionOptions@Client@WSMan@@@Z
??0?$AutoCleanup@V?$AutoDelete@VPacketCreator@@@@PAVPacketCreator@@@@QAE@PAVPacketCreator@@@Z
??0?$AutoCleanup@V?$AutoDelete@VPacketParser@@@@PAVPacketParser@@@@QAE@PAVPacketParser@@@Z
??0?$AutoCleanup@V?$AutoDelete@VResources@Locale@@@@PAVResources@Locale@@@@QAE@PAVResources@Locale@@@Z
??0?$AutoCleanup@V?$AutoDelete@VRunAsConfiguration@@@@PAVRunAsConfiguration@@@@QAE@PAVRunAsConfiguration@@@Z
??0?$AutoCleanup@V?$AutoDelete@VSecurityEntry@Catalog@@@@PAVSecurityEntry@Catalog@@@@QAE@PAVSecurityEntry@Catalog@@@Z
??0?$AutoCleanup@V?$AutoDelete@VSendPacketArgs@RobustConnectionBuffer@@@@PAVSendPacketArgs@RobustConnectionBuffer@@@@QAE@PAVSendPacketArgs@RobustConnectionBuffer@@@Z
??0?$AutoCleanup@V?$AutoDelete@VServiceSoapProcessor@@@@PAVServiceSoapProcessor@@@@QAE@PAVServiceSoapProcessor@@@Z
??0?$AutoCleanup@V?$AutoDelete@VShell32DllLoader@@@@PAVShell32DllLoader@@@@QAE@PAVShell32DllLoader@@@Z
??0?$AutoCleanup@V?$AutoDelete@VShlWApiDllLoader@@@@PAVShlWApiDllLoader@@@@QAE@PAVShlWApiDllLoader@@@Z
??0?$AutoCleanup@V?$AutoDelete@VSubscriptionEnumerator@@@@PAVSubscriptionEnumerator@@@@QAE@PAVSubscriptionEnumerator@@@Z
??0?$AutoCleanup@V?$AutoDelete@VSubscriptionManager@@@@PAVSubscriptionManager@@@@QAE@PAVSubscriptionManager@@@Z
??0?$AutoCleanup@V?$AutoDelete@VTSTRBUFFER@@@@PAVTSTRBUFFER@@@@QAE@PAVTSTRBUFFER@@@Z
??0?$AutoCleanup@V?$AutoDelete@VTSTRBUFFER@@@@PAVTSTRBUFFER@@@@QAE@XZ
??0?$AutoCleanup@V?$AutoDelete@VUniqueStringOverflow@@@@PAVUniqueStringOverflow@@@@QAE@PAVUniqueStringOverflow@@@Z
??0?$AutoCleanup@V?$AutoDelete@VUser32DllLoader@@@@PAVUser32DllLoader@@@@QAE@PAVUser32DllLoader@@@Z
??0?$AutoCleanup@V?$AutoDelete@VWSMANCONFIGTABLE_IDENTITY@@@@PAVWSMANCONFIGTABLE_IDENTITY@@@@QAE@PAVWSMANCONFIGTABLE_IDENTITY@@@Z
??0?$AutoCleanup@V?$AutoDelete@VWSManMemCryptManager@@@@PAVWSManMemCryptManager@@@@QAE@PAVWSManMemCryptManager@@@Z
??0?$AutoCleanup@V?$AutoDelete@VWmiEnumContext@@@@PAVWmiEnumContext@@@@QAE@PAVWmiEnumContext@@@Z
??0?$AutoCleanup@V?$AutoDelete@VWmiEnumContext@@@@PAVWmiEnumContext@@@@QAE@XZ
??0?$AutoCleanup@V?$AutoDelete@VXmlReader@@@@PAVXmlReader@@@@QAE@PAVXmlReader@@@Z
??0?$AutoCleanup@V?$AutoDeleteVector@$$CBG@@PBG@@QAE@PBG@Z
??0?$AutoCleanup@V?$AutoDeleteVector@D@@PAD@@QAE@PAD@Z
??0?$AutoCleanup@V?$AutoDeleteVector@E@@PAE@@QAE@PAE@Z
??0?$AutoCleanup@V?$AutoDeleteVector@E@@PAE@@QAE@XZ
??0?$AutoCleanup@V?$AutoDeleteVector@G@@PAG@@QAE@PAG@Z
??0?$AutoCleanup@V?$AutoDeleteVector@G@@PAG@@QAE@XZ
??0?$AutoCleanup@V?$AutoDeleteVector@H@@PAH@@QAE@PAH@Z
??0?$AutoCleanup@V?$AutoDeleteVector@PAG@@PAPAG@@QAE@PAPAG@Z
??0?$AutoCleanup@V?$AutoDeleteVector@PAG@@PAPAG@@QAE@XZ
??0?$AutoCleanup@V?$AutoDeleteVector@PBG@@PAPBG@@QAE@PAPBG@Z
??0?$AutoCleanup@V?$AutoDeleteVector@PBG@@PAPBG@@QAE@XZ
??0?$AutoCleanup@V?$AutoDeleteVector@U_CONFIG_UPDATE@@@@PAU_CONFIG_UPDATE@@@@QAE@PAU_CONFIG_UPDATE@@@Z
??0?$AutoCleanup@V?$AutoDeleteVector@U_WINRS_CREATE_SHELL_ENVIRONMENT_VARIABLE@@@@PAU_WINRS_CREATE_SHELL_ENVIRONMENT_VARIABLE@@@@QAE@PAU_WINRS_CREATE_SHELL_ENVIRONMENT_VARIABLE@@@Z
??0?$AutoCleanup@V?$AutoDeleteVector@U_WINRS_CREATE_SHELL_ENVIRONMENT_VARIABLE@@@@PAU_WINRS_CREATE_SHELL_ENVIRONMENT_VARIABLE@@@@QAE@XZ
??0?$AutoCleanup@V?$AutoDeleteVector@U_WINRS_RUN_COMMAND_ARG@@@@PAU_WINRS_RUN_COMMAND_ARG@@@@QAE@PAU_WINRS_RUN_COMMAND_ARG@@@Z
??0?$AutoCleanup@V?$AutoDeleteVector@U_WINRS_RUN_COMMAND_ARG@@@@PAU_WINRS_RUN_COMMAND_ARG@@@@QAE@XZ
??0?$AutoCleanup@V?$AutoDeleteVector@U_WSMAN_OPTION@@@@PAU_WSMAN_OPTION@@@@QAE@PAU_WSMAN_OPTION@@@Z
??0?$AutoCleanup@V?$AutoDeleteVector@X@@PAX@@QAE@PAX@Z
??0?$AutoCleanup@V?$AutoFree@E@@PAE@@QAE@PAE@Z
??0?$AutoCleanup@V?$AutoLocklessItemRecycle@VPacket@@@@PAVPacket@@@@QAE@PAVPacket@@@Z
??0?$AutoCleanup@V?$AutoRelease@UIAppHostAdminManager@@@@PAUIAppHostAdminManager@@@@QAE@PAUIAppHostAdminManager@@@Z
??0?$AutoCleanup@V?$AutoRelease@UIAppHostChildElementCollection@@@@PAUIAppHostChildElementCollection@@@@QAE@PAUIAppHostChildElementCollection@@@Z
??0?$AutoCleanup@V?$AutoRelease@UIAppHostConfigException@@@@PAUIAppHostConfigException@@@@QAE@PAUIAppHostConfigException@@@Z
??0?$AutoCleanup@V?$AutoRelease@UIAppHostElement@@@@PAUIAppHostElement@@@@QAE@PAUIAppHostElement@@@Z
??0?$AutoCleanup@V?$AutoRelease@UIAppHostElementCollection@@@@PAUIAppHostElementCollection@@@@QAE@PAUIAppHostElementCollection@@@Z
??0?$AutoCleanup@V?$AutoRelease@UIAppHostProperty@@@@PAUIAppHostProperty@@@@QAE@PAUIAppHostProperty@@@Z
??0?$AutoCleanup@V?$AutoRelease@UIAppHostPropertyCollection@@@@PAUIAppHostPropertyCollection@@@@QAE@PAUIAppHostPropertyCollection@@@Z
??0?$AutoCleanup@V?$AutoRelease@UIClientSecurity@@@@PAUIClientSecurity@@@@QAE@PAUIClientSecurity@@@Z
??0?$AutoCleanup@V?$AutoRelease@UIClientSecurity@@@@PAUIClientSecurity@@@@QAE@XZ
??0?$AutoCleanup@V?$AutoRelease@UIEnumWbemClassObject@@@@PAUIEnumWbemClassObject@@@@QAE@PAUIEnumWbemClassObject@@@Z
??0?$AutoCleanup@V?$AutoRelease@UIEnumWbemClassObject@@@@PAUIEnumWbemClassObject@@@@QAE@XZ
??0?$AutoCleanup@V?$AutoRelease@UIErrorInfo@@@@PAUIErrorInfo@@@@QAE@PAUIErrorInfo@@@Z
??0?$AutoCleanup@V?$AutoRelease@UIErrorInfo@@@@PAUIErrorInfo@@@@QAE@XZ
??0?$AutoCleanup@V?$AutoRelease@UIUnknown@@@@PAUIUnknown@@@@QAE@PAUIUnknown@@@Z
??0?$AutoCleanup@V?$AutoRelease@UIUnknown@@@@PAUIUnknown@@@@QAE@XZ
??0?$AutoCleanup@V?$AutoRelease@UIWbemClassObject@@@@PAUIWbemClassObject@@@@QAE@PAUIWbemClassObject@@@Z
??0?$AutoCleanup@V?$AutoRelease@UIWbemClassObject@@@@PAUIWbemClassObject@@@@QAE@XZ
??0?$AutoCleanup@V?$AutoRelease@UIWbemContext@@@@PAUIWbemContext@@@@QAE@PAUIWbemContext@@@Z
??0?$AutoCleanup@V?$AutoRelease@UIWbemContext@@@@PAUIWbemContext@@@@QAE@XZ
??0?$AutoCleanup@V?$AutoRelease@UIWbemLocator@@@@PAUIWbemLocator@@@@QAE@PAUIWbemLocator@@@Z
??0?$AutoCleanup@V?$AutoRelease@UIWbemLocator@@@@PAUIWbemLocator@@@@QAE@XZ
??0?$AutoCleanup@V?$AutoRelease@UIWbemObjectTextSrc@@@@PAUIWbemObjectTextSrc@@@@QAE@PAUIWbemObjectTextSrc@@@Z
??0?$AutoCleanup@V?$AutoRelease@UIWbemObjectTextSrc@@@@PAUIWbemObjectTextSrc@@@@QAE@XZ
??0?$AutoCleanup@V?$AutoRelease@UIWbemPath@@@@PAUIWbemPath@@@@QAE@PAUIWbemPath@@@Z
??0?$AutoCleanup@V?$AutoRelease@UIWbemPath@@@@PAUIWbemPath@@@@QAE@XZ
??0?$AutoCleanup@V?$AutoRelease@UIWbemPathKeyList@@@@PAUIWbemPathKeyList@@@@QAE@PAUIWbemPathKeyList@@@Z
??0?$AutoCleanup@V?$AutoRelease@UIWbemPathKeyList@@@@PAUIWbemPathKeyList@@@@QAE@XZ
??0?$AutoCleanup@V?$AutoRelease@UIWbemQualifierSet@@@@PAUIWbemQualifierSet@@@@QAE@PAUIWbemQualifierSet@@@Z
??0?$AutoCleanup@V?$AutoRelease@UIWbemQualifierSet@@@@PAUIWbemQualifierSet@@@@QAE@XZ
??0?$AutoCleanup@V?$AutoRelease@UIWbemQuery@@@@PAUIWbemQuery@@@@QAE@PAUIWbemQuery@@@Z
??0?$AutoCleanup@V?$AutoRelease@UIWbemQuery@@@@PAUIWbemQuery@@@@QAE@XZ
??0?$AutoCleanup@V?$AutoRelease@UIWbemServices@@@@PAUIWbemServices@@@@QAE@PAUIWbemServices@@@Z
??0?$AutoCleanup@V?$AutoRelease@UIWbemServices@@@@PAUIWbemServices@@@@QAE@XZ
??0?$AutoCleanup@V?$AutoRelease@VApplication@Client@WSMan@@@@PAVApplication@Client@WSMan@@@@QAE@PAVApplication@Client@WSMan@@@Z
??0?$AutoCleanup@V?$AutoRelease@VCBaseConfigCache@@@@PAVCBaseConfigCache@@@@QAE@PAVCBaseConfigCache@@@Z
??0?$AutoCleanup@V?$AutoRelease@VCClientConfigSettings@@@@PAVCClientConfigSettings@@@@QAE@PAVCClientConfigSettings@@@Z
??0?$AutoCleanup@V?$AutoRelease@VCCommonConfigSettings@@@@PAVCCommonConfigSettings@@@@QAE@PAVCCommonConfigSettings@@@Z
??0?$AutoCleanup@V?$AutoRelease@VCConfigCacheMap@CBaseConfigCache@@@@PAVCConfigCacheMap@CBaseConfigCache@@@@QAE@PAVCConfigCacheMap@CBaseConfigCache@@@Z
??0?$AutoCleanup@V?$AutoRelease@VCConfigManager@@@@PAVCConfigManager@@@@QAE@PAVCConfigManager@@@Z
??0?$AutoCleanup@V?$AutoRelease@VCRemoteOperation@@@@PAVCRemoteOperation@@@@QAE@PAVCRemoteOperation@@@Z
??0?$AutoCleanup@V?$AutoRelease@VCRemoteSession@@@@PAVCRemoteSession@@@@QAE@PAVCRemoteSession@@@Z
??0?$AutoCleanup@V?$AutoRelease@VCRequestContext@@@@PAVCRequestContext@@@@QAE@PAVCRequestContext@@@Z
??0?$AutoCleanup@V?$AutoRelease@VCServiceCommonConfigSettings@@@@PAVCServiceCommonConfigSettings@@@@QAE@PAVCServiceCommonConfigSettings@@@Z
??0?$AutoCleanup@V?$AutoRelease@VCServiceConfigCache@@@@PAVCServiceConfigCache@@@@QAE@PAVCServiceConfigCache@@@Z
??0?$AutoCleanup@V?$AutoRelease@VCServiceConfigSettings@@@@PAVCServiceConfigSettings@@@@QAE@PAVCServiceConfigSettings@@@Z
??0?$AutoCleanup@V?$AutoRelease@VCWSManEPR@@@@PAVCWSManEPR@@@@QAE@PAVCWSManEPR@@@Z
??0?$AutoCleanup@V?$AutoRelease@VCWSManEPR@@@@PAVCWSManEPR@@@@QAE@XZ
??0?$AutoCleanup@V?$AutoRelease@VCWSManGroupPolicyCache@@@@PAVCWSManGroupPolicyCache@@@@QAE@PAVCWSManGroupPolicyCache@@@Z
??0?$AutoCleanup@V?$AutoRelease@VCWSManGroupPolicyManager@@@@PAVCWSManGroupPolicyManager@@@@QAE@PAVCWSManGroupPolicyManager@@@Z
??0?$AutoCleanup@V?$AutoRelease@VCWSManObject@@@@PAVCWSManObject@@@@QAE@PAVCWSManObject@@@Z
??0?$AutoCleanup@V?$AutoRelease@VCWSManResource@@@@PAVCWSManResource@@@@QAE@PAVCWSManResource@@@Z
??0?$AutoCleanup@V?$AutoRelease@VCWinRSPluginConfigCache@@@@PAVCWinRSPluginConfigCache@@@@QAE@PAVCWinRSPluginConfigCache@@@Z
??0?$AutoCleanup@V?$AutoRelease@VCWinRSPluginConfigCache@@@@PAVCWinRSPluginConfigCache@@@@QAE@XZ
??0?$AutoCleanup@V?$AutoRelease@VCWinRSPluginConfigSettings@@@@PAVCWinRSPluginConfigSettings@@@@QAE@PAVCWinRSPluginConfigSettings@@@Z
??0?$AutoCleanup@V?$AutoRelease@VCommand@Client@WSMan@@@@PAVCommand@Client@WSMan@@@@QAE@PAVCommand@Client@WSMan@@@Z
??0?$AutoCleanup@V?$AutoRelease@VConfigNotification@@@@PAVConfigNotification@@@@QAE@PAVConfigNotification@@@Z
??0?$AutoCleanup@V?$AutoRelease@VConnectShellOperation@Client@WSMan@@@@PAVConnectShellOperation@Client@WSMan@@@@QAE@PAVConnectShellOperation@Client@WSMan@@@Z
??0?$AutoCleanup@V?$AutoRelease@VCreateShellOperation@Client@WSMan@@@@PAVCreateShellOperation@Client@WSMan@@@@QAE@PAVCreateShellOperation@Client@WSMan@@@Z
??0?$AutoCleanup@V?$AutoRelease@VDeleteShellOperation@Client@WSMan@@@@PAVDeleteShellOperation@Client@WSMan@@@@QAE@PAVDeleteShellOperation@Client@WSMan@@@Z
??0?$AutoCleanup@V?$AutoRelease@VDisconnectOperation@Client@WSMan@@@@PAVDisconnectOperation@Client@WSMan@@@@QAE@PAVDisconnectOperation@Client@WSMan@@@Z
??0?$AutoCleanup@V?$AutoRelease@VEnumSinkEx@@@@PAVEnumSinkEx@@@@QAE@PAVEnumSinkEx@@@Z
??0?$AutoCleanup@V?$AutoRelease@VEnumSinkEx@@@@PAVEnumSinkEx@@@@QAE@XZ
??0?$AutoCleanup@V?$AutoRelease@VGeneralSinkEx@@@@PAVGeneralSinkEx@@@@QAE@PAVGeneralSinkEx@@@Z
??0?$AutoCleanup@V?$AutoRelease@VGeneralSinkEx@@@@PAVGeneralSinkEx@@@@QAE@XZ
??0?$AutoCleanup@V?$AutoRelease@VIISConfigSettings@@@@PAVIISConfigSettings@@@@QAE@PAVIISConfigSettings@@@Z
??0?$AutoCleanup@V?$AutoRelease@VIPCSoapProcessor@@@@PAVIPCSoapProcessor@@@@QAE@PAVIPCSoapProcessor@@@Z
??0?$AutoCleanup@V?$AutoRelease@VIRequestContext@@@@PAVIRequestContext@@@@QAE@PAVIRequestContext@@@Z
??0?$AutoCleanup@V?$AutoRelease@VIRequestContext@@@@PAVIRequestContext@@@@QAE@XZ
??0?$AutoCleanup@V?$AutoRelease@VISubscription@@@@PAVISubscription@@@@QAE@PAVISubscription@@@Z
??0?$AutoCleanup@V?$AutoRelease@VInboundRequestDetails@@@@PAVInboundRequestDetails@@@@QAE@PAVInboundRequestDetails@@@Z
??0?$AutoCleanup@V?$AutoRelease@VReceiveOperation@Client@WSMan@@@@PAVReceiveOperation@Client@WSMan@@@@QAE@PAVReceiveOperation@Client@WSMan@@@Z
??0?$AutoCleanup@V?$AutoRelease@VReconnectOperation@Client@WSMan@@@@PAVReconnectOperation@Client@WSMan@@@@QAE@PAVReconnectOperation@Client@WSMan@@@Z
??0?$AutoCleanup@V?$AutoRelease@VSendOperation@Client@WSMan@@@@PAVSendOperation@Client@WSMan@@@@QAE@PAVSendOperation@Client@WSMan@@@Z
??0?$AutoCleanup@V?$AutoRelease@VShell@Client@WSMan@@@@PAVShell@Client@WSMan@@@@QAE@PAVShell@Client@WSMan@@@Z
??0?$AutoCleanup@V?$AutoRelease@VShellInfo@@@@PAVShellInfo@@@@QAE@PAVShellInfo@@@Z
??0?$AutoCleanup@V?$AutoRelease@VSignalOperation@Client@WSMan@@@@PAVSignalOperation@Client@WSMan@@@@QAE@PAVSignalOperation@Client@WSMan@@@Z
??0?$AutoCleanup@V?$AutoRelease@VUserRecord@@@@PAVUserRecord@@@@QAE@PAVUserRecord@@@Z
??0?$AutoCleanup@V?$AutoRelease@VWSManHttpListener@@@@PAVWSManHttpListener@@@@QAE@PAVWSManHttpListener@@@Z
??0?$AutoCleanup@V?$AutoReleaseEx@VHostMappingTableEntry@@@@PAVHostMappingTableEntry@@@@QAE@PAVHostMappingTableEntry@@@Z
??0?$AutoCleanup@V?$AutoReleaseEx@VShell@Client@WSMan@@@@PAVShell@Client@WSMan@@@@QAE@PAVShell@Client@WSMan@@@Z
??0?$AutoCleanup@VAutoBstr@@PAG@@QAE@PAG@Z
??0?$AutoCleanup@VAutoBstr@@PAG@@QAE@XZ
??0?$AutoCleanup@VAutoBstrNoAlloc@@PAG@@QAE@PAG@Z
??0?$AutoCleanup@VAutoBstrNoAlloc@@PAG@@QAE@XZ
??0?$AutoCleanup@VAutoCertContext@@PBU_CERT_CONTEXT@@@@QAE@PBU_CERT_CONTEXT@@@Z
??0?$AutoCleanup@VAutoCertContext@@PBU_CERT_CONTEXT@@@@QAE@XZ
??0?$AutoCleanup@VAutoChainContext@@PBU_CERT_CHAIN_CONTEXT@@@@QAE@PBU_CERT_CHAIN_CONTEXT@@@Z
??0?$AutoCleanup@VAutoChainContext@@PBU_CERT_CHAIN_CONTEXT@@@@QAE@XZ
??0?$AutoCleanup@VAutoCoTaskMemFree@@PAX@@QAE@PAX@Z
??0?$AutoCleanup@VAutoCoTaskMemFree@@PAX@@QAE@XZ
??0?$AutoCleanup@VAutoFwXmlCloseParser@@PAX@@QAE@PAX@Z
??0?$AutoCleanup@VAutoFwXmlCloseParser@@PAX@@QAE@XZ
??0?$AutoCleanup@VAutoHandle@@PAX@@QAE@PAX@Z
??0?$AutoCleanup@VAutoHandle@@PAX@@QAE@XZ
??0?$AutoCleanup@VAutoImpersonateUser@@PAX@@QAE@PAX@Z
??0?$AutoCleanup@VAutoImpersonateUser@@PAX@@QAE@XZ
??0?$AutoCleanup@VAutoLibrary@@PAUHINSTANCE__@@@@QAE@PAUHINSTANCE__@@@Z
??0?$AutoCleanup@VAutoLibrary@@PAUHINSTANCE__@@@@QAE@XZ
??0?$AutoCleanup@VAutoLocalFree@@PAX@@QAE@PAX@Z
??0?$AutoCleanup@VAutoLocalFree@@PAX@@QAE@XZ
??0?$AutoCleanup@VAutoMIClass@@PAU_MI_Class@@@@QAE@PAU_MI_Class@@@Z
??0?$AutoCleanup@VAutoMIClass@@PAU_MI_Class@@@@QAE@XZ
??0?$AutoCleanup@VAutoMIInstance@@PAU_MI_Instance@@@@QAE@PAU_MI_Instance@@@Z
??0?$AutoCleanup@VAutoMIInstance@@PAU_MI_Instance@@@@QAE@XZ
??0?$AutoCleanup@VAutoObject@@PAUWSMAN_OBJECT@@@@QAE@PAUWSMAN_OBJECT@@@Z
??0?$AutoCleanup@VAutoObject@@PAUWSMAN_OBJECT@@@@QAE@XZ
??0?$AutoCleanup@VAutoRegKey@@PAUHKEY__@@@@QAE@PAUHKEY__@@@Z
??0?$AutoCleanup@VAutoRegKey@@PAUHKEY__@@@@QAE@XZ
??0?$AutoCleanup@VAutoSecurityDescriptor@@PAX@@QAE@PAX@Z
??0?$AutoCleanup@VAutoSecurityDescriptor@@PAX@@QAE@XZ
??0?$AutoCleanup@VAutoWaitHandle@@PAX@@QAE@PAX@Z
??0?$AutoCleanup@VAutoWaitHandle@@PAX@@QAE@XZ
??0?$AutoDelete@D@@QAE@XZ
??0?$AutoDelete@G@@QAE@PAG@Z
??0?$AutoDelete@G@@QAE@XZ
??0?$AutoDelete@UIPRange@CWSManIPFilter@@@@QAE@XZ
??0?$AutoDelete@U_SID@@@@QAE@PAU_SID@@@Z
??0?$AutoDelete@U_WSMAN_STREAM_ID_SET@@@@QAE@PAU_WSMAN_STREAM_ID_SET@@@Z
??0?$AutoDelete@V?$Handle@VISubscription@@@@@@QAE@PAV?$Handle@VISubscription@@@@@Z
??0?$AutoDelete@V?$SafeMap_Iterator@VStringKeyCI@@K@@@@QAE@XZ
??0?$AutoDelete@V?$SafeMap_Iterator@W4WSManSessionOption@@PAVOptionValue@SessionOptions@Client@WSMan@@@@@@QAE@XZ
??0?$AutoDelete@V?$SafeSet@PAVCCertMapping@@@@@@QAE@PAV?$SafeSet@PAVCCertMapping@@@@@Z
??0?$AutoDelete@V?$SafeSet@PAVCCertMapping@@@@@@QAE@XZ
??0?$AutoDelete@V?$SafeSet@PAVCShellUriSettings@@@@@@QAE@PAV?$SafeSet@PAVCShellUriSettings@@@@@Z
??0?$AutoDelete@V?$SafeSet@PAVCShellUriSettings@@@@@@QAE@XZ
??0?$AutoDelete@V?$SafeSet_Iterator@PAVCListenerOperation@@@@@@QAE@XZ
??0?$AutoDelete@V?$SimpleStack@VCListenerOperation@@@@@@QAE@XZ
??0?$AutoDelete@V?$SimpleStack@VShellHostEntry@@@@@@QAE@XZ
??0?$AutoDelete@V?$set@PAVCListenerSettings@@VCListenerSettingsLessFunctor@CServiceConfigSettings@@V?$transport_allocator@PAVCListenerSettings@@@@@std@@@@QAE@PAV?$set@PAVCListenerSettings@@VCListenerSettingsLessFunctor@CServiceConfigSettings@@V?$transport_allocator@PAVCListenerSettings@@@@@std@@@Z
??0?$AutoDelete@V?$set@PAVCListenerSettings@@VCListenerSettingsLessFunctor@CServiceConfigSettings@@V?$transport_allocator@PAVCListenerSettings@@@@@std@@@@QAE@XZ
??0?$AutoDelete@V?$set@Usockaddr_storage@@VSockAddrLessFunctor@CListenerSettings@@V?$transport_allocator@Usockaddr_storage@@@@@std@@@@QAE@XZ
??0?$AutoDelete@V?$vector@PAVHandleImpl@Client@WSMan@@V?$transport_allocator@PAVHandleImpl@Client@WSMan@@@@@std@@@@QAE@XZ
??0?$AutoDelete@V?$vector@PAVIServiceConfigObserver@@V?$transport_allocator@PAVIServiceConfigObserver@@@@@std@@@@QAE@XZ
??0?$AutoDelete@VAdminSid@CSecurity@@@@QAE@PAVAdminSid@CSecurity@@@Z
??0?$AutoDelete@VBlockedRecord@@@@QAE@XZ
??0?$AutoDelete@VCBaseConfigCache@@@@QAE@PAVCBaseConfigCache@@@Z
??0?$AutoDelete@VCCertMapping@@@@QAE@PAVCCertMapping@@@Z
??0?$AutoDelete@VCConfigChangeSource@@@@QAE@XZ
??0?$AutoDelete@VCListenerSettings@@@@QAE@PAVCListenerSettings@@@Z
??0?$AutoDelete@VCObserverConfigChangeErrors@@@@QAE@XZ
??0?$AutoDelete@VCServiceWatcher@CServiceConfigCache@@@@QAE@PAVCServiceWatcher@CServiceConfigCache@@@Z
??0?$AutoDelete@VCServiceWatcher@CServiceConfigCache@@@@QAE@XZ
??0?$AutoDelete@VCShellUriSettings@@@@QAE@PAVCShellUriSettings@@@Z
??0?$AutoDelete@VCWSManEPR@@@@QAE@PAVCWSManEPR@@@Z
??0?$AutoDelete@VCWSManResource@@@@QAE@PAVCWSManResource@@@Z
??0?$AutoDelete@VCWSManResource@@@@QAE@XZ
??0?$AutoDelete@VCertHash@@@@QAE@PAVCertHash@@@Z
??0?$AutoDelete@VCertHash@@@@QAE@XZ
??0?$AutoDelete@VConfigUpdate@@@@QAE@PAVConfigUpdate@@@Z
??0?$AutoDelete@VConfigUpdate@@@@QAE@XZ
??0?$AutoDelete@VEnumSinkEx@@@@QAE@PAVEnumSinkEx@@@Z
??0?$AutoDelete@VEnumSinkEx@@@@QAE@XZ
??0?$AutoDelete@VEventHandler@WSMan@@@@QAE@PAVEventHandler@WSMan@@@Z
??0?$AutoDelete@VExpiredOperationIdRecord@@@@QAE@PAVExpiredOperationIdRecord@@@Z
??0?$AutoDelete@VGPApiManager@@@@QAE@XZ
??0?$AutoDelete@VGeneralSinkEx@@@@QAE@PAVGeneralSinkEx@@@Z
??0?$AutoDelete@VGeneralSinkEx@@@@QAE@XZ
??0?$AutoDelete@VIChannelObserverFactory@@@@QAE@PAVIChannelObserverFactory@@@Z
??0?$AutoDelete@VIChannelObserverFactory@@@@QAE@XZ
??0?$AutoDelete@VIQueryDASHSMASHInterface@@@@QAE@PAVIQueryDASHSMASHInterface@@@Z
??0?$AutoDelete@VIQueryDASHSMASHInterface@@@@QAE@XZ
??0?$AutoDelete@VISpecification@@@@QAE@PAVISpecification@@@Z
??0?$AutoDelete@VISpecification@@@@QAE@XZ
??0?$AutoDelete@VInteractiveSid@CSecurity@@@@QAE@PAVInteractiveSid@CSecurity@@@Z
??0?$AutoDelete@VIpHlpApiDllLoader@@@@QAE@PAVIpHlpApiDllLoader@@@Z
??0?$AutoDelete@VMachineName@@@@QAE@PAVMachineName@@@Z
??0?$AutoDelete@VNetworkServiceSid@CSecurity@@@@QAE@PAVNetworkServiceSid@CSecurity@@@Z
??0?$AutoDelete@VNtDsApiDllLoader@@@@QAE@PAVNtDsApiDllLoader@@@Z
??0?$AutoDelete@VOptionValue@SessionOptions@Client@WSMan@@@@QAE@PAVOptionValue@SessionOptions@Client@WSMan@@@Z
??0?$AutoDelete@VPacketCreator@@@@QAE@PAVPacketCreator@@@Z
??0?$AutoDelete@VPacketCreator@@@@QAE@XZ
??0?$AutoDelete@VPacketParser@@@@QAE@XZ
??0?$AutoDelete@VResources@Locale@@@@QAE@PAVResources@Locale@@@Z
??0?$AutoDelete@VRunAsConfiguration@@@@QAE@PAVRunAsConfiguration@@@Z
??0?$AutoDelete@VSecurityEntry@Catalog@@@@QAE@PAVSecurityEntry@Catalog@@@Z
??0?$AutoDelete@VSendPacketArgs@RobustConnectionBuffer@@@@QAE@PAVSendPacketArgs@RobustConnectionBuffer@@@Z
??0?$AutoDelete@VServiceSoapProcessor@@@@QAE@XZ
??0?$AutoDelete@VShell32DllLoader@@@@QAE@PAVShell32DllLoader@@@Z
??0?$AutoDelete@VShlWApiDllLoader@@@@QAE@PAVShlWApiDllLoader@@@Z
??0?$AutoDelete@VSubscriptionEnumerator@@@@QAE@XZ
??0?$AutoDelete@VSubscriptionManager@@@@QAE@PAVSubscriptionManager@@@Z
??0?$AutoDelete@VTSTRBUFFER@@@@QAE@PAVTSTRBUFFER@@@Z
??0?$AutoDelete@VTSTRBUFFER@@@@QAE@XZ
??0?$AutoDelete@VUniqueStringOverflow@@@@QAE@XZ
??0?$AutoDelete@VUser32DllLoader@@@@QAE@PAVUser32DllLoader@@@Z
??0?$AutoDelete@VWSMANCONFIGTABLE_IDENTITY@@@@QAE@PAVWSMANCONFIGTABLE_IDENTITY@@@Z
??0?$AutoDelete@VWSManMemCryptManager@@@@QAE@PAVWSManMemCryptManager@@@Z
??0?$AutoDelete@VWmiEnumContext@@@@QAE@PAVWmiEnumContext@@@Z
??0?$AutoDelete@VWmiEnumContext@@@@QAE@XZ
??0?$AutoDelete@VXmlReader@@@@QAE@PAVXmlReader@@@Z
??0?$AutoDelete@VXmlReader@@@@QAE@XZ
??0?$AutoDeleteVector@$$CBG@@QAE@XZ
??0?$AutoDeleteVector@D@@QAE@PAD@Z
??0?$AutoDeleteVector@D@@QAE@XZ
??0?$AutoDeleteVector@E@@QAE@PAE@Z
??0?$AutoDeleteVector@E@@QAE@XZ
??0?$AutoDeleteVector@G@@QAE@PAG@Z
??0?$AutoDeleteVector@G@@QAE@XZ
??0?$AutoDeleteVector@H@@QAE@PAH@Z
??0?$AutoDeleteVector@PAG@@QAE@PAPAG@Z
??0?$AutoDeleteVector@PAG@@QAE@XZ
??0?$AutoDeleteVector@PBG@@QAE@PAPBG@Z
??0?$AutoDeleteVector@PBG@@QAE@XZ
??0?$AutoDeleteVector@U_CONFIG_UPDATE@@@@QAE@XZ
??0?$AutoDeleteVector@U_WINRS_CREATE_SHELL_ENVIRONMENT_VARIABLE@@@@QAE@PAU_WINRS_CREATE_SHELL_ENVIRONMENT_VARIABLE@@@Z
??0?$AutoDeleteVector@U_WINRS_CREATE_SHELL_ENVIRONMENT_VARIABLE@@@@QAE@XZ
??0?$AutoDeleteVector@U_WINRS_RUN_COMMAND_ARG@@@@QAE@PAU_WINRS_RUN_COMMAND_ARG@@@Z
??0?$AutoDeleteVector@U_WINRS_RUN_COMMAND_ARG@@@@QAE@XZ
??0?$AutoDeleteVector@U_WSMAN_OPTION@@@@QAE@PAU_WSMAN_OPTION@@@Z
??0?$AutoDeleteVector@U_WSMAN_OPTION@@@@QAE@XZ
??0?$AutoDeleteVector@X@@QAE@PAX@Z
??0?$AutoDeleteVector@X@@QAE@XZ
??0?$AutoFree@E@@QAE@PAE@Z
??0?$AutoFree@E@@QAE@XZ
??0?$AutoLocklessItemRecycle@VPacket@@@@QAE@PAVPacket@@@Z
??0?$AutoLocklessItemRecycle@VPacket@@@@QAE@XZ
??0?$AutoRelease@UIAppHostAdminManager@@@@QAE@PAUIAppHostAdminManager@@@Z
??0?$AutoRelease@UIAppHostChildElementCollection@@@@QAE@XZ
??0?$AutoRelease@UIAppHostConfigException@@@@QAE@PAUIAppHostConfigException@@@Z
??0?$AutoRelease@UIAppHostElement@@@@QAE@PAUIAppHostElement@@@Z
??0?$AutoRelease@UIAppHostElement@@@@QAE@XZ
??0?$AutoRelease@UIAppHostElementCollection@@@@QAE@XZ
??0?$AutoRelease@UIAppHostProperty@@@@QAE@XZ
??0?$AutoRelease@UIAppHostPropertyCollection@@@@QAE@XZ
??0?$AutoRelease@UIClientSecurity@@@@QAE@PAUIClientSecurity@@@Z
??0?$AutoRelease@UIClientSecurity@@@@QAE@XZ
??0?$AutoRelease@UIEnumWbemClassObject@@@@QAE@PAUIEnumWbemClassObject@@@Z
??0?$AutoRelease@UIEnumWbemClassObject@@@@QAE@XZ
??0?$AutoRelease@UIErrorInfo@@@@QAE@PAUIErrorInfo@@@Z
??0?$AutoRelease@UIErrorInfo@@@@QAE@XZ
??0?$AutoRelease@UIUnknown@@@@QAE@PAUIUnknown@@@Z
??0?$AutoRelease@UIUnknown@@@@QAE@XZ
??0?$AutoRelease@UIWbemClassObject@@@@QAE@PAUIWbemClassObject@@@Z
??0?$AutoRelease@UIWbemClassObject@@@@QAE@XZ
??0?$AutoRelease@UIWbemContext@@@@QAE@PAUIWbemContext@@@Z
??0?$AutoRelease@UIWbemContext@@@@QAE@XZ
??0?$AutoRelease@UIWbemLocator@@@@QAE@PAUIWbemLocator@@@Z
??0?$AutoRelease@UIWbemLocator@@@@QAE@XZ
??0?$AutoRelease@UIWbemObjectTextSrc@@@@QAE@PAUIWbemObjectTextSrc@@@Z
??0?$AutoRelease@UIWbemObjectTextSrc@@@@QAE@XZ
??0?$AutoRelease@UIWbemPath@@@@QAE@PAUIWbemPath@@@Z
??0?$AutoRelease@UIWbemPath@@@@QAE@XZ
??0?$AutoRelease@UIWbemPathKeyList@@@@QAE@PAUIWbemPathKeyList@@@Z
??0?$AutoRelease@UIWbemPathKeyList@@@@QAE@XZ
??0?$AutoRelease@UIWbemQualifierSet@@@@QAE@PAUIWbemQualifierSet@@@Z
??0?$AutoRelease@UIWbemQualifierSet@@@@QAE@XZ
??0?$AutoRelease@UIWbemQuery@@@@QAE@PAUIWbemQuery@@@Z
??0?$AutoRelease@UIWbemQuery@@@@QAE@XZ
??0?$AutoRelease@UIWbemServices@@@@QAE@PAUIWbemServices@@@Z
??0?$AutoRelease@UIWbemServices@@@@QAE@XZ
??0?$AutoRelease@VApplication@Client@WSMan@@@@QAE@XZ
??0?$AutoRelease@VCBaseConfigCache@@@@QAE@PAVCBaseConfigCache@@@Z
??0?$AutoRelease@VCClientConfigSettings@@@@QAE@PAVCClientConfigSettings@@@Z
??0?$AutoRelease@VCClientConfigSettings@@@@QAE@XZ
??0?$AutoRelease@VCCommonConfigSettings@@@@QAE@PAVCCommonConfigSettings@@@Z
??0?$AutoRelease@VCCommonConfigSettings@@@@QAE@XZ
??0?$AutoRelease@VCConfigCacheMap@CBaseConfigCache@@@@QAE@PAVCConfigCacheMap@CBaseConfigCache@@@Z
??0?$AutoRelease@VCConfigCacheMap@CBaseConfigCache@@@@QAE@XZ
??0?$AutoRelease@VCConfigManager@@@@QAE@PAVCConfigManager@@@Z
??0?$AutoRelease@VCConfigManager@@@@QAE@XZ
??0?$AutoRelease@VCRemoteOperation@@@@QAE@PAVCRemoteOperation@@@Z
??0?$AutoRelease@VCRemoteSession@@@@QAE@PAVCRemoteSession@@@Z
??0?$AutoRelease@VCRemoteSession@@@@QAE@XZ
??0?$AutoRelease@VCRequestContext@@@@QAE@PAVCRequestContext@@@Z
??0?$AutoRelease@VCRequestContext@@@@QAE@XZ
??0?$AutoRelease@VCServiceCommonConfigSettings@@@@QAE@PAVCServiceCommonConfigSettings@@@Z
??0?$AutoRelease@VCServiceCommonConfigSettings@@@@QAE@XZ
??0?$AutoRelease@VCServiceConfigCache@@@@QAE@PAVCServiceConfigCache@@@Z
??0?$AutoRelease@VCServiceConfigCache@@@@QAE@XZ
??0?$AutoRelease@VCServiceConfigSettings@@@@QAE@PAVCServiceConfigSettings@@@Z
??0?$AutoRelease@VCServiceConfigSettings@@@@QAE@XZ
??0?$AutoRelease@VCWSManEPR@@@@QAE@PAVCWSManEPR@@@Z
??0?$AutoRelease@VCWSManEPR@@@@QAE@XZ
??0?$AutoRelease@VCWSManGroupPolicyCache@@@@QAE@PAVCWSManGroupPolicyCache@@@Z
??0?$AutoRelease@VCWSManGroupPolicyManager@@@@QAE@PAVCWSManGroupPolicyManager@@@Z
??0?$AutoRelease@VCWSManObject@@@@QAE@PAVCWSManObject@@@Z
??0?$AutoRelease@VCWSManResource@@@@QAE@PAVCWSManResource@@@Z
??0?$AutoRelease@VCWSManResource@@@@QAE@XZ
??0?$AutoRelease@VCWinRSPluginConfigCache@@@@QAE@PAVCWinRSPluginConfigCache@@@Z
??0?$AutoRelease@VCWinRSPluginConfigCache@@@@QAE@XZ
??0?$AutoRelease@VCWinRSPluginConfigSettings@@@@QAE@PAVCWinRSPluginConfigSettings@@@Z
??0?$AutoRelease@VCommand@Client@WSMan@@@@QAE@PAVCommand@Client@WSMan@@@Z
??0?$AutoRelease@VConfigNotification@@@@QAE@PAVConfigNotification@@@Z
??0?$AutoRelease@VConnectShellOperation@Client@WSMan@@@@QAE@PAVConnectShellOperation@Client@WSMan@@@Z
??0?$AutoRelease@VCreateShellOperation@Client@WSMan@@@@QAE@PAVCreateShellOperation@Client@WSMan@@@Z
??0?$AutoRelease@VDeleteShellOperation@Client@WSMan@@@@QAE@PAVDeleteShellOperation@Client@WSMan@@@Z
??0?$AutoRelease@VDisconnectOperation@Client@WSMan@@@@QAE@PAVDisconnectOperation@Client@WSMan@@@Z
??0?$AutoRelease@VEnumSinkEx@@@@QAE@PAVEnumSinkEx@@@Z
??0?$AutoRelease@VEnumSinkEx@@@@QAE@XZ
??0?$AutoRelease@VGeneralSinkEx@@@@QAE@PAVGeneralSinkEx@@@Z
??0?$AutoRelease@VGeneralSinkEx@@@@QAE@XZ
??0?$AutoRelease@VIISConfigSettings@@@@QAE@XZ
??0?$AutoRelease@VIPCSoapProcessor@@@@QAE@PAVIPCSoapProcessor@@@Z
??0?$AutoRelease@VIRequestContext@@@@QAE@PAVIRequestContext@@@Z
??0?$AutoRelease@VIRequestContext@@@@QAE@XZ
??0?$AutoRelease@VISubscription@@@@QAE@PAVISubscription@@@Z
??0?$AutoRelease@VInboundRequestDetails@@@@QAE@XZ
??0?$AutoRelease@VReceiveOperation@Client@WSMan@@@@QAE@PAVReceiveOperation@Client@WSMan@@@Z
??0?$AutoRelease@VReconnectOperation@Client@WSMan@@@@QAE@PAVReconnectOperation@Client@WSMan@@@Z
??0?$AutoRelease@VSendOperation@Client@WSMan@@@@QAE@PAVSendOperation@Client@WSMan@@@Z
??0?$AutoRelease@VShell@Client@WSMan@@@@QAE@PAVShell@Client@WSMan@@@Z
??0?$AutoRelease@VShellInfo@@@@QAE@XZ
??0?$AutoRelease@VSignalOperation@Client@WSMan@@@@QAE@PAVSignalOperation@Client@WSMan@@@Z
??0?$AutoRelease@VUserRecord@@@@QAE@XZ
??0?$AutoRelease@VWSManHttpListener@@@@QAE@PAVWSManHttpListener@@@Z
??0?$AutoReleaseEx@VHostMappingTableEntry@@@@QAE@XZ
??0?$AutoReleaseEx@VShell@Client@WSMan@@@@QAE@PAVShell@Client@WSMan@@@Z
??0?$ILoader@VAdminSid@CSecurity@@@@QAE@P8AdminSid@CSecurity@@AE_NAAVIRequestContext@@@Z1@Z
??0?$ILoader@VEventHandler@WSMan@@@@QAE@P8EventHandler@WSMan@@AE_NAAVIRequestContext@@@Z1@Z
??0?$ILoader@VInteractiveSid@CSecurity@@@@QAE@P8InteractiveSid@CSecurity@@AE_NAAVIRequestContext@@@Z1@Z
??0?$ILoader@VIpHlpApiDllLoader@@@@QAE@P8IpHlpApiDllLoader@@AE_NAAVIRequestContext@@@Z1@Z
??0?$ILoader@VMachineName@@@@QAE@P8MachineName@@AE_NAAVIRequestContext@@@Z1@Z
??0?$ILoader@VNetworkServiceSid@CSecurity@@@@QAE@P8NetworkServiceSid@CSecurity@@AE_NAAVIRequestContext@@@Z1@Z
??0?$ILoader@VNtDsApiDllLoader@@@@QAE@P8NtDsApiDllLoader@@AE_NAAVIRequestContext@@@Z1@Z
??0?$ILoader@VResources@Locale@@@@QAE@P8Resources@Locale@@AE_NAAVIRequestContext@@@Z1@Z
??0?$ILoader@VShell32DllLoader@@@@QAE@P8Shell32DllLoader@@AE_NAAVIRequestContext@@@Z1@Z
??0?$ILoader@VShlWApiDllLoader@@@@QAE@P8ShlWApiDllLoader@@AE_NAAVIRequestContext@@@Z1@Z
??0?$ILoader@VSubscriptionManager@@@@QAE@P8SubscriptionManager@@AE_NAAVIRequestContext@@@Z1@Z
??0?$ILoader@VUser32DllLoader@@@@QAE@P8User32DllLoader@@AE_NAAVIRequestContext@@@Z1@Z
??0?$ILoader@VWSManMemCryptManager@@@@QAE@P8WSManMemCryptManager@@AE_NAAVIRequestContext@@@Z1@Z
??0?$Loader@VAdminSid@CSecurity@@$00@@QAE@XZ
??0?$Loader@VEventHandler@WSMan@@$00@@QAE@XZ
??0?$Loader@VInteractiveSid@CSecurity@@$00@@QAE@XZ
??0?$Loader@VIpHlpApiDllLoader@@$00@@QAE@XZ
??0?$Loader@VMachineName@@$00@@QAE@XZ
??0?$Loader@VNetworkServiceSid@CSecurity@@$00@@QAE@XZ
??0?$Loader@VNtDsApiDllLoader@@$00@@QAE@XZ
??0?$Loader@VResources@Locale@@$0A@@@QAE@XZ
??0?$Loader@VShell32DllLoader@@$00@@QAE@XZ
??0?$Loader@VShlWApiDllLoader@@$00@@QAE@XZ
??0?$Loader@VUser32DllLoader@@$00@@QAE@XZ
??0?$Loader@VWSManMemCryptManager@@$00@@QAE@XZ
??0?$LoaderSerializer@VAdminSid@CSecurity@@$00@@QAE@P8AdminSid@CSecurity@@AE_NAAVIRequestContext@@@Z1@Z
??0?$LoaderSerializer@VEventHandler@WSMan@@$00@@QAE@P8EventHandler@WSMan@@AE_NAAVIRequestContext@@@Z1@Z
??0?$LoaderSerializer@VInteractiveSid@CSecurity@@$00@@QAE@P8InteractiveSid@CSecurity@@AE_NAAVIRequestContext@@@Z1@Z
??0?$LoaderSerializer@VIpHlpApiDllLoader@@$00@@QAE@P8IpHlpApiDllLoader@@AE_NAAVIRequestContext@@@Z1@Z
??0?$LoaderSerializer@VMachineName@@$00@@QAE@P8MachineName@@AE_NAAVIRequestContext@@@Z1@Z
??0?$LoaderSerializer@VNetworkServiceSid@CSecurity@@$00@@QAE@P8NetworkServiceSid@CSecurity@@AE_NAAVIRequestContext@@@Z1@Z
??0?$LoaderSerializer@VNtDsApiDllLoader@@$00@@QAE@P8NtDsApiDllLoader@@AE_NAAVIRequestContext@@@Z1@Z
??0?$LoaderSerializer@VResources@Locale@@$0A@@@QAE@P8Resources@Locale@@AE_NAAVIRequestContext@@@Z1@Z
??0?$LoaderSerializer@VShell32DllLoader@@$00@@QAE@P8Shell32DllLoader@@AE_NAAVIRequestContext@@@Z1@Z
??0?$LoaderSerializer@VShlWApiDllLoader@@$00@@QAE@P8ShlWApiDllLoader@@AE_NAAVIRequestContext@@@Z1@Z
??0?$LoaderSerializer@VSubscriptionManager@@$01@@QAE@P8SubscriptionManager@@AE_NAAVIRequestContext@@@Z1@Z
??0?$LoaderSerializer@VUser32DllLoader@@$00@@QAE@P8User32DllLoader@@AE_NAAVIRequestContext@@@Z1@Z
??0?$LoaderSerializer@VWSManMemCryptManager@@$00@@QAE@P8WSManMemCryptManager@@AE_NAAVIRequestContext@@@Z1@Z
??0?$PacketElement@K@PacketParser@@QAE@XZ
??0?$PacketElement@PAU_FWXML_ELEMENT@@@PacketParser@@QAE@XZ
??0?$PacketElement@PBG@PacketParser@@QAE@XZ
??0?$PacketElement@_K@PacketParser@@QAE@XZ
??0?$SafeMap@PAVCCertMapping@@UEmpty@@V?$SafeSet_Iterator@PAVCCertMapping@@@@@@QAE@XZ
??0?$SafeMap@PAVCListenerOperation@@UEmpty@@V?$SafeSet_Iterator@PAVCListenerOperation@@@@@@QAE@XZ
??0?$SafeMap@PAVCShellUriSettings@@UEmpty@@V?$SafeSet_Iterator@PAVCShellUriSettings@@@@@@QAE@XZ
??0?$SafeMap@PAXUEmpty@@V?$SafeSet_Iterator@PAX@@@@QAE@XZ
??0?$SafeMap@UPluginKey@@KV?$SafeMap_Iterator@UPluginKey@@K@@@@QAE@XZ
??0?$SafeMap@UUserKey@@PAVBlockedRecord@@V?$SafeMap_Iterator@UUserKey@@PAVBlockedRecord@@@@@@QAE@XZ
??0?$SafeMap@VCertThumbprintKey@@VCertThumbprintMappedSet@CServiceConfigSettings@@V?$SafeMap_Iterator@VCertThumbprintKey@@VCertThumbprintMappedSet@CServiceConfigSettings@@@@@@QAE@XZ
??0?$SafeMap@VKey@Locale@@KV?$SafeMap_Iterator@VKey@Locale@@K@@@@QAE@XZ
??0?$SafeMap@VStringKeyCI@@KV?$SafeMap_Iterator@VStringKeyCI@@K@@@@QAE@XZ
??0?$SafeMap@VStringKeyCI@@UUSER_CONTEXT_INFO@WSManHttpListener@@V?$SafeMap_Iterator@VStringKeyCI@@UUSER_CONTEXT_INFO@WSManHttpListener@@@@@@QAE@XZ
??0?$SafeMap@VStringKeyStore@@PAVExpiredOperationIdRecord@@V?$SafeMap_Iterator@VStringKeyStore@@PAVExpiredOperationIdRecord@@@@@@QAE@XZ
??0?$SafeMap@VStringKeyStore@@PAVServerFullDuplexChannel@@V?$SafeMap_Iterator@VStringKeyStore@@PAVServerFullDuplexChannel@@@@@@QAE@XZ
??0?$SafeMap@W4WSManSessionOption@@PAVOptionValue@SessionOptions@Client@WSMan@@V?$SafeMap_Iterator@W4WSManSessionOption@@PAVOptionValue@SessionOptions@Client@WSMan@@@@@@QAE@XZ
??0?$SafeMap@_KPAVSendPacketArgs@RobustConnectionBuffer@@V?$SafeMap_Iterator@_KPAVSendPacketArgs@RobustConnectionBuffer@@@@@@QAE@XZ
??0?$SafeMap_Iterator@PAVCCertMapping@@UEmpty@@@@QAE@AAV?$SafeMap@PAVCCertMapping@@UEmpty@@V?$SafeMap_Iterator@PAVCCertMapping@@UEmpty@@@@@@_N@Z
??0?$SafeMap_Iterator@PAVCListenerOperation@@UEmpty@@@@QAE@AAV?$SafeMap@PAVCListenerOperation@@UEmpty@@V?$SafeMap_Iterator@PAVCListenerOperation@@UEmpty@@@@@@_N@Z
??0?$SafeMap_Iterator@PAVCShellUriSettings@@UEmpty@@@@QAE@AAV?$SafeMap@PAVCShellUriSettings@@UEmpty@@V?$SafeMap_Iterator@PAVCShellUriSettings@@UEmpty@@@@@@_N@Z
??0?$SafeMap_Iterator@PAXUEmpty@@@@QAE@AAV?$SafeMap@PAXUEmpty@@V?$SafeMap_Iterator@PAXUEmpty@@@@@@_N@Z
??0?$SafeMap_Iterator@UPluginKey@@K@@QAE@AAV?$SafeMap@UPluginKey@@KV?$SafeMap_Iterator@UPluginKey@@K@@@@_N@Z
??0?$SafeMap_Iterator@UUserKey@@PAVBlockedRecord@@@@QAE@AAV?$SafeMap@UUserKey@@PAVBlockedRecord@@V?$SafeMap_Iterator@UUserKey@@PAVBlockedRecord@@@@@@_N@Z
??0?$SafeMap_Iterator@VCertThumbprintKey@@VCertThumbprintMappedSet@CServiceConfigSettings@@@@QAE@AAV?$SafeMap@VCertThumbprintKey@@VCertThumbprintMappedSet@CServiceConfigSettings@@V?$SafeMap_Iterator@VCertThumbprintKey@@VCertThumbprintMappedSet@CServiceConfigSettings@@@@@@_N@Z
??0?$SafeMap_Iterator@VKey@Locale@@K@@QAE@AAV?$SafeMap@VKey@Locale@@KV?$SafeMap_Iterator@VKey@Locale@@K@@@@_N@Z
??0?$SafeMap_Iterator@VStringKeyCI@@K@@QAE@AAV?$SafeMap@VStringKeyCI@@KV?$SafeMap_Iterator@VStringKeyCI@@K@@@@_N@Z
??0?$SafeMap_Iterator@VStringKeyCI@@UUSER_CONTEXT_INFO@WSManHttpListener@@@@QAE@AAV?$SafeMap@VStringKeyCI@@UUSER_CONTEXT_INFO@WSManHttpListener@@V?$SafeMap_Iterator@VStringKeyCI@@UUSER_CONTEXT_INFO@WSManHttpListener@@@@@@_N@Z
??0?$SafeMap_Iterator@VStringKeyStore@@PAVExpiredOperationIdRecord@@@@QAE@AAV?$SafeMap@VStringKeyStore@@PAVExpiredOperationIdRecord@@V?$SafeMap_Iterator@VStringKeyStore@@PAVExpiredOperationIdRecord@@@@@@_N@Z
??0?$SafeMap_Iterator@VStringKeyStore@@PAVServerFullDuplexChannel@@@@QAE@AAV?$SafeMap@VStringKeyStore@@PAVServerFullDuplexChannel@@V?$SafeMap_Iterator@VStringKeyStore@@PAVServerFullDuplexChannel@@@@@@_N@Z
??0?$SafeMap_Iterator@W4WSManSessionOption@@PAVOptionValue@SessionOptions@Client@WSMan@@@@QAE@AAV?$SafeMap@W4WSManSessionOption@@PAVOptionValue@SessionOptions@Client@WSMan@@V?$SafeMap_Iterator@W4WSManSessionOption@@PAVOptionValue@SessionOptions@Client@WSMan@@@@@@_N@Z
??0?$SafeMap_Iterator@_KPAVSendPacketArgs@RobustConnectionBuffer@@@@QAE@AAV?$SafeMap@_KPAVSendPacketArgs@RobustConnectionBuffer@@V?$SafeMap_Iterator@_KPAVSendPacketArgs@RobustConnectionBuffer@@@@@@_N@Z
??0?$SafeMap_Lock@PAVCCertMapping@@UEmpty@@V?$SafeMap_Iterator@PAVCCertMapping@@UEmpty@@@@@@QAE@ABV?$SafeMap@PAVCCertMapping@@UEmpty@@V?$SafeMap_Iterator@PAVCCertMapping@@UEmpty@@@@@@_N@Z
??0?$SafeMap_Lock@PAVCCertMapping@@UEmpty@@V?$SafeSet_Iterator@PAVCCertMapping@@@@@@QAE@ABV?$SafeMap@PAVCCertMapping@@UEmpty@@V?$SafeSet_Iterator@PAVCCertMapping@@@@@@_N@Z
??0?$SafeMap_Lock@PAVCListenerOperation@@UEmpty@@V?$SafeMap_Iterator@PAVCListenerOperation@@UEmpty@@@@@@QAE@ABV?$SafeMap@PAVCListenerOperation@@UEmpty@@V?$SafeMap_Iterator@PAVCListenerOperation@@UEmpty@@@@@@_N@Z
??0?$SafeMap_Lock@PAVCListenerOperation@@UEmpty@@V?$SafeSet_Iterator@PAVCListenerOperation@@@@@@QAE@ABV?$SafeMap@PAVCListenerOperation@@UEmpty@@V?$SafeSet_Iterator@PAVCListenerOperation@@@@@@_N@Z
??0?$SafeMap_Lock@PAVCShellUriSettings@@UEmpty@@V?$SafeMap_Iterator@PAVCShellUriSettings@@UEmpty@@@@@@QAE@ABV?$SafeMap@PAVCShellUriSettings@@UEmpty@@V?$SafeMap_Iterator@PAVCShellUriSettings@@UEmpty@@@@@@_N@Z
??0?$SafeMap_Lock@PAVCShellUriSettings@@UEmpty@@V?$SafeSet_Iterator@PAVCShellUriSettings@@@@@@QAE@ABV?$SafeMap@PAVCShellUriSettings@@UEmpty@@V?$SafeSet_Iterator@PAVCShellUriSettings@@@@@@_N@Z
??0?$SafeMap_Lock@PAXUEmpty@@V?$SafeMap_Iterator@PAXUEmpty@@@@@@QAE@ABV?$SafeMap@PAXUEmpty@@V?$SafeMap_Iterator@PAXUEmpty@@@@@@_N@Z
??0?$SafeMap_Lock@PAXUEmpty@@V?$SafeSet_Iterator@PAX@@@@QAE@ABV?$SafeMap@PAXUEmpty@@V?$SafeSet_Iterator@PAX@@@@_N@Z
??0?$SafeMap_Lock@UPluginKey@@KV?$SafeMap_Iterator@UPluginKey@@K@@@@QAE@ABV?$SafeMap@UPluginKey@@KV?$SafeMap_Iterator@UPluginKey@@K@@@@_N@Z
??0?$SafeMap_Lock@UUserKey@@PAVBlockedRecord@@V?$SafeMap_Iterator@UUserKey@@PAVBlockedRecord@@@@@@QAE@ABV?$SafeMap@UUserKey@@PAVBlockedRecord@@V?$SafeMap_Iterator@UUserKey@@PAVBlockedRecord@@@@@@_N@Z
??0?$SafeMap_Lock@VCertThumbprintKey@@VCertThumbprintMappedSet@CServiceConfigSettings@@V?$SafeMap_Iterator@VCertThumbprintKey@@VCertThumbprintMappedSet@CServiceConfigSettings@@@@@@QAE@ABV?$SafeMap@VCertThumbprintKey@@VCertThumbprintMappedSet@CServiceConfigSettings@@V?$SafeMap_Iterator@VCertThumbprintKey@@VCertThumbprintMappedSet@CServiceConfigSettings@@@@@@_N@Z
??0?$SafeMap_Lock@VKey@Locale@@KV?$SafeMap_Iterator@VKey@Locale@@K@@@@QAE@ABV?$SafeMap@VKey@Locale@@KV?$SafeMap_Iterator@VKey@Locale@@K@@@@_N@Z
??0?$SafeMap_Lock@VStringKeyCI@@KV?$SafeMap_Iterator@VStringKeyCI@@K@@@@QAE@ABV?$SafeMap@VStringKeyCI@@KV?$SafeMap_Iterator@VStringKeyCI@@K@@@@_N@Z
??0?$SafeMap_Lock@VStringKeyCI@@UEmpty@@V?$SafeSet_Iterator@VStringKeyCI@@@@@@QAE@ABV?$SafeMap@VStringKeyCI@@UEmpty@@V?$SafeSet_Iterator@VStringKeyCI@@@@@@_N@Z
??0?$SafeMap_Lock@VStringKeyCI@@UUSER_CONTEXT_INFO@WSManHttpListener@@V?$SafeMap_Iterator@VStringKeyCI@@UUSER_CONTEXT_INFO@WSManHttpListener@@@@@@QAE@ABV?$SafeMap@VStringKeyCI@@UUSER_CONTEXT_INFO@WSManHttpListener@@V?$SafeMap_Iterator@VStringKeyCI@@UUSER_CONTEXT_INFO@WSManHttpListener@@@@@@_N@Z
??0?$SafeMap_Lock@VStringKeyStore@@PAVExpiredOperationIdRecord@@V?$SafeMap_Iterator@VStringKeyStore@@PAVExpiredOperationIdRecord@@@@@@QAE@ABV?$SafeMap@VStringKeyStore@@PAVExpiredOperationIdRecord@@V?$SafeMap_Iterator@VStringKeyStore@@PAVExpiredOperationIdRecord@@@@@@_N@Z
??0?$SafeMap_Lock@VStringKeyStore@@PAVServerFullDuplexChannel@@V?$SafeMap_Iterator@VStringKeyStore@@PAVServerFullDuplexChannel@@@@@@QAE@ABV?$SafeMap@VStringKeyStore@@PAVServerFullDuplexChannel@@V?$SafeMap_Iterator@VStringKeyStore@@PAVServerFullDuplexChannel@@@@@@_N@Z
??0?$SafeMap_Lock@W4WSManSessionOption@@PAVOptionValue@SessionOptions@Client@WSMan@@V?$SafeMap_Iterator@W4WSManSessionOption@@PAVOptionValue@SessionOptions@Client@WSMan@@@@@@QAE@ABV?$SafeMap@W4WSManSessionOption@@PAVOptionValue@SessionOptions@Client@WSMan@@V?$SafeMap_Iterator@W4WSManSessionOption@@PAVOptionValue@SessionOptions@Client@WSMan@@@@@@_N@Z
??0?$SafeMap_Lock@_KPAVSendPacketArgs@RobustConnectionBuffer@@V?$SafeMap_Iterator@_KPAVSendPacketArgs@RobustConnectionBuffer@@@@@@QAE@ABV?$SafeMap@_KPAVSendPacketArgs@RobustConnectionBuffer@@V?$SafeMap_Iterator@_KPAVSendPacketArgs@RobustConnectionBuffer@@@@@@_N@Z
??0?$SafeSet@PAVCCertMapping@@@@QAE@XZ
??0?$SafeSet@PAVCListenerOperation@@@@QAE@XZ
??0?$SafeSet@PAVCShellUriSettings@@@@QAE@XZ
??0?$SafeSet@PAX@@QAE@XZ
??0?$SafeSet_Iterator@PAVCCertMapping@@@@QAE@AAV?$SafeMap@PAVCCertMapping@@UEmpty@@V?$SafeSet_Iterator@PAVCCertMapping@@@@@@_N@Z
??0?$SafeSet_Iterator@PAVCCertMapping@@@@QAE@AAV?$SafeSet@PAVCCertMapping@@@@@Z
??0?$SafeSet_Iterator@PAVCListenerOperation@@@@QAE@AAV?$SafeMap@PAVCListenerOperation@@UEmpty@@V?$SafeSet_Iterator@PAVCListenerOperation@@@@@@_N@Z
??0?$SafeSet_Iterator@PAVCListenerOperation@@@@QAE@AAV?$SafeSet@PAVCListenerOperation@@@@@Z
??0?$SafeSet_Iterator@PAVCShellUriSettings@@@@QAE@AAV?$SafeMap@PAVCShellUriSettings@@UEmpty@@V?$SafeSet_Iterator@PAVCShellUriSettings@@@@@@_N@Z
??0?$SafeSet_Iterator@PAX@@QAE@AAV?$SafeMap@PAXUEmpty@@V?$SafeSet_Iterator@PAX@@@@_N@Z
??0?$SimpleQueue@T_LARGE_INTEGER@@@@QAE@XZ
??0AutoBstr@@QAE@PAG@Z
??0AutoBstr@@QAE@XZ
??0AutoBstrNoAlloc@@QAE@PAG@Z
??0AutoBstrNoAlloc@@QAE@XZ
??0AutoCertContext@@QAE@PBU_CERT_CONTEXT@@@Z
??0AutoCertContext@@QAE@XZ
??0AutoChainContext@@QAE@PBU_CERT_CHAIN_CONTEXT@@@Z
??0AutoChainContext@@QAE@XZ
??0AutoCoTaskMemFree@@QAE@PAX@Z
??0AutoCoTaskMemFree@@QAE@XZ
??0AutoFwXmlCloseParser@@QAE@PAX@Z
??0AutoFwXmlCloseParser@@QAE@XZ
??0AutoHandle@@QAE@PAX@Z
??0AutoHandle@@QAE@XZ
??0AutoImpersonateUser@@QAE@PAX@Z
??0AutoImpersonateUser@@QAE@XZ
??0AutoLibrary@@QAE@PAUHINSTANCE__@@@Z
??0AutoLibrary@@QAE@XZ
??0AutoLocalFree@@QAE@PAX@Z
??0AutoLocalFree@@QAE@XZ
??0AutoMIClass@@QAE@PAU_MI_Class@@@Z
??0AutoMIClass@@QAE@XZ
??0AutoMIInstance@@QAE@PAU_MI_Instance@@@Z
??0AutoMIInstance@@QAE@XZ
??0AutoObject@@QAE@PAUWSMAN_OBJECT@@@Z
??0AutoObject@@QAE@XZ
??0AutoRegKey@@QAE@PAUHKEY__@@@Z
??0AutoRegKey@@QAE@XZ
??0AutoSecurityDescriptor@@QAE@PAX@Z
??0AutoSecurityDescriptor@@QAE@XZ
??0AutoWaitHandle@@QAE@PAX@Z
??0AutoWaitHandle@@QAE@XZ
??0BufferFormatter@@QAE@PAEK@Z
??0BufferFormatter@@QAE@XZ
??0CBaseConfigCache@@IAE@W4ConfigLocation@CConfigChangeSource@@PAVFastLock@@PAVCConfigCacheMap@0@@Z
??0CClientConfigCache@@AAE@XZ
??0CConfigManager@@AAE@XZ
??0CErrorContext@@QAE@_N@Z
??0CRequestContext@@QAE@PBG@Z
??0CRequestContext@@QAE@XZ
??0CResourceAlias@@QAE@PBG@Z
??0CServiceConfigCache@@AAE@XZ
??0CServiceWatcher@CServiceConfigCache@@AAE@PAV1@PAVIServiceConfigObserver@@@Z
??0CWSManCriticalSection@@QAE@XZ
??0CWSManCriticalSectionWithConditionVar@@QAE@XZ
??0CWSManEPR@@QAE@H@Z
??0CWSManGroupPolicyManager@@AAE@XZ
??0CWSManResource@@QAE@H@Z
??0CWSManResourceNoResourceUri@@QAE@H@Z
??0CWSManSecurityUI@@QAE@XZ
??0CWinRSPluginConfigCache@@AAE@XZ
??0ChildLifeTimeManager@@QAE@ABV0@@Z
??0ChildLifeTimeManager@@QAE@XZ
??0CircularBufferFormatter@@QAE@XZ
??0ConfigRegistry@@IAE@XZ
??0EtwCorrelationHelper@@QAE@ABV0@@Z
??0EventHandler@WSMan@@QAE@XZ
??0ExtendedSemantic@@QAE@K@Z
??0FastLock@@QAE@XZ
??0Fragment@PacketParser@@QAE@XZ
??0IConfigChangeObserver@@QAE@ABV0@@Z
??0IConfigChangeObserver@@QAE@XZ
??0ILifeTimeMgmt@@QAE@ABV0@@Z
??0ILifeTimeMgmt@@QAE@XZ
??0IRequestContext@@IAE@XZ
??0IWSManGroupPolicyObserver@@QAE@ABV0@@Z
??0IWSManGroupPolicyObserver@@QAE@XZ
??0IWSManGroupPolicyPublisher@@QAE@ABV0@@Z
??0IWSManGroupPolicyPublisher@@QAE@XZ
??0Locale@@QAE@ABV0@@Z
??0Locale@@QAE@PAVIRequestContext@@@Z
??0Locale@@QAE@XZ
??0MessageId@PacketParser@@QAE@XZ
??0NotUnderstandSoapHeader@PacketParser@@QAE@XZ
??0OnHTTPInitialize@@QAE@XZ
??0OperationId@PacketParser@@QAE@XZ
??0OwnLock@@QAE@AAVFastLock@@@Z
??0PacketFormatter@@QAE@XZ
??0PacketParser@@QAE@XZ
??0RBUFFER@@QAE@I@Z
??0RBUFFER@@QAE@PAEI@Z
??0ReferenceParameters@PacketParser@@QAE@XZ
??0SBUFFER@@QAE@XZ
??0SessionId@PacketParser@@QAE@XZ
??0ShareLock@@QAE@AAVFastLock@@@Z
??0SoapSemanticConverter@@QAE@XZ
??0TSTRBUFFER@@QAE@XZ
??0UserAuthzRecord@@QAE@$$QAV0@@Z
??0UserAuthzRecord@@QAE@ABV0@@Z
??0UserAuthzRecord@@QAE@XZ
??0UserRecord@@QAE@XZ
??0XmlReader@@QAE@XZ
??1?$AutoCleanup@V?$AutoDelete@D@@PAD@@QAE@XZ
??1?$AutoCleanup@V?$AutoDelete@G@@PAG@@QAE@XZ
??1?$AutoCleanup@V?$AutoDelete@UIPRange@CWSManIPFilter@@@@PAUIPRange@CWSManIPFilter@@@@QAE@XZ
??1?$AutoCleanup@V?$AutoDelete@U_SID@@@@PAU_SID@@@@QAE@XZ
??1?$AutoCleanup@V?$AutoDelete@U_WSMAN_STREAM_ID_SET@@@@PAU_WSMAN_STREAM_ID_SET@@@@QAE@XZ
??1?$AutoCleanup@V?$AutoDelete@V?$Handle@VISubscription@@@@@@PAV?$Handle@VISubscription@@@@@@QAE@XZ
??1?$AutoCleanup@V?$AutoDelete@V?$SafeMap_Iterator@PAVCListenerConnect@@PAV1@@@@@PAV?$SafeMap_Iterator@PAVCListenerConnect@@PAV1@@@@@QAE@XZ
??1?$AutoCleanup@V?$AutoDelete@V?$SafeMap_Iterator@PAVCListenerReceive@@PAV1@@@@@PAV?$SafeMap_Iterator@PAVCListenerReceive@@PAV1@@@@@QAE@XZ
??1?$AutoCleanup@V?$AutoDelete@V?$SafeMap_Iterator@PAVCListenerSend@@PAV1@@@@@PAV?$SafeMap_Iterator@PAVCListenerSend@@PAV1@@@@@QAE@XZ
??1?$AutoCleanup@V?$AutoDelete@V?$SafeMap_Iterator@PAVCListenerSignal@@PAV1@@@@@PAV?$SafeMap_Iterator@PAVCListenerSignal@@PAV1@@@@@QAE@XZ
??1?$AutoCleanup@V?$AutoDelete@V?$SafeMap_Iterator@VGuidKey@@PAVCListenerCommand@@@@@@PAV?$SafeMap_Iterator@VGuidKey@@PAVCListenerCommand@@@@@@QAE@XZ
??1?$AutoCleanup@V?$AutoDelete@V?$SafeMap_Iterator@VStringKeyCI@@K@@@@PAV?$SafeMap_Iterator@VStringKeyCI@@K@@@@QAE@XZ
??1?$AutoCleanup@V?$AutoDelete@V?$SafeMap_Iterator@W4WSManSessionOption@@PAVOptionValue@SessionOptions@Client@WSMan@@@@@@PAV?$SafeMap_Iterator@W4WSManSessionOption@@PAVOptionValue@SessionOptions@Client@WSMan@@@@@@QAE@XZ
??1?$AutoCleanup@V?$AutoDelete@V?$SafeSet@PAVCCertMapping@@@@@@PAV?$SafeSet@PAVCCertMapping@@@@@@QAE@XZ
??1?$AutoCleanup@V?$AutoDelete@V?$SafeSet@PAVCShellUriSettings@@@@@@PAV?$SafeSet@PAVCShellUriSettings@@@@@@QAE@XZ
??1?$AutoCleanup@V?$AutoDelete@V?$SafeSet_Iterator@PAVCListenerOperation@@@@@@PAV?$SafeSet_Iterator@PAVCListenerOperation@@@@@@QAE@XZ
??1?$AutoCleanup@V?$AutoDelete@V?$SafeSet_Iterator@PAVCollector@@@@@@PAV?$SafeSet_Iterator@PAVCollector@@@@@@QAE@XZ
??1?$AutoCleanup@V?$AutoDelete@V?$SafeSet_Iterator@PAVHostOperation@@@@@@PAV?$SafeSet_Iterator@PAVHostOperation@@@@@@QAE@XZ
??1?$AutoCleanup@V?$AutoDelete@V?$SafeSet_Iterator@PAVListenerSourceSubscription@@@@@@PAV?$SafeSet_Iterator@PAVListenerSourceSubscription@@@@@@QAE@XZ
??1?$AutoCleanup@V?$AutoDelete@V?$SimpleStack@VCListenerOperation@@@@@@PAV?$SimpleStack@VCListenerOperation@@@@@@QAE@XZ
??1?$AutoCleanup@V?$AutoDelete@V?$SimpleStack@VShellHostEntry@@@@@@PAV?$SimpleStack@VShellHostEntry@@@@@@QAE@XZ
??1?$AutoCleanup@V?$AutoDelete@V?$queue@PAU_WSMAN_PUBLISHER_EVENT_STRUCT@@V?$deque@PAU_WSMAN_PUBLISHER_EVENT_STRUCT@@V?$transport_allocator@PAU_WSMAN_PUBLISHER_EVENT_STRUCT@@@@@std@@@std@@@@PAV?$queue@PAU_WSMAN_PUBLISHER_EVENT_STRUCT@@V?$deque@PAU_WSMAN_PUBLISHER_EVENT_STRUCT@@V?$transport_allocator@PAU_WSMAN_PUBLISHER_EVENT_STRUCT@@@@@std@@@std@@@@QAE@XZ
??1?$AutoCleanup@V?$AutoDelete@V?$set@PAVCListenerSettings@@VCListenerSettingsLessFunctor@CServiceConfigSettings@@V?$transport_allocator@PAVCListenerSettings@@@@@std@@@@PAV?$set@PAVCListenerSettings@@VCListenerSettingsLessFunctor@CServiceConfigSettings@@V?$transport_allocator@PAVCListenerSettings@@@@@std@@@@QAE@XZ
??1?$AutoCleanup@V?$AutoDelete@V?$set@Usockaddr_storage@@VSockAddrLessFunctor@CListenerSettings@@V?$transport_allocator@Usockaddr_storage@@@@@std@@@@PAV?$set@Usockaddr_storage@@VSockAddrLessFunctor@CListenerSettings@@V?$transport_allocator@Usockaddr_storage@@@@@std@@@@QAE@XZ
??1?$AutoCleanup@V?$AutoDelete@V?$vector@PAVCWSManRequest@@V?$transport_allocator@PAVCWSManRequest@@@@@std@@@@PAV?$vector@PAVCWSManRequest@@V?$transport_allocator@PAVCWSManRequest@@@@@std@@@@QAE@XZ
??1?$AutoCleanup@V?$AutoDelete@V?$vector@PAVHandleImpl@Client@WSMan@@V?$transport_allocator@PAVHandleImpl@Client@WSMan@@@@@std@@@@PAV?$vector@PAVHandleImpl@Client@WSMan@@V?$transport_allocator@PAVHandleImpl@Client@WSMan@@@@@std@@@@QAE@XZ
??1?$AutoCleanup@V?$AutoDelete@V?$vector@PAVIServiceConfigObserver@@V?$transport_allocator@PAVIServiceConfigObserver@@@@@std@@@@PAV?$vector@PAVIServiceConfigObserver@@V?$transport_allocator@PAVIServiceConfigObserver@@@@@std@@@@QAE@XZ
??1?$AutoCleanup@V?$AutoDelete@V?$vector@PAVWSManHttpSenderConnection@@V?$transport_allocator@PAVWSManHttpSenderConnection@@@@@std@@@@PAV?$vector@PAVWSManHttpSenderConnection@@V?$transport_allocator@PAVWSManHttpSenderConnection@@@@@std@@@@QAE@XZ
??1?$AutoCleanup@V?$AutoDelete@VAdminSid@CSecurity@@@@PAVAdminSid@CSecurity@@@@QAE@XZ
??1?$AutoCleanup@V?$AutoDelete@VBlockedRecord@@@@PAVBlockedRecord@@@@QAE@XZ
??1?$AutoCleanup@V?$AutoDelete@VCBaseConfigCache@@@@PAVCBaseConfigCache@@@@QAE@XZ
??1?$AutoCleanup@V?$AutoDelete@VCCertMapping@@@@PAVCCertMapping@@@@QAE@XZ
??1?$AutoCleanup@V?$AutoDelete@VCConfigChangeSource@@@@PAVCConfigChangeSource@@@@QAE@XZ
??1?$AutoCleanup@V?$AutoDelete@VCListenerSettings@@@@PAVCListenerSettings@@@@QAE@XZ
??1?$AutoCleanup@V?$AutoDelete@VCObserverConfigChangeErrors@@@@PAVCObserverConfigChangeErrors@@@@QAE@XZ
??1?$AutoCleanup@V?$AutoDelete@VCServiceWatcher@CServiceConfigCache@@@@PAVCServiceWatcher@CServiceConfigCache@@@@QAE@XZ
??1?$AutoCleanup@V?$AutoDelete@VCShellUriSettings@@@@PAVCShellUriSettings@@@@QAE@XZ
??1?$AutoCleanup@V?$AutoDelete@VCWSManEPR@@@@PAVCWSManEPR@@@@QAE@XZ
??1?$AutoCleanup@V?$AutoDelete@VCWSManResource@@@@PAVCWSManResource@@@@QAE@XZ
??1?$AutoCleanup@V?$AutoDelete@VCertHash@@@@PAVCertHash@@@@QAE@XZ
??1?$AutoCleanup@V?$AutoDelete@VConfigUpdate@@@@PAVConfigUpdate@@@@QAE@XZ
??1?$AutoCleanup@V?$AutoDelete@VEnumSinkEx@@@@PAVEnumSinkEx@@@@QAE@XZ
??1?$AutoCleanup@V?$AutoDelete@VEventHandler@WSMan@@@@PAVEventHandler@WSMan@@@@QAE@XZ
??1?$AutoCleanup@V?$AutoDelete@VExpiredOperationIdRecord@@@@PAVExpiredOperationIdRecord@@@@QAE@XZ
??1?$AutoCleanup@V?$AutoDelete@VGPApiManager@@@@PAVGPApiManager@@@@QAE@XZ
??1?$AutoCleanup@V?$AutoDelete@VGeneralSinkEx@@@@PAVGeneralSinkEx@@@@QAE@XZ
??1?$AutoCleanup@V?$AutoDelete@VIChannelObserverFactory@@@@PAVIChannelObserverFactory@@@@QAE@XZ
??1?$AutoCleanup@V?$AutoDelete@VIQueryDASHSMASHInterface@@@@PAVIQueryDASHSMASHInterface@@@@QAE@XZ
??1?$AutoCleanup@V?$AutoDelete@VISpecification@@@@PAVISpecification@@@@QAE@XZ
??1?$AutoCleanup@V?$AutoDelete@VInteractiveSid@CSecurity@@@@PAVInteractiveSid@CSecurity@@@@QAE@XZ
??1?$AutoCleanup@V?$AutoDelete@VIpHlpApiDllLoader@@@@PAVIpHlpApiDllLoader@@@@QAE@XZ
??1?$AutoCleanup@V?$AutoDelete@VMachineName@@@@PAVMachineName@@@@QAE@XZ
??1?$AutoCleanup@V?$AutoDelete@VMasterReceiveData@CListenerReceive@@@@PAVMasterReceiveData@CListenerReceive@@@@QAE@XZ
??1?$AutoCleanup@V?$AutoDelete@VNetworkServiceSid@CSecurity@@@@PAVNetworkServiceSid@CSecurity@@@@QAE@XZ
??1?$AutoCleanup@V?$AutoDelete@VNtDsApiDllLoader@@@@PAVNtDsApiDllLoader@@@@QAE@XZ
??1?$AutoCleanup@V?$AutoDelete@VOptionValue@SessionOptions@Client@WSMan@@@@PAVOptionValue@SessionOptions@Client@WSMan@@@@QAE@XZ
??1?$AutoCleanup@V?$AutoDelete@VPacketCreator@@@@PAVPacketCreator@@@@QAE@XZ
??1?$AutoCleanup@V?$AutoDelete@VPacketParser@@@@PAVPacketParser@@@@QAE@XZ
??1?$AutoCleanup@V?$AutoDelete@VResources@Locale@@@@PAVResources@Locale@@@@QAE@XZ
??1?$AutoCleanup@V?$AutoDelete@VRunAsConfiguration@@@@PAVRunAsConfiguration@@@@QAE@XZ
??1?$AutoCleanup@V?$AutoDelete@VSecurityEntry@Catalog@@@@PAVSecurityEntry@Catalog@@@@QAE@XZ
??1?$AutoCleanup@V?$AutoDelete@VSendPacketArgs@RobustConnectionBuffer@@@@PAVSendPacketArgs@RobustConnectionBuffer@@@@QAE@XZ
??1?$AutoCleanup@V?$AutoDelete@VServiceSoapProcessor@@@@PAVServiceSoapProcessor@@@@QAE@XZ
??1?$AutoCleanup@V?$AutoDelete@VShell32DllLoader@@@@PAVShell32DllLoader@@@@QAE@XZ
??1?$AutoCleanup@V?$AutoDelete@VShlWApiDllLoader@@@@PAVShlWApiDllLoader@@@@QAE@XZ
??1?$AutoCleanup@V?$AutoDelete@VSubscriptionEnumerator@@@@PAVSubscriptionEnumerator@@@@QAE@XZ
??1?$AutoCleanup@V?$AutoDelete@VSubscriptionManager@@@@PAVSubscriptionManager@@@@QAE@XZ
??1?$AutoCleanup@V?$AutoDelete@VTSTRBUFFER@@@@PAVTSTRBUFFER@@@@QAE@XZ
??1?$AutoCleanup@V?$AutoDelete@VUniqueStringOverflow@@@@PAVUniqueStringOverflow@@@@QAE@XZ
??1?$AutoCleanup@V?$AutoDelete@VUser32DllLoader@@@@PAVUser32DllLoader@@@@QAE@XZ
??1?$AutoCleanup@V?$AutoDelete@VWSMANCONFIGTABLE_IDENTITY@@@@PAVWSMANCONFIGTABLE_IDENTITY@@@@QAE@XZ
??1?$AutoCleanup@V?$AutoDelete@VWSManMemCryptManager@@@@PAVWSManMemCryptManager@@@@QAE@XZ
??1?$AutoCleanup@V?$AutoDelete@VWmiEnumContext@@@@PAVWmiEnumContext@@@@QAE@XZ
??1?$AutoCleanup@V?$AutoDelete@VXmlReader@@@@PAVXmlReader@@@@QAE@XZ
??1?$AutoCleanup@V?$AutoDeleteVector@$$CBG@@PBG@@QAE@XZ
??1?$AutoCleanup@V?$AutoDeleteVector@D@@PAD@@QAE@XZ
??1?$AutoCleanup@V?$AutoDeleteVector@E@@PAE@@QAE@XZ
??1?$AutoCleanup@V?$AutoDeleteVector@G@@PAG@@QAE@XZ
??1?$AutoCleanup@V?$AutoDeleteVector@H@@PAH@@QAE@XZ
??1?$AutoCleanup@V?$AutoDeleteVector@PAG@@PAPAG@@QAE@XZ
??1?$AutoCleanup@V?$AutoDeleteVector@PBG@@PAPBG@@QAE@XZ
??1?$AutoCleanup@V?$AutoDeleteVector@U_CONFIG_UPDATE@@@@PAU_CONFIG_UPDATE@@@@QAE@XZ
??1?$AutoCleanup@V?$AutoDeleteVector@U_WINRS_CREATE_SHELL_ENVIRONMENT_VARIABLE@@@@PAU_WINRS_CREATE_SHELL_ENVIRONMENT_VARIABLE@@@@QAE@XZ
??1?$AutoCleanup@V?$AutoDeleteVector@U_WINRS_RUN_COMMAND_ARG@@@@PAU_WINRS_RUN_COMMAND_ARG@@@@QAE@XZ
??1?$AutoCleanup@V?$AutoDeleteVector@U_WSMAN_OPTION@@@@PAU_WSMAN_OPTION@@@@QAE@XZ
??1?$AutoCleanup@V?$AutoDeleteVector@X@@PAX@@QAE@XZ
??1?$AutoCleanup@V?$AutoFree@E@@PAE@@QAE@XZ
??1?$AutoCleanup@V?$AutoLocklessItemRecycle@VPacket@@@@PAVPacket@@@@QAE@XZ
??1?$AutoCleanup@V?$AutoRelease@UIAppHostAdminManager@@@@PAUIAppHostAdminManager@@@@QAE@XZ
??1?$AutoCleanup@V?$AutoRelease@UIAppHostChildElementCollection@@@@PAUIAppHostChildElementCollection@@@@QAE@XZ
??1?$AutoCleanup@V?$AutoRelease@UIAppHostConfigException@@@@PAUIAppHostConfigException@@@@QAE@XZ
??1?$AutoCleanup@V?$AutoRelease@UIAppHostElement@@@@PAUIAppHostElement@@@@QAE@XZ
??1?$AutoCleanup@V?$AutoRelease@UIAppHostElementCollection@@@@PAUIAppHostElementCollection@@@@QAE@XZ
??1?$AutoCleanup@V?$AutoRelease@UIAppHostProperty@@@@PAUIAppHostProperty@@@@QAE@XZ
??1?$AutoCleanup@V?$AutoRelease@UIAppHostPropertyCollection@@@@PAUIAppHostPropertyCollection@@@@QAE@XZ
??1?$AutoCleanup@V?$AutoRelease@UIClientSecurity@@@@PAUIClientSecurity@@@@QAE@XZ
??1?$AutoCleanup@V?$AutoRelease@UIEnumWbemClassObject@@@@PAUIEnumWbemClassObject@@@@QAE@XZ
??1?$AutoCleanup@V?$AutoRelease@UIErrorInfo@@@@PAUIErrorInfo@@@@QAE@XZ
??1?$AutoCleanup@V?$AutoRelease@UIUnknown@@@@PAUIUnknown@@@@QAE@XZ
??1?$AutoCleanup@V?$AutoRelease@UIWbemClassObject@@@@PAUIWbemClassObject@@@@QAE@XZ
??1?$AutoCleanup@V?$AutoRelease@UIWbemContext@@@@PAUIWbemContext@@@@QAE@XZ
??1?$AutoCleanup@V?$AutoRelease@UIWbemLocator@@@@PAUIWbemLocator@@@@QAE@XZ
??1?$AutoCleanup@V?$AutoRelease@UIWbemObjectTextSrc@@@@PAUIWbemObjectTextSrc@@@@QAE@XZ
??1?$AutoCleanup@V?$AutoRelease@UIWbemPath@@@@PAUIWbemPath@@@@QAE@XZ
??1?$AutoCleanup@V?$AutoRelease@UIWbemPathKeyList@@@@PAUIWbemPathKeyList@@@@QAE@XZ
??1?$AutoCleanup@V?$AutoRelease@UIWbemQualifierSet@@@@PAUIWbemQualifierSet@@@@QAE@XZ
??1?$AutoCleanup@V?$AutoRelease@UIWbemQuery@@@@PAUIWbemQuery@@@@QAE@XZ
??1?$AutoCleanup@V?$AutoRelease@UIWbemServices@@@@PAUIWbemServices@@@@QAE@XZ
??1?$AutoCleanup@V?$AutoRelease@VApplication@Client@WSMan@@@@PAVApplication@Client@WSMan@@@@QAE@XZ
??1?$AutoCleanup@V?$AutoRelease@VCBaseConfigCache@@@@PAVCBaseConfigCache@@@@QAE@XZ
??1?$AutoCleanup@V?$AutoRelease@VCClientConfigCache@@@@PAVCClientConfigCache@@@@QAE@XZ
??1?$AutoCleanup@V?$AutoRelease@VCClientConfigSettings@@@@PAVCClientConfigSettings@@@@QAE@XZ
??1?$AutoCleanup@V?$AutoRelease@VCCommonConfigSettings@@@@PAVCCommonConfigSettings@@@@QAE@XZ
??1?$AutoCleanup@V?$AutoRelease@VCConfigCacheMap@CBaseConfigCache@@@@PAVCConfigCacheMap@CBaseConfigCache@@@@QAE@XZ
??1?$AutoCleanup@V?$AutoRelease@VCConfigManager@@@@PAVCConfigManager@@@@QAE@XZ
??1?$AutoCleanup@V?$AutoRelease@VCListenerCommand@@@@PAVCListenerCommand@@@@QAE@XZ
??1?$AutoCleanup@V?$AutoRelease@VCListenerMasterOperation@@@@PAVCListenerMasterOperation@@@@QAE@XZ
??1?$AutoCleanup@V?$AutoRelease@VCListenerReceive@@@@PAVCListenerReceive@@@@QAE@XZ
??1?$AutoCleanup@V?$AutoRelease@VCListenerShell@@@@PAVCListenerShell@@@@QAE@XZ
??1?$AutoCleanup@V?$AutoRelease@VCRemoteOperation@@@@PAVCRemoteOperation@@@@QAE@XZ
??1?$AutoCleanup@V?$AutoRelease@VCRemoteSession@@@@PAVCRemoteSession@@@@QAE@XZ
??1?$AutoCleanup@V?$AutoRelease@VCRequestContext@@@@PAVCRequestContext@@@@QAE@XZ
??1?$AutoCleanup@V?$AutoRelease@VCServiceCommonConfigSettings@@@@PAVCServiceCommonConfigSettings@@@@QAE@XZ
??1?$AutoCleanup@V?$AutoRelease@VCServiceConfigCache@@@@PAVCServiceConfigCache@@@@QAE@XZ
??1?$AutoCleanup@V?$AutoRelease@VCServiceConfigSettings@@@@PAVCServiceConfigSettings@@@@QAE@XZ
??1?$AutoCleanup@V?$AutoRelease@VCWSManEPR@@@@PAVCWSManEPR@@@@QAE@XZ
??1?$AutoCleanup@V?$AutoRelease@VCWSManGroupPolicyCache@@@@PAVCWSManGroupPolicyCache@@@@QAE@XZ
??1?$AutoCleanup@V?$AutoRelease@VCWSManGroupPolicyManager@@@@PAVCWSManGroupPolicyManager@@@@QAE@XZ
??1?$AutoCleanup@V?$AutoRelease@VCWSManObject@@@@PAVCWSManObject@@@@QAE@XZ
??1?$AutoCleanup@V?$AutoRelease@VCWSManResource@@@@PAVCWSManResource@@@@QAE@XZ
??1?$AutoCleanup@V?$AutoRelease@VCWSManSession@@@@PAVCWSManSession@@@@QAE@XZ
??1?$AutoCleanup@V?$AutoRelease@VCWinRSPluginConfigCache@@@@PAVCWinRSPluginConfigCache@@@@QAE@XZ
??1?$AutoCleanup@V?$AutoRelease@VCWinRSPluginConfigSettings@@@@PAVCWinRSPluginConfigSettings@@@@QAE@XZ
??1?$AutoCleanup@V?$AutoRelease@VCommand@Client@WSMan@@@@PAVCommand@Client@WSMan@@@@QAE@XZ
??1?$AutoCleanup@V?$AutoRelease@VConfigNotification@@@@PAVConfigNotification@@@@QAE@XZ
??1?$AutoCleanup@V?$AutoRelease@VConnectShellOperation@Client@WSMan@@@@PAVConnectShellOperation@Client@WSMan@@@@QAE@XZ
??1?$AutoCleanup@V?$AutoRelease@VCreateShellOperation@Client@WSMan@@@@PAVCreateShellOperation@Client@WSMan@@@@QAE@XZ
??1?$AutoCleanup@V?$AutoRelease@VDeleteShellOperation@Client@WSMan@@@@PAVDeleteShellOperation@Client@WSMan@@@@QAE@XZ
??1?$AutoCleanup@V?$AutoRelease@VDisconnectOperation@Client@WSMan@@@@PAVDisconnectOperation@Client@WSMan@@@@QAE@XZ
??1?$AutoCleanup@V?$AutoRelease@VEnumSinkEx@@@@PAVEnumSinkEx@@@@QAE@XZ
??1?$AutoCleanup@V?$AutoRelease@VGeneralSinkEx@@@@PAVGeneralSinkEx@@@@QAE@XZ
??1?$AutoCleanup@V?$AutoRelease@VHostMappingTable@@@@PAVHostMappingTable@@@@QAE@XZ
??1?$AutoCleanup@V?$AutoRelease@VIISConfigSettings@@@@PAVIISConfigSettings@@@@QAE@XZ
??1?$AutoCleanup@V?$AutoRelease@VIPCSoapProcessor@@@@PAVIPCSoapProcessor@@@@QAE@XZ
??1?$AutoCleanup@V?$AutoRelease@VIRequestContext@@@@PAVIRequestContext@@@@QAE@XZ
??1?$AutoCleanup@V?$AutoRelease@VISubscription@@@@PAVISubscription@@@@QAE@XZ
??1?$AutoCleanup@V?$AutoRelease@VInboundRequestDetails@@@@PAVInboundRequestDetails@@@@QAE@XZ
??1?$AutoCleanup@V?$AutoRelease@VProxyManager@Client@WSMan@@@@PAVProxyManager@Client@WSMan@@@@QAE@XZ
??1?$AutoCleanup@V?$AutoRelease@VProxySelection@Client@WSMan@@@@PAVProxySelection@Client@WSMan@@@@QAE@XZ
??1?$AutoCleanup@V?$AutoRelease@VPushSubscribeOperation@@@@PAVPushSubscribeOperation@@@@QAE@XZ
??1?$AutoCleanup@V?$AutoRelease@VPushSubscription@@@@PAVPushSubscription@@@@QAE@XZ
??1?$AutoCleanup@V?$AutoRelease@VReceiveOperation@Client@WSMan@@@@PAVReceiveOperation@Client@WSMan@@@@QAE@XZ
??1?$AutoCleanup@V?$AutoRelease@VReconnectOperation@Client@WSMan@@@@PAVReconnectOperation@Client@WSMan@@@@QAE@XZ
??1?$AutoCleanup@V?$AutoRelease@VSendOperation@Client@WSMan@@@@PAVSendOperation@Client@WSMan@@@@QAE@XZ
??1?$AutoCleanup@V?$AutoRelease@VShell@Client@WSMan@@@@PAVShell@Client@WSMan@@@@QAE@XZ
??1?$AutoCleanup@V?$AutoRelease@VShellInfo@@@@PAVShellInfo@@@@QAE@XZ
??1?$AutoCleanup@V?$AutoRelease@VSignalOperation@Client@WSMan@@@@PAVSignalOperation@Client@WSMan@@@@QAE@XZ
??1?$AutoCleanup@V?$AutoRelease@VUserRecord@@@@PAVUserRecord@@@@QAE@XZ
??1?$AutoCleanup@V?$AutoRelease@VWSManHttpListener@@@@PAVWSManHttpListener@@@@QAE@XZ
??1?$AutoCleanup@V?$AutoReleaseEx@VHostMappingTableEntry@@@@PAVHostMappingTableEntry@@@@QAE@XZ
??1?$AutoCleanup@V?$AutoReleaseEx@VShell@Client@WSMan@@@@PAVShell@Client@WSMan@@@@QAE@XZ
??1?$AutoCleanup@VAutoBstr@@PAG@@QAE@XZ
??1?$AutoCleanup@VAutoBstrNoAlloc@@PAG@@QAE@XZ
??1?$AutoCleanup@VAutoCertContext@@PBU_CERT_CONTEXT@@@@QAE@XZ
??1?$AutoCleanup@VAutoChainContext@@PBU_CERT_CHAIN_CONTEXT@@@@QAE@XZ
??1?$AutoCleanup@VAutoCoTaskMemFree@@PAX@@QAE@XZ
??1?$AutoCleanup@VAutoFwXmlCloseParser@@PAX@@QAE@XZ
??1?$AutoCleanup@VAutoHandle@@PAX@@QAE@XZ
??1?$AutoCleanup@VAutoImpersonateUser@@PAX@@QAE@XZ
??1?$AutoCleanup@VAutoLibrary@@PAUHINSTANCE__@@@@QAE@XZ
??1?$AutoCleanup@VAutoLocalFree@@PAX@@QAE@XZ
??1?$AutoCleanup@VAutoMIClass@@PAU_MI_Class@@@@QAE@XZ
??1?$AutoCleanup@VAutoMIInstance@@PAU_MI_Instance@@@@QAE@XZ
??1?$AutoCleanup@VAutoObject@@PAUWSMAN_OBJECT@@@@QAE@XZ
??1?$AutoCleanup@VAutoRegKey@@PAUHKEY__@@@@QAE@XZ
??1?$AutoCleanup@VAutoSecurityDescriptor@@PAX@@QAE@XZ
??1?$AutoCleanup@VAutoWaitHandle@@PAX@@QAE@XZ
??1?$AutoDelete@D@@QAE@XZ
??1?$AutoDelete@G@@QAE@XZ
??1?$AutoDelete@UIPRange@CWSManIPFilter@@@@QAE@XZ
??1?$AutoDelete@U_SID@@@@QAE@XZ
??1?$AutoDelete@U_WSMAN_STREAM_ID_SET@@@@QAE@XZ
??1?$AutoDelete@V?$Handle@VISubscription@@@@@@QAE@XZ
??1?$AutoDelete@V?$SafeMap_Iterator@PAVCListenerConnect@@PAV1@@@@@QAE@XZ
??1?$AutoDelete@V?$SafeMap_Iterator@PAVCListenerReceive@@PAV1@@@@@QAE@XZ
??1?$AutoDelete@V?$SafeMap_Iterator@PAVCListenerSend@@PAV1@@@@@QAE@XZ
??1?$AutoDelete@V?$SafeMap_Iterator@PAVCListenerSignal@@PAV1@@@@@QAE@XZ
??1?$AutoDelete@V?$SafeMap_Iterator@VGuidKey@@PAVCListenerCommand@@@@@@QAE@XZ
??1?$AutoDelete@V?$SafeMap_Iterator@VStringKeyCI@@K@@@@QAE@XZ
??1?$AutoDelete@V?$SafeMap_Iterator@W4WSManSessionOption@@PAVOptionValue@SessionOptions@Client@WSMan@@@@@@QAE@XZ
??1?$AutoDelete@V?$SafeSet@PAVCCertMapping@@@@@@QAE@XZ
??1?$AutoDelete@V?$SafeSet@PAVCShellUriSettings@@@@@@QAE@XZ
??1?$AutoDelete@V?$SafeSet_Iterator@PAVCListenerOperation@@@@@@QAE@XZ
??1?$AutoDelete@V?$SafeSet_Iterator@PAVCollector@@@@@@QAE@XZ
??1?$AutoDelete@V?$SafeSet_Iterator@PAVHostOperation@@@@@@QAE@XZ
??1?$AutoDelete@V?$SafeSet_Iterator@PAVListenerSourceSubscription@@@@@@QAE@XZ
??1?$AutoDelete@V?$SimpleStack@VCListenerOperation@@@@@@QAE@XZ
??1?$AutoDelete@V?$SimpleStack@VShellHostEntry@@@@@@QAE@XZ
??1?$AutoDelete@V?$queue@PAU_WSMAN_PUBLISHER_EVENT_STRUCT@@V?$deque@PAU_WSMAN_PUBLISHER_EVENT_STRUCT@@V?$transport_allocator@PAU_WSMAN_PUBLISHER_EVENT_STRUCT@@@@@std@@@std@@@@QAE@XZ
??1?$AutoDelete@V?$set@PAVCListenerSettings@@VCListenerSettingsLessFunctor@CServiceConfigSettings@@V?$transport_allocator@PAVCListenerSettings@@@@@std@@@@QAE@XZ
??1?$AutoDelete@V?$set@Usockaddr_storage@@VSockAddrLessFunctor@CListenerSettings@@V?$transport_allocator@Usockaddr_storage@@@@@std@@@@QAE@XZ
??1?$AutoDelete@V?$vector@PAVCWSManRequest@@V?$transport_allocator@PAVCWSManRequest@@@@@std@@@@QAE@XZ
??1?$AutoDelete@V?$vector@PAVHandleImpl@Client@WSMan@@V?$transport_allocator@PAVHandleImpl@Client@WSMan@@@@@std@@@@QAE@XZ
??1?$AutoDelete@V?$vector@PAVIServiceConfigObserver@@V?$transport_allocator@PAVIServiceConfigObserver@@@@@std@@@@QAE@XZ
??1?$AutoDelete@V?$vector@PAVWSManHttpSenderConnection@@V?$transport_allocator@PAVWSManHttpSenderConnection@@@@@std@@@@QAE@XZ
??1?$AutoDelete@VAdminSid@CSecurity@@@@QAE@XZ
??1?$AutoDelete@VBlockedRecord@@@@QAE@XZ
??1?$AutoDelete@VCBaseConfigCache@@@@QAE@XZ
??1?$AutoDelete@VCCertMapping@@@@QAE@XZ
??1?$AutoDelete@VCConfigChangeSource@@@@QAE@XZ
??1?$AutoDelete@VCListenerSettings@@@@QAE@XZ
??1?$AutoDelete@VCObserverConfigChangeErrors@@@@QAE@XZ
??1?$AutoDelete@VCServiceWatcher@CServiceConfigCache@@@@QAE@XZ
??1?$AutoDelete@VCShellUriSettings@@@@QAE@XZ
??1?$AutoDelete@VCWSManEPR@@@@QAE@XZ
??1?$AutoDelete@VCWSManResource@@@@QAE@XZ
??1?$AutoDelete@VCertHash@@@@QAE@XZ
??1?$AutoDelete@VConfigUpdate@@@@QAE@XZ
??1?$AutoDelete@VEnumSinkEx@@@@QAE@XZ
??1?$AutoDelete@VEventHandler@WSMan@@@@QAE@XZ
??1?$AutoDelete@VExpiredOperationIdRecord@@@@QAE@XZ
??1?$AutoDelete@VGPApiManager@@@@QAE@XZ
??1?$AutoDelete@VGeneralSinkEx@@@@QAE@XZ
??1?$AutoDelete@VIChannelObserverFactory@@@@QAE@XZ
??1?$AutoDelete@VIQueryDASHSMASHInterface@@@@QAE@XZ
??1?$AutoDelete@VISpecification@@@@QAE@XZ
??1?$AutoDelete@VInteractiveSid@CSecurity@@@@QAE@XZ
??1?$AutoDelete@VIpHlpApiDllLoader@@@@QAE@XZ
??1?$AutoDelete@VMachineName@@@@QAE@XZ
??1?$AutoDelete@VMasterReceiveData@CListenerReceive@@@@QAE@XZ
??1?$AutoDelete@VNetworkServiceSid@CSecurity@@@@QAE@XZ
??1?$AutoDelete@VNtDsApiDllLoader@@@@QAE@XZ
??1?$AutoDelete@VOptionValue@SessionOptions@Client@WSMan@@@@QAE@XZ
??1?$AutoDelete@VPacketCreator@@@@QAE@XZ
??1?$AutoDelete@VPacketParser@@@@QAE@XZ
??1?$AutoDelete@VResources@Locale@@@@QAE@XZ
??1?$AutoDelete@VRunAsConfiguration@@@@QAE@XZ
??1?$AutoDelete@VSecurityEntry@Catalog@@@@QAE@XZ
??1?$AutoDelete@VSendPacketArgs@RobustConnectionBuffer@@@@QAE@XZ
??1?$AutoDelete@VServiceSoapProcessor@@@@QAE@XZ
??1?$AutoDelete@VShell32DllLoader@@@@QAE@XZ
??1?$AutoDelete@VShlWApiDllLoader@@@@QAE@XZ
??1?$AutoDelete@VSubscriptionEnumerator@@@@QAE@XZ
??1?$AutoDelete@VSubscriptionManager@@@@QAE@XZ
??1?$AutoDelete@VTSTRBUFFER@@@@QAE@XZ
??1?$AutoDelete@VUniqueStringOverflow@@@@QAE@XZ
??1?$AutoDelete@VUser32DllLoader@@@@QAE@XZ
??1?$AutoDelete@VWSMANCONFIGTABLE_IDENTITY@@@@QAE@XZ
??1?$AutoDelete@VWSManMemCryptManager@@@@QAE@XZ
??1?$AutoDelete@VWmiEnumContext@@@@QAE@XZ
??1?$AutoDelete@VXmlReader@@@@QAE@XZ
??1?$AutoDeleteVector@$$CBG@@QAE@XZ
??1?$AutoDeleteVector@D@@QAE@XZ
??1?$AutoDeleteVector@E@@QAE@XZ
??1?$AutoDeleteVector@G@@QAE@XZ
??1?$AutoDeleteVector@H@@QAE@XZ
??1?$AutoDeleteVector@PAG@@QAE@XZ
??1?$AutoDeleteVector@PBG@@QAE@XZ
??1?$AutoDeleteVector@U_CONFIG_UPDATE@@@@QAE@XZ
??1?$AutoDeleteVector@U_WINRS_CREATE_SHELL_ENVIRONMENT_VARIABLE@@@@QAE@XZ
??1?$AutoDeleteVector@U_WINRS_RUN_COMMAND_ARG@@@@QAE@XZ
??1?$AutoDeleteVector@U_WSMAN_OPTION@@@@QAE@XZ
??1?$AutoDeleteVector@X@@QAE@XZ
??1?$AutoFree@E@@QAE@XZ
??1?$AutoLocklessItemRecycle@VPacket@@@@QAE@XZ
??1?$AutoRelease@UIAppHostAdminManager@@@@QAE@XZ
??1?$AutoRelease@UIAppHostChildElementCollection@@@@QAE@XZ
??1?$AutoRelease@UIAppHostConfigException@@@@QAE@XZ
??1?$AutoRelease@UIAppHostElement@@@@QAE@XZ
??1?$AutoRelease@UIAppHostElementCollection@@@@QAE@XZ
??1?$AutoRelease@UIAppHostProperty@@@@QAE@XZ
??1?$AutoRelease@UIAppHostPropertyCollection@@@@QAE@XZ
??1?$AutoRelease@UIClientSecurity@@@@QAE@XZ
??1?$AutoRelease@UIEnumWbemClassObject@@@@QAE@XZ
??1?$AutoRelease@UIErrorInfo@@@@QAE@XZ
??1?$AutoRelease@UIUnknown@@@@QAE@XZ
??1?$AutoRelease@UIWbemClassObject@@@@QAE@XZ
??1?$AutoRelease@UIWbemContext@@@@QAE@XZ
??1?$AutoRelease@UIWbemLocator@@@@QAE@XZ
??1?$AutoRelease@UIWbemObjectTextSrc@@@@QAE@XZ
??1?$AutoRelease@UIWbemPath@@@@QAE@XZ
??1?$AutoRelease@UIWbemPathKeyList@@@@QAE@XZ
??1?$AutoRelease@UIWbemQualifierSet@@@@QAE@XZ
??1?$AutoRelease@UIWbemQuery@@@@QAE@XZ
??1?$AutoRelease@UIWbemServices@@@@QAE@XZ
??1?$AutoRelease@VApplication@Client@WSMan@@@@QAE@XZ
??1?$AutoRelease@VCBaseConfigCache@@@@QAE@XZ
??1?$AutoRelease@VCClientConfigCache@@@@QAE@XZ
??1?$AutoRelease@VCClientConfigSettings@@@@QAE@XZ
??1?$AutoRelease@VCCommonConfigSettings@@@@QAE@XZ
??1?$AutoRelease@VCConfigCacheMap@CBaseConfigCache@@@@QAE@XZ
??1?$AutoRelease@VCConfigManager@@@@QAE@XZ
??1?$AutoRelease@VCListenerCommand@@@@QAE@XZ
??1?$AutoRelease@VCListenerMasterOperation@@@@QAE@XZ
??1?$AutoRelease@VCListenerReceive@@@@QAE@XZ
??1?$AutoRelease@VCListenerShell@@@@QAE@XZ
??1?$AutoRelease@VCRemoteOperation@@@@QAE@XZ
??1?$AutoRelease@VCRemoteSession@@@@QAE@XZ
??1?$AutoRelease@VCRequestContext@@@@QAE@XZ
??1?$AutoRelease@VCServiceCommonConfigSettings@@@@QAE@XZ
??1?$AutoRelease@VCServiceConfigCache@@@@QAE@XZ
??1?$AutoRelease@VCServiceConfigSettings@@@@QAE@XZ
??1?$AutoRelease@VCWSManEPR@@@@QAE@XZ
??1?$AutoRelease@VCWSManGroupPolicyCache@@@@QAE@XZ
??1?$AutoRelease@VCWSManGroupPolicyManager@@@@QAE@XZ
??1?$AutoRelease@VCWSManObject@@@@QAE@XZ
??1?$AutoRelease@VCWSManResource@@@@QAE@XZ
??1?$AutoRelease@VCWSManSession@@@@QAE@XZ
??1?$AutoRelease@VCWinRSPluginConfigCache@@@@QAE@XZ
??1?$AutoRelease@VCWinRSPluginConfigSettings@@@@QAE@XZ
??1?$AutoRelease@VCommand@Client@WSMan@@@@QAE@XZ
??1?$AutoRelease@VConfigNotification@@@@QAE@XZ
??1?$AutoRelease@VConnectShellOperation@Client@WSMan@@@@QAE@XZ
??1?$AutoRelease@VCreateShellOperation@Client@WSMan@@@@QAE@XZ
??1?$AutoRelease@VDeleteShellOperation@Client@WSMan@@@@QAE@XZ
??1?$AutoRelease@VDisconnectOperation@Client@WSMan@@@@QAE@XZ
??1?$AutoRelease@VEnumSinkEx@@@@QAE@XZ
??1?$AutoRelease@VGeneralSinkEx@@@@QAE@XZ
??1?$AutoRelease@VHostMappingTable@@@@QAE@XZ
??1?$AutoRelease@VIISConfigSettings@@@@QAE@XZ
??1?$AutoRelease@VIPCSoapProcessor@@@@QAE@XZ
??1?$AutoRelease@VIRequestContext@@@@QAE@XZ
??1?$AutoRelease@VISubscription@@@@QAE@XZ
??1?$AutoRelease@VInboundRequestDetails@@@@QAE@XZ
??1?$AutoRelease@VProxyManager@Client@WSMan@@@@QAE@XZ
??1?$AutoRelease@VProxySelection@Client@WSMan@@@@QAE@XZ
??1?$AutoRelease@VPushSubscribeOperation@@@@QAE@XZ
??1?$AutoRelease@VPushSubscription@@@@QAE@XZ
??1?$AutoRelease@VReceiveOperation@Client@WSMan@@@@QAE@XZ
??1?$AutoRelease@VReconnectOperation@Client@WSMan@@@@QAE@XZ
??1?$AutoRelease@VSendOperation@Client@WSMan@@@@QAE@XZ
??1?$AutoRelease@VShell@Client@WSMan@@@@QAE@XZ
??1?$AutoRelease@VShellInfo@@@@QAE@XZ
??1?$AutoRelease@VSignalOperation@Client@WSMan@@@@QAE@XZ
??1?$AutoRelease@VUserRecord@@@@QAE@XZ
??1?$AutoRelease@VWSManHttpListener@@@@QAE@XZ
??1?$AutoReleaseEx@VHostMappingTableEntry@@@@QAE@XZ
??1?$AutoReleaseEx@VShell@Client@WSMan@@@@QAE@XZ
??1?$ILoader@VAdminSid@CSecurity@@@@QAE@XZ
??1?$ILoader@VEventHandler@WSMan@@@@QAE@XZ
??1?$ILoader@VInteractiveSid@CSecurity@@@@QAE@XZ
??1?$ILoader@VIpHlpApiDllLoader@@@@QAE@XZ
??1?$ILoader@VMachineName@@@@QAE@XZ
??1?$ILoader@VNetworkServiceSid@CSecurity@@@@QAE@XZ
??1?$ILoader@VNtDsApiDllLoader@@@@QAE@XZ
??1?$ILoader@VResources@Locale@@@@QAE@XZ
??1?$ILoader@VShell32DllLoader@@@@QAE@XZ
??1?$ILoader@VShlWApiDllLoader@@@@QAE@XZ
??1?$ILoader@VSubscriptionManager@@@@QAE@XZ
??1?$ILoader@VUser32DllLoader@@@@QAE@XZ
??1?$ILoader@VWSManMemCryptManager@@@@QAE@XZ
??1?$Loader@VAdminSid@CSecurity@@$00@@QAE@XZ
??1?$Loader@VEventHandler@WSMan@@$00@@QAE@XZ
??1?$Loader@VInteractiveSid@CSecurity@@$00@@QAE@XZ
??1?$Loader@VIpHlpApiDllLoader@@$00@@QAE@XZ
??1?$Loader@VMachineName@@$00@@QAE@XZ
??1?$Loader@VNetworkServiceSid@CSecurity@@$00@@QAE@XZ
??1?$Loader@VNtDsApiDllLoader@@$00@@QAE@XZ
??1?$Loader@VResources@Locale@@$0A@@@QAE@XZ
??1?$Loader@VShell32DllLoader@@$00@@QAE@XZ
??1?$Loader@VShlWApiDllLoader@@$00@@QAE@XZ
??1?$Loader@VSubscriptionManager@@$01@@QAE@XZ
??1?$Loader@VUser32DllLoader@@$00@@QAE@XZ
??1?$Loader@VWSManMemCryptManager@@$00@@QAE@XZ
??1?$LoaderSerializer@VAdminSid@CSecurity@@$00@@QAE@XZ
??1?$LoaderSerializer@VEventHandler@WSMan@@$00@@QAE@XZ
??1?$LoaderSerializer@VInteractiveSid@CSecurity@@$00@@QAE@XZ
??1?$LoaderSerializer@VIpHlpApiDllLoader@@$00@@QAE@XZ
??1?$LoaderSerializer@VMachineName@@$00@@QAE@XZ
??1?$LoaderSerializer@VNetworkServiceSid@CSecurity@@$00@@QAE@XZ
??1?$LoaderSerializer@VNtDsApiDllLoader@@$00@@QAE@XZ
??1?$LoaderSerializer@VResources@Locale@@$0A@@@QAE@XZ
??1?$LoaderSerializer@VShell32DllLoader@@$00@@QAE@XZ
??1?$LoaderSerializer@VShlWApiDllLoader@@$00@@QAE@XZ
??1?$LoaderSerializer@VSubscriptionManager@@$01@@QAE@XZ
??1?$LoaderSerializer@VUser32DllLoader@@$00@@QAE@XZ
??1?$LoaderSerializer@VWSManMemCryptManager@@$00@@QAE@XZ
??1?$SafeMap@PAVCCertMapping@@UEmpty@@V?$SafeSet_Iterator@PAVCCertMapping@@@@@@QAE@XZ
??1?$SafeMap@PAVCListenerOperation@@UEmpty@@V?$SafeSet_Iterator@PAVCListenerOperation@@@@@@QAE@XZ
??1?$SafeMap@PAVCShellUriSettings@@UEmpty@@V?$SafeSet_Iterator@PAVCShellUriSettings@@@@@@QAE@XZ
??1?$SafeMap@PAVCollector@@UEmpty@@V?$SafeSet_Iterator@PAVCollector@@@@@@QAE@XZ
??1?$SafeMap@PAVHostOperation@@UEmpty@@V?$SafeSet_Iterator@PAVHostOperation@@@@@@QAE@XZ
??1?$SafeMap@PAVIOperation@@UEmpty@@V?$SafeSet_Iterator@PAVIOperation@@@@@@QAE@XZ
??1?$SafeMap@PAVListenerSourceSubscription@@UEmpty@@V?$SafeSet_Iterator@PAVListenerSourceSubscription@@@@@@QAE@XZ
??1?$SafeMap@PAVPushSubscription@@UEmpty@@V?$SafeSet_Iterator@PAVPushSubscription@@@@@@QAE@XZ
??1?$SafeMap@PAXUEmpty@@V?$SafeSet_Iterator@PAX@@@@QAE@XZ
??1?$SafeMap@UPluginKey@@KV?$SafeMap_Iterator@UPluginKey@@K@@@@QAE@XZ
??1?$SafeMap@UUserKey@@PAVBlockedRecord@@V?$SafeMap_Iterator@UUserKey@@PAVBlockedRecord@@@@@@QAE@XZ
??1?$SafeMap@VCertThumbprintKey@@VCertThumbprintMappedSet@CServiceConfigSettings@@V?$SafeMap_Iterator@VCertThumbprintKey@@VCertThumbprintMappedSet@CServiceConfigSettings@@@@@@QAE@XZ
??1?$SafeMap@VKey@Locale@@KV?$SafeMap_Iterator@VKey@Locale@@K@@@@QAE@XZ
??1?$SafeMap@VStringKeyCI@@KV?$SafeMap_Iterator@VStringKeyCI@@K@@@@QAE@XZ
??1?$SafeMap@VStringKeyCI@@UEmpty@@V?$SafeSet_Iterator@VStringKeyCI@@@@@@QAE@XZ
??1?$SafeMap@VStringKeyCI@@UUSER_CONTEXT_INFO@WSManHttpListener@@V?$SafeMap_Iterator@VStringKeyCI@@UUSER_CONTEXT_INFO@WSManHttpListener@@@@@@QAE@XZ
??1?$SafeMap@VStringKeyStore@@PAVExpiredOperationIdRecord@@V?$SafeMap_Iterator@VStringKeyStore@@PAVExpiredOperationIdRecord@@@@@@QAE@XZ
??1?$SafeMap@VStringKeyStore@@PAVServerFullDuplexChannel@@V?$SafeMap_Iterator@VStringKeyStore@@PAVServerFullDuplexChannel@@@@@@QAE@XZ
??1?$SafeMap@W4WSManSessionOption@@PAVOptionValue@SessionOptions@Client@WSMan@@V?$SafeMap_Iterator@W4WSManSessionOption@@PAVOptionValue@SessionOptions@Client@WSMan@@@@@@QAE@XZ
??1?$SafeMap@_KPAVSendPacketArgs@RobustConnectionBuffer@@V?$SafeMap_Iterator@_KPAVSendPacketArgs@RobustConnectionBuffer@@@@@@QAE@XZ
??1?$SafeMap_Iterator@PAVCCertMapping@@UEmpty@@@@QAE@XZ
??1?$SafeMap_Iterator@PAVCListenerConnect@@PAV1@@@QAE@XZ
??1?$SafeMap_Iterator@PAVCListenerOperation@@UEmpty@@@@QAE@XZ
??1?$SafeMap_Iterator@PAVCListenerReceive@@PAV1@@@QAE@XZ
??1?$SafeMap_Iterator@PAVCListenerSend@@PAV1@@@QAE@XZ
??1?$SafeMap_Iterator@PAVCListenerSignal@@PAV1@@@QAE@XZ
??1?$SafeMap_Iterator@PAVCShellUriSettings@@UEmpty@@@@QAE@XZ
??1?$SafeMap_Iterator@PAVCollector@@UEmpty@@@@QAE@XZ
??1?$SafeMap_Iterator@PAVHostOperation@@UEmpty@@@@QAE@XZ
??1?$SafeMap_Iterator@PAVIOperation@@UEmpty@@@@QAE@XZ
??1?$SafeMap_Iterator@PAVListenerSourceSubscription@@UEmpty@@@@QAE@XZ
??1?$SafeMap_Iterator@PAVPushSubscription@@UEmpty@@@@QAE@XZ
??1?$SafeMap_Iterator@PAXUEmpty@@@@QAE@XZ
??1?$SafeMap_Iterator@UPluginKey@@K@@QAE@XZ
??1?$SafeMap_Iterator@UUserKey@@PAVBlockedRecord@@@@QAE@XZ
??1?$SafeMap_Iterator@VCertThumbprintKey@@VCertThumbprintMappedSet@CServiceConfigSettings@@@@QAE@XZ
??1?$SafeMap_Iterator@VGuidKey@@PAVCListenerCommand@@@@QAE@XZ
??1?$SafeMap_Iterator@VKey@Locale@@K@@QAE@XZ
??1?$SafeMap_Iterator@VStringKeyCI@@K@@QAE@XZ
??1?$SafeMap_Iterator@VStringKeyCI@@UEmpty@@@@QAE@XZ
??1?$SafeMap_Iterator@VStringKeyCI@@UUSER_CONTEXT_INFO@WSManHttpListener@@@@QAE@XZ
??1?$SafeMap_Iterator@VStringKeyStore@@PAVExpiredOperationIdRecord@@@@QAE@XZ
??1?$SafeMap_Iterator@VStringKeyStore@@PAVServerFullDuplexChannel@@@@QAE@XZ
??1?$SafeMap_Iterator@W4WSManSessionOption@@PAVOptionValue@SessionOptions@Client@WSMan@@@@QAE@XZ
??1?$SafeMap_Iterator@_KPAVSendPacketArgs@RobustConnectionBuffer@@@@QAE@XZ
??1?$SafeMap_Lock@PAVCCertMapping@@UEmpty@@V?$SafeMap_Iterator@PAVCCertMapping@@UEmpty@@@@@@QAE@XZ
??1?$SafeMap_Lock@PAVCCertMapping@@UEmpty@@V?$SafeSet_Iterator@PAVCCertMapping@@@@@@QAE@XZ
??1?$SafeMap_Lock@PAVCListenerConnect@@PAV1@V?$SafeMap_Iterator@PAVCListenerConnect@@PAV1@@@@@QAE@XZ
??1?$SafeMap_Lock@PAVCListenerOperation@@UEmpty@@V?$SafeMap_Iterator@PAVCListenerOperation@@UEmpty@@@@@@QAE@XZ
??1?$SafeMap_Lock@PAVCListenerOperation@@UEmpty@@V?$SafeSet_Iterator@PAVCListenerOperation@@@@@@QAE@XZ
??1?$SafeMap_Lock@PAVCListenerReceive@@PAV1@V?$SafeMap_Iterator@PAVCListenerReceive@@PAV1@@@@@QAE@XZ
??1?$SafeMap_Lock@PAVCListenerSend@@PAV1@V?$SafeMap_Iterator@PAVCListenerSend@@PAV1@@@@@QAE@XZ
??1?$SafeMap_Lock@PAVCListenerSignal@@PAV1@V?$SafeMap_Iterator@PAVCListenerSignal@@PAV1@@@@@QAE@XZ
??1?$SafeMap_Lock@PAVCShellUriSettings@@UEmpty@@V?$SafeMap_Iterator@PAVCShellUriSettings@@UEmpty@@@@@@QAE@XZ
??1?$SafeMap_Lock@PAVCShellUriSettings@@UEmpty@@V?$SafeSet_Iterator@PAVCShellUriSettings@@@@@@QAE@XZ
??1?$SafeMap_Lock@PAVCollector@@UEmpty@@V?$SafeMap_Iterator@PAVCollector@@UEmpty@@@@@@QAE@XZ
??1?$SafeMap_Lock@PAVHostOperation@@UEmpty@@V?$SafeMap_Iterator@PAVHostOperation@@UEmpty@@@@@@QAE@XZ
??1?$SafeMap_Lock@PAVIOperation@@UEmpty@@V?$SafeMap_Iterator@PAVIOperation@@UEmpty@@@@@@QAE@XZ
??1?$SafeMap_Lock@PAVListenerSourceSubscription@@UEmpty@@V?$SafeMap_Iterator@PAVListenerSourceSubscription@@UEmpty@@@@@@QAE@XZ
??1?$SafeMap_Lock@PAVPushSubscription@@UEmpty@@V?$SafeMap_Iterator@PAVPushSubscription@@UEmpty@@@@@@QAE@XZ
??1?$SafeMap_Lock@PAXUEmpty@@V?$SafeMap_Iterator@PAXUEmpty@@@@@@QAE@XZ
??1?$SafeMap_Lock@PAXUEmpty@@V?$SafeSet_Iterator@PAX@@@@QAE@XZ
??1?$SafeMap_Lock@UPluginKey@@KV?$SafeMap_Iterator@UPluginKey@@K@@@@QAE@XZ
??1?$SafeMap_Lock@UUserKey@@PAVBlockedRecord@@V?$SafeMap_Iterator@UUserKey@@PAVBlockedRecord@@@@@@QAE@XZ
??1?$SafeMap_Lock@VCertThumbprintKey@@VCertThumbprintMappedSet@CServiceConfigSettings@@V?$SafeMap_Iterator@VCertThumbprintKey@@VCertThumbprintMappedSet@CServiceConfigSettings@@@@@@QAE@XZ
??1?$SafeMap_Lock@VGuidKey@@PAVCListenerCommand@@V?$SafeMap_Iterator@VGuidKey@@PAVCListenerCommand@@@@@@QAE@XZ
??1?$SafeMap_Lock@VKey@Locale@@KV?$SafeMap_Iterator@VKey@Locale@@K@@@@QAE@XZ
??1?$SafeMap_Lock@VStringKeyCI@@KV?$SafeMap_Iterator@VStringKeyCI@@K@@@@QAE@XZ
??1?$SafeMap_Lock@VStringKeyCI@@UEmpty@@V?$SafeMap_Iterator@VStringKeyCI@@UEmpty@@@@@@QAE@XZ
??1?$SafeMap_Lock@VStringKeyCI@@UEmpty@@V?$SafeSet_Iterator@VStringKeyCI@@@@@@QAE@XZ
??1?$SafeMap_Lock@VStringKeyCI@@UUSER_CONTEXT_INFO@WSManHttpListener@@V?$SafeMap_Iterator@VStringKeyCI@@UUSER_CONTEXT_INFO@WSManHttpListener@@@@@@QAE@XZ
??1?$SafeMap_Lock@VStringKeyStore@@PAVExpiredOperationIdRecord@@V?$SafeMap_Iterator@VStringKeyStore@@PAVExpiredOperationIdRecord@@@@@@QAE@XZ
??1?$SafeMap_Lock@VStringKeyStore@@PAVServerFullDuplexChannel@@V?$SafeMap_Iterator@VStringKeyStore@@PAVServerFullDuplexChannel@@@@@@QAE@XZ
??1?$SafeMap_Lock@W4WSManSessionOption@@PAVOptionValue@SessionOptions@Client@WSMan@@V?$SafeMap_Iterator@W4WSManSessionOption@@PAVOptionValue@SessionOptions@Client@WSMan@@@@@@QAE@XZ
??1?$SafeMap_Lock@_KPAVSendPacketArgs@RobustConnectionBuffer@@V?$SafeMap_Iterator@_KPAVSendPacketArgs@RobustConnectionBuffer@@@@@@QAE@XZ
??1?$SafeSet@PAVCCertMapping@@@@QAE@XZ
??1?$SafeSet@PAVCListenerOperation@@@@QAE@XZ
??1?$SafeSet@PAVCShellUriSettings@@@@QAE@XZ
??1?$SafeSet@PAVCollector@@@@QAE@XZ
??1?$SafeSet@PAVHostOperation@@@@QAE@XZ
??1?$SafeSet@PAVIOperation@@@@QAE@XZ
??1?$SafeSet@PAVListenerSourceSubscription@@@@QAE@XZ
??1?$SafeSet@PAVPushSubscription@@@@QAE@XZ
??1?$SafeSet@PAX@@QAE@XZ
??1?$SafeSet@VStringKeyCI@@@@QAE@XZ
??1?$SafeSet_Iterator@PAVCCertMapping@@@@QAE@XZ
??1?$SafeSet_Iterator@PAVCListenerOperation@@@@QAE@XZ
??1?$SafeSet_Iterator@PAVCShellUriSettings@@@@QAE@XZ
??1?$SafeSet_Iterator@PAVCollector@@@@QAE@XZ
??1?$SafeSet_Iterator@PAVHostOperation@@@@QAE@XZ
??1?$SafeSet_Iterator@PAVIOperation@@@@QAE@XZ
??1?$SafeSet_Iterator@PAVListenerSourceSubscription@@@@QAE@XZ
??1?$SafeSet_Iterator@PAVPushSubscription@@@@QAE@XZ
??1?$SafeSet_Iterator@PAX@@QAE@XZ
??1?$SafeSet_Iterator@VStringKeyCI@@@@QAE@XZ
??1?$SimpleQueue@T_LARGE_INTEGER@@@@QAE@XZ
??1AutoBstr@@QAE@XZ
??1AutoBstrNoAlloc@@QAE@XZ
??1AutoCertContext@@QAE@XZ
??1AutoChainContext@@QAE@XZ
??1AutoCoTaskMemFree@@QAE@XZ
??1AutoFwXmlCloseParser@@QAE@XZ
??1AutoHandle@@QAE@XZ
??1AutoImpersonateUser@@QAE@XZ
??1AutoLibrary@@QAE@XZ
??1AutoLocalFree@@QAE@XZ
??1AutoMIClass@@QAE@XZ
??1AutoMIInstance@@QAE@XZ
??1AutoObject@@QAE@XZ
??1AutoRegKey@@QAE@XZ
??1AutoSecurityDescriptor@@QAE@XZ
??1AutoWaitHandle@@QAE@XZ
??1BufferFormatter@@UAE@XZ
??1CBaseConfigCache@@UAE@XZ
??1CClientConfigCache@@UAE@XZ
??1CCommonConfigSettings@@UAE@XZ
??1CConfigManager@@UAE@XZ
??1CErrorContext@@UAE@XZ
??1CRequestContext@@UAE@XZ
??1CResourceAlias@@QAE@XZ
??1CServiceConfigCache@@EAE@XZ
??1CServiceWatcher@CServiceConfigCache@@QAE@XZ
??1CWSManCriticalSection@@QAE@XZ
??1CWSManCriticalSectionWithConditionVar@@QAE@XZ
??1CWSManEPR@@UAE@XZ
??1CWSManGroupPolicyManager@@EAE@XZ
??1CWSManResource@@UAE@XZ
??1CWSManResourceNoResourceUri@@UAE@XZ
??1CWSManSecurityUI@@QAE@XZ
??1CWinRSPluginConfigCache@@EAE@XZ
??1ChildLifeTimeManager@@QAE@XZ
??1CircularBufferFormatter@@UAE@XZ
??1ConfigRegistry@@IAE@XZ
??1EtwCorrelationHelper@@UAE@XZ
??1EventHandler@WSMan@@QAE@XZ
??1IConfigChangeObserver@@UAE@XZ
??1ILifeTimeMgmt@@UAE@XZ
??1IRequestContext@@UAE@XZ
??1IWSManGroupPolicyObserver@@UAE@XZ
??1IWSManGroupPolicyPublisher@@UAE@XZ
??1MessageId@PacketParser@@QAE@XZ
??1OnHTTPInitialize@@QAE@XZ
??1OperationId@PacketParser@@QAE@XZ
??1OwnLock@@QAE@XZ
??1PacketParser@@QAE@XZ
??1RBUFFER@@QAE@XZ
??1ReferenceParameters@PacketParser@@QAE@XZ
??1SBUFFER@@QAE@XZ
??1ShareLock@@QAE@XZ
??1SoapSemanticConverter@@QAE@XZ
??1TSTRBUFFER@@QAE@XZ
??1UserRecord@@QAE@XZ
??1XmlReader@@QAE@XZ
??4?$AutoCleanup@V?$AutoDelete@D@@PAD@@QAEAAV?$AutoDelete@D@@PAD@Z
??4?$AutoCleanup@V?$AutoDelete@G@@PAG@@QAEAAV?$AutoDelete@G@@PAG@Z
??4?$AutoCleanup@V?$AutoDelete@V?$SafeMap_Iterator@VStringKeyCI@@K@@@@PAV?$SafeMap_Iterator@VStringKeyCI@@K@@@@QAEAAV?$AutoDelete@V?$SafeMap_Iterator@VStringKeyCI@@K@@@@PAV?$SafeMap_Iterator@VStringKeyCI@@K@@@Z
??4?$AutoCleanup@V?$AutoDelete@V?$SafeMap_Iterator@W4WSManSessionOption@@PAVOptionValue@SessionOptions@Client@WSMan@@@@@@PAV?$SafeMap_Iterator@W4WSManSessionOption@@PAVOptionValue@SessionOptions@Client@WSMan@@@@@@QAEAAV?$AutoDelete@V?$SafeMap_Iterator@W4WSManSessionOption@@PAVOptionValue@SessionOptions@Client@WSMan@@@@@@PAV?$SafeMap_Iterator@W4WSManSessionOption@@PAVOptionValue@SessionOptions@Client@WSMan@@@@@Z
??4?$AutoCleanup@V?$AutoDelete@V?$SafeSet@PAVCCertMapping@@@@@@PAV?$SafeSet@PAVCCertMapping@@@@@@QAEAAV?$AutoDelete@V?$SafeSet@PAVCCertMapping@@@@@@PAV?$SafeSet@PAVCCertMapping@@@@@Z
??4?$AutoCleanup@V?$AutoDelete@V?$SafeSet@PAVCShellUriSettings@@@@@@PAV?$SafeSet@PAVCShellUriSettings@@@@@@QAEAAV?$AutoDelete@V?$SafeSet@PAVCShellUriSettings@@@@@@PAV?$SafeSet@PAVCShellUriSettings@@@@@Z
??4?$AutoCleanup@V?$AutoDelete@V?$SafeSet_Iterator@PAVCListenerOperation@@@@@@PAV?$SafeSet_Iterator@PAVCListenerOperation@@@@@@QAEAAV?$AutoDelete@V?$SafeSet_Iterator@PAVCListenerOperation@@@@@@PAV?$SafeSet_Iterator@PAVCListenerOperation@@@@@Z
??4?$AutoCleanup@V?$AutoDelete@V?$set@PAVCListenerSettings@@VCListenerSettingsLessFunctor@CServiceConfigSettings@@V?$transport_allocator@PAVCListenerSettings@@@@@std@@@@PAV?$set@PAVCListenerSettings@@VCListenerSettingsLessFunctor@CServiceConfigSettings@@V?$transport_allocator@PAVCListenerSettings@@@@@std@@@@QAEAAV?$AutoDelete@V?$set@PAVCListenerSettings@@VCListenerSettingsLessFunctor@CServiceConfigSettings@@V?$transport_allocator@PAVCListenerSettings@@@@@std@@@@PAV?$set@PAVCListenerSettings@@VCListenerSettingsLessFunctor@CServiceConfigSettings@@V?$transport_allocator@PAVCListenerSettings@@@@@std@@@Z
??4?$AutoCleanup@V?$AutoDelete@V?$set@Usockaddr_storage@@VSockAddrLessFunctor@CListenerSettings@@V?$transport_allocator@Usockaddr_storage@@@@@std@@@@PAV?$set@Usockaddr_storage@@VSockAddrLessFunctor@CListenerSettings@@V?$transport_allocator@Usockaddr_storage@@@@@std@@@@QAEAAV?$AutoDelete@V?$set@Usockaddr_storage@@VSockAddrLessFunctor@CListenerSettings@@V?$transport_allocator@Usockaddr_storage@@@@@std@@@@PAV?$set@Usockaddr_storage@@VSockAddrLessFunctor@CListenerSettings@@V?$transport_allocator@Usockaddr_storage@@@@@std@@@Z
??4?$AutoCleanup@V?$AutoDelete@V?$vector@PAVHandleImpl@Client@WSMan@@V?$transport_allocator@PAVHandleImpl@Client@WSMan@@@@@std@@@@PAV?$vector@PAVHandleImpl@Client@WSMan@@V?$transport_allocator@PAVHandleImpl@Client@WSMan@@@@@std@@@@QAEAAV?$AutoDelete@V?$vector@PAVHandleImpl@Client@WSMan@@V?$transport_allocator@PAVHandleImpl@Client@WSMan@@@@@std@@@@PAV?$vector@PAVHandleImpl@Client@WSMan@@V?$transport_allocator@PAVHandleImpl@Client@WSMan@@@@@std@@@Z
??4?$AutoCleanup@V?$AutoDelete@V?$vector@PAVIServiceConfigObserver@@V?$transport_allocator@PAVIServiceConfigObserver@@@@@std@@@@PAV?$vector@PAVIServiceConfigObserver@@V?$transport_allocator@PAVIServiceConfigObserver@@@@@std@@@@QAEAAV?$AutoDelete@V?$vector@PAVIServiceConfigObserver@@V?$transport_allocator@PAVIServiceConfigObserver@@@@@std@@@@PAV?$vector@PAVIServiceConfigObserver@@V?$transport_allocator@PAVIServiceConfigObserver@@@@@std@@@Z
??4?$AutoCleanup@V?$AutoDelete@VBlockedRecord@@@@PAVBlockedRecord@@@@QAEAAV?$AutoDelete@VBlockedRecord@@@@PAVBlockedRecord@@@Z
??4?$AutoCleanup@V?$AutoDelete@VCConfigChangeSource@@@@PAVCConfigChangeSource@@@@QAEAAV?$AutoDelete@VCConfigChangeSource@@@@PAVCConfigChangeSource@@@Z
??4?$AutoCleanup@V?$AutoDelete@VCObserverConfigChangeErrors@@@@PAVCObserverConfigChangeErrors@@@@QAEAAV?$AutoDelete@VCObserverConfigChangeErrors@@@@PAVCObserverConfigChangeErrors@@@Z
??4?$AutoCleanup@V?$AutoDelete@VCServiceWatcher@CServiceConfigCache@@@@PAVCServiceWatcher@CServiceConfigCache@@@@QAEAAV?$AutoDelete@VCServiceWatcher@CServiceConfigCache@@@@PAVCServiceWatcher@CServiceConfigCache@@@Z
??4?$AutoCleanup@V?$AutoDelete@VCWSManResource@@@@PAVCWSManResource@@@@QAEAAV?$AutoDelete@VCWSManResource@@@@PAVCWSManResource@@@Z
??4?$AutoCleanup@V?$AutoDelete@VCertHash@@@@PAVCertHash@@@@QAEAAV?$AutoDelete@VCertHash@@@@PAVCertHash@@@Z
??4?$AutoCleanup@V?$AutoDelete@VConfigUpdate@@@@PAVConfigUpdate@@@@QAEAAV?$AutoDelete@VConfigUpdate@@@@PAVConfigUpdate@@@Z
??4?$AutoCleanup@V?$AutoDelete@VEnumSinkEx@@@@PAVEnumSinkEx@@@@QAEAAV?$AutoDelete@VEnumSinkEx@@@@PAVEnumSinkEx@@@Z
??4?$AutoCleanup@V?$AutoDelete@VGPApiManager@@@@PAVGPApiManager@@@@QAEAAV?$AutoDelete@VGPApiManager@@@@PAVGPApiManager@@@Z
??4?$AutoCleanup@V?$AutoDelete@VGeneralSinkEx@@@@PAVGeneralSinkEx@@@@QAEAAV?$AutoDelete@VGeneralSinkEx@@@@PAVGeneralSinkEx@@@Z
??4?$AutoCleanup@V?$AutoDelete@VIChannelObserverFactory@@@@PAVIChannelObserverFactory@@@@QAEAAV?$AutoDelete@VIChannelObserverFactory@@@@PAVIChannelObserverFactory@@@Z
??4?$AutoCleanup@V?$AutoDelete@VIQueryDASHSMASHInterface@@@@PAVIQueryDASHSMASHInterface@@@@QAEAAV?$AutoDelete@VIQueryDASHSMASHInterface@@@@PAVIQueryDASHSMASHInterface@@@Z
??4?$AutoCleanup@V?$AutoDelete@VISpecification@@@@PAVISpecification@@@@QAEAAV?$AutoDelete@VISpecification@@@@PAVISpecification@@@Z
??4?$AutoCleanup@V?$AutoDelete@VPacketCreator@@@@PAVPacketCreator@@@@QAEAAV?$AutoDelete@VPacketCreator@@@@PAVPacketCreator@@@Z
??4?$AutoCleanup@V?$AutoDelete@VPacketParser@@@@PAVPacketParser@@@@QAEAAV?$AutoDelete@VPacketParser@@@@PAVPacketParser@@@Z
??4?$AutoCleanup@V?$AutoDelete@VRunAsConfiguration@@@@PAVRunAsConfiguration@@@@QAEAAV?$AutoDelete@VRunAsConfiguration@@@@PAVRunAsConfiguration@@@Z
??4?$AutoCleanup@V?$AutoDelete@VSecurityEntry@Catalog@@@@PAVSecurityEntry@Catalog@@@@QAEAAV?$AutoDelete@VSecurityEntry@Catalog@@@@PAVSecurityEntry@Catalog@@@Z
??4?$AutoCleanup@V?$AutoDelete@VServiceSoapProcessor@@@@PAVServiceSoapProcessor@@@@QAEAAV?$AutoDelete@VServiceSoapProcessor@@@@PAVServiceSoapProcessor@@@Z
??4?$AutoCleanup@V?$AutoDelete@VSubscriptionEnumerator@@@@PAVSubscriptionEnumerator@@@@QAEAAV?$AutoDelete@VSubscriptionEnumerator@@@@PAVSubscriptionEnumerator@@@Z
??4?$AutoCleanup@V?$AutoDelete@VTSTRBUFFER@@@@PAVTSTRBUFFER@@@@QAEAAV?$AutoDelete@VTSTRBUFFER@@@@PAVTSTRBUFFER@@@Z
??4?$AutoCleanup@V?$AutoDelete@VUniqueStringOverflow@@@@PAVUniqueStringOverflow@@@@QAEAAV?$AutoDelete@VUniqueStringOverflow@@@@PAVUniqueStringOverflow@@@Z
??4?$AutoCleanup@V?$AutoDelete@VWSMANCONFIGTABLE_IDENTITY@@@@PAVWSMANCONFIGTABLE_IDENTITY@@@@QAEAAV?$AutoDelete@VWSMANCONFIGTABLE_IDENTITY@@@@PAVWSMANCONFIGTABLE_IDENTITY@@@Z
??4?$AutoCleanup@V?$AutoDelete@VWmiEnumContext@@@@PAVWmiEnumContext@@@@QAEAAV?$AutoDelete@VWmiEnumContext@@@@PAVWmiEnumContext@@@Z
??4?$AutoCleanup@V?$AutoDelete@VXmlReader@@@@PAVXmlReader@@@@QAEAAV?$AutoDelete@VXmlReader@@@@PAVXmlReader@@@Z
??4?$AutoCleanup@V?$AutoDeleteVector@$$CBG@@PBG@@QAEAAV?$AutoDeleteVector@$$CBG@@PBG@Z
??4?$AutoCleanup@V?$AutoDeleteVector@D@@PAD@@QAEAAV?$AutoDeleteVector@D@@PAD@Z
??4?$AutoCleanup@V?$AutoDeleteVector@E@@PAE@@QAEAAV?$AutoDeleteVector@E@@PAE@Z
??4?$AutoCleanup@V?$AutoDeleteVector@G@@PAG@@QAEAAV?$AutoDeleteVector@G@@PAG@Z
??4?$AutoCleanup@V?$AutoDeleteVector@PAG@@PAPAG@@QAEAAV?$AutoDeleteVector@PAG@@PAPAG@Z
??4?$AutoCleanup@V?$AutoDeleteVector@PBG@@PAPBG@@QAEAAV?$AutoDeleteVector@PBG@@PAPBG@Z
??4?$AutoCleanup@V?$AutoDeleteVector@U_CONFIG_UPDATE@@@@PAU_CONFIG_UPDATE@@@@QAEAAV?$AutoDeleteVector@U_CONFIG_UPDATE@@@@PAU_CONFIG_UPDATE@@@Z
??4?$AutoCleanup@V?$AutoDeleteVector@U_WINRS_CREATE_SHELL_ENVIRONMENT_VARIABLE@@@@PAU_WINRS_CREATE_SHELL_ENVIRONMENT_VARIABLE@@@@QAEAAV?$AutoDeleteVector@U_WINRS_CREATE_SHELL_ENVIRONMENT_VARIABLE@@@@PAU_WINRS_CREATE_SHELL_ENVIRONMENT_VARIABLE@@@Z
??4?$AutoCleanup@V?$AutoDeleteVector@U_WINRS_RUN_COMMAND_ARG@@@@PAU_WINRS_RUN_COMMAND_ARG@@@@QAEAAV?$AutoDeleteVector@U_WINRS_RUN_COMMAND_ARG@@@@PAU_WINRS_RUN_COMMAND_ARG@@@Z
??4?$AutoCleanup@V?$AutoDeleteVector@U_WSMAN_OPTION@@@@PAU_WSMAN_OPTION@@@@QAEAAV?$AutoDeleteVector@U_WSMAN_OPTION@@@@PAU_WSMAN_OPTION@@@Z
??4?$AutoCleanup@V?$AutoDeleteVector@X@@PAX@@QAEAAV?$AutoDeleteVector@X@@PAX@Z
??4?$AutoCleanup@V?$AutoFree@E@@PAE@@QAEAAV?$AutoFree@E@@PAE@Z
??4?$AutoCleanup@V?$AutoLocklessItemRecycle@VPacket@@@@PAVPacket@@@@QAEAAV?$AutoLocklessItemRecycle@VPacket@@@@PAVPacket@@@Z
??4?$AutoCleanup@V?$AutoRelease@UIClientSecurity@@@@PAUIClientSecurity@@@@QAEAAV?$AutoRelease@UIClientSecurity@@@@PAUIClientSecurity@@@Z
??4?$AutoCleanup@V?$AutoRelease@UIEnumWbemClassObject@@@@PAUIEnumWbemClassObject@@@@QAEAAV?$AutoRelease@UIEnumWbemClassObject@@@@PAUIEnumWbemClassObject@@@Z
??4?$AutoCleanup@V?$AutoRelease@UIErrorInfo@@@@PAUIErrorInfo@@@@QAEAAV?$AutoRelease@UIErrorInfo@@@@PAUIErrorInfo@@@Z
??4?$AutoCleanup@V?$AutoRelease@UIUnknown@@@@PAUIUnknown@@@@QAEAAV?$AutoRelease@UIUnknown@@@@PAUIUnknown@@@Z
??4?$AutoCleanup@V?$AutoRelease@UIWbemClassObject@@@@PAUIWbemClassObject@@@@QAEAAV?$AutoRelease@UIWbemClassObject@@@@PAUIWbemClassObject@@@Z
??4?$AutoCleanup@V?$AutoRelease@UIWbemContext@@@@PAUIWbemContext@@@@QAEAAV?$AutoRelease@UIWbemContext@@@@PAUIWbemContext@@@Z
??4?$AutoCleanup@V?$AutoRelease@UIWbemLocator@@@@PAUIWbemLocator@@@@QAEAAV?$AutoRelease@UIWbemLocator@@@@PAUIWbemLocator@@@Z
??4?$AutoCleanup@V?$AutoRelease@UIWbemObjectTextSrc@@@@PAUIWbemObjectTextSrc@@@@QAEAAV?$AutoRelease@UIWbemObjectTextSrc@@@@PAUIWbemObjectTextSrc@@@Z
??4?$AutoCleanup@V?$AutoRelease@UIWbemPath@@@@PAUIWbemPath@@@@QAEAAV?$AutoRelease@UIWbemPath@@@@PAUIWbemPath@@@Z
??4?$AutoCleanup@V?$AutoRelease@UIWbemPathKeyList@@@@PAUIWbemPathKeyList@@@@QAEAAV?$AutoRelease@UIWbemPathKeyList@@@@PAUIWbemPathKeyList@@@Z
??4?$AutoCleanup@V?$AutoRelease@UIWbemQualifierSet@@@@PAUIWbemQualifierSet@@@@QAEAAV?$AutoRelease@UIWbemQualifierSet@@@@PAUIWbemQualifierSet@@@Z
??4?$AutoCleanup@V?$AutoRelease@UIWbemQuery@@@@PAUIWbemQuery@@@@QAEAAV?$AutoRelease@UIWbemQuery@@@@PAUIWbemQuery@@@Z
??4?$AutoCleanup@V?$AutoRelease@UIWbemServices@@@@PAUIWbemServices@@@@QAEAAV?$AutoRelease@UIWbemServices@@@@PAUIWbemServices@@@Z
??4?$AutoCleanup@V?$AutoRelease@VApplication@Client@WSMan@@@@PAVApplication@Client@WSMan@@@@QAEAAV?$AutoRelease@VApplication@Client@WSMan@@@@PAVApplication@Client@WSMan@@@Z
??4?$AutoCleanup@V?$AutoRelease@VCBaseConfigCache@@@@PAVCBaseConfigCache@@@@QAEAAV?$AutoRelease@VCBaseConfigCache@@@@PAVCBaseConfigCache@@@Z
??4?$AutoCleanup@V?$AutoRelease@VCClientConfigSettings@@@@PAVCClientConfigSettings@@@@QAEAAV?$AutoRelease@VCClientConfigSettings@@@@PAVCClientConfigSettings@@@Z
??4?$AutoCleanup@V?$AutoRelease@VCCommonConfigSettings@@@@PAVCCommonConfigSettings@@@@QAEAAV?$AutoRelease@VCCommonConfigSettings@@@@PAVCCommonConfigSettings@@@Z
??4?$AutoCleanup@V?$AutoRelease@VCConfigCacheMap@CBaseConfigCache@@@@PAVCConfigCacheMap@CBaseConfigCache@@@@QAEAAV?$AutoRelease@VCConfigCacheMap@CBaseConfigCache@@@@PAVCConfigCacheMap@CBaseConfigCache@@@Z
??4?$AutoCleanup@V?$AutoRelease@VCConfigManager@@@@PAVCConfigManager@@@@QAEAAV?$AutoRelease@VCConfigManager@@@@PAVCConfigManager@@@Z
??4?$AutoCleanup@V?$AutoRelease@VCRemoteOperation@@@@PAVCRemoteOperation@@@@QAEAAV?$AutoRelease@VCRemoteOperation@@@@PAVCRemoteOperation@@@Z
??4?$AutoCleanup@V?$AutoRelease@VCRemoteSession@@@@PAVCRemoteSession@@@@QAEAAV?$AutoRelease@VCRemoteSession@@@@PAVCRemoteSession@@@Z
??4?$AutoCleanup@V?$AutoRelease@VCRequestContext@@@@PAVCRequestContext@@@@QAEAAV?$AutoRelease@VCRequestContext@@@@PAVCRequestContext@@@Z
??4?$AutoCleanup@V?$AutoRelease@VCServiceCommonConfigSettings@@@@PAVCServiceCommonConfigSettings@@@@QAEAAV?$AutoRelease@VCServiceCommonConfigSettings@@@@PAVCServiceCommonConfigSettings@@@Z
??4?$AutoCleanup@V?$AutoRelease@VCServiceConfigCache@@@@PAVCServiceConfigCache@@@@QAEAAV?$AutoRelease@VCServiceConfigCache@@@@PAVCServiceConfigCache@@@Z
??4?$AutoCleanup@V?$AutoRelease@VCServiceConfigSettings@@@@PAVCServiceConfigSettings@@@@QAEAAV?$AutoRelease@VCServiceConfigSettings@@@@PAVCServiceConfigSettings@@@Z
??4?$AutoCleanup@V?$AutoRelease@VCWSManEPR@@@@PAVCWSManEPR@@@@QAEAAV?$AutoRelease@VCWSManEPR@@@@PAVCWSManEPR@@@Z
??4?$AutoCleanup@V?$AutoRelease@VCWSManGroupPolicyManager@@@@PAVCWSManGroupPolicyManager@@@@QAEAAV?$AutoRelease@VCWSManGroupPolicyManager@@@@PAVCWSManGroupPolicyManager@@@Z
??4?$AutoCleanup@V?$AutoRelease@VCWSManResource@@@@PAVCWSManResource@@@@QAEAAV?$AutoRelease@VCWSManResource@@@@PAVCWSManResource@@@Z
??4?$AutoCleanup@V?$AutoRelease@VCWinRSPluginConfigCache@@@@PAVCWinRSPluginConfigCache@@@@QAEAAV?$AutoRelease@VCWinRSPluginConfigCache@@@@PAVCWinRSPluginConfigCache@@@Z
??4?$AutoCleanup@V?$AutoRelease@VCWinRSPluginConfigSettings@@@@PAVCWinRSPluginConfigSettings@@@@QAEAAV?$AutoRelease@VCWinRSPluginConfigSettings@@@@PAVCWinRSPluginConfigSettings@@@Z
??4?$AutoCleanup@V?$AutoRelease@VEnumSinkEx@@@@PAVEnumSinkEx@@@@QAEAAV?$AutoRelease@VEnumSinkEx@@@@PAVEnumSinkEx@@@Z
??4?$AutoCleanup@V?$AutoRelease@VGeneralSinkEx@@@@PAVGeneralSinkEx@@@@QAEAAV?$AutoRelease@VGeneralSinkEx@@@@PAVGeneralSinkEx@@@Z
??4?$AutoCleanup@V?$AutoRelease@VIRequestContext@@@@PAVIRequestContext@@@@QAEAAV?$AutoRelease@VIRequestContext@@@@PAVIRequestContext@@@Z
??4?$AutoCleanup@V?$AutoRelease@VISubscription@@@@PAVISubscription@@@@QAEAAV?$AutoRelease@VISubscription@@@@PAVISubscription@@@Z
??4?$AutoCleanup@V?$AutoRelease@VInboundRequestDetails@@@@PAVInboundRequestDetails@@@@QAEAAV?$AutoRelease@VInboundRequestDetails@@@@PAVInboundRequestDetails@@@Z
??4?$AutoCleanup@V?$AutoRelease@VUserRecord@@@@PAVUserRecord@@@@QAEAAV?$AutoRelease@VUserRecord@@@@PAVUserRecord@@@Z
??4?$AutoCleanup@V?$AutoRelease@VWSManHttpListener@@@@PAVWSManHttpListener@@@@QAEAAV?$AutoRelease@VWSManHttpListener@@@@PAVWSManHttpListener@@@Z
??4?$AutoCleanup@V?$AutoReleaseEx@VShell@Client@WSMan@@@@PAVShell@Client@WSMan@@@@QAEAAV?$AutoReleaseEx@VShell@Client@WSMan@@@@PAVShell@Client@WSMan@@@Z
??4?$AutoCleanup@VAutoBstr@@PAG@@QAEAAVAutoBstr@@PAG@Z
??4?$AutoCleanup@VAutoBstrNoAlloc@@PAG@@QAEAAVAutoBstrNoAlloc@@PAG@Z
??4?$AutoCleanup@VAutoCertContext@@PBU_CERT_CONTEXT@@@@QAEAAVAutoCertContext@@PBU_CERT_CONTEXT@@@Z
??4?$AutoCleanup@VAutoChainContext@@PBU_CERT_CHAIN_CONTEXT@@@@QAEAAVAutoChainContext@@PBU_CERT_CHAIN_CONTEXT@@@Z
??4?$AutoCleanup@VAutoCoTaskMemFree@@PAX@@QAEAAVAutoCoTaskMemFree@@PAX@Z
??4?$AutoCleanup@VAutoFwXmlCloseParser@@PAX@@QAEAAVAutoFwXmlCloseParser@@PAX@Z
??4?$AutoCleanup@VAutoHandle@@PAX@@QAEAAVAutoHandle@@PAX@Z
??4?$AutoCleanup@VAutoImpersonateUser@@PAX@@QAEAAVAutoImpersonateUser@@PAX@Z
??4?$AutoCleanup@VAutoLibrary@@PAUHINSTANCE__@@@@QAEAAVAutoLibrary@@PAUHINSTANCE__@@@Z
??4?$AutoCleanup@VAutoLocalFree@@PAX@@QAEAAVAutoLocalFree@@PAX@Z
??4?$AutoCleanup@VAutoMIClass@@PAU_MI_Class@@@@QAEAAVAutoMIClass@@PAU_MI_Class@@@Z
??4?$AutoCleanup@VAutoMIInstance@@PAU_MI_Instance@@@@QAEAAVAutoMIInstance@@PAU_MI_Instance@@@Z
??4?$AutoCleanup@VAutoObject@@PAUWSMAN_OBJECT@@@@QAEAAVAutoObject@@PAUWSMAN_OBJECT@@@Z
??4?$AutoCleanup@VAutoRegKey@@PAUHKEY__@@@@QAEAAVAutoRegKey@@PAUHKEY__@@@Z
??4?$AutoCleanup@VAutoSecurityDescriptor@@PAX@@QAEAAVAutoSecurityDescriptor@@PAX@Z
??4?$AutoCleanup@VAutoWaitHandle@@PAX@@QAEAAVAutoWaitHandle@@PAX@Z
??4?$AutoDelete@D@@QAEAAV0@PAD@Z
??4?$AutoDelete@G@@QAEAAV0@PAG@Z
??4?$AutoDelete@V?$SafeMap_Iterator@VStringKeyCI@@K@@@@QAEAAV0@PAV?$SafeMap_Iterator@VStringKeyCI@@K@@@Z
??4?$AutoDelete@V?$SafeMap_Iterator@W4WSManSessionOption@@PAVOptionValue@SessionOptions@Client@WSMan@@@@@@QAEAAV0@PAV?$SafeMap_Iterator@W4WSManSessionOption@@PAVOptionValue@SessionOptions@Client@WSMan@@@@@Z
??4?$AutoDelete@V?$SafeSet@PAVCCertMapping@@@@@@QAEAAV0@PAV?$SafeSet@PAVCCertMapping@@@@@Z
??4?$AutoDelete@V?$SafeSet@PAVCShellUriSettings@@@@@@QAEAAV0@PAV?$SafeSet@PAVCShellUriSettings@@@@@Z
??4?$AutoDelete@V?$SafeSet_Iterator@PAVCListenerOperation@@@@@@QAEAAV0@PAV?$SafeSet_Iterator@PAVCListenerOperation@@@@@Z
??4?$AutoDelete@V?$set@PAVCListenerSettings@@VCListenerSettingsLessFunctor@CServiceConfigSettings@@V?$transport_allocator@PAVCListenerSettings@@@@@std@@@@QAEAAV0@PAV?$set@PAVCListenerSettings@@VCListenerSettingsLessFunctor@CServiceConfigSettings@@V?$transport_allocator@PAVCListenerSettings@@@@@std@@@Z
??4?$AutoDelete@V?$set@Usockaddr_storage@@VSockAddrLessFunctor@CListenerSettings@@V?$transport_allocator@Usockaddr_storage@@@@@std@@@@QAEAAV0@PAV?$set@Usockaddr_storage@@VSockAddrLessFunctor@CListenerSettings@@V?$transport_allocator@Usockaddr_storage@@@@@std@@@Z
??4?$AutoDelete@V?$vector@PAVHandleImpl@Client@WSMan@@V?$transport_allocator@PAVHandleImpl@Client@WSMan@@@@@std@@@@QAEAAV0@PAV?$vector@PAVHandleImpl@Client@WSMan@@V?$transport_allocator@PAVHandleImpl@Client@WSMan@@@@@std@@@Z
??4?$AutoDelete@V?$vector@PAVIServiceConfigObserver@@V?$transport_allocator@PAVIServiceConfigObserver@@@@@std@@@@QAEAAV0@PAV?$vector@PAVIServiceConfigObserver@@V?$transport_allocator@PAVIServiceConfigObserver@@@@@std@@@Z
??4?$AutoDelete@VBlockedRecord@@@@QAEAAV0@PAVBlockedRecord@@@Z
??4?$AutoDelete@VCConfigChangeSource@@@@QAEAAV0@PAVCConfigChangeSource@@@Z
??4?$AutoDelete@VCObserverConfigChangeErrors@@@@QAEAAV0@PAVCObserverConfigChangeErrors@@@Z
??4?$AutoDelete@VCServiceWatcher@CServiceConfigCache@@@@QAEAAV0@PAVCServiceWatcher@CServiceConfigCache@@@Z
??4?$AutoDelete@VCWSManResource@@@@QAEAAV0@PAVCWSManResource@@@Z
??4?$AutoDelete@VCertHash@@@@QAEAAV0@PAVCertHash@@@Z
??4?$AutoDelete@VConfigUpdate@@@@QAEAAV0@PAVConfigUpdate@@@Z
??4?$AutoDelete@VEnumSinkEx@@@@QAEAAV0@PAVEnumSinkEx@@@Z
??4?$AutoDelete@VGPApiManager@@@@QAEAAV0@PAVGPApiManager@@@Z
??4?$AutoDelete@VGeneralSinkEx@@@@QAEAAV0@PAVGeneralSinkEx@@@Z
??4?$AutoDelete@VIChannelObserverFactory@@@@QAEAAV0@PAVIChannelObserverFactory@@@Z
??4?$AutoDelete@VIQueryDASHSMASHInterface@@@@QAEAAV0@PAVIQueryDASHSMASHInterface@@@Z
??4?$AutoDelete@VISpecification@@@@QAEAAV0@PAVISpecification@@@Z
??4?$AutoDelete@VPacketCreator@@@@QAEAAV0@PAVPacketCreator@@@Z
??4?$AutoDelete@VPacketParser@@@@QAEAAV0@PAVPacketParser@@@Z
??4?$AutoDelete@VRunAsConfiguration@@@@QAEAAV0@PAVRunAsConfiguration@@@Z
??4?$AutoDelete@VSecurityEntry@Catalog@@@@QAEAAV0@PAVSecurityEntry@Catalog@@@Z
??4?$AutoDelete@VServiceSoapProcessor@@@@QAEAAV0@PAVServiceSoapProcessor@@@Z
??4?$AutoDelete@VSubscriptionEnumerator@@@@QAEAAV0@PAVSubscriptionEnumerator@@@Z
??4?$AutoDelete@VTSTRBUFFER@@@@QAEAAV0@PAVTSTRBUFFER@@@Z
??4?$AutoDelete@VUniqueStringOverflow@@@@QAEAAV0@PAVUniqueStringOverflow@@@Z
??4?$AutoDelete@VWSMANCONFIGTABLE_IDENTITY@@@@QAEAAV0@PAVWSMANCONFIGTABLE_IDENTITY@@@Z
??4?$AutoDelete@VWmiEnumContext@@@@QAEAAV0@PAVWmiEnumContext@@@Z
??4?$AutoDelete@VXmlReader@@@@QAEAAV0@PAVXmlReader@@@Z
??4?$AutoDeleteVector@$$CBG@@QAEAAV0@PBG@Z
??4?$AutoDeleteVector@D@@QAEAAV0@PAD@Z
??4?$AutoDeleteVector@E@@QAEAAV0@PAE@Z
??4?$AutoDeleteVector@G@@QAEAAV0@PAG@Z
??4?$AutoDeleteVector@PAG@@QAEAAV0@PAPAG@Z
??4?$AutoDeleteVector@PBG@@QAEAAV0@PAPBG@Z
??4?$AutoDeleteVector@U_CONFIG_UPDATE@@@@QAEAAV0@PAU_CONFIG_UPDATE@@@Z
??4?$AutoDeleteVector@U_WINRS_CREATE_SHELL_ENVIRONMENT_VARIABLE@@@@QAEAAV0@PAU_WINRS_CREATE_SHELL_ENVIRONMENT_VARIABLE@@@Z
??4?$AutoDeleteVector@U_WINRS_RUN_COMMAND_ARG@@@@QAEAAV0@PAU_WINRS_RUN_COMMAND_ARG@@@Z
??4?$AutoDeleteVector@U_WSMAN_OPTION@@@@QAEAAV0@PAU_WSMAN_OPTION@@@Z
??4?$AutoDeleteVector@X@@QAEAAV0@PAX@Z
??4?$AutoFree@E@@QAEAAV0@PAE@Z
??4?$AutoLocklessItemRecycle@VPacket@@@@QAEAAV0@PAVPacket@@@Z
??4?$AutoRelease@UIClientSecurity@@@@QAEAAV0@PAUIClientSecurity@@@Z
??4?$AutoRelease@UIEnumWbemClassObject@@@@QAEAAV0@PAUIEnumWbemClassObject@@@Z
??4?$AutoRelease@UIErrorInfo@@@@QAEAAV0@PAUIErrorInfo@@@Z
??4?$AutoRelease@UIUnknown@@@@QAEAAV0@PAUIUnknown@@@Z
??4?$AutoRelease@UIWbemClassObject@@@@QAEAAV0@PAUIWbemClassObject@@@Z
??4?$AutoRelease@UIWbemContext@@@@QAEAAV0@PAUIWbemContext@@@Z
??4?$AutoRelease@UIWbemLocator@@@@QAEAAV0@PAUIWbemLocator@@@Z
??4?$AutoRelease@UIWbemObjectTextSrc@@@@QAEAAV0@PAUIWbemObjectTextSrc@@@Z
??4?$AutoRelease@UIWbemPath@@@@QAEAAV0@PAUIWbemPath@@@Z
??4?$AutoRelease@UIWbemPathKeyList@@@@QAEAAV0@PAUIWbemPathKeyList@@@Z
??4?$AutoRelease@UIWbemQualifierSet@@@@QAEAAV0@PAUIWbemQualifierSet@@@Z
??4?$AutoRelease@UIWbemQuery@@@@QAEAAV0@PAUIWbemQuery@@@Z
??4?$AutoRelease@UIWbemServices@@@@QAEAAV0@PAUIWbemServices@@@Z
??4?$AutoRelease@VApplication@Client@WSMan@@@@QAEAAV0@PAVApplication@Client@WSMan@@@Z
??4?$AutoRelease@VCBaseConfigCache@@@@QAEAAV0@PAVCBaseConfigCache@@@Z
??4?$AutoRelease@VCClientConfigSettings@@@@QAEAAV0@PAVCClientConfigSettings@@@Z
??4?$AutoRelease@VCCommonConfigSettings@@@@QAEAAV0@PAVCCommonConfigSettings@@@Z
??4?$AutoRelease@VCConfigCacheMap@CBaseConfigCache@@@@QAEAAV0@PAVCConfigCacheMap@CBaseConfigCache@@@Z
??4?$AutoRelease@VCConfigManager@@@@QAEAAV0@PAVCConfigManager@@@Z
??4?$AutoRelease@VCRemoteOperation@@@@QAEAAV0@PAVCRemoteOperation@@@Z
??4?$AutoRelease@VCRemoteSession@@@@QAEAAV0@PAVCRemoteSession@@@Z
??4?$AutoRelease@VCRequestContext@@@@QAEAAV0@PAVCRequestContext@@@Z
??4?$AutoRelease@VCServiceCommonConfigSettings@@@@QAEAAV0@PAVCServiceCommonConfigSettings@@@Z
??4?$AutoRelease@VCServiceConfigCache@@@@QAEAAV0@PAVCServiceConfigCache@@@Z
??4?$AutoRelease@VCServiceConfigSettings@@@@QAEAAV0@PAVCServiceConfigSettings@@@Z
??4?$AutoRelease@VCWSManEPR@@@@QAEAAV0@PAVCWSManEPR@@@Z
??4?$AutoRelease@VCWSManGroupPolicyManager@@@@QAEAAV0@PAVCWSManGroupPolicyManager@@@Z
??4?$AutoRelease@VCWSManResource@@@@QAEAAV0@PAVCWSManResource@@@Z
??4?$AutoRelease@VCWinRSPluginConfigCache@@@@QAEAAV0@PAVCWinRSPluginConfigCache@@@Z
??4?$AutoRelease@VCWinRSPluginConfigSettings@@@@QAEAAV0@PAVCWinRSPluginConfigSettings@@@Z
??4?$AutoRelease@VEnumSinkEx@@@@QAEAAV0@PAVEnumSinkEx@@@Z
??4?$AutoRelease@VGeneralSinkEx@@@@QAEAAV0@PAVGeneralSinkEx@@@Z
??4?$AutoRelease@VIRequestContext@@@@QAEAAV0@PAVIRequestContext@@@Z
??4?$AutoRelease@VISubscription@@@@QAEAAV0@PAVISubscription@@@Z
??4?$AutoRelease@VInboundRequestDetails@@@@QAEAAV0@PAVInboundRequestDetails@@@Z
??4?$AutoRelease@VUserRecord@@@@QAEAAV0@PAVUserRecord@@@Z
??4?$AutoRelease@VWSManHttpListener@@@@QAEAAV0@PAVWSManHttpListener@@@Z
??4?$AutoReleaseEx@VShell@Client@WSMan@@@@QAEAAV0@PAVShell@Client@WSMan@@@Z
??4?$PacketElement@K@PacketParser@@QAEAAV01@$$QAV01@@Z
??4?$PacketElement@K@PacketParser@@QAEAAV01@ABV01@@Z
??4?$PacketElement@PAU_FWXML_ELEMENT@@@PacketParser@@QAEAAV01@$$QAV01@@Z
??4?$PacketElement@PAU_FWXML_ELEMENT@@@PacketParser@@QAEAAV01@ABV01@@Z
??4?$PacketElement@PBG@PacketParser@@QAEAAV01@$$QAV01@@Z
??4?$PacketElement@PBG@PacketParser@@QAEAAV01@ABV01@@Z
??4?$PacketElement@_K@PacketParser@@QAEAAV01@$$QAV01@@Z
??4?$PacketElement@_K@PacketParser@@QAEAAV01@ABV01@@Z
??4?$SimpleQueue@T_LARGE_INTEGER@@@@QAEAAV0@ABV0@@Z
??4AutoBstr@@QAEAAV0@PAG@Z
??4AutoBstrNoAlloc@@QAEAAV0@PAG@Z
??4AutoCertContext@@QAEAAV0@PBU_CERT_CONTEXT@@@Z
??4AutoChainContext@@QAEAAV0@PBU_CERT_CHAIN_CONTEXT@@@Z
??4AutoCoTaskMemFree@@QAEAAV0@PAX@Z
??4AutoFwXmlCloseParser@@QAEAAV0@PAX@Z
??4AutoHandle@@QAEAAV0@PAX@Z
??4AutoImpersonateUser@@QAEAAV0@PAX@Z
??4AutoLibrary@@QAEAAV0@PAUHINSTANCE__@@@Z
??4AutoLocalFree@@QAEAAV0@PAX@Z
??4AutoMIClass@@QAEAAV0@PAU_MI_Class@@@Z
??4AutoMIInstance@@QAEAAV0@PAU_MI_Instance@@@Z
??4AutoObject@@QAEAAV0@PAUWSMAN_OBJECT@@@Z
??4AutoRegKey@@QAEAAV0@PAUHKEY__@@@Z
??4AutoSecurityDescriptor@@QAEAAV0@PAX@Z
??4AutoWaitHandle@@QAEAAV0@PAX@Z
??4ChildLifeTimeManager@@QAEAAV0@ABV0@@Z
??4ConfigRegistry@@QAEAAV0@ABV0@@Z
??4EtwCorrelationHelper@@QAEAAV0@ABV0@@Z
??4EventLog@@QAEAAV0@$$QAV0@@Z
??4EventLog@@QAEAAV0@ABV0@@Z
??4ExtendedSemantic@@QAEAAV0@$$QAV0@@Z
??4ExtendedSemantic@@QAEAAV0@ABV0@@Z
??4FastLock@@QAEAAV0@$$QAV0@@Z
??4FastLock@@QAEAAV0@ABV0@@Z
??4Fragment@PacketParser@@QAEAAV01@$$QAV01@@Z
??4Fragment@PacketParser@@QAEAAV01@ABV01@@Z
??4IConfigChangeObserver@@QAEAAV0@ABV0@@Z
??4ILifeTimeMgmt@@QAEAAV0@ABV0@@Z
??4IWSManGroupPolicyObserver@@QAEAAV0@ABV0@@Z
??4IWSManGroupPolicyPublisher@@QAEAAV0@ABV0@@Z
??4Locale@@QAEAAV0@ABV0@@Z
??4NotUnderstandSoapHeader@PacketParser@@QAEAAV01@$$QAV01@@Z
??4NotUnderstandSoapHeader@PacketParser@@QAEAAV01@ABV01@@Z
??4PacketFormatter@@QAEAAV0@$$QAV0@@Z
??4PacketFormatter@@QAEAAV0@ABV0@@Z
??4RBUFFER@@QAEAAV0@ABV0@@Z
??4SBUFFER@@QAEAAV0@$$QAV0@@Z
??4SBUFFER@@QAEAAV0@ABV0@@Z
??4SessionId@PacketParser@@QAEAAV01@$$QAV01@@Z
??4SessionId@PacketParser@@QAEAAV01@ABV01@@Z
??4SoapSemanticConverter@@QAEAAV0@ABV0@@Z
??4UserAuthzRecord@@QAEAAV0@$$QAV0@@Z
??4UserAuthzRecord@@QAEAAV0@ABV0@@Z
??6BufferFormatter@@UAEAAV0@AAVBufferFormatterDataFormatDWORD@@@Z
??6BufferFormatter@@UAEAAV0@AAVBufferFormatterDataFormatULONGLONG@@@Z
??6BufferFormatter@@UAEAAV0@AAVBufferFormatterDataPCWSTR@@@Z
??6BufferFormatter@@UAEAAV0@AAVBufferFormatterDataPUCHAR@@@Z
??6BufferFormatter@@UAEAAV0@AAVBufferFormatterDataXmlEscape@@@Z
??6BufferFormatter@@UAEAAV0@K@Z
??6BufferFormatter@@UAEAAV0@PAU_FWXML_ELEMENT@@@Z
??7?$AutoCleanup@V?$AutoDelete@G@@PAG@@QBE_NXZ
??7?$AutoCleanup@V?$AutoDelete@V?$SafeSet@PAVCCertMapping@@@@@@PAV?$SafeSet@PAVCCertMapping@@@@@@QBE_NXZ
??7?$AutoCleanup@V?$AutoDelete@V?$SafeSet@PAVCShellUriSettings@@@@@@PAV?$SafeSet@PAVCShellUriSettings@@@@@@QBE_NXZ
??7?$AutoCleanup@V?$AutoDelete@V?$set@PAVCListenerSettings@@VCListenerSettingsLessFunctor@CServiceConfigSettings@@V?$transport_allocator@PAVCListenerSettings@@@@@std@@@@PAV?$set@PAVCListenerSettings@@VCListenerSettingsLessFunctor@CServiceConfigSettings@@V?$transport_allocator@PAVCListenerSettings@@@@@std@@@@QBE_NXZ
??7?$AutoCleanup@V?$AutoDelete@VConfigUpdate@@@@PAVConfigUpdate@@@@QBE_NXZ
??7?$AutoCleanup@V?$AutoDelete@VEnumSinkEx@@@@PAVEnumSinkEx@@@@QBE_NXZ
??7?$AutoCleanup@V?$AutoDelete@VGeneralSinkEx@@@@PAVGeneralSinkEx@@@@QBE_NXZ
??7?$AutoCleanup@V?$AutoDelete@VIQueryDASHSMASHInterface@@@@PAVIQueryDASHSMASHInterface@@@@QBE_NXZ
??7?$AutoCleanup@V?$AutoDelete@VISpecification@@@@PAVISpecification@@@@QBE_NXZ
??7?$AutoCleanup@V?$AutoDelete@VRunAsConfiguration@@@@PAVRunAsConfiguration@@@@QBE_NXZ
??7?$AutoCleanup@V?$AutoDelete@VSubscriptionEnumerator@@@@PAVSubscriptionEnumerator@@@@QBE_NXZ
??7?$AutoCleanup@V?$AutoDelete@VTSTRBUFFER@@@@PAVTSTRBUFFER@@@@QBE_NXZ
??7?$AutoCleanup@V?$AutoDelete@VWmiEnumContext@@@@PAVWmiEnumContext@@@@QBE_NXZ
??7?$AutoCleanup@V?$AutoDeleteVector@D@@PAD@@QBE_NXZ
??7?$AutoCleanup@V?$AutoDeleteVector@E@@PAE@@QBE_NXZ
??7?$AutoCleanup@V?$AutoDeleteVector@G@@PAG@@QBE_NXZ
??7?$AutoCleanup@V?$AutoDeleteVector@PAG@@PAPAG@@QBE_NXZ
??7?$AutoCleanup@V?$AutoDeleteVector@PBG@@PAPBG@@QBE_NXZ
??7?$AutoCleanup@V?$AutoDeleteVector@U_WINRS_CREATE_SHELL_ENVIRONMENT_VARIABLE@@@@PAU_WINRS_CREATE_SHELL_ENVIRONMENT_VARIABLE@@@@QBE_NXZ
??7?$AutoCleanup@V?$AutoDeleteVector@U_WINRS_RUN_COMMAND_ARG@@@@PAU_WINRS_RUN_COMMAND_ARG@@@@QBE_NXZ
??7?$AutoCleanup@V?$AutoDeleteVector@X@@PAX@@QBE_NXZ
??7?$AutoCleanup@V?$AutoRelease@UIClientSecurity@@@@PAUIClientSecurity@@@@QBE_NXZ
??7?$AutoCleanup@V?$AutoRelease@UIEnumWbemClassObject@@@@PAUIEnumWbemClassObject@@@@QBE_NXZ
??7?$AutoCleanup@V?$AutoRelease@UIErrorInfo@@@@PAUIErrorInfo@@@@QBE_NXZ
??7?$AutoCleanup@V?$AutoRelease@UIUnknown@@@@PAUIUnknown@@@@QBE_NXZ
??7?$AutoCleanup@V?$AutoRelease@UIWbemClassObject@@@@PAUIWbemClassObject@@@@QBE_NXZ
??7?$AutoCleanup@V?$AutoRelease@UIWbemContext@@@@PAUIWbemContext@@@@QBE_NXZ
??7?$AutoCleanup@V?$AutoRelease@UIWbemLocator@@@@PAUIWbemLocator@@@@QBE_NXZ
??7?$AutoCleanup@V?$AutoRelease@UIWbemObjectTextSrc@@@@PAUIWbemObjectTextSrc@@@@QBE_NXZ
??7?$AutoCleanup@V?$AutoRelease@UIWbemPath@@@@PAUIWbemPath@@@@QBE_NXZ
??7?$AutoCleanup@V?$AutoRelease@UIWbemPathKeyList@@@@PAUIWbemPathKeyList@@@@QBE_NXZ
??7?$AutoCleanup@V?$AutoRelease@UIWbemQualifierSet@@@@PAUIWbemQualifierSet@@@@QBE_NXZ
??7?$AutoCleanup@V?$AutoRelease@UIWbemQuery@@@@PAUIWbemQuery@@@@QBE_NXZ
??7?$AutoCleanup@V?$AutoRelease@UIWbemServices@@@@PAUIWbemServices@@@@QBE_NXZ
??7?$AutoCleanup@V?$AutoRelease@VCClientConfigSettings@@@@PAVCClientConfigSettings@@@@QBE_NXZ
??7?$AutoCleanup@V?$AutoRelease@VCConfigManager@@@@PAVCConfigManager@@@@QBE_NXZ
??7?$AutoCleanup@V?$AutoRelease@VCRemoteSession@@@@PAVCRemoteSession@@@@QBE_NXZ
??7?$AutoCleanup@V?$AutoRelease@VCRequestContext@@@@PAVCRequestContext@@@@QBE_NXZ
??7?$AutoCleanup@V?$AutoRelease@VCWSManEPR@@@@PAVCWSManEPR@@@@QBE_NXZ
??7?$AutoCleanup@V?$AutoRelease@VCWSManResource@@@@PAVCWSManResource@@@@QBE_NXZ
??7?$AutoCleanup@V?$AutoRelease@VCWinRSPluginConfigCache@@@@PAVCWinRSPluginConfigCache@@@@QBE_NXZ
??7?$AutoCleanup@V?$AutoRelease@VEnumSinkEx@@@@PAVEnumSinkEx@@@@QBE_NXZ
??7?$AutoCleanup@V?$AutoRelease@VGeneralSinkEx@@@@PAVGeneralSinkEx@@@@QBE_NXZ
??7?$AutoCleanup@V?$AutoRelease@VIRequestContext@@@@PAVIRequestContext@@@@QBE_NXZ
??7?$AutoCleanup@V?$AutoRelease@VInboundRequestDetails@@@@PAVInboundRequestDetails@@@@QBE_NXZ
??7?$AutoCleanup@VAutoBstrNoAlloc@@PAG@@QBE_NXZ
??7?$AutoCleanup@VAutoCertContext@@PBU_CERT_CONTEXT@@@@QBE_NXZ
??7?$AutoCleanup@VAutoHandle@@PAX@@QBE_NXZ
??7?$AutoCleanup@VAutoImpersonateUser@@PAX@@QBE_NXZ
??7?$AutoCleanup@VAutoMIClass@@PAU_MI_Class@@@@QBE_NXZ
??7?$AutoCleanup@VAutoRegKey@@PAUHKEY__@@@@QBE_NXZ
??7?$AutoCleanup@VAutoSecurityDescriptor@@PAX@@QBE_NXZ
??A?$SafeMap@UPluginKey@@KV?$SafeMap_Iterator@UPluginKey@@K@@@@QAEPAKABUPluginKey@@@Z
??A?$SafeMap@UUserKey@@PAVBlockedRecord@@V?$SafeMap_Iterator@UUserKey@@PAVBlockedRecord@@@@@@QAEPAPAVBlockedRecord@@ABUUserKey@@@Z
??A?$SafeMap@VCertThumbprintKey@@VCertThumbprintMappedSet@CServiceConfigSettings@@V?$SafeMap_Iterator@VCertThumbprintKey@@VCertThumbprintMappedSet@CServiceConfigSettings@@@@@@QAEPAVCertThumbprintMappedSet@CServiceConfigSettings@@ABVCertThumbprintKey@@@Z
??A?$SafeMap@VStringKeyCI@@KV?$SafeMap_Iterator@VStringKeyCI@@K@@@@QAEPAKABVStringKeyCI@@@Z
??A?$SafeMap@VStringKeyCI@@UUSER_CONTEXT_INFO@WSManHttpListener@@V?$SafeMap_Iterator@VStringKeyCI@@UUSER_CONTEXT_INFO@WSManHttpListener@@@@@@QAEPAUUSER_CONTEXT_INFO@WSManHttpListener@@ABVStringKeyCI@@@Z
??A?$SafeMap@VStringKeyStore@@PAVExpiredOperationIdRecord@@V?$SafeMap_Iterator@VStringKeyStore@@PAVExpiredOperationIdRecord@@@@@@QAEPAPAVExpiredOperationIdRecord@@ABVStringKeyStore@@@Z
??A?$SafeMap@VStringKeyStore@@PAVServerFullDuplexChannel@@V?$SafeMap_Iterator@VStringKeyStore@@PAVServerFullDuplexChannel@@@@@@QAEPAPAVServerFullDuplexChannel@@ABVStringKeyStore@@@Z
??A?$SafeMap@W4WSManSessionOption@@PAVOptionValue@SessionOptions@Client@WSMan@@V?$SafeMap_Iterator@W4WSManSessionOption@@PAVOptionValue@SessionOptions@Client@WSMan@@@@@@QAEPAPAVOptionValue@SessionOptions@Client@WSMan@@ABW4WSManSessionOption@@@Z
??A?$SafeMap@_KPAVSendPacketArgs@RobustConnectionBuffer@@V?$SafeMap_Iterator@_KPAVSendPacketArgs@RobustConnectionBuffer@@@@@@QAEPAPAVSendPacketArgs@RobustConnectionBuffer@@AB_K@Z
??A?$SafeSet@PAX@@QBEPBQAXABQAX@Z
??B?$AutoCleanup@V?$AutoDelete@D@@PAD@@QAEPADXZ
??B?$AutoCleanup@V?$AutoDelete@G@@PAG@@QAEPAGXZ
??B?$AutoCleanup@V?$AutoDelete@G@@PAG@@QBEQAGXZ
??B?$AutoCleanup@V?$AutoDelete@UIPRange@CWSManIPFilter@@@@PAUIPRange@CWSManIPFilter@@@@QAEPAUIPRange@CWSManIPFilter@@XZ
??B?$AutoCleanup@V?$AutoDelete@U_SID@@@@PAU_SID@@@@QAEPAU_SID@@XZ
??B?$AutoCleanup@V?$AutoDelete@U_WSMAN_STREAM_ID_SET@@@@PAU_WSMAN_STREAM_ID_SET@@@@QAEPAU_WSMAN_STREAM_ID_SET@@XZ
??B?$AutoCleanup@V?$AutoDelete@V?$Handle@VISubscription@@@@@@PAV?$Handle@VISubscription@@@@@@QAEPAV?$Handle@VISubscription@@@@XZ
??B?$AutoCleanup@V?$AutoDelete@V?$SafeMap_Iterator@VStringKeyCI@@K@@@@PAV?$SafeMap_Iterator@VStringKeyCI@@K@@@@QAEPAV?$SafeMap_Iterator@VStringKeyCI@@K@@XZ
??B?$AutoCleanup@V?$AutoDelete@V?$SafeMap_Iterator@W4WSManSessionOption@@PAVOptionValue@SessionOptions@Client@WSMan@@@@@@PAV?$SafeMap_Iterator@W4WSManSessionOption@@PAVOptionValue@SessionOptions@Client@WSMan@@@@@@QAEPAV?$SafeMap_Iterator@W4WSManSessionOption@@PAVOptionValue@SessionOptions@Client@WSMan@@@@XZ
??B?$AutoCleanup@V?$AutoDelete@V?$SafeSet@PAVCCertMapping@@@@@@PAV?$SafeSet@PAVCCertMapping@@@@@@QAEPAV?$SafeSet@PAVCCertMapping@@@@XZ
??B?$AutoCleanup@V?$AutoDelete@V?$SafeSet@PAVCShellUriSettings@@@@@@PAV?$SafeSet@PAVCShellUriSettings@@@@@@QAEPAV?$SafeSet@PAVCShellUriSettings@@@@XZ
??B?$AutoCleanup@V?$AutoDelete@V?$SafeSet_Iterator@PAVCListenerOperation@@@@@@PAV?$SafeSet_Iterator@PAVCListenerOperation@@@@@@QAEPAV?$SafeSet_Iterator@PAVCListenerOperation@@@@XZ
??B?$AutoCleanup@V?$AutoDelete@V?$set@PAVCListenerSettings@@VCListenerSettingsLessFunctor@CServiceConfigSettings@@V?$transport_allocator@PAVCListenerSettings@@@@@std@@@@PAV?$set@PAVCListenerSettings@@VCListenerSettingsLessFunctor@CServiceConfigSettings@@V?$transport_allocator@PAVCListenerSettings@@@@@std@@@@QAEPAV?$set@PAVCListenerSettings@@VCListenerSettingsLessFunctor@CServiceConfigSettings@@V?$transport_allocator@PAVCListenerSettings@@@@@std@@XZ
??B?$AutoCleanup@V?$AutoDelete@V?$set@Usockaddr_storage@@VSockAddrLessFunctor@CListenerSettings@@V?$transport_allocator@Usockaddr_storage@@@@@std@@@@PAV?$set@Usockaddr_storage@@VSockAddrLessFunctor@CListenerSettings@@V?$transport_allocator@Usockaddr_storage@@@@@std@@@@QAEPAV?$set@Usockaddr_storage@@VSockAddrLessFunctor@CListenerSettings@@V?$transport_allocator@Usockaddr_storage@@@@@std@@XZ
??B?$AutoCleanup@V?$AutoDelete@V?$vector@PAVHandleImpl@Client@WSMan@@V?$transport_allocator@PAVHandleImpl@Client@WSMan@@@@@std@@@@PAV?$vector@PAVHandleImpl@Client@WSMan@@V?$transport_allocator@PAVHandleImpl@Client@WSMan@@@@@std@@@@QAEPAV?$vector@PAVHandleImpl@Client@WSMan@@V?$transport_allocator@PAVHandleImpl@Client@WSMan@@@@@std@@XZ
??B?$AutoCleanup@V?$AutoDelete@V?$vector@PAVHandleImpl@Client@WSMan@@V?$transport_allocator@PAVHandleImpl@Client@WSMan@@@@@std@@@@PAV?$vector@PAVHandleImpl@Client@WSMan@@V?$transport_allocator@PAVHandleImpl@Client@WSMan@@@@@std@@@@QBEQAV?$vector@PAVHandleImpl@Client@WSMan@@V?$transport_allocator@PAVHandleImpl@Client@WSMan@@@@@std@@XZ
??B?$AutoCleanup@V?$AutoDelete@V?$vector@PAVIServiceConfigObserver@@V?$transport_allocator@PAVIServiceConfigObserver@@@@@std@@@@PAV?$vector@PAVIServiceConfigObserver@@V?$transport_allocator@PAVIServiceConfigObserver@@@@@std@@@@QAEPAV?$vector@PAVIServiceConfigObserver@@V?$transport_allocator@PAVIServiceConfigObserver@@@@@std@@XZ
??B?$AutoCleanup@V?$AutoDelete@VAdminSid@CSecurity@@@@PAVAdminSid@CSecurity@@@@QAEPAVAdminSid@CSecurity@@XZ
??B?$AutoCleanup@V?$AutoDelete@VBlockedRecord@@@@PAVBlockedRecord@@@@QAEPAVBlockedRecord@@XZ
??B?$AutoCleanup@V?$AutoDelete@VCBaseConfigCache@@@@PAVCBaseConfigCache@@@@QAEPAVCBaseConfigCache@@XZ
??B?$AutoCleanup@V?$AutoDelete@VCCertMapping@@@@PAVCCertMapping@@@@QAEPAVCCertMapping@@XZ
??B?$AutoCleanup@V?$AutoDelete@VCConfigChangeSource@@@@PAVCConfigChangeSource@@@@QAEPAVCConfigChangeSource@@XZ
??B?$AutoCleanup@V?$AutoDelete@VCListenerSettings@@@@PAVCListenerSettings@@@@QAEPAVCListenerSettings@@XZ
??B?$AutoCleanup@V?$AutoDelete@VCObserverConfigChangeErrors@@@@PAVCObserverConfigChangeErrors@@@@QAEPAVCObserverConfigChangeErrors@@XZ
??B?$AutoCleanup@V?$AutoDelete@VCServiceWatcher@CServiceConfigCache@@@@PAVCServiceWatcher@CServiceConfigCache@@@@QAEPAVCServiceWatcher@CServiceConfigCache@@XZ
??B?$AutoCleanup@V?$AutoDelete@VCShellUriSettings@@@@PAVCShellUriSettings@@@@QAEPAVCShellUriSettings@@XZ
??B?$AutoCleanup@V?$AutoDelete@VCWSManEPR@@@@PAVCWSManEPR@@@@QAEPAVCWSManEPR@@XZ
??B?$AutoCleanup@V?$AutoDelete@VCWSManResource@@@@PAVCWSManResource@@@@QAEPAVCWSManResource@@XZ
??B?$AutoCleanup@V?$AutoDelete@VCertHash@@@@PAVCertHash@@@@QAEPAVCertHash@@XZ
??B?$AutoCleanup@V?$AutoDelete@VConfigUpdate@@@@PAVConfigUpdate@@@@QAEPAVConfigUpdate@@XZ
??B?$AutoCleanup@V?$AutoDelete@VEnumSinkEx@@@@PAVEnumSinkEx@@@@QAEPAVEnumSinkEx@@XZ
??B?$AutoCleanup@V?$AutoDelete@VEnumSinkEx@@@@PAVEnumSinkEx@@@@QBEQAVEnumSinkEx@@XZ
??B?$AutoCleanup@V?$AutoDelete@VEventHandler@WSMan@@@@PAVEventHandler@WSMan@@@@QAEPAVEventHandler@WSMan@@XZ
??B?$AutoCleanup@V?$AutoDelete@VExpiredOperationIdRecord@@@@PAVExpiredOperationIdRecord@@@@QAEPAVExpiredOperationIdRecord@@XZ
??B?$AutoCleanup@V?$AutoDelete@VGPApiManager@@@@PAVGPApiManager@@@@QAEPAVGPApiManager@@XZ
??B?$AutoCleanup@V?$AutoDelete@VGeneralSinkEx@@@@PAVGeneralSinkEx@@@@QAEPAVGeneralSinkEx@@XZ
??B?$AutoCleanup@V?$AutoDelete@VGeneralSinkEx@@@@PAVGeneralSinkEx@@@@QBEQAVGeneralSinkEx@@XZ
??B?$AutoCleanup@V?$AutoDelete@VIChannelObserverFactory@@@@PAVIChannelObserverFactory@@@@QAEPAVIChannelObserverFactory@@XZ
??B?$AutoCleanup@V?$AutoDelete@VIQueryDASHSMASHInterface@@@@PAVIQueryDASHSMASHInterface@@@@QAEPAVIQueryDASHSMASHInterface@@XZ
??B?$AutoCleanup@V?$AutoDelete@VIQueryDASHSMASHInterface@@@@PAVIQueryDASHSMASHInterface@@@@QBEQAVIQueryDASHSMASHInterface@@XZ
??B?$AutoCleanup@V?$AutoDelete@VISpecification@@@@PAVISpecification@@@@QAEPAVISpecification@@XZ
??B?$AutoCleanup@V?$AutoDelete@VISpecification@@@@PAVISpecification@@@@QBEQAVISpecification@@XZ
??B?$AutoCleanup@V?$AutoDelete@VInteractiveSid@CSecurity@@@@PAVInteractiveSid@CSecurity@@@@QAEPAVInteractiveSid@CSecurity@@XZ
??B?$AutoCleanup@V?$AutoDelete@VIpHlpApiDllLoader@@@@PAVIpHlpApiDllLoader@@@@QAEPAVIpHlpApiDllLoader@@XZ
??B?$AutoCleanup@V?$AutoDelete@VMachineName@@@@PAVMachineName@@@@QAEPAVMachineName@@XZ
??B?$AutoCleanup@V?$AutoDelete@VNetworkServiceSid@CSecurity@@@@PAVNetworkServiceSid@CSecurity@@@@QAEPAVNetworkServiceSid@CSecurity@@XZ
??B?$AutoCleanup@V?$AutoDelete@VNtDsApiDllLoader@@@@PAVNtDsApiDllLoader@@@@QAEPAVNtDsApiDllLoader@@XZ
??B?$AutoCleanup@V?$AutoDelete@VOptionValue@SessionOptions@Client@WSMan@@@@PAVOptionValue@SessionOptions@Client@WSMan@@@@QAEPAVOptionValue@SessionOptions@Client@WSMan@@XZ
??B?$AutoCleanup@V?$AutoDelete@VPacketCreator@@@@PAVPacketCreator@@@@QAEPAVPacketCreator@@XZ
??B?$AutoCleanup@V?$AutoDelete@VPacketParser@@@@PAVPacketParser@@@@QAEPAVPacketParser@@XZ
??B?$AutoCleanup@V?$AutoDelete@VResources@Locale@@@@PAVResources@Locale@@@@QAEPAVResources@Locale@@XZ
??B?$AutoCleanup@V?$AutoDelete@VSecurityEntry@Catalog@@@@PAVSecurityEntry@Catalog@@@@QAEPAVSecurityEntry@Catalog@@XZ
??B?$AutoCleanup@V?$AutoDelete@VServiceSoapProcessor@@@@PAVServiceSoapProcessor@@@@QAEPAVServiceSoapProcessor@@XZ
??B?$AutoCleanup@V?$AutoDelete@VShell32DllLoader@@@@PAVShell32DllLoader@@@@QAEPAVShell32DllLoader@@XZ
??B?$AutoCleanup@V?$AutoDelete@VShlWApiDllLoader@@@@PAVShlWApiDllLoader@@@@QAEPAVShlWApiDllLoader@@XZ
??B?$AutoCleanup@V?$AutoDelete@VSubscriptionManager@@@@PAVSubscriptionManager@@@@QAEPAVSubscriptionManager@@XZ
??B?$AutoCleanup@V?$AutoDelete@VTSTRBUFFER@@@@PAVTSTRBUFFER@@@@QAEPAVTSTRBUFFER@@XZ
??B?$AutoCleanup@V?$AutoDelete@VTSTRBUFFER@@@@PAVTSTRBUFFER@@@@QBEQAVTSTRBUFFER@@XZ
??B?$AutoCleanup@V?$AutoDelete@VUniqueStringOverflow@@@@PAVUniqueStringOverflow@@@@QAEPAVUniqueStringOverflow@@XZ
??B?$AutoCleanup@V?$AutoDelete@VUser32DllLoader@@@@PAVUser32DllLoader@@@@QAEPAVUser32DllLoader@@XZ
??B?$AutoCleanup@V?$AutoDelete@VWSMANCONFIGTABLE_IDENTITY@@@@PAVWSMANCONFIGTABLE_IDENTITY@@@@QAEPAVWSMANCONFIGTABLE_IDENTITY@@XZ
??B?$AutoCleanup@V?$AutoDelete@VWSManMemCryptManager@@@@PAVWSManMemCryptManager@@@@QAEPAVWSManMemCryptManager@@XZ
??B?$AutoCleanup@V?$AutoDelete@VWmiEnumContext@@@@PAVWmiEnumContext@@@@QAEPAVWmiEnumContext@@XZ
??B?$AutoCleanup@V?$AutoDelete@VWmiEnumContext@@@@PAVWmiEnumContext@@@@QBEQAVWmiEnumContext@@XZ
??B?$AutoCleanup@V?$AutoDelete@VXmlReader@@@@PAVXmlReader@@@@QAEPAVXmlReader@@XZ
??B?$AutoCleanup@V?$AutoDeleteVector@$$CBG@@PBG@@QAEPBGXZ
??B?$AutoCleanup@V?$AutoDeleteVector@D@@PAD@@QAEPADXZ
??B?$AutoCleanup@V?$AutoDeleteVector@E@@PAE@@QAEPAEXZ
??B?$AutoCleanup@V?$AutoDeleteVector@E@@PAE@@QBEQAEXZ
??B?$AutoCleanup@V?$AutoDeleteVector@G@@PAG@@QAEPAGXZ
??B?$AutoCleanup@V?$AutoDeleteVector@G@@PAG@@QBEQAGXZ
??B?$AutoCleanup@V?$AutoDeleteVector@H@@PAH@@QAEPAHXZ
??B?$AutoCleanup@V?$AutoDeleteVector@PAG@@PAPAG@@QAEPAPAGXZ
??B?$AutoCleanup@V?$AutoDeleteVector@PAG@@PAPAG@@QBEQAPAGXZ
??B?$AutoCleanup@V?$AutoDeleteVector@PBG@@PAPBG@@QAEPAPBGXZ
??B?$AutoCleanup@V?$AutoDeleteVector@PBG@@PAPBG@@QBEQAPBGXZ
??B?$AutoCleanup@V?$AutoDeleteVector@U_CONFIG_UPDATE@@@@PAU_CONFIG_UPDATE@@@@QAEPAU_CONFIG_UPDATE@@XZ
??B?$AutoCleanup@V?$AutoDeleteVector@U_WINRS_CREATE_SHELL_ENVIRONMENT_VARIABLE@@@@PAU_WINRS_CREATE_SHELL_ENVIRONMENT_VARIABLE@@@@QAEPAU_WINRS_CREATE_SHELL_ENVIRONMENT_VARIABLE@@XZ
??B?$AutoCleanup@V?$AutoDeleteVector@U_WINRS_CREATE_SHELL_ENVIRONMENT_VARIABLE@@@@PAU_WINRS_CREATE_SHELL_ENVIRONMENT_VARIABLE@@@@QBEQAU_WINRS_CREATE_SHELL_ENVIRONMENT_VARIABLE@@XZ
??B?$AutoCleanup@V?$AutoDeleteVector@U_WINRS_RUN_COMMAND_ARG@@@@PAU_WINRS_RUN_COMMAND_ARG@@@@QAEPAU_WINRS_RUN_COMMAND_ARG@@XZ
??B?$AutoCleanup@V?$AutoDeleteVector@U_WINRS_RUN_COMMAND_ARG@@@@PAU_WINRS_RUN_COMMAND_ARG@@@@QBEQAU_WINRS_RUN_COMMAND_ARG@@XZ
??B?$AutoCleanup@V?$AutoDeleteVector@U_WSMAN_OPTION@@@@PAU_WSMAN_OPTION@@@@QAEPAU_WSMAN_OPTION@@XZ
??B?$AutoCleanup@V?$AutoDeleteVector@X@@PAX@@QAEPAXXZ
??B?$AutoCleanup@V?$AutoFree@E@@PAE@@QAEPAEXZ
??B?$AutoCleanup@V?$AutoFree@E@@PAE@@QBEQAEXZ
??B?$AutoCleanup@V?$AutoLocklessItemRecycle@VPacket@@@@PAVPacket@@@@QAEPAVPacket@@XZ
??B?$AutoCleanup@V?$AutoRelease@UIAppHostChildElementCollection@@@@PAUIAppHostChildElementCollection@@@@QAEPAUIAppHostChildElementCollection@@XZ
??B?$AutoCleanup@V?$AutoRelease@UIAppHostElement@@@@PAUIAppHostElement@@@@QAEPAUIAppHostElement@@XZ
??B?$AutoCleanup@V?$AutoRelease@UIAppHostElementCollection@@@@PAUIAppHostElementCollection@@@@QAEPAUIAppHostElementCollection@@XZ
??B?$AutoCleanup@V?$AutoRelease@UIClientSecurity@@@@PAUIClientSecurity@@@@QAEPAUIClientSecurity@@XZ
??B?$AutoCleanup@V?$AutoRelease@UIClientSecurity@@@@PAUIClientSecurity@@@@QBEQAUIClientSecurity@@XZ
??B?$AutoCleanup@V?$AutoRelease@UIEnumWbemClassObject@@@@PAUIEnumWbemClassObject@@@@QAEPAUIEnumWbemClassObject@@XZ
??B?$AutoCleanup@V?$AutoRelease@UIEnumWbemClassObject@@@@PAUIEnumWbemClassObject@@@@QBEQAUIEnumWbemClassObject@@XZ
??B?$AutoCleanup@V?$AutoRelease@UIErrorInfo@@@@PAUIErrorInfo@@@@QAEPAUIErrorInfo@@XZ
??B?$AutoCleanup@V?$AutoRelease@UIErrorInfo@@@@PAUIErrorInfo@@@@QBEQAUIErrorInfo@@XZ
??B?$AutoCleanup@V?$AutoRelease@UIUnknown@@@@PAUIUnknown@@@@QAEPAUIUnknown@@XZ
??B?$AutoCleanup@V?$AutoRelease@UIUnknown@@@@PAUIUnknown@@@@QBEQAUIUnknown@@XZ
??B?$AutoCleanup@V?$AutoRelease@UIWbemClassObject@@@@PAUIWbemClassObject@@@@QAEPAUIWbemClassObject@@XZ
??B?$AutoCleanup@V?$AutoRelease@UIWbemClassObject@@@@PAUIWbemClassObject@@@@QBEQAUIWbemClassObject@@XZ
??B?$AutoCleanup@V?$AutoRelease@UIWbemContext@@@@PAUIWbemContext@@@@QAEPAUIWbemContext@@XZ
??B?$AutoCleanup@V?$AutoRelease@UIWbemContext@@@@PAUIWbemContext@@@@QBEQAUIWbemContext@@XZ
??B?$AutoCleanup@V?$AutoRelease@UIWbemLocator@@@@PAUIWbemLocator@@@@QAEPAUIWbemLocator@@XZ
??B?$AutoCleanup@V?$AutoRelease@UIWbemLocator@@@@PAUIWbemLocator@@@@QBEQAUIWbemLocator@@XZ
??B?$AutoCleanup@V?$AutoRelease@UIWbemObjectTextSrc@@@@PAUIWbemObjectTextSrc@@@@QAEPAUIWbemObjectTextSrc@@XZ
??B?$AutoCleanup@V?$AutoRelease@UIWbemObjectTextSrc@@@@PAUIWbemObjectTextSrc@@@@QBEQAUIWbemObjectTextSrc@@XZ
??B?$AutoCleanup@V?$AutoRelease@UIWbemPath@@@@PAUIWbemPath@@@@QAEPAUIWbemPath@@XZ
??B?$AutoCleanup@V?$AutoRelease@UIWbemPath@@@@PAUIWbemPath@@@@QBEQAUIWbemPath@@XZ
??B?$AutoCleanup@V?$AutoRelease@UIWbemPathKeyList@@@@PAUIWbemPathKeyList@@@@QAEPAUIWbemPathKeyList@@XZ
??B?$AutoCleanup@V?$AutoRelease@UIWbemPathKeyList@@@@PAUIWbemPathKeyList@@@@QBEQAUIWbemPathKeyList@@XZ
??B?$AutoCleanup@V?$AutoRelease@UIWbemQualifierSet@@@@PAUIWbemQualifierSet@@@@QAEPAUIWbemQualifierSet@@XZ
??B?$AutoCleanup@V?$AutoRelease@UIWbemQualifierSet@@@@PAUIWbemQualifierSet@@@@QBEQAUIWbemQualifierSet@@XZ
??B?$AutoCleanup@V?$AutoRelease@UIWbemQuery@@@@PAUIWbemQuery@@@@QAEPAUIWbemQuery@@XZ
??B?$AutoCleanup@V?$AutoRelease@UIWbemQuery@@@@PAUIWbemQuery@@@@QBEQAUIWbemQuery@@XZ
??B?$AutoCleanup@V?$AutoRelease@UIWbemServices@@@@PAUIWbemServices@@@@QAEPAUIWbemServices@@XZ
??B?$AutoCleanup@V?$AutoRelease@UIWbemServices@@@@PAUIWbemServices@@@@QBEQAUIWbemServices@@XZ
??B?$AutoCleanup@V?$AutoRelease@VCBaseConfigCache@@@@PAVCBaseConfigCache@@@@QAEPAVCBaseConfigCache@@XZ
??B?$AutoCleanup@V?$AutoRelease@VCClientConfigSettings@@@@PAVCClientConfigSettings@@@@QAEPAVCClientConfigSettings@@XZ
??B?$AutoCleanup@V?$AutoRelease@VCCommonConfigSettings@@@@PAVCCommonConfigSettings@@@@QAEPAVCCommonConfigSettings@@XZ
??B?$AutoCleanup@V?$AutoRelease@VCConfigCacheMap@CBaseConfigCache@@@@PAVCConfigCacheMap@CBaseConfigCache@@@@QAEPAVCConfigCacheMap@CBaseConfigCache@@XZ
??B?$AutoCleanup@V?$AutoRelease@VCConfigManager@@@@PAVCConfigManager@@@@QAEPAVCConfigManager@@XZ
??B?$AutoCleanup@V?$AutoRelease@VCRemoteSession@@@@PAVCRemoteSession@@@@QAEPAVCRemoteSession@@XZ
??B?$AutoCleanup@V?$AutoRelease@VCRequestContext@@@@PAVCRequestContext@@@@QAEPAVCRequestContext@@XZ
??B?$AutoCleanup@V?$AutoRelease@VCServiceCommonConfigSettings@@@@PAVCServiceCommonConfigSettings@@@@QAEPAVCServiceCommonConfigSettings@@XZ
??B?$AutoCleanup@V?$AutoRelease@VCServiceConfigCache@@@@PAVCServiceConfigCache@@@@QAEPAVCServiceConfigCache@@XZ
??B?$AutoCleanup@V?$AutoRelease@VCServiceConfigSettings@@@@PAVCServiceConfigSettings@@@@QAEPAVCServiceConfigSettings@@XZ
??B?$AutoCleanup@V?$AutoRelease@VCWSManEPR@@@@PAVCWSManEPR@@@@QAEPAVCWSManEPR@@XZ
??B?$AutoCleanup@V?$AutoRelease@VCWSManEPR@@@@PAVCWSManEPR@@@@QBEQAVCWSManEPR@@XZ
??B?$AutoCleanup@V?$AutoRelease@VCWSManGroupPolicyCache@@@@PAVCWSManGroupPolicyCache@@@@QAEPAVCWSManGroupPolicyCache@@XZ
??B?$AutoCleanup@V?$AutoRelease@VCWSManGroupPolicyManager@@@@PAVCWSManGroupPolicyManager@@@@QAEPAVCWSManGroupPolicyManager@@XZ
??B?$AutoCleanup@V?$AutoRelease@VCWSManObject@@@@PAVCWSManObject@@@@QAEPAVCWSManObject@@XZ
??B?$AutoCleanup@V?$AutoRelease@VCWSManResource@@@@PAVCWSManResource@@@@QAEPAVCWSManResource@@XZ
??B?$AutoCleanup@V?$AutoRelease@VCWSManResource@@@@PAVCWSManResource@@@@QBEQAVCWSManResource@@XZ
??B?$AutoCleanup@V?$AutoRelease@VCWinRSPluginConfigCache@@@@PAVCWinRSPluginConfigCache@@@@QAEPAVCWinRSPluginConfigCache@@XZ
??B?$AutoCleanup@V?$AutoRelease@VCWinRSPluginConfigCache@@@@PAVCWinRSPluginConfigCache@@@@QBEQAVCWinRSPluginConfigCache@@XZ
??B?$AutoCleanup@V?$AutoRelease@VCWinRSPluginConfigSettings@@@@PAVCWinRSPluginConfigSettings@@@@QAEPAVCWinRSPluginConfigSettings@@XZ
??B?$AutoCleanup@V?$AutoRelease@VCommand@Client@WSMan@@@@PAVCommand@Client@WSMan@@@@QAEPAVCommand@Client@WSMan@@XZ
??B?$AutoCleanup@V?$AutoRelease@VConfigNotification@@@@PAVConfigNotification@@@@QAEPAVConfigNotification@@XZ
??B?$AutoCleanup@V?$AutoRelease@VConnectShellOperation@Client@WSMan@@@@PAVConnectShellOperation@Client@WSMan@@@@QAEPAVConnectShellOperation@Client@WSMan@@XZ
??B?$AutoCleanup@V?$AutoRelease@VCreateShellOperation@Client@WSMan@@@@PAVCreateShellOperation@Client@WSMan@@@@QAEPAVCreateShellOperation@Client@WSMan@@XZ
??B?$AutoCleanup@V?$AutoRelease@VDeleteShellOperation@Client@WSMan@@@@PAVDeleteShellOperation@Client@WSMan@@@@QAEPAVDeleteShellOperation@Client@WSMan@@XZ
??B?$AutoCleanup@V?$AutoRelease@VDisconnectOperation@Client@WSMan@@@@PAVDisconnectOperation@Client@WSMan@@@@QAEPAVDisconnectOperation@Client@WSMan@@XZ
??B?$AutoCleanup@V?$AutoRelease@VEnumSinkEx@@@@PAVEnumSinkEx@@@@QAEPAVEnumSinkEx@@XZ
??B?$AutoCleanup@V?$AutoRelease@VEnumSinkEx@@@@PAVEnumSinkEx@@@@QBEQAVEnumSinkEx@@XZ
??B?$AutoCleanup@V?$AutoRelease@VGeneralSinkEx@@@@PAVGeneralSinkEx@@@@QAEPAVGeneralSinkEx@@XZ
??B?$AutoCleanup@V?$AutoRelease@VGeneralSinkEx@@@@PAVGeneralSinkEx@@@@QBEQAVGeneralSinkEx@@XZ
??B?$AutoCleanup@V?$AutoRelease@VIISConfigSettings@@@@PAVIISConfigSettings@@@@QAEPAVIISConfigSettings@@XZ
??B?$AutoCleanup@V?$AutoRelease@VIPCSoapProcessor@@@@PAVIPCSoapProcessor@@@@QAEPAVIPCSoapProcessor@@XZ
??B?$AutoCleanup@V?$AutoRelease@VIRequestContext@@@@PAVIRequestContext@@@@QAEPAVIRequestContext@@XZ
??B?$AutoCleanup@V?$AutoRelease@VIRequestContext@@@@PAVIRequestContext@@@@QBEQAVIRequestContext@@XZ
??B?$AutoCleanup@V?$AutoRelease@VISubscription@@@@PAVISubscription@@@@QAEPAVISubscription@@XZ
??B?$AutoCleanup@V?$AutoRelease@VInboundRequestDetails@@@@PAVInboundRequestDetails@@@@QAEPAVInboundRequestDetails@@XZ
??B?$AutoCleanup@V?$AutoRelease@VInboundRequestDetails@@@@PAVInboundRequestDetails@@@@QBEQAVInboundRequestDetails@@XZ
??B?$AutoCleanup@V?$AutoRelease@VReceiveOperation@Client@WSMan@@@@PAVReceiveOperation@Client@WSMan@@@@QAEPAVReceiveOperation@Client@WSMan@@XZ
??B?$AutoCleanup@V?$AutoRelease@VReconnectOperation@Client@WSMan@@@@PAVReconnectOperation@Client@WSMan@@@@QAEPAVReconnectOperation@Client@WSMan@@XZ
??B?$AutoCleanup@V?$AutoRelease@VSendOperation@Client@WSMan@@@@PAVSendOperation@Client@WSMan@@@@QAEPAVSendOperation@Client@WSMan@@XZ
??B?$AutoCleanup@V?$AutoRelease@VShell@Client@WSMan@@@@PAVShell@Client@WSMan@@@@QAEPAVShell@Client@WSMan@@XZ
??B?$AutoCleanup@V?$AutoRelease@VShell@Client@WSMan@@@@PAVShell@Client@WSMan@@@@QBEQAVShell@Client@WSMan@@XZ
??B?$AutoCleanup@V?$AutoRelease@VSignalOperation@Client@WSMan@@@@PAVSignalOperation@Client@WSMan@@@@QAEPAVSignalOperation@Client@WSMan@@XZ
??B?$AutoCleanup@V?$AutoRelease@VUserRecord@@@@PAVUserRecord@@@@QAEPAVUserRecord@@XZ
??B?$AutoCleanup@V?$AutoRelease@VUserRecord@@@@PAVUserRecord@@@@QBEQAVUserRecord@@XZ
??B?$AutoCleanup@VAutoBstr@@PAG@@QAEPAGXZ
??B?$AutoCleanup@VAutoBstrNoAlloc@@PAG@@QAEPAGXZ
??B?$AutoCleanup@VAutoBstrNoAlloc@@PAG@@QBEQAGXZ
??B?$AutoCleanup@VAutoCertContext@@PBU_CERT_CONTEXT@@@@QAEPBU_CERT_CONTEXT@@XZ
??B?$AutoCleanup@VAutoHandle@@PAX@@QAEPAXXZ
??B?$AutoCleanup@VAutoHandle@@PAX@@QBEQAXXZ
??B?$AutoCleanup@VAutoImpersonateUser@@PAX@@QAEPAXXZ
??B?$AutoCleanup@VAutoImpersonateUser@@PAX@@QBEQAXXZ
??B?$AutoCleanup@VAutoLibrary@@PAUHINSTANCE__@@@@QAEPAUHINSTANCE__@@XZ
??B?$AutoCleanup@VAutoLocalFree@@PAX@@QAEPAXXZ
??B?$AutoCleanup@VAutoMIClass@@PAU_MI_Class@@@@QAEPAU_MI_Class@@XZ
??B?$AutoCleanup@VAutoMIInstance@@PAU_MI_Instance@@@@QAEPAU_MI_Instance@@XZ
??B?$AutoCleanup@VAutoRegKey@@PAUHKEY__@@@@QAEPAUHKEY__@@XZ
??B?$AutoCleanup@VAutoSecurityDescriptor@@PAX@@QAEPAXXZ
??B?$SafeMap_Iterator@PAVCCertMapping@@UEmpty@@@@QBE_NXZ
??B?$SafeMap_Iterator@PAVCListenerOperation@@UEmpty@@@@QBE_NXZ
??B?$SafeMap_Iterator@PAVCShellUriSettings@@UEmpty@@@@QBE_NXZ
??B?$SafeMap_Iterator@VCertThumbprintKey@@VCertThumbprintMappedSet@CServiceConfigSettings@@@@QBE_NXZ
??B?$SafeMap_Iterator@VKey@Locale@@K@@QBE_NXZ
??B?$SafeMap_Iterator@VStringKeyCI@@K@@QBE_NXZ
??B?$SafeMap_Iterator@VStringKeyCI@@UUSER_CONTEXT_INFO@WSManHttpListener@@@@QBE_NXZ
??B?$SafeMap_Iterator@VStringKeyStore@@PAVExpiredOperationIdRecord@@@@QBE_NXZ
??B?$SafeMap_Iterator@W4WSManSessionOption@@PAVOptionValue@SessionOptions@Client@WSMan@@@@QBE_NXZ
??C?$AutoCleanup@V?$AutoDelete@U_WSMAN_STREAM_ID_SET@@@@PAU_WSMAN_STREAM_ID_SET@@@@QAEPAU_WSMAN_STREAM_ID_SET@@XZ
??C?$AutoCleanup@V?$AutoDelete@V?$Handle@VISubscription@@@@@@PAV?$Handle@VISubscription@@@@@@QAEPAV?$Handle@VISubscription@@@@XZ
??C?$AutoCleanup@V?$AutoDelete@V?$SafeMap_Iterator@VStringKeyCI@@K@@@@PAV?$SafeMap_Iterator@VStringKeyCI@@K@@@@QAEPAV?$SafeMap_Iterator@VStringKeyCI@@K@@XZ
??C?$AutoCleanup@V?$AutoDelete@V?$SafeMap_Iterator@W4WSManSessionOption@@PAVOptionValue@SessionOptions@Client@WSMan@@@@@@PAV?$SafeMap_Iterator@W4WSManSessionOption@@PAVOptionValue@SessionOptions@Client@WSMan@@@@@@QAEPAV?$SafeMap_Iterator@W4WSManSessionOption@@PAVOptionValue@SessionOptions@Client@WSMan@@@@XZ
??C?$AutoCleanup@V?$AutoDelete@V?$SafeSet@PAVCCertMapping@@@@@@PAV?$SafeSet@PAVCCertMapping@@@@@@QAEPAV?$SafeSet@PAVCCertMapping@@@@XZ
??C?$AutoCleanup@V?$AutoDelete@V?$SafeSet@PAVCShellUriSettings@@@@@@PAV?$SafeSet@PAVCShellUriSettings@@@@@@QAEPAV?$SafeSet@PAVCShellUriSettings@@@@XZ
??C?$AutoCleanup@V?$AutoDelete@V?$SafeSet_Iterator@PAVCListenerOperation@@@@@@PAV?$SafeSet_Iterator@PAVCListenerOperation@@@@@@QAEPAV?$SafeSet_Iterator@PAVCListenerOperation@@@@XZ
??C?$AutoCleanup@V?$AutoDelete@V?$set@PAVCListenerSettings@@VCListenerSettingsLessFunctor@CServiceConfigSettings@@V?$transport_allocator@PAVCListenerSettings@@@@@std@@@@PAV?$set@PAVCListenerSettings@@VCListenerSettingsLessFunctor@CServiceConfigSettings@@V?$transport_allocator@PAVCListenerSettings@@@@@std@@@@QAEPAV?$set@PAVCListenerSettings@@VCListenerSettingsLessFunctor@CServiceConfigSettings@@V?$transport_allocator@PAVCListenerSettings@@@@@std@@XZ
??C?$AutoCleanup@V?$AutoDelete@V?$set@Usockaddr_storage@@VSockAddrLessFunctor@CListenerSettings@@V?$transport_allocator@Usockaddr_storage@@@@@std@@@@PAV?$set@Usockaddr_storage@@VSockAddrLessFunctor@CListenerSettings@@V?$transport_allocator@Usockaddr_storage@@@@@std@@@@QAEPAV?$set@Usockaddr_storage@@VSockAddrLessFunctor@CListenerSettings@@V?$transport_allocator@Usockaddr_storage@@@@@std@@XZ
??C?$AutoCleanup@V?$AutoDelete@V?$vector@PAVHandleImpl@Client@WSMan@@V?$transport_allocator@PAVHandleImpl@Client@WSMan@@@@@std@@@@PAV?$vector@PAVHandleImpl@Client@WSMan@@V?$transport_allocator@PAVHandleImpl@Client@WSMan@@@@@std@@@@QAEPAV?$vector@PAVHandleImpl@Client@WSMan@@V?$transport_allocator@PAVHandleImpl@Client@WSMan@@@@@std@@XZ
??C?$AutoCleanup@V?$AutoDelete@V?$vector@PAVIServiceConfigObserver@@V?$transport_allocator@PAVIServiceConfigObserver@@@@@std@@@@PAV?$vector@PAVIServiceConfigObserver@@V?$transport_allocator@PAVIServiceConfigObserver@@@@@std@@@@QAEPAV?$vector@PAVIServiceConfigObserver@@V?$transport_allocator@PAVIServiceConfigObserver@@@@@std@@XZ
??C?$AutoCleanup@V?$AutoDelete@VBlockedRecord@@@@PAVBlockedRecord@@@@QAEPAVBlockedRecord@@XZ
??C?$AutoCleanup@V?$AutoDelete@VCBaseConfigCache@@@@PAVCBaseConfigCache@@@@QAEPAVCBaseConfigCache@@XZ
??C?$AutoCleanup@V?$AutoDelete@VCCertMapping@@@@PAVCCertMapping@@@@QAEPAVCCertMapping@@XZ
??C?$AutoCleanup@V?$AutoDelete@VCConfigChangeSource@@@@PAVCConfigChangeSource@@@@QAEPAVCConfigChangeSource@@XZ
??C?$AutoCleanup@V?$AutoDelete@VCListenerSettings@@@@PAVCListenerSettings@@@@QAEPAVCListenerSettings@@XZ
??C?$AutoCleanup@V?$AutoDelete@VCServiceWatcher@CServiceConfigCache@@@@PAVCServiceWatcher@CServiceConfigCache@@@@QAEPAVCServiceWatcher@CServiceConfigCache@@XZ
??C?$AutoCleanup@V?$AutoDelete@VCShellUriSettings@@@@PAVCShellUriSettings@@@@QAEPAVCShellUriSettings@@XZ
??C?$AutoCleanup@V?$AutoDelete@VCWSManEPR@@@@PAVCWSManEPR@@@@QAEPAVCWSManEPR@@XZ
??C?$AutoCleanup@V?$AutoDelete@VCWSManResource@@@@PAVCWSManResource@@@@QAEPAVCWSManResource@@XZ
??C?$AutoCleanup@V?$AutoDelete@VCertHash@@@@PAVCertHash@@@@QAEPAVCertHash@@XZ
??C?$AutoCleanup@V?$AutoDelete@VConfigUpdate@@@@PAVConfigUpdate@@@@QAEPAVConfigUpdate@@XZ
??C?$AutoCleanup@V?$AutoDelete@VEnumSinkEx@@@@PAVEnumSinkEx@@@@QAEPAVEnumSinkEx@@XZ
??C?$AutoCleanup@V?$AutoDelete@VEnumSinkEx@@@@PAVEnumSinkEx@@@@QBEQAVEnumSinkEx@@XZ
??C?$AutoCleanup@V?$AutoDelete@VExpiredOperationIdRecord@@@@PAVExpiredOperationIdRecord@@@@QAEPAVExpiredOperationIdRecord@@XZ
??C?$AutoCleanup@V?$AutoDelete@VGPApiManager@@@@PAVGPApiManager@@@@QAEPAVGPApiManager@@XZ
??C?$AutoCleanup@V?$AutoDelete@VGeneralSinkEx@@@@PAVGeneralSinkEx@@@@QAEPAVGeneralSinkEx@@XZ
??C?$AutoCleanup@V?$AutoDelete@VGeneralSinkEx@@@@PAVGeneralSinkEx@@@@QBEQAVGeneralSinkEx@@XZ
??C?$AutoCleanup@V?$AutoDelete@VIChannelObserverFactory@@@@PAVIChannelObserverFactory@@@@QAEPAVIChannelObserverFactory@@XZ
??C?$AutoCleanup@V?$AutoDelete@VIQueryDASHSMASHInterface@@@@PAVIQueryDASHSMASHInterface@@@@QAEPAVIQueryDASHSMASHInterface@@XZ
??C?$AutoCleanup@V?$AutoDelete@VIQueryDASHSMASHInterface@@@@PAVIQueryDASHSMASHInterface@@@@QBEQAVIQueryDASHSMASHInterface@@XZ
??C?$AutoCleanup@V?$AutoDelete@VISpecification@@@@PAVISpecification@@@@QAEPAVISpecification@@XZ
??C?$AutoCleanup@V?$AutoDelete@VISpecification@@@@PAVISpecification@@@@QBEQAVISpecification@@XZ
??C?$AutoCleanup@V?$AutoDelete@VMasterReceiveData@CListenerReceive@@@@PAVMasterReceiveData@CListenerReceive@@@@QAEPAVMasterReceiveData@CListenerReceive@@XZ
??C?$AutoCleanup@V?$AutoDelete@VOptionValue@SessionOptions@Client@WSMan@@@@PAVOptionValue@SessionOptions@Client@WSMan@@@@QAEPAVOptionValue@SessionOptions@Client@WSMan@@XZ
??C?$AutoCleanup@V?$AutoDelete@VPacketCreator@@@@PAVPacketCreator@@@@QAEPAVPacketCreator@@XZ
??C?$AutoCleanup@V?$AutoDelete@VPacketParser@@@@PAVPacketParser@@@@QAEPAVPacketParser@@XZ
??C?$AutoCleanup@V?$AutoDelete@VRunAsConfiguration@@@@PAVRunAsConfiguration@@@@QAEPAVRunAsConfiguration@@XZ
??C?$AutoCleanup@V?$AutoDelete@VSecurityEntry@Catalog@@@@PAVSecurityEntry@Catalog@@@@QAEPAVSecurityEntry@Catalog@@XZ
??C?$AutoCleanup@V?$AutoDelete@VSendPacketArgs@RobustConnectionBuffer@@@@PAVSendPacketArgs@RobustConnectionBuffer@@@@QAEPAVSendPacketArgs@RobustConnectionBuffer@@XZ
??C?$AutoCleanup@V?$AutoDelete@VServiceSoapProcessor@@@@PAVServiceSoapProcessor@@@@QAEPAVServiceSoapProcessor@@XZ
??C?$AutoCleanup@V?$AutoDelete@VSubscriptionEnumerator@@@@PAVSubscriptionEnumerator@@@@QAEPAVSubscriptionEnumerator@@XZ
??C?$AutoCleanup@V?$AutoDelete@VTSTRBUFFER@@@@PAVTSTRBUFFER@@@@QAEPAVTSTRBUFFER@@XZ
??C?$AutoCleanup@V?$AutoDelete@VTSTRBUFFER@@@@PAVTSTRBUFFER@@@@QBEQAVTSTRBUFFER@@XZ
??C?$AutoCleanup@V?$AutoDelete@VUniqueStringOverflow@@@@PAVUniqueStringOverflow@@@@QAEPAVUniqueStringOverflow@@XZ
??C?$AutoCleanup@V?$AutoDelete@VWSMANCONFIGTABLE_IDENTITY@@@@PAVWSMANCONFIGTABLE_IDENTITY@@@@QAEPAVWSMANCONFIGTABLE_IDENTITY@@XZ
??C?$AutoCleanup@V?$AutoDelete@VWmiEnumContext@@@@PAVWmiEnumContext@@@@QAEPAVWmiEnumContext@@XZ
??C?$AutoCleanup@V?$AutoDelete@VWmiEnumContext@@@@PAVWmiEnumContext@@@@QBEQAVWmiEnumContext@@XZ
??C?$AutoCleanup@V?$AutoDelete@VXmlReader@@@@PAVXmlReader@@@@QAEPAVXmlReader@@XZ
??C?$AutoCleanup@V?$AutoDeleteVector@E@@PAE@@QAEPAEXZ
??C?$AutoCleanup@V?$AutoDeleteVector@E@@PAE@@QBEQAEXZ
??C?$AutoCleanup@V?$AutoDeleteVector@G@@PAG@@QAEPAGXZ
??C?$AutoCleanup@V?$AutoDeleteVector@G@@PAG@@QBEQAGXZ
??C?$AutoCleanup@V?$AutoDeleteVector@PAG@@PAPAG@@QAEPAPAGXZ
??C?$AutoCleanup@V?$AutoDeleteVector@PAG@@PAPAG@@QBEQAPAGXZ
??C?$AutoCleanup@V?$AutoDeleteVector@PBG@@PAPBG@@QAEPAPBGXZ
??C?$AutoCleanup@V?$AutoDeleteVector@PBG@@PAPBG@@QBEQAPBGXZ
??C?$AutoCleanup@V?$AutoDeleteVector@U_WINRS_CREATE_SHELL_ENVIRONMENT_VARIABLE@@@@PAU_WINRS_CREATE_SHELL_ENVIRONMENT_VARIABLE@@@@QAEPAU_WINRS_CREATE_SHELL_ENVIRONMENT_VARIABLE@@XZ
??C?$AutoCleanup@V?$AutoDeleteVector@U_WINRS_CREATE_SHELL_ENVIRONMENT_VARIABLE@@@@PAU_WINRS_CREATE_SHELL_ENVIRONMENT_VARIABLE@@@@QBEQAU_WINRS_CREATE_SHELL_ENVIRONMENT_VARIABLE@@XZ
??C?$AutoCleanup@V?$AutoDeleteVector@U_WINRS_RUN_COMMAND_ARG@@@@PAU_WINRS_RUN_COMMAND_ARG@@@@QAEPAU_WINRS_RUN_COMMAND_ARG@@XZ
??C?$AutoCleanup@V?$AutoDeleteVector@U_WINRS_RUN_COMMAND_ARG@@@@PAU_WINRS_RUN_COMMAND_ARG@@@@QBEQAU_WINRS_RUN_COMMAND_ARG@@XZ
??C?$AutoCleanup@V?$AutoRelease@UIAppHostAdminManager@@@@PAUIAppHostAdminManager@@@@QAEPAUIAppHostAdminManager@@XZ
??C?$AutoCleanup@V?$AutoRelease@UIAppHostChildElementCollection@@@@PAUIAppHostChildElementCollection@@@@QAEPAUIAppHostChildElementCollection@@XZ
??C?$AutoCleanup@V?$AutoRelease@UIAppHostConfigException@@@@PAUIAppHostConfigException@@@@QAEPAUIAppHostConfigException@@XZ
??C?$AutoCleanup@V?$AutoRelease@UIAppHostElementCollection@@@@PAUIAppHostElementCollection@@@@QAEPAUIAppHostElementCollection@@XZ
??C?$AutoCleanup@V?$AutoRelease@UIAppHostProperty@@@@PAUIAppHostProperty@@@@QAEPAUIAppHostProperty@@XZ
??C?$AutoCleanup@V?$AutoRelease@UIAppHostPropertyCollection@@@@PAUIAppHostPropertyCollection@@@@QAEPAUIAppHostPropertyCollection@@XZ
??C?$AutoCleanup@V?$AutoRelease@UIClientSecurity@@@@PAUIClientSecurity@@@@QAEPAUIClientSecurity@@XZ
??C?$AutoCleanup@V?$AutoRelease@UIClientSecurity@@@@PAUIClientSecurity@@@@QBEQAUIClientSecurity@@XZ
??C?$AutoCleanup@V?$AutoRelease@UIEnumWbemClassObject@@@@PAUIEnumWbemClassObject@@@@QAEPAUIEnumWbemClassObject@@XZ
??C?$AutoCleanup@V?$AutoRelease@UIEnumWbemClassObject@@@@PAUIEnumWbemClassObject@@@@QBEQAUIEnumWbemClassObject@@XZ
??C?$AutoCleanup@V?$AutoRelease@UIErrorInfo@@@@PAUIErrorInfo@@@@QAEPAUIErrorInfo@@XZ
??C?$AutoCleanup@V?$AutoRelease@UIErrorInfo@@@@PAUIErrorInfo@@@@QBEQAUIErrorInfo@@XZ
??C?$AutoCleanup@V?$AutoRelease@UIUnknown@@@@PAUIUnknown@@@@QAEPAUIUnknown@@XZ
??C?$AutoCleanup@V?$AutoRelease@UIUnknown@@@@PAUIUnknown@@@@QBEQAUIUnknown@@XZ
??C?$AutoCleanup@V?$AutoRelease@UIWbemClassObject@@@@PAUIWbemClassObject@@@@QAEPAUIWbemClassObject@@XZ
??C?$AutoCleanup@V?$AutoRelease@UIWbemClassObject@@@@PAUIWbemClassObject@@@@QBEQAUIWbemClassObject@@XZ
??C?$AutoCleanup@V?$AutoRelease@UIWbemContext@@@@PAUIWbemContext@@@@QAEPAUIWbemContext@@XZ
??C?$AutoCleanup@V?$AutoRelease@UIWbemContext@@@@PAUIWbemContext@@@@QBEQAUIWbemContext@@XZ
??C?$AutoCleanup@V?$AutoRelease@UIWbemLocator@@@@PAUIWbemLocator@@@@QAEPAUIWbemLocator@@XZ
??C?$AutoCleanup@V?$AutoRelease@UIWbemLocator@@@@PAUIWbemLocator@@@@QBEQAUIWbemLocator@@XZ
??C?$AutoCleanup@V?$AutoRelease@UIWbemObjectTextSrc@@@@PAUIWbemObjectTextSrc@@@@QAEPAUIWbemObjectTextSrc@@XZ
??C?$AutoCleanup@V?$AutoRelease@UIWbemObjectTextSrc@@@@PAUIWbemObjectTextSrc@@@@QBEQAUIWbemObjectTextSrc@@XZ
??C?$AutoCleanup@V?$AutoRelease@UIWbemPath@@@@PAUIWbemPath@@@@QAEPAUIWbemPath@@XZ
??C?$AutoCleanup@V?$AutoRelease@UIWbemPath@@@@PAUIWbemPath@@@@QBEQAUIWbemPath@@XZ
??C?$AutoCleanup@V?$AutoRelease@UIWbemPathKeyList@@@@PAUIWbemPathKeyList@@@@QAEPAUIWbemPathKeyList@@XZ
??C?$AutoCleanup@V?$AutoRelease@UIWbemPathKeyList@@@@PAUIWbemPathKeyList@@@@QBEQAUIWbemPathKeyList@@XZ
??C?$AutoCleanup@V?$AutoRelease@UIWbemQualifierSet@@@@PAUIWbemQualifierSet@@@@QAEPAUIWbemQualifierSet@@XZ
??C?$AutoCleanup@V?$AutoRelease@UIWbemQualifierSet@@@@PAUIWbemQualifierSet@@@@QBEQAUIWbemQualifierSet@@XZ
??C?$AutoCleanup@V?$AutoRelease@UIWbemQuery@@@@PAUIWbemQuery@@@@QAEPAUIWbemQuery@@XZ
??C?$AutoCleanup@V?$AutoRelease@UIWbemQuery@@@@PAUIWbemQuery@@@@QBEQAUIWbemQuery@@XZ
??C?$AutoCleanup@V?$AutoRelease@UIWbemServices@@@@PAUIWbemServices@@@@QAEPAUIWbemServices@@XZ
??C?$AutoCleanup@V?$AutoRelease@UIWbemServices@@@@PAUIWbemServices@@@@QBEQAUIWbemServices@@XZ
??C?$AutoCleanup@V?$AutoRelease@VCBaseConfigCache@@@@PAVCBaseConfigCache@@@@QAEPAVCBaseConfigCache@@XZ
??C?$AutoCleanup@V?$AutoRelease@VCClientConfigSettings@@@@PAVCClientConfigSettings@@@@QAEPAVCClientConfigSettings@@XZ
??C?$AutoCleanup@V?$AutoRelease@VCConfigCacheMap@CBaseConfigCache@@@@PAVCConfigCacheMap@CBaseConfigCache@@@@QAEPAVCConfigCacheMap@CBaseConfigCache@@XZ
??C?$AutoCleanup@V?$AutoRelease@VCConfigManager@@@@PAVCConfigManager@@@@QAEPAVCConfigManager@@XZ
??C?$AutoCleanup@V?$AutoRelease@VCListenerReceive@@@@PAVCListenerReceive@@@@QAEPAVCListenerReceive@@XZ
??C?$AutoCleanup@V?$AutoRelease@VCRemoteSession@@@@PAVCRemoteSession@@@@QAEPAVCRemoteSession@@XZ
??C?$AutoCleanup@V?$AutoRelease@VCRemoteSession@@@@PAVCRemoteSession@@@@QBEQAVCRemoteSession@@XZ
??C?$AutoCleanup@V?$AutoRelease@VCRequestContext@@@@PAVCRequestContext@@@@QAEPAVCRequestContext@@XZ
??C?$AutoCleanup@V?$AutoRelease@VCServiceCommonConfigSettings@@@@PAVCServiceCommonConfigSettings@@@@QAEPAVCServiceCommonConfigSettings@@XZ
??C?$AutoCleanup@V?$AutoRelease@VCServiceConfigCache@@@@PAVCServiceConfigCache@@@@QAEPAVCServiceConfigCache@@XZ
??C?$AutoCleanup@V?$AutoRelease@VCServiceConfigSettings@@@@PAVCServiceConfigSettings@@@@QAEPAVCServiceConfigSettings@@XZ
??C?$AutoCleanup@V?$AutoRelease@VCWSManEPR@@@@PAVCWSManEPR@@@@QAEPAVCWSManEPR@@XZ
??C?$AutoCleanup@V?$AutoRelease@VCWSManEPR@@@@PAVCWSManEPR@@@@QBEQAVCWSManEPR@@XZ
??C?$AutoCleanup@V?$AutoRelease@VCWSManGroupPolicyCache@@@@PAVCWSManGroupPolicyCache@@@@QAEPAVCWSManGroupPolicyCache@@XZ
??C?$AutoCleanup@V?$AutoRelease@VCWSManGroupPolicyManager@@@@PAVCWSManGroupPolicyManager@@@@QAEPAVCWSManGroupPolicyManager@@XZ
??C?$AutoCleanup@V?$AutoRelease@VCWSManObject@@@@PAVCWSManObject@@@@QAEPAVCWSManObject@@XZ
??C?$AutoCleanup@V?$AutoRelease@VCWSManResource@@@@PAVCWSManResource@@@@QAEPAVCWSManResource@@XZ
??C?$AutoCleanup@V?$AutoRelease@VCWinRSPluginConfigCache@@@@PAVCWinRSPluginConfigCache@@@@QAEPAVCWinRSPluginConfigCache@@XZ
??C?$AutoCleanup@V?$AutoRelease@VCWinRSPluginConfigCache@@@@PAVCWinRSPluginConfigCache@@@@QBEQAVCWinRSPluginConfigCache@@XZ
??C?$AutoCleanup@V?$AutoRelease@VCWinRSPluginConfigSettings@@@@PAVCWinRSPluginConfigSettings@@@@QAEPAVCWinRSPluginConfigSettings@@XZ
??C?$AutoCleanup@V?$AutoRelease@VCommand@Client@WSMan@@@@PAVCommand@Client@WSMan@@@@QAEPAVCommand@Client@WSMan@@XZ
??C?$AutoCleanup@V?$AutoRelease@VConfigNotification@@@@PAVConfigNotification@@@@QAEPAVConfigNotification@@XZ
??C?$AutoCleanup@V?$AutoRelease@VConnectShellOperation@Client@WSMan@@@@PAVConnectShellOperation@Client@WSMan@@@@QAEPAVConnectShellOperation@Client@WSMan@@XZ
??C?$AutoCleanup@V?$AutoRelease@VCreateShellOperation@Client@WSMan@@@@PAVCreateShellOperation@Client@WSMan@@@@QAEPAVCreateShellOperation@Client@WSMan@@XZ
??C?$AutoCleanup@V?$AutoRelease@VDeleteShellOperation@Client@WSMan@@@@PAVDeleteShellOperation@Client@WSMan@@@@QAEPAVDeleteShellOperation@Client@WSMan@@XZ
??C?$AutoCleanup@V?$AutoRelease@VDisconnectOperation@Client@WSMan@@@@PAVDisconnectOperation@Client@WSMan@@@@QAEPAVDisconnectOperation@Client@WSMan@@XZ
??C?$AutoCleanup@V?$AutoRelease@VEnumSinkEx@@@@PAVEnumSinkEx@@@@QAEPAVEnumSinkEx@@XZ
??C?$AutoCleanup@V?$AutoRelease@VEnumSinkEx@@@@PAVEnumSinkEx@@@@QBEQAVEnumSinkEx@@XZ
??C?$AutoCleanup@V?$AutoRelease@VGeneralSinkEx@@@@PAVGeneralSinkEx@@@@QAEPAVGeneralSinkEx@@XZ
??C?$AutoCleanup@V?$AutoRelease@VGeneralSinkEx@@@@PAVGeneralSinkEx@@@@QBEQAVGeneralSinkEx@@XZ
??C?$AutoCleanup@V?$AutoRelease@VIPCSoapProcessor@@@@PAVIPCSoapProcessor@@@@QAEPAVIPCSoapProcessor@@XZ
??C?$AutoCleanup@V?$AutoRelease@VIRequestContext@@@@PAVIRequestContext@@@@QAEPAVIRequestContext@@XZ
??C?$AutoCleanup@V?$AutoRelease@VIRequestContext@@@@PAVIRequestContext@@@@QBEQAVIRequestContext@@XZ
??C?$AutoCleanup@V?$AutoRelease@VInboundRequestDetails@@@@PAVInboundRequestDetails@@@@QAEPAVInboundRequestDetails@@XZ
??C?$AutoCleanup@V?$AutoRelease@VInboundRequestDetails@@@@PAVInboundRequestDetails@@@@QBEQAVInboundRequestDetails@@XZ
??C?$AutoCleanup@V?$AutoRelease@VReceiveOperation@Client@WSMan@@@@PAVReceiveOperation@Client@WSMan@@@@QAEPAVReceiveOperation@Client@WSMan@@XZ
??C?$AutoCleanup@V?$AutoRelease@VReconnectOperation@Client@WSMan@@@@PAVReconnectOperation@Client@WSMan@@@@QAEPAVReconnectOperation@Client@WSMan@@XZ
??C?$AutoCleanup@V?$AutoRelease@VSendOperation@Client@WSMan@@@@PAVSendOperation@Client@WSMan@@@@QAEPAVSendOperation@Client@WSMan@@XZ
??C?$AutoCleanup@V?$AutoRelease@VShell@Client@WSMan@@@@PAVShell@Client@WSMan@@@@QAEPAVShell@Client@WSMan@@XZ
??C?$AutoCleanup@V?$AutoRelease@VShell@Client@WSMan@@@@PAVShell@Client@WSMan@@@@QBEQAVShell@Client@WSMan@@XZ
??C?$AutoCleanup@V?$AutoRelease@VSignalOperation@Client@WSMan@@@@PAVSignalOperation@Client@WSMan@@@@QAEPAVSignalOperation@Client@WSMan@@XZ
??C?$AutoCleanup@V?$AutoRelease@VUserRecord@@@@PAVUserRecord@@@@QAEPAVUserRecord@@XZ
??C?$AutoCleanup@V?$AutoRelease@VWSManHttpListener@@@@PAVWSManHttpListener@@@@QAEPAVWSManHttpListener@@XZ
??C?$AutoCleanup@VAutoBstrNoAlloc@@PAG@@QAEPAGXZ
??C?$AutoCleanup@VAutoBstrNoAlloc@@PAG@@QBEQAGXZ
??C?$AutoCleanup@VAutoChainContext@@PBU_CERT_CHAIN_CONTEXT@@@@QAEPBU_CERT_CHAIN_CONTEXT@@XZ
??C?$AutoCleanup@VAutoImpersonateUser@@PAX@@QAEPAXXZ
??C?$AutoCleanup@VAutoImpersonateUser@@PAX@@QBEQAXXZ
??C?$AutoCleanup@VAutoMIClass@@PAU_MI_Class@@@@QAEPAU_MI_Class@@XZ
??C?$SafeMap_Iterator@VStringKeyStore@@PAVExpiredOperationIdRecord@@@@QBEAAPAVExpiredOperationIdRecord@@XZ
??C?$SafeSet_Iterator@PAVCListenerOperation@@@@QBEABQAVCListenerOperation@@XZ
??D?$SafeMap_Iterator@VCertThumbprintKey@@VCertThumbprintMappedSet@CServiceConfigSettings@@@@QBEAAVCertThumbprintMappedSet@CServiceConfigSettings@@XZ
??D?$SafeMap_Iterator@VKey@Locale@@K@@QBEAAKXZ
??D?$SafeMap_Iterator@VStringKeyStore@@PAVExpiredOperationIdRecord@@@@QBEAAPAVExpiredOperationIdRecord@@XZ
??D?$SafeMap_Iterator@W4WSManSessionOption@@PAVOptionValue@SessionOptions@Client@WSMan@@@@QBEAAPAVOptionValue@SessionOptions@Client@WSMan@@XZ
??D?$SafeSet_Iterator@PAVCCertMapping@@@@QBEABQAVCCertMapping@@XZ
??D?$SafeSet_Iterator@PAVCListenerOperation@@@@QBEABQAVCListenerOperation@@XZ
??D?$SafeSet_Iterator@PAVCShellUriSettings@@@@QBEABQAVCShellUriSettings@@XZ
??E?$SafeMap_Iterator@PAVCCertMapping@@UEmpty@@@@QAEXH@Z
??E?$SafeMap_Iterator@PAVCListenerOperation@@UEmpty@@@@QAEXH@Z
??E?$SafeMap_Iterator@PAVCShellUriSettings@@UEmpty@@@@QAEXH@Z
??E?$SafeMap_Iterator@VCertThumbprintKey@@VCertThumbprintMappedSet@CServiceConfigSettings@@@@QAEXH@Z
??E?$SafeMap_Iterator@VStringKeyCI@@K@@QAEXH@Z
??E?$SafeMap_Iterator@VStringKeyCI@@UUSER_CONTEXT_INFO@WSManHttpListener@@@@QAEXH@Z
??E?$SafeMap_Iterator@VStringKeyStore@@PAVExpiredOperationIdRecord@@@@QAEXH@Z
??E?$SafeMap_Iterator@W4WSManSessionOption@@PAVOptionValue@SessionOptions@Client@WSMan@@@@QAEXH@Z
??_7?$SafeMap@PAVCCertMapping@@UEmpty@@V?$SafeSet_Iterator@PAVCCertMapping@@@@@@6B@ DATA
??_7?$SafeMap@PAVCListenerOperation@@UEmpty@@V?$SafeSet_Iterator@PAVCListenerOperation@@@@@@6B@ DATA
??_7?$SafeMap@PAVCShellUriSettings@@UEmpty@@V?$SafeSet_Iterator@PAVCShellUriSettings@@@@@@6B@ DATA
??_7?$SafeMap@PAVCollector@@UEmpty@@V?$SafeSet_Iterator@PAVCollector@@@@@@6B@ DATA
??_7?$SafeMap@PAVHostOperation@@UEmpty@@V?$SafeSet_Iterator@PAVHostOperation@@@@@@6B@ DATA
??_7?$SafeMap@PAVIOperation@@UEmpty@@V?$SafeSet_Iterator@PAVIOperation@@@@@@6B@ DATA
??_7?$SafeMap@PAVListenerSourceSubscription@@UEmpty@@V?$SafeSet_Iterator@PAVListenerSourceSubscription@@@@@@6B@ DATA
??_7?$SafeMap@PAVPushSubscription@@UEmpty@@V?$SafeSet_Iterator@PAVPushSubscription@@@@@@6B@ DATA
??_7?$SafeMap@PAXUEmpty@@V?$SafeSet_Iterator@PAX@@@@6B@ DATA
??_7?$SafeMap@UPluginKey@@KV?$SafeMap_Iterator@UPluginKey@@K@@@@6B@ DATA
??_7?$SafeMap@UUserKey@@PAVBlockedRecord@@V?$SafeMap_Iterator@UUserKey@@PAVBlockedRecord@@@@@@6B@ DATA
??_7?$SafeMap@VCertThumbprintKey@@VCertThumbprintMappedSet@CServiceConfigSettings@@V?$SafeMap_Iterator@VCertThumbprintKey@@VCertThumbprintMappedSet@CServiceConfigSettings@@@@@@6B@ DATA
??_7?$SafeMap@VKey@Locale@@KV?$SafeMap_Iterator@VKey@Locale@@K@@@@6B@ DATA
??_7?$SafeMap@VStringKeyCI@@KV?$SafeMap_Iterator@VStringKeyCI@@K@@@@6B@ DATA
??_7?$SafeMap@VStringKeyCI@@UEmpty@@V?$SafeSet_Iterator@VStringKeyCI@@@@@@6B@ DATA
??_7?$SafeMap@VStringKeyCI@@UUSER_CONTEXT_INFO@WSManHttpListener@@V?$SafeMap_Iterator@VStringKeyCI@@UUSER_CONTEXT_INFO@WSManHttpListener@@@@@@6B@ DATA
??_7?$SafeMap@VStringKeyStore@@PAVExpiredOperationIdRecord@@V?$SafeMap_Iterator@VStringKeyStore@@PAVExpiredOperationIdRecord@@@@@@6B@ DATA
??_7?$SafeMap@VStringKeyStore@@PAVServerFullDuplexChannel@@V?$SafeMap_Iterator@VStringKeyStore@@PAVServerFullDuplexChannel@@@@@@6B@ DATA
??_7?$SafeMap@W4WSManSessionOption@@PAVOptionValue@SessionOptions@Client@WSMan@@V?$SafeMap_Iterator@W4WSManSessionOption@@PAVOptionValue@SessionOptions@Client@WSMan@@@@@@6B@ DATA
??_7?$SafeMap@_KPAVSendPacketArgs@RobustConnectionBuffer@@V?$SafeMap_Iterator@_KPAVSendPacketArgs@RobustConnectionBuffer@@@@@@6B@ DATA
??_7?$SafeSet@PAVCCertMapping@@@@6B@ DATA
??_7?$SafeSet@PAVCListenerOperation@@@@6B@ DATA
??_7?$SafeSet@PAVCShellUriSettings@@@@6B@ DATA
??_7?$SafeSet@PAX@@6B@ DATA
??_7BufferFormatter@@6B@ DATA
??_7CBaseConfigCache@@6BIConfigChangeObserver@@@ DATA
??_7CBaseConfigCache@@6BILifeTimeMgmt@@@ DATA
??_7CClientConfigCache@@6BIConfigChangeObserver@@@ DATA
??_7CClientConfigCache@@6BILifeTimeMgmt@@@ DATA
??_7CConfigManager@@6B@ DATA
??_7CErrorContext@@6B@ DATA
??_7CRequestContext@@6BCErrorContext@@@ DATA
??_7CRequestContext@@6BEtwCorrelationHelper@@@ DATA
??_7CServiceConfigCache@@6BIConfigChangeObserver@@@ DATA
??_7CServiceConfigCache@@6BILifeTimeMgmt@@@ DATA
??_7CWSManEPR@@6B@ DATA
??_7CWSManGroupPolicyManager@@6B@ DATA
??_7CWSManResource@@6B@ DATA
??_7CWSManResourceNoResourceUri@@6B@ DATA
??_7CWSManSecurityUI@@6B@ DATA
??_7CWinRSPluginConfigCache@@6BIConfigChangeObserver@@@ DATA
??_7CWinRSPluginConfigCache@@6BILifeTimeMgmt@@@ DATA
??_7CircularBufferFormatter@@6B@ DATA
??_7EtwCorrelationHelper@@6B@ DATA
??_7IConfigChangeObserver@@6B@ DATA
??_7ILifeTimeMgmt@@6B@ DATA
??_7IRequestContext@@6B@ DATA
??_7IWSManGroupPolicyObserver@@6B@ DATA
??_7IWSManGroupPolicyPublisher@@6B@ DATA
??_7PacketParser@@6B@ DATA
??_7UserAuthzRecord@@6B@ DATA
??_7UserRecord@@6B@ DATA
??_FCErrorContext@@QAEXXZ
??_FRBUFFER@@QAEXXZ
?Acquire@?$SafeMap@PAVCCertMapping@@UEmpty@@V?$SafeMap_Iterator@PAVCCertMapping@@UEmpty@@@@@@UBEXXZ
?Acquire@?$SafeMap@PAVCCertMapping@@UEmpty@@V?$SafeSet_Iterator@PAVCCertMapping@@@@@@UBEXXZ
?Acquire@?$SafeMap@PAVCListenerConnect@@PAV1@V?$SafeMap_Iterator@PAVCListenerConnect@@PAV1@@@@@UBEXXZ
?Acquire@?$SafeMap@PAVCListenerOperation@@UEmpty@@V?$SafeMap_Iterator@PAVCListenerOperation@@UEmpty@@@@@@UBEXXZ
?Acquire@?$SafeMap@PAVCListenerOperation@@UEmpty@@V?$SafeSet_Iterator@PAVCListenerOperation@@@@@@UBEXXZ
?Acquire@?$SafeMap@PAVCListenerReceive@@PAV1@V?$SafeMap_Iterator@PAVCListenerReceive@@PAV1@@@@@UBEXXZ
?Acquire@?$SafeMap@PAVCListenerSend@@PAV1@V?$SafeMap_Iterator@PAVCListenerSend@@PAV1@@@@@UBEXXZ
?Acquire@?$SafeMap@PAVCListenerSignal@@PAV1@V?$SafeMap_Iterator@PAVCListenerSignal@@PAV1@@@@@UBEXXZ
?Acquire@?$SafeMap@PAVCShellUriSettings@@UEmpty@@V?$SafeSet_Iterator@PAVCShellUriSettings@@@@@@UBEXXZ
?Acquire@?$SafeMap@PAVCollector@@UEmpty@@V?$SafeMap_Iterator@PAVCollector@@UEmpty@@@@@@UBEXXZ
?Acquire@?$SafeMap@PAVCollector@@UEmpty@@V?$SafeSet_Iterator@PAVCollector@@@@@@UBEXXZ
?Acquire@?$SafeMap@PAVHostOperation@@UEmpty@@V?$SafeMap_Iterator@PAVHostOperation@@UEmpty@@@@@@UBEXXZ
?Acquire@?$SafeMap@PAVHostOperation@@UEmpty@@V?$SafeSet_Iterator@PAVHostOperation@@@@@@UBEXXZ
?Acquire@?$SafeMap@PAVIOperation@@UEmpty@@V?$SafeMap_Iterator@PAVIOperation@@UEmpty@@@@@@UBEXXZ
?Acquire@?$SafeMap@PAVIOperation@@UEmpty@@V?$SafeSet_Iterator@PAVIOperation@@@@@@UBEXXZ
?Acquire@?$SafeMap@PAVListenerSourceSubscription@@UEmpty@@V?$SafeMap_Iterator@PAVListenerSourceSubscription@@UEmpty@@@@@@UBEXXZ
?Acquire@?$SafeMap@PAVListenerSourceSubscription@@UEmpty@@V?$SafeSet_Iterator@PAVListenerSourceSubscription@@@@@@UBEXXZ
?Acquire@?$SafeMap@PAVPushSubscription@@UEmpty@@V?$SafeMap_Iterator@PAVPushSubscription@@UEmpty@@@@@@UBEXXZ
?Acquire@?$SafeMap@PAVPushSubscription@@UEmpty@@V?$SafeSet_Iterator@PAVPushSubscription@@@@@@UBEXXZ
?Acquire@?$SafeMap@PAXUEmpty@@V?$SafeSet_Iterator@PAX@@@@UBEXXZ
?Acquire@?$SafeMap@UPluginKey@@KV?$SafeMap_Iterator@UPluginKey@@K@@@@UBEXXZ
?Acquire@?$SafeMap@UUserKey@@PAVBlockedRecord@@V?$SafeMap_Iterator@UUserKey@@PAVBlockedRecord@@@@@@UBEXXZ
?Acquire@?$SafeMap@VCertThumbprintKey@@VCertThumbprintMappedSet@CServiceConfigSettings@@V?$SafeMap_Iterator@VCertThumbprintKey@@VCertThumbprintMappedSet@CServiceConfigSettings@@@@@@UBEXXZ
?Acquire@?$SafeMap@VGuidKey@@PAVCListenerCommand@@V?$SafeMap_Iterator@VGuidKey@@PAVCListenerCommand@@@@@@UBEXXZ
?Acquire@?$SafeMap@VKey@CWmiPtrCache@@VMapping@2@V?$SafeMap_Iterator@VKey@CWmiPtrCache@@VMapping@2@@@@@UBEXXZ
?Acquire@?$SafeMap@VKey@Locale@@KV?$SafeMap_Iterator@VKey@Locale@@K@@@@UBEXXZ
?Acquire@?$SafeMap@VStringKey@@PAVListenerEvents@@V?$SafeMap_Iterator@VStringKey@@PAVListenerEvents@@@@@@UBEXXZ
?Acquire@?$SafeMap@VStringKey@@PAVListenerSourceSubscription@@V?$SafeMap_Iterator@VStringKey@@PAVListenerSourceSubscription@@@@@@UBEXXZ
?Acquire@?$SafeMap@VStringKey@@UOption@WinRM_OperationOptions@@V?$SafeMap_Iterator@VStringKey@@UOption@WinRM_OperationOptions@@@@@@UBEXXZ
?Acquire@?$SafeMap@VStringKeyCI@@KV?$SafeMap_Iterator@VStringKeyCI@@K@@@@UBEXXZ
?Acquire@?$SafeMap@VStringKeyCI@@PAVIISEndpoint@@V?$SafeMap_Iterator@VStringKeyCI@@PAVIISEndpoint@@@@@@UBEXXZ
?Acquire@?$SafeMap@VStringKeyCI@@UEmpty@@V?$SafeMap_Iterator@VStringKeyCI@@UEmpty@@@@@@UBEXXZ
?Acquire@?$SafeMap@VStringKeyCI@@UEmpty@@V?$SafeSet_Iterator@VStringKeyCI@@@@@@UBEXXZ
?Acquire@?$SafeMap@VStringKeyCI@@UUSER_CONTEXT_INFO@WSManHttpListener@@V?$SafeMap_Iterator@VStringKeyCI@@UUSER_CONTEXT_INFO@WSManHttpListener@@@@@@UBEXXZ
?Acquire@?$SafeMap@VStringKeyStore@@PAVExpiredOperationIdRecord@@V?$SafeMap_Iterator@VStringKeyStore@@PAVExpiredOperationIdRecord@@@@@@UBEXXZ
?Acquire@?$SafeMap@VStringKeyStore@@PAVServerFullDuplexChannel@@V?$SafeMap_Iterator@VStringKeyStore@@PAVServerFullDuplexChannel@@@@@@UBEXXZ
?Acquire@?$SafeMap@VTokenCacheKey@ServiceSoapProcessor@@VTokenCacheMapping@2@V?$SafeMap_Iterator@VTokenCacheKey@ServiceSoapProcessor@@VTokenCacheMapping@2@@@@@UBEXXZ
?Acquire@?$SafeMap@W4WSManSessionOption@@PAVOptionValue@SessionOptions@Client@WSMan@@V?$SafeMap_Iterator@W4WSManSessionOption@@PAVOptionValue@SessionOptions@Client@WSMan@@@@@@UBEXXZ
?Acquire@?$SafeMap@_KPAVSendPacketArgs@RobustConnectionBuffer@@V?$SafeMap_Iterator@_KPAVSendPacketArgs@RobustConnectionBuffer@@@@@@UBEXXZ
?Acquire@?$SafeMap_Lock@PAVCCertMapping@@UEmpty@@V?$SafeMap_Iterator@PAVCCertMapping@@UEmpty@@@@@@QAEXXZ
?Acquire@?$SafeMap_Lock@PAVCCertMapping@@UEmpty@@V?$SafeSet_Iterator@PAVCCertMapping@@@@@@QAEXXZ
?Acquire@?$SafeMap_Lock@PAVCListenerOperation@@UEmpty@@V?$SafeMap_Iterator@PAVCListenerOperation@@UEmpty@@@@@@QAEXXZ
?Acquire@?$SafeMap_Lock@PAVCListenerOperation@@UEmpty@@V?$SafeSet_Iterator@PAVCListenerOperation@@@@@@QAEXXZ
?Acquire@?$SafeMap_Lock@PAVCShellUriSettings@@UEmpty@@V?$SafeMap_Iterator@PAVCShellUriSettings@@UEmpty@@@@@@QAEXXZ
?Acquire@?$SafeMap_Lock@PAVCShellUriSettings@@UEmpty@@V?$SafeSet_Iterator@PAVCShellUriSettings@@@@@@QAEXXZ
?Acquire@?$SafeMap_Lock@PAXUEmpty@@V?$SafeMap_Iterator@PAXUEmpty@@@@@@QAEXXZ
?Acquire@?$SafeMap_Lock@PAXUEmpty@@V?$SafeSet_Iterator@PAX@@@@QAEXXZ
?Acquire@?$SafeMap_Lock@UPluginKey@@KV?$SafeMap_Iterator@UPluginKey@@K@@@@QAEXXZ
?Acquire@?$SafeMap_Lock@UUserKey@@PAVBlockedRecord@@V?$SafeMap_Iterator@UUserKey@@PAVBlockedRecord@@@@@@QAEXXZ
?Acquire@?$SafeMap_Lock@VCertThumbprintKey@@VCertThumbprintMappedSet@CServiceConfigSettings@@V?$SafeMap_Iterator@VCertThumbprintKey@@VCertThumbprintMappedSet@CServiceConfigSettings@@@@@@QAEXXZ
?Acquire@?$SafeMap_Lock@VKey@Locale@@KV?$SafeMap_Iterator@VKey@Locale@@K@@@@QAEXXZ
?Acquire@?$SafeMap_Lock@VStringKeyCI@@KV?$SafeMap_Iterator@VStringKeyCI@@K@@@@QAEXXZ
?Acquire@?$SafeMap_Lock@VStringKeyCI@@UEmpty@@V?$SafeSet_Iterator@VStringKeyCI@@@@@@QAEXXZ
?Acquire@?$SafeMap_Lock@VStringKeyCI@@UUSER_CONTEXT_INFO@WSManHttpListener@@V?$SafeMap_Iterator@VStringKeyCI@@UUSER_CONTEXT_INFO@WSManHttpListener@@@@@@QAEXXZ
?Acquire@?$SafeMap_Lock@VStringKeyStore@@PAVExpiredOperationIdRecord@@V?$SafeMap_Iterator@VStringKeyStore@@PAVExpiredOperationIdRecord@@@@@@QAEXXZ
?Acquire@?$SafeMap_Lock@VStringKeyStore@@PAVServerFullDuplexChannel@@V?$SafeMap_Iterator@VStringKeyStore@@PAVServerFullDuplexChannel@@@@@@QAEXXZ
?Acquire@?$SafeMap_Lock@W4WSManSessionOption@@PAVOptionValue@SessionOptions@Client@WSMan@@V?$SafeMap_Iterator@W4WSManSessionOption@@PAVOptionValue@SessionOptions@Client@WSMan@@@@@@QAEXXZ
?Acquire@?$SafeMap_Lock@_KPAVSendPacketArgs@RobustConnectionBuffer@@V?$SafeMap_Iterator@_KPAVSendPacketArgs@RobustConnectionBuffer@@@@@@QAEXXZ
?Acquire@CWSManCriticalSection@@QAEXXZ
?AcquireExclusive@FastLock@@QAEXXZ
?AcquireShared@FastLock@@QAEXXZ
?Acquired@?$SafeMap_Lock@PAVCCertMapping@@UEmpty@@V?$SafeMap_Iterator@PAVCCertMapping@@UEmpty@@@@@@QAE_NXZ
?Acquired@?$SafeMap_Lock@PAVCListenerConnect@@PAV1@V?$SafeMap_Iterator@PAVCListenerConnect@@PAV1@@@@@QAE_NXZ
?Acquired@?$SafeMap_Lock@PAVCListenerOperation@@UEmpty@@V?$SafeMap_Iterator@PAVCListenerOperation@@UEmpty@@@@@@QAE_NXZ
?Acquired@?$SafeMap_Lock@PAVCListenerReceive@@PAV1@V?$SafeMap_Iterator@PAVCListenerReceive@@PAV1@@@@@QAE_NXZ
?Acquired@?$SafeMap_Lock@PAVCListenerSend@@PAV1@V?$SafeMap_Iterator@PAVCListenerSend@@PAV1@@@@@QAE_NXZ
?Acquired@?$SafeMap_Lock@PAVCListenerSignal@@PAV1@V?$SafeMap_Iterator@PAVCListenerSignal@@PAV1@@@@@QAE_NXZ
?Acquired@?$SafeMap_Lock@PAVCShellUriSettings@@UEmpty@@V?$SafeMap_Iterator@PAVCShellUriSettings@@UEmpty@@@@@@QAE_NXZ
?Acquired@?$SafeMap_Lock@PAVCollector@@UEmpty@@V?$SafeMap_Iterator@PAVCollector@@UEmpty@@@@@@QAE_NXZ
?Acquired@?$SafeMap_Lock@PAVHostOperation@@UEmpty@@V?$SafeMap_Iterator@PAVHostOperation@@UEmpty@@@@@@QAE_NXZ
?Acquired@?$SafeMap_Lock@PAVIOperation@@UEmpty@@V?$SafeMap_Iterator@PAVIOperation@@UEmpty@@@@@@QAE_NXZ
?Acquired@?$SafeMap_Lock@PAVListenerSourceSubscription@@UEmpty@@V?$SafeMap_Iterator@PAVListenerSourceSubscription@@UEmpty@@@@@@QAE_NXZ
?Acquired@?$SafeMap_Lock@PAVPushSubscription@@UEmpty@@V?$SafeMap_Iterator@PAVPushSubscription@@UEmpty@@@@@@QAE_NXZ
?Acquired@?$SafeMap_Lock@PAXUEmpty@@V?$SafeMap_Iterator@PAXUEmpty@@@@@@QAE_NXZ
?Acquired@?$SafeMap_Lock@UPluginKey@@KV?$SafeMap_Iterator@UPluginKey@@K@@@@QAE_NXZ
?Acquired@?$SafeMap_Lock@UUserKey@@PAVBlockedRecord@@V?$SafeMap_Iterator@UUserKey@@PAVBlockedRecord@@@@@@QAE_NXZ
?Acquired@?$SafeMap_Lock@VCertThumbprintKey@@VCertThumbprintMappedSet@CServiceConfigSettings@@V?$SafeMap_Iterator@VCertThumbprintKey@@VCertThumbprintMappedSet@CServiceConfigSettings@@@@@@QAE_NXZ
?Acquired@?$SafeMap_Lock@VGuidKey@@PAVCListenerCommand@@V?$SafeMap_Iterator@VGuidKey@@PAVCListenerCommand@@@@@@QAE_NXZ
?Acquired@?$SafeMap_Lock@VKey@Locale@@KV?$SafeMap_Iterator@VKey@Locale@@K@@@@QAE_NXZ
?Acquired@?$SafeMap_Lock@VStringKeyCI@@KV?$SafeMap_Iterator@VStringKeyCI@@K@@@@QAE_NXZ
?Acquired@?$SafeMap_Lock@VStringKeyCI@@UEmpty@@V?$SafeMap_Iterator@VStringKeyCI@@UEmpty@@@@@@QAE_NXZ
?Acquired@?$SafeMap_Lock@VStringKeyCI@@UUSER_CONTEXT_INFO@WSManHttpListener@@V?$SafeMap_Iterator@VStringKeyCI@@UUSER_CONTEXT_INFO@WSManHttpListener@@@@@@QAE_NXZ
?Acquired@?$SafeMap_Lock@VStringKeyStore@@PAVExpiredOperationIdRecord@@V?$SafeMap_Iterator@VStringKeyStore@@PAVExpiredOperationIdRecord@@@@@@QAE_NXZ
?Acquired@?$SafeMap_Lock@VStringKeyStore@@PAVServerFullDuplexChannel@@V?$SafeMap_Iterator@VStringKeyStore@@PAVServerFullDuplexChannel@@@@@@QAE_NXZ
?Acquired@?$SafeMap_Lock@W4WSManSessionOption@@PAVOptionValue@SessionOptions@Client@WSMan@@V?$SafeMap_Iterator@W4WSManSessionOption@@PAVOptionValue@SessionOptions@Client@WSMan@@@@@@QAE_NXZ
?Acquired@?$SafeMap_Lock@_KPAVSendPacketArgs@RobustConnectionBuffer@@V?$SafeMap_Iterator@_KPAVSendPacketArgs@RobustConnectionBuffer@@@@@@QAE_NXZ
?Add@?$SafeMap@PAVCCertMapping@@UEmpty@@V?$SafeSet_Iterator@PAVCCertMapping@@@@@@QAE_NABQAVCCertMapping@@ABUEmpty@@AAVIRequestContext@@@Z
?Add@?$SafeMap@PAVCListenerOperation@@UEmpty@@V?$SafeSet_Iterator@PAVCListenerOperation@@@@@@QAE_NABQAVCListenerOperation@@ABUEmpty@@AAVIRequestContext@@@Z
?Add@?$SafeMap@PAVCShellUriSettings@@UEmpty@@V?$SafeSet_Iterator@PAVCShellUriSettings@@@@@@QAE_NABQAVCShellUriSettings@@ABUEmpty@@AAVIRequestContext@@@Z
?Add@?$SafeMap@PAXUEmpty@@V?$SafeSet_Iterator@PAX@@@@QAE_NABQAXABUEmpty@@AAVIRequestContext@@@Z
?Add@?$SafeMap@UPluginKey@@KV?$SafeMap_Iterator@UPluginKey@@K@@@@QAE_NABUPluginKey@@ABKAAVIRequestContext@@@Z
?Add@?$SafeMap@UUserKey@@PAVBlockedRecord@@V?$SafeMap_Iterator@UUserKey@@PAVBlockedRecord@@@@@@QAE_NABUUserKey@@ABQAVBlockedRecord@@AAVIRequestContext@@@Z
?Add@?$SafeMap@VCertThumbprintKey@@VCertThumbprintMappedSet@CServiceConfigSettings@@V?$SafeMap_Iterator@VCertThumbprintKey@@VCertThumbprintMappedSet@CServiceConfigSettings@@@@@@QAE_NABVCertThumbprintKey@@ABVCertThumbprintMappedSet@CServiceConfigSettings@@AAVIRequestContext@@@Z
?Add@?$SafeMap@VKey@Locale@@KV?$SafeMap_Iterator@VKey@Locale@@K@@@@QAE_NABVKey@Locale@@ABKAAVIRequestContext@@@Z
?Add@?$SafeMap@VStringKeyCI@@KV?$SafeMap_Iterator@VStringKeyCI@@K@@@@QAE_NABVStringKeyCI@@ABKAAVIRequestContext@@@Z
?Add@?$SafeMap@VStringKeyCI@@UEmpty@@V?$SafeSet_Iterator@VStringKeyCI@@@@@@QAE_NABVStringKeyCI@@ABUEmpty@@AAVIRequestContext@@@Z
?Add@?$SafeMap@VStringKeyCI@@UUSER_CONTEXT_INFO@WSManHttpListener@@V?$SafeMap_Iterator@VStringKeyCI@@UUSER_CONTEXT_INFO@WSManHttpListener@@@@@@QAE_NABVStringKeyCI@@ABUUSER_CONTEXT_INFO@WSManHttpListener@@AAVIRequestContext@@@Z
?Add@?$SafeMap@VStringKeyStore@@PAVExpiredOperationIdRecord@@V?$SafeMap_Iterator@VStringKeyStore@@PAVExpiredOperationIdRecord@@@@@@QAE_NABVStringKeyStore@@ABQAVExpiredOperationIdRecord@@AAVIRequestContext@@@Z
?Add@?$SafeMap@VStringKeyStore@@PAVServerFullDuplexChannel@@V?$SafeMap_Iterator@VStringKeyStore@@PAVServerFullDuplexChannel@@@@@@QAE_NABVStringKeyStore@@ABQAVServerFullDuplexChannel@@AAVIRequestContext@@@Z
?Add@?$SafeMap@W4WSManSessionOption@@PAVOptionValue@SessionOptions@Client@WSMan@@V?$SafeMap_Iterator@W4WSManSessionOption@@PAVOptionValue@SessionOptions@Client@WSMan@@@@@@QAE_NABW4WSManSessionOption@@ABQAVOptionValue@SessionOptions@Client@WSMan@@AAVIRequestContext@@@Z
?Add@?$SafeMap@_KPAVSendPacketArgs@RobustConnectionBuffer@@V?$SafeMap_Iterator@_KPAVSendPacketArgs@RobustConnectionBuffer@@@@@@QAE_NAB_KABQAVSendPacketArgs@RobustConnectionBuffer@@AAVIRequestContext@@@Z
?Add@?$SafeSet@PAVCCertMapping@@@@QAE_NABQAVCCertMapping@@AAVIRequestContext@@@Z
?Add@?$SafeSet@PAVCListenerOperation@@@@QAE_NABQAVCListenerOperation@@AAVIRequestContext@@@Z
?Add@?$SafeSet@PAVCShellUriSettings@@@@QAE_NABQAVCShellUriSettings@@AAVIRequestContext@@@Z
?Add@?$SafeSet@PAX@@QAE_NABQAXAAVIRequestContext@@@Z
?Add@?$SafeSet@VStringKeyCI@@@@QAE_NABVStringKeyCI@@AAVIRequestContext@@@Z
?AddDefaultPlugins@ConfigUpdate@@SGHPAVIRequestContext@@H@Z
?AddKey@CWSManResourceNoResourceUri@@QAEHPBG0PAVIRequestContext@@@Z
?AddMessage@CRequestContext@@AAEHPBGPAPAD1@Z
?AddOption@CWSManResourceNoResourceUri@@QAEHPBG0HPAVIRequestContext@@@Z
?AddOptionSet@CWSManResourceNoResourceUri@@QAEHPAU_WSMAN_OPTION_SET@@PAVIRequestContext@@@Z
?AddPacket@PacketParser@@QAE_NPAVPacket@@_N11@Z
?AddRef@CWSManSecurityUI@@UAGKXZ
?AddRef@ILifeTimeMgmt@@UAEJXZ
?AddRef@UserRecord@@QAE_NAAVIRequestContext@@@Z
?AddSource@CBaseConfigCache@@IAEHPAVIRequestContext@@PAVCConfigChangeSource@@@Z
?AddToMap@CBaseConfigCache@@AAEHPAVIRequestContext@@AAVAutoLocalFree@@@Z
?Alloc@WSManMemory@@SGPAXIHW4_NitsFaultMode@@@Z
?AllocBstr@WSManMemory@@SGPAGPBGHH@Z
?AllocBstrLen@WSManMemory@@SGPAGPBGIHH@Z
?AllocCache@CClientConfigCache@@CGPAVCBaseConfigCache@@XZ
?AllocCache@CServiceConfigCache@@CGPAVCBaseConfigCache@@XZ
?AllocCache@CWinRSPluginConfigCache@@CGPAVCBaseConfigCache@@XZ
?AllocSysString@TSTRBUFFER@@QBEJPAPAG@Z
?AllowBasic@CCommonConfigSettings@@UBEHXZ
?AllowClientCertificate@CCommonConfigSettings@@UBEHXZ
?AllowCredSsp@CCommonConfigSettings@@UBEHXZ
?AllowKerberos@CCommonConfigSettings@@UBEHXZ
?AllowNegotiate@CCommonConfigSettings@@UBEHXZ
?AllowUnencrypted@CCommonConfigSettings@@UBEHXZ
?Append@SBUFFER@@QAEJPAEI@Z
?Append@SBUFFER@@QAEJPAV1@@Z
?Append@TSTRBUFFER@@QAEJPBG@Z
?Append@TSTRBUFFER@@QAEJPBGII@Z
?AppendChar@TSTRBUFFER@@QAEJG@Z
?AppendEscapeXmlAttribute@TSTRBUFFER@@QAEJPBGG@Z
?AppendEscapeXmlContent@TSTRBUFFER@@QAEJPBG_N@Z
?AppendXmlElem@TSTRBUFFER@@QAEJPBG0HKPAU_XML_ATTRIB@@@Z
?AppendXmlElemWithNamespace@TSTRBUFFER@@QAEJPBG00HKPAU_XML_ATTRIB@@@Z
?AppendXmlElemWithNamespaceAndPrefix@TSTRBUFFER@@QAEJPBG000HKPAU_XML_ATTRIB@@@Z
?AppendXmlElemWithPrefix@TSTRBUFFER@@QAEJPBG00HKPAU_XML_ATTRIB@@@Z
?AppendXmlEndElem@TSTRBUFFER@@QAEJPBG@Z
?AppendXmlEndElemWithPrefix@TSTRBUFFER@@QAEJPBG0@Z
?AppendXmlEndFragment@TSTRBUFFER@@QAEJXZ
?AppendXmlEndItem@TSTRBUFFER@@QAEJXZ
?AppendXmlStartElem@TSTRBUFFER@@QAEJPBGHKPAU_XML_ATTRIB@@@Z
?AppendXmlStartElemWithNamespace@TSTRBUFFER@@QAEJPBG0HKPAU_XML_ATTRIB@@@Z
?AppendXmlStartElemWithNamespaceAndPrefix@TSTRBUFFER@@QAEJPBG00HKPAU_XML_ATTRIB@@@Z
?AppendXmlStartElemWithNamespaces@TSTRBUFFER@@QAEJPBGKPAU_XML_NAMESPACE_PREFIX@@HKPAU_XML_ATTRIB@@@Z
?AppendXmlStartElemWithNamespacesAndPrefixes@TSTRBUFFER@@QAEJPBG0KPAU_XML_NAMESPACE_PREFIX@@HKPAU_XML_ATTRIB@@@Z
?AppendXmlStartElemWithPrefix@TSTRBUFFER@@QAEJPBG0HKPAU_XML_ATTRIB@@@Z
?AppendXmlStartFragment@TSTRBUFFER@@QAEJXZ
?AppendXmlStartItem@TSTRBUFFER@@QAEJXZ
?ApplyQuota@UserRecord@@QAE_NW4OperationType@@AAVIRequestContext@@PBVProvider@Catalog@@PAVCServiceConfigSettings@@@Z
?ApplySecurity@ConfigRegistry@@IAEHPAVIRequestContext@@PAUHKEY__@@PBG2@Z
?AsReference@?$SafeMap@PAVCCertMapping@@UEmpty@@V?$SafeSet_Iterator@PAVCCertMapping@@@@@@QAEAAV1@XZ
?AsReference@?$SafeMap@PAVCListenerOperation@@UEmpty@@V?$SafeSet_Iterator@PAVCListenerOperation@@@@@@QAEAAV1@XZ
?AsReference@?$SafeMap@PAVCShellUriSettings@@UEmpty@@V?$SafeSet_Iterator@PAVCShellUriSettings@@@@@@QAEAAV1@XZ
?AsReference@?$SafeMap@PAXUEmpty@@V?$SafeSet_Iterator@PAX@@@@QAEAAV1@XZ
?AsReference@?$SafeMap@UPluginKey@@KV?$SafeMap_Iterator@UPluginKey@@K@@@@QAEAAV1@XZ
?AsReference@?$SafeMap@UUserKey@@PAVBlockedRecord@@V?$SafeMap_Iterator@UUserKey@@PAVBlockedRecord@@@@@@QAEAAV1@XZ
?AsReference@?$SafeMap@VCertThumbprintKey@@VCertThumbprintMappedSet@CServiceConfigSettings@@V?$SafeMap_Iterator@VCertThumbprintKey@@VCertThumbprintMappedSet@CServiceConfigSettings@@@@@@QAEAAV1@XZ
?AsReference@?$SafeMap@VKey@Locale@@KV?$SafeMap_Iterator@VKey@Locale@@K@@@@QAEAAV1@XZ
?AsReference@?$SafeMap@VStringKeyCI@@KV?$SafeMap_Iterator@VStringKeyCI@@K@@@@QAEAAV1@XZ
?AsReference@?$SafeMap@VStringKeyCI@@UUSER_CONTEXT_INFO@WSManHttpListener@@V?$SafeMap_Iterator@VStringKeyCI@@UUSER_CONTEXT_INFO@WSManHttpListener@@@@@@QAEAAV1@XZ
?AsReference@?$SafeMap@VStringKeyStore@@PAVExpiredOperationIdRecord@@V?$SafeMap_Iterator@VStringKeyStore@@PAVExpiredOperationIdRecord@@@@@@QAEAAV1@XZ
?AsReference@?$SafeMap@VStringKeyStore@@PAVServerFullDuplexChannel@@V?$SafeMap_Iterator@VStringKeyStore@@PAVServerFullDuplexChannel@@@@@@QAEAAV1@XZ
?AsReference@?$SafeMap@W4WSManSessionOption@@PAVOptionValue@SessionOptions@Client@WSMan@@V?$SafeMap_Iterator@W4WSManSessionOption@@PAVOptionValue@SessionOptions@Client@WSMan@@@@@@QAEAAV1@XZ
?AsReference@?$SafeMap@_KPAVSendPacketArgs@RobustConnectionBuffer@@V?$SafeMap_Iterator@_KPAVSendPacketArgs@RobustConnectionBuffer@@@@@@QAEAAV1@XZ
?AuthzComplete@UserRecord@@UAEKPAX0W4AdministratorType@UserAuthzRecord@@KPBG@Z
?BOMS@PacketFormatter@@0QBUBOMInfo@1@B DATA
?BeginRevertToSelf@CSecurity@@SGHPAPAXK@Z
?BuildFragmentTransfer@CWSManResourceNoResourceUri@@UAEHAAVBufferFormatter@@@Z
?BuildOptionSet@CWSManResourceNoResourceUri@@QAEHAAVBufferFormatter@@@Z
?BuildSelectorSet@CWSManEPR@@UAEHAAVBufferFormatter@@@Z
?BuildSelectorSet@CWSManResourceNoResourceUri@@UAEHAAVBufferFormatter@@@Z
?CHARSETS@PacketFormatter@@0QBUCharsetInfo@1@B DATA
?ChangeLogging@CServiceConfigCache@@QAEXW4ErrorLogging@@@Z
?CheckSharedSSLConfiguration@ConfigRegistry@@IAEHPAVIRequestContext@@PBG1HPAH@Z
?Clear@?$SafeMap@UPluginKey@@KV?$SafeMap_Iterator@UPluginKey@@K@@@@QAEXXZ
?Clear@?$SafeMap@VStringKeyCI@@KV?$SafeMap_Iterator@VStringKeyCI@@K@@@@QAEXXZ
?Clear@?$SafeMap@VStringKeyCI@@UUSER_CONTEXT_INFO@WSManHttpListener@@V?$SafeMap_Iterator@VStringKeyCI@@UUSER_CONTEXT_INFO@WSManHttpListener@@@@@@QAEXXZ
?Clear@?$SafeMap@VStringKeyStore@@PAVExpiredOperationIdRecord@@V?$SafeMap_Iterator@VStringKeyStore@@PAVExpiredOperationIdRecord@@@@@@QAEXXZ
?ClearKeys@CWSManResourceNoResourceUri@@QAEHXZ
?ClearOptions@CWSManResourceNoResourceUri@@QAEHXZ
?ClearRegistryKeys@ConfigRegistry@@IAEHPAVIRequestContext@@@Z
?ClearSubKeys@@YGHPAUHKEY__@@PAVIRequestContext@@@Z
?CompleteWithErrorContext@CRequestContext@@QAEXPAU_WSMAN_PLUGIN_REQUEST@@@Z
?Confirm@ExtendedSemantic@@2KB DATA
?Copy@TSTRBUFFER@@QAEJPBG@Z
?CopyString@@YGPAGPAVIRequestContext@@W4CallSiteId@@PBG@Z
?CopyString@@YGPAGPBGABHAAVIRequestContext@@@Z
?CopyString@MessageId@PacketParser@@QAEKPBGH@Z
?CopyTo@CErrorContext@@UBEXPAVIRequestContext@@@Z
?CopyTo@CRequestContext@@UBEXPAVIRequestContext@@@Z
?CreateActivityId@EventHandler@WSMan@@SGXAAU_GUID@@@Z
?CreateAnEvent@SoapSemanticConverter@@QAEKKPAVSemanticMessage@@AAVBufferFormatter@@PAVIRequestContext@@@Z
?CreateAutoConfiguredListener@CConfigManager@@AAEHPAVIRequestContext@@PAVLISTENER_IDENTITY@@@Z
?CreateInstance@?$ILoader@VAdminSid@CSecurity@@@@IAE_NAAVIRequestContext@@@Z
?CreateInstance@?$ILoader@VEventHandler@WSMan@@@@IAE_NAAVIRequestContext@@@Z
?CreateInstance@?$ILoader@VInteractiveSid@CSecurity@@@@IAE_NAAVIRequestContext@@@Z
?CreateInstance@?$ILoader@VIpHlpApiDllLoader@@@@IAE_NAAVIRequestContext@@@Z
?CreateInstance@?$ILoader@VMachineName@@@@IAE_NAAVIRequestContext@@@Z
?CreateInstance@?$ILoader@VNetworkServiceSid@CSecurity@@@@IAE_NAAVIRequestContext@@@Z
?CreateInstance@?$ILoader@VNtDsApiDllLoader@@@@IAE_NAAVIRequestContext@@@Z
?CreateInstance@?$ILoader@VResources@Locale@@@@IAE_NAAVIRequestContext@@@Z
?CreateInstance@?$ILoader@VShell32DllLoader@@@@IAE_NAAVIRequestContext@@@Z
?CreateInstance@?$ILoader@VShlWApiDllLoader@@@@IAE_NAAVIRequestContext@@@Z
?CreateInstance@?$ILoader@VSubscriptionManager@@@@IAE_NAAVIRequestContext@@@Z
?CreateInstance@?$ILoader@VUser32DllLoader@@@@IAE_NAAVIRequestContext@@@Z
?CreateInstance@?$ILoader@VWSManMemCryptManager@@@@IAE_NAAVIRequestContext@@@Z
?CreateKey@ConfigRegistry@@IAEHPAVIRequestContext@@PBGPAPAUHKEY__@@1KPAK@Z
?CreateNew@CBaseConfigCache@@CGPAV1@PAVIRequestContext@@PAVCConfigCacheMap@1@P6GPAV1@XZW4ErrorLogging@@H@Z
?CreateProvHost@@YGPAXPAUHWND__@@PAK1PAJ@Z
?CreateRenderingInformation@CWSManSecurityUI@@AAEHPAVIRequestContext@@@Z
?CreateResponse@SoapSemanticConverter@@QAEKKW4_MI_OperationCallback_ResponseType@@AAVBufferFormatter@@PAVIRequestContext@@@Z
?CreateSessionGuid@SessionId@PacketParser@@QAEKPBGH@Z
?Data@?$SafeMap_Iterator@PAVCCertMapping@@UEmpty@@@@IBEAAV?$STLMap@PAVCCertMapping@@UEmpty@@@@XZ
?Data@?$SafeMap_Iterator@PAVCListenerOperation@@UEmpty@@@@IBEAAV?$STLMap@PAVCListenerOperation@@UEmpty@@@@XZ
?Data@?$SafeMap_Iterator@PAVCShellUriSettings@@UEmpty@@@@IBEAAV?$STLMap@PAVCShellUriSettings@@UEmpty@@@@XZ
?Data@?$SafeMap_Iterator@PAXUEmpty@@@@IBEAAV?$STLMap@PAXUEmpty@@@@XZ
?Data@?$SafeMap_Iterator@UPluginKey@@K@@IBEAAV?$STLMap@UPluginKey@@K@@XZ
?Data@?$SafeMap_Iterator@UUserKey@@PAVBlockedRecord@@@@IBEAAV?$STLMap@UUserKey@@PAVBlockedRecord@@@@XZ
?Data@?$SafeMap_Iterator@VCertThumbprintKey@@VCertThumbprintMappedSet@CServiceConfigSettings@@@@IBEAAV?$STLMap@VCertThumbprintKey@@VCertThumbprintMappedSet@CServiceConfigSettings@@@@XZ
?Data@?$SafeMap_Iterator@VKey@Locale@@K@@IBEAAV?$STLMap@VKey@Locale@@K@@XZ
?Data@?$SafeMap_Iterator@VStringKeyCI@@K@@IBEAAV?$STLMap@VStringKeyCI@@K@@XZ
?Data@?$SafeMap_Iterator@VStringKeyCI@@UUSER_CONTEXT_INFO@WSManHttpListener@@@@IBEAAV?$STLMap@VStringKeyCI@@UUSER_CONTEXT_INFO@WSManHttpListener@@@@XZ
?Data@?$SafeMap_Iterator@VStringKeyStore@@PAVExpiredOperationIdRecord@@@@IBEAAV?$STLMap@VStringKeyStore@@PAVExpiredOperationIdRecord@@@@XZ
?Data@?$SafeMap_Iterator@VStringKeyStore@@PAVServerFullDuplexChannel@@@@IBEAAV?$STLMap@VStringKeyStore@@PAVServerFullDuplexChannel@@@@XZ
?Data@?$SafeMap_Iterator@W4WSManSessionOption@@PAVOptionValue@SessionOptions@Client@WSMan@@@@IBEAAV?$STLMap@W4WSManSessionOption@@PAVOptionValue@SessionOptions@Client@WSMan@@@@XZ
?Data@?$SafeMap_Iterator@_KPAVSendPacketArgs@RobustConnectionBuffer@@@@IBEAAV?$STLMap@_KPAVSendPacketArgs@RobustConnectionBuffer@@@@XZ
?DeInitialize@?$SafeMap@PAVCCertMapping@@UEmpty@@V?$SafeMap_Iterator@PAVCCertMapping@@UEmpty@@@@@@UAE_NAAVIRequestContext@@@Z
?DeInitialize@?$SafeMap@PAVCCertMapping@@UEmpty@@V?$SafeSet_Iterator@PAVCCertMapping@@@@@@UAE_NAAVIRequestContext@@@Z
?DeInitialize@?$SafeMap@PAVCListenerConnect@@PAV1@V?$SafeMap_Iterator@PAVCListenerConnect@@PAV1@@@@@UAE_NAAVIRequestContext@@@Z
?DeInitialize@?$SafeMap@PAVCListenerOperation@@UEmpty@@V?$SafeMap_Iterator@PAVCListenerOperation@@UEmpty@@@@@@UAE_NAAVIRequestContext@@@Z
?DeInitialize@?$SafeMap@PAVCListenerOperation@@UEmpty@@V?$SafeSet_Iterator@PAVCListenerOperation@@@@@@UAE_NAAVIRequestContext@@@Z
?DeInitialize@?$SafeMap@PAVCListenerReceive@@PAV1@V?$SafeMap_Iterator@PAVCListenerReceive@@PAV1@@@@@UAE_NAAVIRequestContext@@@Z
?DeInitialize@?$SafeMap@PAVCListenerSend@@PAV1@V?$SafeMap_Iterator@PAVCListenerSend@@PAV1@@@@@UAE_NAAVIRequestContext@@@Z
?DeInitialize@?$SafeMap@PAVCListenerSignal@@PAV1@V?$SafeMap_Iterator@PAVCListenerSignal@@PAV1@@@@@UAE_NAAVIRequestContext@@@Z
?DeInitialize@?$SafeMap@PAVCShellUriSettings@@UEmpty@@V?$SafeSet_Iterator@PAVCShellUriSettings@@@@@@UAE_NAAVIRequestContext@@@Z
?DeInitialize@?$SafeMap@PAVCollector@@UEmpty@@V?$SafeMap_Iterator@PAVCollector@@UEmpty@@@@@@UAE_NAAVIRequestContext@@@Z
?DeInitialize@?$SafeMap@PAVCollector@@UEmpty@@V?$SafeSet_Iterator@PAVCollector@@@@@@UAE_NAAVIRequestContext@@@Z
?DeInitialize@?$SafeMap@PAVHostOperation@@UEmpty@@V?$SafeMap_Iterator@PAVHostOperation@@UEmpty@@@@@@UAE_NAAVIRequestContext@@@Z
?DeInitialize@?$SafeMap@PAVHostOperation@@UEmpty@@V?$SafeSet_Iterator@PAVHostOperation@@@@@@UAE_NAAVIRequestContext@@@Z
?DeInitialize@?$SafeMap@PAVIOperation@@UEmpty@@V?$SafeMap_Iterator@PAVIOperation@@UEmpty@@@@@@UAE_NAAVIRequestContext@@@Z
?DeInitialize@?$SafeMap@PAVIOperation@@UEmpty@@V?$SafeSet_Iterator@PAVIOperation@@@@@@UAE_NAAVIRequestContext@@@Z
?DeInitialize@?$SafeMap@PAVListenerSourceSubscription@@UEmpty@@V?$SafeMap_Iterator@PAVListenerSourceSubscription@@UEmpty@@@@@@UAE_NAAVIRequestContext@@@Z
?DeInitialize@?$SafeMap@PAVListenerSourceSubscription@@UEmpty@@V?$SafeSet_Iterator@PAVListenerSourceSubscription@@@@@@UAE_NAAVIRequestContext@@@Z
?DeInitialize@?$SafeMap@PAVPushSubscription@@UEmpty@@V?$SafeMap_Iterator@PAVPushSubscription@@UEmpty@@@@@@UAE_NAAVIRequestContext@@@Z
?DeInitialize@?$SafeMap@PAVPushSubscription@@UEmpty@@V?$SafeSet_Iterator@PAVPushSubscription@@@@@@UAE_NAAVIRequestContext@@@Z
?DeInitialize@?$SafeMap@PAXUEmpty@@V?$SafeSet_Iterator@PAX@@@@UAE_NAAVIRequestContext@@@Z
?DeInitialize@?$SafeMap@UPluginKey@@KV?$SafeMap_Iterator@UPluginKey@@K@@@@UAE_NAAVIRequestContext@@@Z
?DeInitialize@?$SafeMap@UUserKey@@PAVBlockedRecord@@V?$SafeMap_Iterator@UUserKey@@PAVBlockedRecord@@@@@@UAE_NAAVIRequestContext@@@Z
?DeInitialize@?$SafeMap@VCertThumbprintKey@@VCertThumbprintMappedSet@CServiceConfigSettings@@V?$SafeMap_Iterator@VCertThumbprintKey@@VCertThumbprintMappedSet@CServiceConfigSettings@@@@@@UAE_NAAVIRequestContext@@@Z
?DeInitialize@?$SafeMap@VGuidKey@@PAVCListenerCommand@@V?$SafeMap_Iterator@VGuidKey@@PAVCListenerCommand@@@@@@UAE_NAAVIRequestContext@@@Z
?DeInitialize@?$SafeMap@VKey@CWmiPtrCache@@VMapping@2@V?$SafeMap_Iterator@VKey@CWmiPtrCache@@VMapping@2@@@@@UAE_NAAVIRequestContext@@@Z
?DeInitialize@?$SafeMap@VKey@Locale@@KV?$SafeMap_Iterator@VKey@Locale@@K@@@@UAE_NAAVIRequestContext@@@Z
?DeInitialize@?$SafeMap@VStringKey@@PAVListenerEvents@@V?$SafeMap_Iterator@VStringKey@@PAVListenerEvents@@@@@@UAE_NAAVIRequestContext@@@Z
?DeInitialize@?$SafeMap@VStringKey@@PAVListenerSourceSubscription@@V?$SafeMap_Iterator@VStringKey@@PAVListenerSourceSubscription@@@@@@UAE_NAAVIRequestContext@@@Z
?DeInitialize@?$SafeMap@VStringKey@@UOption@WinRM_OperationOptions@@V?$SafeMap_Iterator@VStringKey@@UOption@WinRM_OperationOptions@@@@@@UAE_NAAVIRequestContext@@@Z
?DeInitialize@?$SafeMap@VStringKeyCI@@KV?$SafeMap_Iterator@VStringKeyCI@@K@@@@UAE_NAAVIRequestContext@@@Z
?DeInitialize@?$SafeMap@VStringKeyCI@@PAVIISEndpoint@@V?$SafeMap_Iterator@VStringKeyCI@@PAVIISEndpoint@@@@@@UAE_NAAVIRequestContext@@@Z
?DeInitialize@?$SafeMap@VStringKeyCI@@UEmpty@@V?$SafeMap_Iterator@VStringKeyCI@@UEmpty@@@@@@UAE_NAAVIRequestContext@@@Z
?DeInitialize@?$SafeMap@VStringKeyCI@@UEmpty@@V?$SafeSet_Iterator@VStringKeyCI@@@@@@UAE_NAAVIRequestContext@@@Z
?DeInitialize@?$SafeMap@VStringKeyCI@@UUSER_CONTEXT_INFO@WSManHttpListener@@V?$SafeMap_Iterator@VStringKeyCI@@UUSER_CONTEXT_INFO@WSManHttpListener@@@@@@UAE_NAAVIRequestContext@@@Z
?DeInitialize@?$SafeMap@VStringKeyStore@@PAVExpiredOperationIdRecord@@V?$SafeMap_Iterator@VStringKeyStore@@PAVExpiredOperationIdRecord@@@@@@UAE_NAAVIRequestContext@@@Z
?DeInitialize@?$SafeMap@VStringKeyStore@@PAVServerFullDuplexChannel@@V?$SafeMap_Iterator@VStringKeyStore@@PAVServerFullDuplexChannel@@@@@@UAE_NAAVIRequestContext@@@Z
?DeInitialize@?$SafeMap@VTokenCacheKey@ServiceSoapProcessor@@VTokenCacheMapping@2@V?$SafeMap_Iterator@VTokenCacheKey@ServiceSoapProcessor@@VTokenCacheMapping@2@@@@@UAE_NAAVIRequestContext@@@Z
?DeInitialize@?$SafeMap@W4WSManSessionOption@@PAVOptionValue@SessionOptions@Client@WSMan@@V?$SafeMap_Iterator@W4WSManSessionOption@@PAVOptionValue@SessionOptions@Client@WSMan@@@@@@UAE_NAAVIRequestContext@@@Z
?DeInitialize@?$SafeMap@_KPAVSendPacketArgs@RobustConnectionBuffer@@V?$SafeMap_Iterator@_KPAVSendPacketArgs@RobustConnectionBuffer@@@@@@UAE_NAAVIRequestContext@@@Z
?DeInitialize@CWSManGroupPolicyManager@@AAEHXZ
?DeInitialize@EventHandler@WSMan@@QAE_NAAVIRequestContext@@@Z
?Debug@ExtendedSemantic@@2KB DATA
?Decode@PacketFormatter@@QBEKPAPAVPacket@@_N@Z
?DecodeFaultObject@CRequestContext@@AAEKPAU_FWXML_ELEMENT@@AAPBG11@Z
?DecodeFaultObject@CRequestContext@@AAEKPBGKAAPBG11@Z
?DecodeFaultObjectProvider@CRequestContext@@AAEKPAU_FWXML_ELEMENT@@AAPBG1@Z
?DecodeFaultObjectProviderMessage@CRequestContext@@AAEKPAU_FWXML_ELEMENT@@AAPBG@Z
?DecodeFaultReason@CRequestContext@@AAEKPAU_FWXML_ELEMENT@@AAPBG@Z
?DecreaseProfileCount@UserRecord@@QAEXXZ
?DeleteConfigKey@ConfigRegistry@@KGHPAVIRequestContext@@PBG1H@Z
?DeleteCredentialsFromCredmanStore@CConfigManager@@SGHPAVIRequestContext@@PAG@Z
?DeleteKey@@YGHPAVIRequestContext@@PBG1@Z
?DeleteKey@ConfigRegistry@@KGHPAVIRequestContext@@PBGH@Z
?DeleteSubkeys@ConfigRegistry@@KGHPAVIRequestContext@@PAUHKEY__@@PBGHH@Z
?DeleteValues@ConfigRegistry@@KGHPAVIRequestContext@@PAUHKEY__@@@Z
?Detach@?$AutoCleanup@V?$AutoDelete@G@@PAG@@QAEPAGXZ
?Detach@?$AutoCleanup@V?$AutoDelete@UIPRange@CWSManIPFilter@@@@PAUIPRange@CWSManIPFilter@@@@QAEPAUIPRange@CWSManIPFilter@@XZ
?Detach@?$AutoCleanup@V?$AutoDelete@U_WSMAN_STREAM_ID_SET@@@@PAU_WSMAN_STREAM_ID_SET@@@@QAEPAU_WSMAN_STREAM_ID_SET@@XZ
?Detach@?$AutoCleanup@V?$AutoDelete@V?$Handle@VISubscription@@@@@@PAV?$Handle@VISubscription@@@@@@QAEPAV?$Handle@VISubscription@@@@XZ
?Detach@?$AutoCleanup@V?$AutoDelete@V?$SafeSet@PAVCCertMapping@@@@@@PAV?$SafeSet@PAVCCertMapping@@@@@@QAEPAV?$SafeSet@PAVCCertMapping@@@@XZ
?Detach@?$AutoCleanup@V?$AutoDelete@V?$SafeSet@PAVCShellUriSettings@@@@@@PAV?$SafeSet@PAVCShellUriSettings@@@@@@QAEPAV?$SafeSet@PAVCShellUriSettings@@@@XZ
?Detach@?$AutoCleanup@V?$AutoDelete@V?$set@PAVCListenerSettings@@VCListenerSettingsLessFunctor@CServiceConfigSettings@@V?$transport_allocator@PAVCListenerSettings@@@@@std@@@@PAV?$set@PAVCListenerSettings@@VCListenerSettingsLessFunctor@CServiceConfigSettings@@V?$transport_allocator@PAVCListenerSettings@@@@@std@@@@QAEPAV?$set@PAVCListenerSettings@@VCListenerSettingsLessFunctor@CServiceConfigSettings@@V?$transport_allocator@PAVCListenerSettings@@@@@std@@XZ
?Detach@?$AutoCleanup@V?$AutoDelete@VAdminSid@CSecurity@@@@PAVAdminSid@CSecurity@@@@QAEPAVAdminSid@CSecurity@@XZ
?Detach@?$AutoCleanup@V?$AutoDelete@VBlockedRecord@@@@PAVBlockedRecord@@@@QAEPAVBlockedRecord@@XZ
?Detach@?$AutoCleanup@V?$AutoDelete@VCBaseConfigCache@@@@PAVCBaseConfigCache@@@@QAEPAVCBaseConfigCache@@XZ
?Detach@?$AutoCleanup@V?$AutoDelete@VCCertMapping@@@@PAVCCertMapping@@@@QAEPAVCCertMapping@@XZ
?Detach@?$AutoCleanup@V?$AutoDelete@VCListenerSettings@@@@PAVCListenerSettings@@@@QAEPAVCListenerSettings@@XZ
?Detach@?$AutoCleanup@V?$AutoDelete@VCServiceWatcher@CServiceConfigCache@@@@PAVCServiceWatcher@CServiceConfigCache@@@@QAEPAVCServiceWatcher@CServiceConfigCache@@XZ
?Detach@?$AutoCleanup@V?$AutoDelete@VCShellUriSettings@@@@PAVCShellUriSettings@@@@QAEPAVCShellUriSettings@@XZ
?Detach@?$AutoCleanup@V?$AutoDelete@VCWSManEPR@@@@PAVCWSManEPR@@@@QAEPAVCWSManEPR@@XZ
?Detach@?$AutoCleanup@V?$AutoDelete@VCWSManResource@@@@PAVCWSManResource@@@@QAEPAVCWSManResource@@XZ
?Detach@?$AutoCleanup@V?$AutoDelete@VCertHash@@@@PAVCertHash@@@@QAEPAVCertHash@@XZ
?Detach@?$AutoCleanup@V?$AutoDelete@VConfigUpdate@@@@PAVConfigUpdate@@@@QAEPAVConfigUpdate@@XZ
?Detach@?$AutoCleanup@V?$AutoDelete@VEnumSinkEx@@@@PAVEnumSinkEx@@@@QAEPAVEnumSinkEx@@XZ
?Detach@?$AutoCleanup@V?$AutoDelete@VEventHandler@WSMan@@@@PAVEventHandler@WSMan@@@@QAEPAVEventHandler@WSMan@@XZ
?Detach@?$AutoCleanup@V?$AutoDelete@VExpiredOperationIdRecord@@@@PAVExpiredOperationIdRecord@@@@QAEPAVExpiredOperationIdRecord@@XZ
?Detach@?$AutoCleanup@V?$AutoDelete@VGeneralSinkEx@@@@PAVGeneralSinkEx@@@@QAEPAVGeneralSinkEx@@XZ
?Detach@?$AutoCleanup@V?$AutoDelete@VIQueryDASHSMASHInterface@@@@PAVIQueryDASHSMASHInterface@@@@QAEPAVIQueryDASHSMASHInterface@@XZ
?Detach@?$AutoCleanup@V?$AutoDelete@VISpecification@@@@PAVISpecification@@@@QAEPAVISpecification@@XZ
?Detach@?$AutoCleanup@V?$AutoDelete@VInteractiveSid@CSecurity@@@@PAVInteractiveSid@CSecurity@@@@QAEPAVInteractiveSid@CSecurity@@XZ
?Detach@?$AutoCleanup@V?$AutoDelete@VIpHlpApiDllLoader@@@@PAVIpHlpApiDllLoader@@@@QAEPAVIpHlpApiDllLoader@@XZ
?Detach@?$AutoCleanup@V?$AutoDelete@VMachineName@@@@PAVMachineName@@@@QAEPAVMachineName@@XZ
?Detach@?$AutoCleanup@V?$AutoDelete@VNetworkServiceSid@CSecurity@@@@PAVNetworkServiceSid@CSecurity@@@@QAEPAVNetworkServiceSid@CSecurity@@XZ
?Detach@?$AutoCleanup@V?$AutoDelete@VNtDsApiDllLoader@@@@PAVNtDsApiDllLoader@@@@QAEPAVNtDsApiDllLoader@@XZ
?Detach@?$AutoCleanup@V?$AutoDelete@VOptionValue@SessionOptions@Client@WSMan@@@@PAVOptionValue@SessionOptions@Client@WSMan@@@@QAEPAVOptionValue@SessionOptions@Client@WSMan@@XZ
?Detach@?$AutoCleanup@V?$AutoDelete@VResources@Locale@@@@PAVResources@Locale@@@@QAEPAVResources@Locale@@XZ
?Detach@?$AutoCleanup@V?$AutoDelete@VSecurityEntry@Catalog@@@@PAVSecurityEntry@Catalog@@@@QAEPAVSecurityEntry@Catalog@@XZ
?Detach@?$AutoCleanup@V?$AutoDelete@VServiceSoapProcessor@@@@PAVServiceSoapProcessor@@@@QAEPAVServiceSoapProcessor@@XZ
?Detach@?$AutoCleanup@V?$AutoDelete@VShell32DllLoader@@@@PAVShell32DllLoader@@@@QAEPAVShell32DllLoader@@XZ
?Detach@?$AutoCleanup@V?$AutoDelete@VShlWApiDllLoader@@@@PAVShlWApiDllLoader@@@@QAEPAVShlWApiDllLoader@@XZ
?Detach@?$AutoCleanup@V?$AutoDelete@VSubscriptionManager@@@@PAVSubscriptionManager@@@@QAEPAVSubscriptionManager@@XZ
?Detach@?$AutoCleanup@V?$AutoDelete@VTSTRBUFFER@@@@PAVTSTRBUFFER@@@@QAEPAVTSTRBUFFER@@XZ
?Detach@?$AutoCleanup@V?$AutoDelete@VUser32DllLoader@@@@PAVUser32DllLoader@@@@QAEPAVUser32DllLoader@@XZ
?Detach@?$AutoCleanup@V?$AutoDelete@VWSManMemCryptManager@@@@PAVWSManMemCryptManager@@@@QAEPAVWSManMemCryptManager@@XZ
?Detach@?$AutoCleanup@V?$AutoDelete@VWmiEnumContext@@@@PAVWmiEnumContext@@@@QAEPAVWmiEnumContext@@XZ
?Detach@?$AutoCleanup@V?$AutoDelete@VXmlReader@@@@PAVXmlReader@@@@QAEPAVXmlReader@@XZ
?Detach@?$AutoCleanup@V?$AutoDeleteVector@$$CBG@@PBG@@QAEPBGXZ
?Detach@?$AutoCleanup@V?$AutoDeleteVector@D@@PAD@@QAEPADXZ
?Detach@?$AutoCleanup@V?$AutoDeleteVector@E@@PAE@@QAEPAEXZ
?Detach@?$AutoCleanup@V?$AutoDeleteVector@G@@PAG@@QAEPAGXZ
?Detach@?$AutoCleanup@V?$AutoDeleteVector@PAG@@PAPAG@@QAEPAPAGXZ
?Detach@?$AutoCleanup@V?$AutoDeleteVector@PBG@@PAPBG@@QAEPAPBGXZ
?Detach@?$AutoCleanup@V?$AutoDeleteVector@U_WINRS_CREATE_SHELL_ENVIRONMENT_VARIABLE@@@@PAU_WINRS_CREATE_SHELL_ENVIRONMENT_VARIABLE@@@@QAEPAU_WINRS_CREATE_SHELL_ENVIRONMENT_VARIABLE@@XZ
?Detach@?$AutoCleanup@V?$AutoDeleteVector@U_WINRS_RUN_COMMAND_ARG@@@@PAU_WINRS_RUN_COMMAND_ARG@@@@QAEPAU_WINRS_RUN_COMMAND_ARG@@XZ
?Detach@?$AutoCleanup@V?$AutoDeleteVector@U_WSMAN_OPTION@@@@PAU_WSMAN_OPTION@@@@QAEPAU_WSMAN_OPTION@@XZ
?Detach@?$AutoCleanup@V?$AutoFree@E@@PAE@@QAEPAEXZ
?Detach@?$AutoCleanup@V?$AutoLocklessItemRecycle@VPacket@@@@PAVPacket@@@@QAEPAVPacket@@XZ
?Detach@?$AutoCleanup@V?$AutoRelease@UIClientSecurity@@@@PAUIClientSecurity@@@@QAEPAUIClientSecurity@@XZ
?Detach@?$AutoCleanup@V?$AutoRelease@UIEnumWbemClassObject@@@@PAUIEnumWbemClassObject@@@@QAEPAUIEnumWbemClassObject@@XZ
?Detach@?$AutoCleanup@V?$AutoRelease@UIErrorInfo@@@@PAUIErrorInfo@@@@QAEPAUIErrorInfo@@XZ
?Detach@?$AutoCleanup@V?$AutoRelease@UIUnknown@@@@PAUIUnknown@@@@QAEPAUIUnknown@@XZ
?Detach@?$AutoCleanup@V?$AutoRelease@UIWbemClassObject@@@@PAUIWbemClassObject@@@@QAEPAUIWbemClassObject@@XZ
?Detach@?$AutoCleanup@V?$AutoRelease@UIWbemContext@@@@PAUIWbemContext@@@@QAEPAUIWbemContext@@XZ
?Detach@?$AutoCleanup@V?$AutoRelease@UIWbemLocator@@@@PAUIWbemLocator@@@@QAEPAUIWbemLocator@@XZ
?Detach@?$AutoCleanup@V?$AutoRelease@UIWbemObjectTextSrc@@@@PAUIWbemObjectTextSrc@@@@QAEPAUIWbemObjectTextSrc@@XZ
?Detach@?$AutoCleanup@V?$AutoRelease@UIWbemPath@@@@PAUIWbemPath@@@@QAEPAUIWbemPath@@XZ
?Detach@?$AutoCleanup@V?$AutoRelease@UIWbemPathKeyList@@@@PAUIWbemPathKeyList@@@@QAEPAUIWbemPathKeyList@@XZ
?Detach@?$AutoCleanup@V?$AutoRelease@UIWbemQualifierSet@@@@PAUIWbemQualifierSet@@@@QAEPAUIWbemQualifierSet@@XZ
?Detach@?$AutoCleanup@V?$AutoRelease@UIWbemQuery@@@@PAUIWbemQuery@@@@QAEPAUIWbemQuery@@XZ
?Detach@?$AutoCleanup@V?$AutoRelease@UIWbemServices@@@@PAUIWbemServices@@@@QAEPAUIWbemServices@@XZ
?Detach@?$AutoCleanup@V?$AutoRelease@VApplication@Client@WSMan@@@@PAVApplication@Client@WSMan@@@@QAEPAVApplication@Client@WSMan@@XZ
?Detach@?$AutoCleanup@V?$AutoRelease@VCBaseConfigCache@@@@PAVCBaseConfigCache@@@@QAEPAVCBaseConfigCache@@XZ
?Detach@?$AutoCleanup@V?$AutoRelease@VCClientConfigSettings@@@@PAVCClientConfigSettings@@@@QAEPAVCClientConfigSettings@@XZ
?Detach@?$AutoCleanup@V?$AutoRelease@VCCommonConfigSettings@@@@PAVCCommonConfigSettings@@@@QAEPAVCCommonConfigSettings@@XZ
?Detach@?$AutoCleanup@V?$AutoRelease@VCConfigManager@@@@PAVCConfigManager@@@@QAEPAVCConfigManager@@XZ
?Detach@?$AutoCleanup@V?$AutoRelease@VCRemoteSession@@@@PAVCRemoteSession@@@@QAEPAVCRemoteSession@@XZ
?Detach@?$AutoCleanup@V?$AutoRelease@VCRequestContext@@@@PAVCRequestContext@@@@QAEPAVCRequestContext@@XZ
?Detach@?$AutoCleanup@V?$AutoRelease@VCServiceConfigSettings@@@@PAVCServiceConfigSettings@@@@QAEPAVCServiceConfigSettings@@XZ
?Detach@?$AutoCleanup@V?$AutoRelease@VCWSManEPR@@@@PAVCWSManEPR@@@@QAEPAVCWSManEPR@@XZ
?Detach@?$AutoCleanup@V?$AutoRelease@VCWSManGroupPolicyCache@@@@PAVCWSManGroupPolicyCache@@@@QAEPAVCWSManGroupPolicyCache@@XZ
?Detach@?$AutoCleanup@V?$AutoRelease@VCWSManGroupPolicyManager@@@@PAVCWSManGroupPolicyManager@@@@QAEPAVCWSManGroupPolicyManager@@XZ
?Detach@?$AutoCleanup@V?$AutoRelease@VCWSManObject@@@@PAVCWSManObject@@@@QAEPAVCWSManObject@@XZ
?Detach@?$AutoCleanup@V?$AutoRelease@VCWinRSPluginConfigCache@@@@PAVCWinRSPluginConfigCache@@@@QAEPAVCWinRSPluginConfigCache@@XZ
?Detach@?$AutoCleanup@V?$AutoRelease@VCWinRSPluginConfigSettings@@@@PAVCWinRSPluginConfigSettings@@@@QAEPAVCWinRSPluginConfigSettings@@XZ
?Detach@?$AutoCleanup@V?$AutoRelease@VCommand@Client@WSMan@@@@PAVCommand@Client@WSMan@@@@QAEPAVCommand@Client@WSMan@@XZ
?Detach@?$AutoCleanup@V?$AutoRelease@VEnumSinkEx@@@@PAVEnumSinkEx@@@@QAEPAVEnumSinkEx@@XZ
?Detach@?$AutoCleanup@V?$AutoRelease@VGeneralSinkEx@@@@PAVGeneralSinkEx@@@@QAEPAVGeneralSinkEx@@XZ
?Detach@?$AutoCleanup@V?$AutoRelease@VIPCSoapProcessor@@@@PAVIPCSoapProcessor@@@@QAEPAVIPCSoapProcessor@@XZ
?Detach@?$AutoCleanup@V?$AutoRelease@VIRequestContext@@@@PAVIRequestContext@@@@QAEPAVIRequestContext@@XZ
?Detach@?$AutoCleanup@V?$AutoRelease@VReceiveOperation@Client@WSMan@@@@PAVReceiveOperation@Client@WSMan@@@@QAEPAVReceiveOperation@Client@WSMan@@XZ
?Detach@?$AutoCleanup@V?$AutoRelease@VSendOperation@Client@WSMan@@@@PAVSendOperation@Client@WSMan@@@@QAEPAVSendOperation@Client@WSMan@@XZ
?Detach@?$AutoCleanup@V?$AutoRelease@VShell@Client@WSMan@@@@PAVShell@Client@WSMan@@@@QAEPAVShell@Client@WSMan@@XZ
?Detach@?$AutoCleanup@V?$AutoRelease@VSignalOperation@Client@WSMan@@@@PAVSignalOperation@Client@WSMan@@@@QAEPAVSignalOperation@Client@WSMan@@XZ
?Detach@?$AutoCleanup@VAutoBstrNoAlloc@@PAG@@QAEPAGXZ
?Detach@?$AutoCleanup@VAutoCertContext@@PBU_CERT_CONTEXT@@@@QAEPBU_CERT_CONTEXT@@XZ
?Detach@?$AutoCleanup@VAutoHandle@@PAX@@QAEPAXXZ
?Detach@?$AutoCleanup@VAutoImpersonateUser@@PAX@@QAEPAXXZ
?Detach@?$AutoCleanup@VAutoLocalFree@@PAX@@QAEPAXXZ
?Detach@?$AutoCleanup@VAutoMIClass@@PAU_MI_Class@@@@QAEPAU_MI_Class@@XZ
?Detach@?$AutoCleanup@VAutoMIInstance@@PAU_MI_Instance@@@@QAEPAU_MI_Instance@@XZ
?Detach@?$AutoCleanup@VAutoRegKey@@PAUHKEY__@@@@QAEPAUHKEY__@@XZ
?Detach@?$AutoCleanup@VAutoSecurityDescriptor@@PAX@@QAEPAXXZ
?Detach@?$AutoCleanup@VAutoWaitHandle@@PAX@@QAEPAXXZ
?Detach@BufferFormatter@@QAEPAEXZ
?Discard@CServiceWatcher@CServiceConfigCache@@QAEXXZ
?DoOnChange@CBaseConfigCache@@IAEXW4ConfigChangeSources@@KW4ConfigChangeSeverityType@@@Z
?DoesThreadOwnLock@CWSManCriticalSection@@QAEHXZ
?Down@?$LoaderSerializer@VSubscriptionManager@@$01@@AAEJXZ
?DropData@CircularBufferFormatter@@QAEXK@Z
?DuplicateCurrentToken@CSecurity@@SGHPAPAXKPAU_SECURITY_ATTRIBUTES@@W4_SECURITY_IMPERSONATION_LEVEL@@W4_TOKEN_TYPE@@H@Z
?EnableAllPrivileges@@YGHPAPAE@Z
?Encode@PacketFormatter@@QBEKPAPAVPacket@@@Z
?Encode@PacketFormatter@@QBEKPBGKPAEKPAPAEPAK_N@Z
?EndOfStream@PacketParser@@QAEXK@Z
?EndRevertToSelf@CSecurity@@SGHPAX@Z
?EnsureActivityIdOnThread@EventHandler@WSMan@@SGXXZ
?EnsureNoActiveCaches@CClientConfigCache@@SGXXZ
?EnsureNoActiveCaches@CServiceConfigCache@@SGXXZ
?Error@EventLog@@SGXK@Z
?Error@EventLog@@SGXKGPAPBG@Z
?Error@EventLog@@SGXKPBG@Z
?ErrorAction@ExtendedSemantic@@2KB DATA
?EventEnabled@EventHandler@WSMan@@AAE_NABU_EVENT_DESCRIPTOR@@@Z
?EventProviderEnabled@EventHandler@WSMan@@AAE_NXZ
?EventWrite@EventHandler@WSMan@@AAEXABU_EVENT_DESCRIPTOR@@KPAU_EVENT_DATA_DESCRIPTOR@@@Z
?ExtractContextId@PacketParser@@QAEHPAPBGKPBG@Z
?ExtractShellId@PacketParser@@QAEHPAVCRequestContext@@PAGK@Z
?ExtractSidFromToken@CSecurity@@SGHPAVIRequestContext@@PAXAAVAutoLocalFree@@@Z
?FindExisting@CBaseConfigCache@@CGPAV1@PAVCConfigCacheMap@1@PBGW4ErrorLogging@@@Z
?FindMatch@CResourceAlias@@AAEPAU_ALIAS_INFORMATION@@PBG@Z
?First@TSTRBUFFER@@QBEPBGXZ
?Format@Locale@@ABE_NKPAPADPAPAXPAGKGW4CallSiteId@@@Z
?FormatDataDescriptor@EventHandler@WSMan@@SGXAAU_EVENT_DATA_DESCRIPTOR@@AAG@Z
?FormatDataDescriptor@EventHandler@WSMan@@SGXAAU_EVENT_DATA_DESCRIPTOR@@AAJ@Z
?FormatDataDescriptor@EventHandler@WSMan@@SGXAAU_EVENT_DATA_DESCRIPTOR@@AAK@Z
?FormatDataDescriptor@EventHandler@WSMan@@SGXAAU_EVENT_DATA_DESCRIPTOR@@PBD@Z
?FormatDataDescriptor@EventHandler@WSMan@@SGXAAU_EVENT_DATA_DESCRIPTOR@@PBG@Z
?FormatWithFallback@Locale@@ABE_NKPAPAD0PAPAXPAGK@Z
?Free@WSManMemory@@SGXPAXH@Z
?FreeBstr@WSManMemory@@SGXPAGHH@Z
?FreeInstance@?$ILoader@VAdminSid@CSecurity@@@@QAE_NAAVIRequestContext@@_N@Z
?FreeInstance@?$ILoader@VEventHandler@WSMan@@@@QAE_NAAVIRequestContext@@_N@Z
?FreeInstance@?$ILoader@VInteractiveSid@CSecurity@@@@QAE_NAAVIRequestContext@@_N@Z
?FreeInstance@?$ILoader@VIpHlpApiDllLoader@@@@QAE_NAAVIRequestContext@@_N@Z
?FreeInstance@?$ILoader@VMachineName@@@@QAE_NAAVIRequestContext@@_N@Z
?FreeInstance@?$ILoader@VNetworkServiceSid@CSecurity@@@@QAE_NAAVIRequestContext@@_N@Z
?FreeInstance@?$ILoader@VNtDsApiDllLoader@@@@QAE_NAAVIRequestContext@@_N@Z
?FreeInstance@?$ILoader@VResources@Locale@@@@QAE_NAAVIRequestContext@@_N@Z
?FreeInstance@?$ILoader@VShell32DllLoader@@@@QAE_NAAVIRequestContext@@_N@Z
?FreeInstance@?$ILoader@VShlWApiDllLoader@@@@QAE_NAAVIRequestContext@@_N@Z
?FreeInstance@?$ILoader@VSubscriptionManager@@@@QAE_NAAVIRequestContext@@_N@Z
?FreeInstance@?$ILoader@VUser32DllLoader@@@@QAE_NAAVIRequestContext@@_N@Z
?FreeInstance@?$ILoader@VWSManMemCryptManager@@@@QAE_NAAVIRequestContext@@_N@Z
?FreeInstance@?$LoaderSerializer@VSubscriptionManager@@$01@@QAE_NAAVIRequestContext@@_N@Z
?FreeMemory@RBUFFER@@QAEXXZ
?FreeMemory@SBUFFER@@QAEXXZ
?FreePacket@PacketParser@@QAEXXZ
?FreeXmlStructure@PacketParser@@QAEXXZ
?GenerateTransferId@EventHandler@WSMan@@SGXABU_EVENT_DESCRIPTOR@@PBU_GUID@@1@Z
?GenerateTransferIdImp@EventHandler@WSMan@@AAEXABU_EVENT_DESCRIPTOR@@PBU_GUID@@1@Z
?GetAccessRights@CWSManSecurityUI@@UAGJPBU_GUID@@KPAPAU_SI_ACCESS@@PAK2@Z
?GetAction@PacketParser@@QBEABV?$PacketElement@PBG@1@XZ
?GetActionType@SoapSemanticConverter@@AAE_NPBGPAW4_MI_OperationCallback_ResponseType@@PAW4_MI_CallbackMode@@PAVIRequestContext@@@Z
?GetActivityIdOnCurrentThread@EventHandler@WSMan@@SGXAAU_GUID@@@Z
?GetBaseUri@CWSManResource@@QAEPBGXZ
?GetBomIndex@PacketFormatter@@QBE?AW4Charset@1@XZ
?GetBookmarkXml@PacketParser@@QAEABV?$PacketElement@PAU_FWXML_ELEMENT@@@1@XZ
?GetBool@CConfigManager@@QAEHPAVIRequestContext@@W4ConfigSetting@@PAHPAW4WSManConfigSource@@@Z
?GetBool@CWSManGroupPolicyManager@@QAEHPAVIRequestContext@@W4WSManGroupPolicySetting@@PAHPAW4WSManGroupPolicySettingState@@@Z
?GetBuffer@BufferFormatter@@UAEPAEXZ
?GetBuffer@BufferFormatter@@UBEPBEXZ
?GetBuffer@CircularBufferFormatter@@UAEPAEXZ
?GetBuffer@CircularBufferFormatter@@UBEPBEXZ
?GetBuffer@XmlReader@@QAEPBGXZ
?GetBufferLength@PacketParser@@UAEKXZ
?GetBufferPtr@PacketParser@@UAEPAPAGXZ
?GetBufferSize@BufferFormatter@@QBEKXZ
?GetCacheCount@CClientConfigCache@@SGKXZ
?GetCacheCount@CServiceConfigCache@@SGKXZ
?GetCalculationSize@BufferFormatter@@UBEK_N@Z
?GetCalculationSize@CircularBufferFormatter@@UBEK_N@Z
?GetCharInUse@TSTRBUFFER@@QBEIXZ
?GetCharset@PacketFormatter@@QBE?AW4Charset@1@XZ
?GetCharsetLen@PacketFormatter@@QBEKXZ
?GetCharsetName@PacketFormatter@@QBEPBDXZ
?GetChildCount@ChildLifeTimeManager@@QBEJXZ
?GetConfigCache@CBaseConfigCache@@KGPAV1@PAVIRequestContext@@W4ErrorLogging@@P6GPAV1@XZPAVFastLock@@AAV?$AutoRelease@VCConfigCacheMap@CBaseConfigCache@@@@H@Z
?GetConfigCache@CClientConfigCache@@SGPAV1@PAVIRequestContext@@H@Z
?GetConfigCache@CServiceConfigCache@@SGPAV1@PAVIRequestContext@@W4ErrorLogging@@H@Z
?GetConfigCache@CWinRSPluginConfigCache@@SGPAV1@PAVIRequestContext@@W4ErrorLogging@@H@Z
?GetConfigManager@CConfigManager@@SGPAV1@XZ
?GetConfigManagerForCertMapping@CConfigManager@@SGPAV1@PAVCERTMAPPING_IDENTITY@@PAVIRequestContext@@@Z
?GetConfigManagerForListener@CConfigManager@@SGPAV1@PAVLISTENER_IDENTITY@@PAVIRequestContext@@@Z
?GetConfigManagerForShellUri@CConfigManager@@SGPAV1@PAVSHELLURI_IDENTITY@@PAVIRequestContext@@@Z
?GetConfigManagerForTable@CConfigManager@@SGPAV1@PAVWSMANCONFIGTABLE_IDENTITY@@PAVIRequestContext@@@Z
?GetConfigXml@CConfigManager@@QAEHPAVIRequestContext@@PAPBGPAPAVXmlReader@@PAH@Z
?GetCorrelationId@PacketParser@@QAEAAU_GUID@@XZ
?GetCurrentCertMappingIdentity@CConfigManager@@QAEHPAVCERTMAPPING_IDENTITY@@PAVIRequestContext@@@Z
?GetCurrentListenerIdentity@CConfigManager@@QAEHPAVLISTENER_IDENTITY@@PAVIRequestContext@@@Z
?GetCurrentSettings@CBaseConfigCache@@IAEPAVCCommonConfigSettings@@PAVIRequestContext@@@Z
?GetCurrentSettings@CClientConfigCache@@QAEPAVCClientConfigSettings@@PAVIRequestContext@@@Z
?GetCurrentSettings@CServiceConfigCache@@QAEPAVCServiceConfigSettings@@PAVIRequestContext@@@Z
?GetCurrentSettings@CWinRSPluginConfigCache@@QAEPAVCWinRSPluginConfigSettings@@PAVIRequestContext@@@Z
?GetCurrentShellUriIdentity@CConfigManager@@QAEHPAVSHELLURI_IDENTITY@@PAVIRequestContext@@@Z
?GetCurrentTableIdentity@CConfigManager@@QAEHPAVWSMANCONFIGTABLE_IDENTITY@@PAVIRequestContext@@@Z
?GetDataLocale@PacketParser@@QBEABV?$PacketElement@PBG@1@XZ
?GetDataLocaleHelper@PacketParser@@QAEAAVLocale@@XZ
?GetDescriptionElement@SoapSemanticConverter@@QAEPAU_FWXML_ELEMENT@@PAU2@PAVIRequestContext@@@Z
?GetDestructorIter@?$SafeMap@PAVCCertMapping@@UEmpty@@V?$SafeSet_Iterator@PAVCCertMapping@@@@@@QAEAAV?$SafeSet_Iterator@PAVCCertMapping@@@@XZ
?GetDestructorIter@?$SafeMap@PAVCShellUriSettings@@UEmpty@@V?$SafeSet_Iterator@PAVCShellUriSettings@@@@@@QAEAAV?$SafeSet_Iterator@PAVCShellUriSettings@@@@XZ
?GetDestructorIter@?$SafeMap@VCertThumbprintKey@@VCertThumbprintMappedSet@CServiceConfigSettings@@V?$SafeMap_Iterator@VCertThumbprintKey@@VCertThumbprintMappedSet@CServiceConfigSettings@@@@@@QAEAAV?$SafeMap_Iterator@VCertThumbprintKey@@VCertThumbprintMappedSet@CServiceConfigSettings@@@@XZ
?GetDestructorIter@?$SafeMap@VStringKeyStore@@PAVExpiredOperationIdRecord@@V?$SafeMap_Iterator@VStringKeyStore@@PAVExpiredOperationIdRecord@@@@@@QAEAAV?$SafeMap_Iterator@VStringKeyStore@@PAVExpiredOperationIdRecord@@@@XZ
?GetDestructorIter@?$SafeMap@W4WSManSessionOption@@PAVOptionValue@SessionOptions@Client@WSMan@@V?$SafeMap_Iterator@W4WSManSessionOption@@PAVOptionValue@SessionOptions@Client@WSMan@@@@@@QAEAAV?$SafeMap_Iterator@W4WSManSessionOption@@PAVOptionValue@SessionOptions@Client@WSMan@@@@XZ
?GetDialect@Fragment@PacketParser@@QBEPBGXZ
?GetError@BufferFormatter@@QBEKXZ
?GetErrorCode@CErrorContext@@UBEKXZ
?GetEventType@SoapSemanticConverter@@AAEKPBGPAVIRequestContext@@@Z
?GetEventTypeAndResponseElement@SoapSemanticConverter@@AAEPAU_FWXML_ELEMENT@@PAU2@PAKPAVIRequestContext@@@Z
?GetExtendedErrorString@CErrorContext@@UAEPAGXZ
?GetExtendedErrorString@CRequestContext@@UAEPAGXZ
?GetFaultToXml@PacketParser@@QBEABVReferenceParameters@1@XZ
?GetFaultXML@CErrorContext@@UBEPBGXZ
?GetFaultXML@CRequestContext@@UBEPBGXZ
?GetFaultXMLPrivate@CRequestContext@@AAEXPAPAD0KHKKPBG11@Z
?GetFirstConfigManagerForCertMapping@CConfigManager@@SGPAV1@PBG@Z
?GetFirstConfigManagerForListener@CConfigManager@@SGPAV1@PBG@Z
?GetFirstConfigManagerForShellUri@CConfigManager@@SGPAV1@PBG@Z
?GetFirstConfigManagerForTable@CConfigManager@@SGPAV1@W4WSMANTableConfigType@@PBG@Z
?GetFormat@PacketFormatter@@QBE?AW4Charset@1@XZ
?GetFormatterMode@BufferFormatter@@QAE?AW4Charset@PacketFormatter@@XZ
?GetFragment@PacketParser@@QBEABVFragment@1@XZ
?GetFragmentDialect@CWSManResourceNoResourceUri@@QAEPBGXZ
?GetFragmentPath@CWSManResourceNoResourceUri@@QAEPBGXZ
?GetGroupPolicyManager@CWSManGroupPolicyManager@@SGPAV1@PAVIRequestContext@@PBG@Z
?GetHeap@WSManMemory@@SGPAXXZ
?GetIISConfiguration@CConfigManager@@SGHPAVIRequestContext@@PBGPAPAVXmlReader@@@Z
?GetImpersonationToken@UserRecord@@QAEPAXXZ
?GetInheritTypes@CWSManSecurityUI@@UAGJPAPAU_SI_INHERIT_TYPE@@PAK@Z
?GetInitError@CWSManCriticalSection@@QBEKXZ
?GetInstance@?$LoaderSerializer@VAdminSid@CSecurity@@$00@@QAEPAVAdminSid@CSecurity@@AAVIRequestContext@@@Z
?GetInstance@?$LoaderSerializer@VEventHandler@WSMan@@$00@@QAEPAVEventHandler@WSMan@@AAVIRequestContext@@@Z
?GetInstance@?$LoaderSerializer@VInteractiveSid@CSecurity@@$00@@QAEPAVInteractiveSid@CSecurity@@AAVIRequestContext@@@Z
?GetInstance@?$LoaderSerializer@VIpHlpApiDllLoader@@$00@@QAEPAVIpHlpApiDllLoader@@AAVIRequestContext@@@Z
?GetInstance@?$LoaderSerializer@VMachineName@@$00@@QAEPAVMachineName@@AAVIRequestContext@@@Z
?GetInstance@?$LoaderSerializer@VNetworkServiceSid@CSecurity@@$00@@QAEPAVNetworkServiceSid@CSecurity@@AAVIRequestContext@@@Z
?GetInstance@?$LoaderSerializer@VNtDsApiDllLoader@@$00@@QAEPAVNtDsApiDllLoader@@AAVIRequestContext@@@Z
?GetInstance@?$LoaderSerializer@VResources@Locale@@$0A@@@QAEPAVResources@Locale@@AAVIRequestContext@@@Z
?GetInstance@?$LoaderSerializer@VShell32DllLoader@@$00@@QAEPAVShell32DllLoader@@AAVIRequestContext@@@Z
?GetInstance@?$LoaderSerializer@VShlWApiDllLoader@@$00@@QAEPAVShlWApiDllLoader@@AAVIRequestContext@@@Z
?GetInstance@?$LoaderSerializer@VSubscriptionManager@@$01@@QAEPAVSubscriptionManager@@AAVIRequestContext@@@Z
?GetInstance@?$LoaderSerializer@VUser32DllLoader@@$00@@QAEPAVUser32DllLoader@@AAVIRequestContext@@@Z
?GetInstance@?$LoaderSerializer@VWSManMemCryptManager@@$00@@QAEPAVWSManMemCryptManager@@AAVIRequestContext@@@Z
?GetInt@CConfigManager@@QAEHPAVIRequestContext@@W4ConfigSetting@@PAKPAW4WSManConfigSource@@@Z
?GetInt@CWSManGroupPolicyManager@@QAEHPAVIRequestContext@@W4WSManGroupPolicySetting@@PAKPAW4WSManGroupPolicySettingState@@@Z
?GetKey@UserRecord@@QBE?AUUserKey@@XZ
?GetKeyCount@CWSManResourceNoResourceUri@@QAEKXZ
?GetKeyValue@CWSManResourceNoResourceUri@@QAEPBGPBG@Z
?GetKeys@CWSManResourceNoResourceUri@@QAEPAU_WSMAN_KEY@@XZ
?GetLCID@Locale@@QAEKXZ
?GetLength@XmlReader@@QAEIXZ
?GetLocale@CRequestContext@@QAEAAVLocale@@XZ
?GetLocale@PacketParser@@QBEABV?$PacketElement@PBG@1@XZ
?GetLocaleHelper@PacketParser@@QAEAAVLocale@@XZ
?GetLocaleString@CRequestContext@@QAEPBGXZ
?GetLocator@CWSManResource@@QAEPAU_WSMAN_RESOURCE_LOCATOR@@XZ
?GetMachineId@PacketParser@@QBEABV?$PacketElement@PBG@1@XZ
?GetMap@?$SafeMap_Iterator@PAVCCertMapping@@UEmpty@@@@QBEAAV?$SafeMap@PAVCCertMapping@@UEmpty@@V?$SafeMap_Iterator@PAVCCertMapping@@UEmpty@@@@@@XZ
?GetMap@?$SafeMap_Iterator@PAVCListenerConnect@@PAV1@@@QBEAAV?$SafeMap@PAVCListenerConnect@@PAV1@V?$SafeMap_Iterator@PAVCListenerConnect@@PAV1@@@@@XZ
?GetMap@?$SafeMap_Iterator@PAVCListenerOperation@@UEmpty@@@@QBEAAV?$SafeMap@PAVCListenerOperation@@UEmpty@@V?$SafeMap_Iterator@PAVCListenerOperation@@UEmpty@@@@@@XZ
?GetMap@?$SafeMap_Iterator@PAVCListenerReceive@@PAV1@@@QBEAAV?$SafeMap@PAVCListenerReceive@@PAV1@V?$SafeMap_Iterator@PAVCListenerReceive@@PAV1@@@@@XZ
?GetMap@?$SafeMap_Iterator@PAVCListenerSend@@PAV1@@@QBEAAV?$SafeMap@PAVCListenerSend@@PAV1@V?$SafeMap_Iterator@PAVCListenerSend@@PAV1@@@@@XZ
?GetMap@?$SafeMap_Iterator@PAVCListenerSignal@@PAV1@@@QBEAAV?$SafeMap@PAVCListenerSignal@@PAV1@V?$SafeMap_Iterator@PAVCListenerSignal@@PAV1@@@@@XZ
?GetMap@?$SafeMap_Iterator@PAVCShellUriSettings@@UEmpty@@@@QBEAAV?$SafeMap@PAVCShellUriSettings@@UEmpty@@V?$SafeMap_Iterator@PAVCShellUriSettings@@UEmpty@@@@@@XZ
?GetMap@?$SafeMap_Iterator@PAVCollector@@UEmpty@@@@QBEAAV?$SafeMap@PAVCollector@@UEmpty@@V?$SafeMap_Iterator@PAVCollector@@UEmpty@@@@@@XZ
?GetMap@?$SafeMap_Iterator@PAVHostOperation@@UEmpty@@@@QBEAAV?$SafeMap@PAVHostOperation@@UEmpty@@V?$SafeMap_Iterator@PAVHostOperation@@UEmpty@@@@@@XZ
?GetMap@?$SafeMap_Iterator@PAVIOperation@@UEmpty@@@@QBEAAV?$SafeMap@PAVIOperation@@UEmpty@@V?$SafeMap_Iterator@PAVIOperation@@UEmpty@@@@@@XZ
?GetMap@?$SafeMap_Iterator@PAVListenerSourceSubscription@@UEmpty@@@@QBEAAV?$SafeMap@PAVListenerSourceSubscription@@UEmpty@@V?$SafeMap_Iterator@PAVListenerSourceSubscription@@UEmpty@@@@@@XZ
?GetMap@?$SafeMap_Iterator@PAVPushSubscription@@UEmpty@@@@QBEAAV?$SafeMap@PAVPushSubscription@@UEmpty@@V?$SafeMap_Iterator@PAVPushSubscription@@UEmpty@@@@@@XZ
?GetMap@?$SafeMap_Iterator@PAXUEmpty@@@@QBEAAV?$SafeMap@PAXUEmpty@@V?$SafeMap_Iterator@PAXUEmpty@@@@@@XZ
?GetMap@?$SafeMap_Iterator@UPluginKey@@K@@QBEAAV?$SafeMap@UPluginKey@@KV?$SafeMap_Iterator@UPluginKey@@K@@@@XZ
?GetMap@?$SafeMap_Iterator@UUserKey@@PAVBlockedRecord@@@@QBEAAV?$SafeMap@UUserKey@@PAVBlockedRecord@@V?$SafeMap_Iterator@UUserKey@@PAVBlockedRecord@@@@@@XZ
?GetMap@?$SafeMap_Iterator@VCertThumbprintKey@@VCertThumbprintMappedSet@CServiceConfigSettings@@@@QBEAAV?$SafeMap@VCertThumbprintKey@@VCertThumbprintMappedSet@CServiceConfigSettings@@V?$SafeMap_Iterator@VCertThumbprintKey@@VCertThumbprintMappedSet@CServiceConfigSettings@@@@@@XZ
?GetMap@?$SafeMap_Iterator@VGuidKey@@PAVCListenerCommand@@@@QBEAAV?$SafeMap@VGuidKey@@PAVCListenerCommand@@V?$SafeMap_Iterator@VGuidKey@@PAVCListenerCommand@@@@@@XZ
?GetMap@?$SafeMap_Iterator@VKey@Locale@@K@@QBEAAV?$SafeMap@VKey@Locale@@KV?$SafeMap_Iterator@VKey@Locale@@K@@@@XZ
?GetMap@?$SafeMap_Iterator@VStringKeyCI@@K@@QBEAAV?$SafeMap@VStringKeyCI@@KV?$SafeMap_Iterator@VStringKeyCI@@K@@@@XZ
?GetMap@?$SafeMap_Iterator@VStringKeyCI@@UEmpty@@@@QBEAAV?$SafeMap@VStringKeyCI@@UEmpty@@V?$SafeMap_Iterator@VStringKeyCI@@UEmpty@@@@@@XZ
?GetMap@?$SafeMap_Iterator@VStringKeyCI@@UUSER_CONTEXT_INFO@WSManHttpListener@@@@QBEAAV?$SafeMap@VStringKeyCI@@UUSER_CONTEXT_INFO@WSManHttpListener@@V?$SafeMap_Iterator@VStringKeyCI@@UUSER_CONTEXT_INFO@WSManHttpListener@@@@@@XZ
?GetMap@?$SafeMap_Iterator@VStringKeyStore@@PAVExpiredOperationIdRecord@@@@QBEAAV?$SafeMap@VStringKeyStore@@PAVExpiredOperationIdRecord@@V?$SafeMap_Iterator@VStringKeyStore@@PAVExpiredOperationIdRecord@@@@@@XZ
?GetMap@?$SafeMap_Iterator@VStringKeyStore@@PAVServerFullDuplexChannel@@@@QBEAAV?$SafeMap@VStringKeyStore@@PAVServerFullDuplexChannel@@V?$SafeMap_Iterator@VStringKeyStore@@PAVServerFullDuplexChannel@@@@@@XZ
?GetMap@?$SafeMap_Iterator@W4WSManSessionOption@@PAVOptionValue@SessionOptions@Client@WSMan@@@@QBEAAV?$SafeMap@W4WSManSessionOption@@PAVOptionValue@SessionOptions@Client@WSMan@@V?$SafeMap_Iterator@W4WSManSessionOption@@PAVOptionValue@SessionOptions@Client@WSMan@@@@@@XZ
?GetMap@?$SafeMap_Iterator@_KPAVSendPacketArgs@RobustConnectionBuffer@@@@QBEAAV?$SafeMap@_KPAVSendPacketArgs@RobustConnectionBuffer@@V?$SafeMap_Iterator@_KPAVSendPacketArgs@RobustConnectionBuffer@@@@@@XZ
?GetMap@?$SafeMap_Lock@PAVCCertMapping@@UEmpty@@V?$SafeMap_Iterator@PAVCCertMapping@@UEmpty@@@@@@QBEABV?$SafeMap@PAVCCertMapping@@UEmpty@@V?$SafeMap_Iterator@PAVCCertMapping@@UEmpty@@@@@@XZ
?GetMap@?$SafeMap_Lock@PAVCListenerConnect@@PAV1@V?$SafeMap_Iterator@PAVCListenerConnect@@PAV1@@@@@QBEABV?$SafeMap@PAVCListenerConnect@@PAV1@V?$SafeMap_Iterator@PAVCListenerConnect@@PAV1@@@@@XZ
?GetMap@?$SafeMap_Lock@PAVCListenerOperation@@UEmpty@@V?$SafeMap_Iterator@PAVCListenerOperation@@UEmpty@@@@@@QBEABV?$SafeMap@PAVCListenerOperation@@UEmpty@@V?$SafeMap_Iterator@PAVCListenerOperation@@UEmpty@@@@@@XZ
?GetMap@?$SafeMap_Lock@PAVCListenerReceive@@PAV1@V?$SafeMap_Iterator@PAVCListenerReceive@@PAV1@@@@@QBEABV?$SafeMap@PAVCListenerReceive@@PAV1@V?$SafeMap_Iterator@PAVCListenerReceive@@PAV1@@@@@XZ
?GetMap@?$SafeMap_Lock@PAVCListenerSend@@PAV1@V?$SafeMap_Iterator@PAVCListenerSend@@PAV1@@@@@QBEABV?$SafeMap@PAVCListenerSend@@PAV1@V?$SafeMap_Iterator@PAVCListenerSend@@PAV1@@@@@XZ
?GetMap@?$SafeMap_Lock@PAVCListenerSignal@@PAV1@V?$SafeMap_Iterator@PAVCListenerSignal@@PAV1@@@@@QBEABV?$SafeMap@PAVCListenerSignal@@PAV1@V?$SafeMap_Iterator@PAVCListenerSignal@@PAV1@@@@@XZ
?GetMap@?$SafeMap_Lock@PAVCShellUriSettings@@UEmpty@@V?$SafeMap_Iterator@PAVCShellUriSettings@@UEmpty@@@@@@QBEABV?$SafeMap@PAVCShellUriSettings@@UEmpty@@V?$SafeMap_Iterator@PAVCShellUriSettings@@UEmpty@@@@@@XZ
?GetMap@?$SafeMap_Lock@PAVCollector@@UEmpty@@V?$SafeMap_Iterator@PAVCollector@@UEmpty@@@@@@QBEABV?$SafeMap@PAVCollector@@UEmpty@@V?$SafeMap_Iterator@PAVCollector@@UEmpty@@@@@@XZ
?GetMap@?$SafeMap_Lock@PAVHostOperation@@UEmpty@@V?$SafeMap_Iterator@PAVHostOperation@@UEmpty@@@@@@QBEABV?$SafeMap@PAVHostOperation@@UEmpty@@V?$SafeMap_Iterator@PAVHostOperation@@UEmpty@@@@@@XZ
?GetMap@?$SafeMap_Lock@PAVIOperation@@UEmpty@@V?$SafeMap_Iterator@PAVIOperation@@UEmpty@@@@@@QBEABV?$SafeMap@PAVIOperation@@UEmpty@@V?$SafeMap_Iterator@PAVIOperation@@UEmpty@@@@@@XZ
?GetMap@?$SafeMap_Lock@PAVListenerSourceSubscription@@UEmpty@@V?$SafeMap_Iterator@PAVListenerSourceSubscription@@UEmpty@@@@@@QBEABV?$SafeMap@PAVListenerSourceSubscription@@UEmpty@@V?$SafeMap_Iterator@PAVListenerSourceSubscription@@UEmpty@@@@@@XZ
?GetMap@?$SafeMap_Lock@PAVPushSubscription@@UEmpty@@V?$SafeMap_Iterator@PAVPushSubscription@@UEmpty@@@@@@QBEABV?$SafeMap@PAVPushSubscription@@UEmpty@@V?$SafeMap_Iterator@PAVPushSubscription@@UEmpty@@@@@@XZ
?GetMap@?$SafeMap_Lock@PAXUEmpty@@V?$SafeMap_Iterator@PAXUEmpty@@@@@@QBEABV?$SafeMap@PAXUEmpty@@V?$SafeMap_Iterator@PAXUEmpty@@@@@@XZ
?GetMap@?$SafeMap_Lock@UPluginKey@@KV?$SafeMap_Iterator@UPluginKey@@K@@@@QBEABV?$SafeMap@UPluginKey@@KV?$SafeMap_Iterator@UPluginKey@@K@@@@XZ
?GetMap@?$SafeMap_Lock@UUserKey@@PAVBlockedRecord@@V?$SafeMap_Iterator@UUserKey@@PAVBlockedRecord@@@@@@QBEABV?$SafeMap@UUserKey@@PAVBlockedRecord@@V?$SafeMap_Iterator@UUserKey@@PAVBlockedRecord@@@@@@XZ
?GetMap@?$SafeMap_Lock@VCertThumbprintKey@@VCertThumbprintMappedSet@CServiceConfigSettings@@V?$SafeMap_Iterator@VCertThumbprintKey@@VCertThumbprintMappedSet@CServiceConfigSettings@@@@@@QBEABV?$SafeMap@VCertThumbprintKey@@VCertThumbprintMappedSet@CServiceConfigSettings@@V?$SafeMap_Iterator@VCertThumbprintKey@@VCertThumbprintMappedSet@CServiceConfigSettings@@@@@@XZ
?GetMap@?$SafeMap_Lock@VGuidKey@@PAVCListenerCommand@@V?$SafeMap_Iterator@VGuidKey@@PAVCListenerCommand@@@@@@QBEABV?$SafeMap@VGuidKey@@PAVCListenerCommand@@V?$SafeMap_Iterator@VGuidKey@@PAVCListenerCommand@@@@@@XZ
?GetMap@?$SafeMap_Lock@VKey@Locale@@KV?$SafeMap_Iterator@VKey@Locale@@K@@@@QBEABV?$SafeMap@VKey@Locale@@KV?$SafeMap_Iterator@VKey@Locale@@K@@@@XZ
?GetMap@?$SafeMap_Lock@VStringKeyCI@@KV?$SafeMap_Iterator@VStringKeyCI@@K@@@@QBEABV?$SafeMap@VStringKeyCI@@KV?$SafeMap_Iterator@VStringKeyCI@@K@@@@XZ
?GetMap@?$SafeMap_Lock@VStringKeyCI@@UEmpty@@V?$SafeMap_Iterator@VStringKeyCI@@UEmpty@@@@@@QBEABV?$SafeMap@VStringKeyCI@@UEmpty@@V?$SafeMap_Iterator@VStringKeyCI@@UEmpty@@@@@@XZ
?GetMap@?$SafeMap_Lock@VStringKeyCI@@UUSER_CONTEXT_INFO@WSManHttpListener@@V?$SafeMap_Iterator@VStringKeyCI@@UUSER_CONTEXT_INFO@WSManHttpListener@@@@@@QBEABV?$SafeMap@VStringKeyCI@@UUSER_CONTEXT_INFO@WSManHttpListener@@V?$SafeMap_Iterator@VStringKeyCI@@UUSER_CONTEXT_INFO@WSManHttpListener@@@@@@XZ
?GetMap@?$SafeMap_Lock@VStringKeyStore@@PAVExpiredOperationIdRecord@@V?$SafeMap_Iterator@VStringKeyStore@@PAVExpiredOperationIdRecord@@@@@@QBEABV?$SafeMap@VStringKeyStore@@PAVExpiredOperationIdRecord@@V?$SafeMap_Iterator@VStringKeyStore@@PAVExpiredOperationIdRecord@@@@@@XZ
?GetMap@?$SafeMap_Lock@VStringKeyStore@@PAVServerFullDuplexChannel@@V?$SafeMap_Iterator@VStringKeyStore@@PAVServerFullDuplexChannel@@@@@@QBEABV?$SafeMap@VStringKeyStore@@PAVServerFullDuplexChannel@@V?$SafeMap_Iterator@VStringKeyStore@@PAVServerFullDuplexChannel@@@@@@XZ
?GetMap@?$SafeMap_Lock@W4WSManSessionOption@@PAVOptionValue@SessionOptions@Client@WSMan@@V?$SafeMap_Iterator@W4WSManSessionOption@@PAVOptionValue@SessionOptions@Client@WSMan@@@@@@QBEABV?$SafeMap@W4WSManSessionOption@@PAVOptionValue@SessionOptions@Client@WSMan@@V?$SafeMap_Iterator@W4WSManSessionOption@@PAVOptionValue@SessionOptions@Client@WSMan@@@@@@XZ
?GetMap@?$SafeMap_Lock@_KPAVSendPacketArgs@RobustConnectionBuffer@@V?$SafeMap_Iterator@_KPAVSendPacketArgs@RobustConnectionBuffer@@@@@@QBEABV?$SafeMap@_KPAVSendPacketArgs@RobustConnectionBuffer@@V?$SafeMap_Iterator@_KPAVSendPacketArgs@RobustConnectionBuffer@@@@@@XZ
?GetMaxBatchItems@CCommonConfigSettings@@UAEKXZ
?GetMaxBatchSize@CCommonConfigSettings@@UAEKXZ
?GetMaxEnvelopeSize@CCommonConfigSettings@@UAEKXZ
?GetMaxEnvelopeSize@PacketParser@@QBEABV?$PacketElement@K@1@XZ
?GetMaxTimeOut@CCommonConfigSettings@@UAEKXZ
?GetMessageAlloc@Locale@@QBAPBGAAVAutoLocalFree@@KZZ
?GetMessageEmpty@Locale@@QBEPBGAAVAutoLocalFree@@K@Z
?GetMessageId@CErrorContext@@UBEKXZ
?GetMessageId@CRequestContext@@UBEKXZ
?GetMessageId@PacketParser@@QBEABV?$PacketElement@PBG@1@XZ
?GetMessageW@Locale@@QBE_NKPAPAD0PAGK@Z
?GetMinBatchItems@CCommonConfigSettings@@UAEKXZ
?GetMinBatchSize@CCommonConfigSettings@@UAEKXZ
?GetMinBatchTimeout@CCommonConfigSettings@@UAEKXZ
?GetMinEnvelopeSize@CCommonConfigSettings@@UAEKXZ
?GetMinTimeOut@CCommonConfigSettings@@UAEKXZ
?GetNamespacePrefix@NotUnderstandSoapHeader@PacketParser@@QBEPBGXZ
?GetNamespaceUrl@NotUnderstandSoapHeader@PacketParser@@QBEPBGXZ
?GetNewStorage@RBUFFER@@IAEHI@Z
?GetNotUnderstandHeader@PacketParser@@QBEABVNotUnderstandSoapHeader@1@XZ
?GetObjectInformation@CWSManSecurityUI@@UAGJPAU_SI_OBJECT_INFO@@@Z
?GetObjectW@?$ILoader@VAdminSid@CSecurity@@@@IBEPAVAdminSid@CSecurity@@XZ
?GetObjectW@?$ILoader@VEventHandler@WSMan@@@@IBEPAVEventHandler@WSMan@@XZ
?GetObjectW@?$ILoader@VInteractiveSid@CSecurity@@@@IBEPAVInteractiveSid@CSecurity@@XZ
?GetObjectW@?$ILoader@VIpHlpApiDllLoader@@@@IBEPAVIpHlpApiDllLoader@@XZ
?GetObjectW@?$ILoader@VMachineName@@@@IBEPAVMachineName@@XZ
?GetObjectW@?$ILoader@VNetworkServiceSid@CSecurity@@@@IBEPAVNetworkServiceSid@CSecurity@@XZ
?GetObjectW@?$ILoader@VNtDsApiDllLoader@@@@IBEPAVNtDsApiDllLoader@@XZ
?GetObjectW@?$ILoader@VResources@Locale@@@@IBEPAVResources@Locale@@XZ
?GetObjectW@?$ILoader@VShell32DllLoader@@@@IBEPAVShell32DllLoader@@XZ
?GetObjectW@?$ILoader@VShlWApiDllLoader@@@@IBEPAVShlWApiDllLoader@@XZ
?GetObjectW@?$ILoader@VSubscriptionManager@@@@IBEPAVSubscriptionManager@@XZ
?GetObjectW@?$ILoader@VUser32DllLoader@@@@IBEPAVUser32DllLoader@@XZ
?GetObjectW@?$ILoader@VWSManMemCryptManager@@@@IBEPAVWSManMemCryptManager@@XZ
?GetOperationId@PacketParser@@QBEABV?$PacketElement@PBG@1@XZ
?GetOptionCount@CWSManResourceNoResourceUri@@QAEKXZ
?GetOptionTypes@CWSManResourceNoResourceUri@@QAEPAPBGXZ
?GetOptionValue@CWSManResourceNoResourceUri@@QAEPBGPBG@Z
?GetOptions@CWSManResourceNoResourceUri@@QAEPAU_WSMAN_OPTION@@XZ
?GetOptionsMustUnderstandValue@CWSManResourceNoResourceUri@@QAEHXZ
?GetOptionsSetXml@PacketParser@@QAEABV?$PacketElement@PAU_FWXML_ELEMENT@@@1@XZ
?GetOriginalUri@CWSManResource@@QAEPBGXZ
?GetPacket@PacketParser@@QAEPAVPacket@@XZ
?GetPacketPool@PacketParser@@QAEAAVPacketPool@@XZ
?GetParser@XmlReader@@QAEPAXXZ
?GetPath@Fragment@PacketParser@@QBEPBGXZ
?GetPolicyLocation@CWSManGroupPolicyManager@@AAEPBGPBU_WSMAN_POLICY_INFO@@@Z
?GetPolicyValueForConfigSetting@CConfigManager@@AAEJW4ConfigSetting@@KPAGPAKPAW4WSManGroupPolicySettingState@@PAVIRequestContext@@@Z
?GetPolicyValueForConfigSetting@CConfigManager@@AAEJW4ConfigSetting@@PAKPAW4WSManGroupPolicySettingState@@PAVIRequestContext@@@Z
?GetProfileCount@UserRecord@@QAEJXZ
?GetProfileHandle@UserRecord@@QAE_JXZ
?GetPromptType@SoapSemanticConverter@@AAE_NPBGPAW4_MI_PromptType@@PAVIRequestContext@@@Z
?GetQuotaRecord@UserRecord@@QBEPBVQuotaRecord@@XZ
?GetRefCount@ILifeTimeMgmt@@QAEJXZ
?GetReferenceParameters@ReferenceParameters@PacketParser@@QBEPBGXZ
?GetReferenceProperties@ReferenceParameters@PacketParser@@QBEPBGXZ
?GetRemainderPacket@PacketParser@@QAEPAVPacket@@PAVIRequestContext@@@Z
?GetReplyToXml@PacketParser@@QBEABVReferenceParameters@1@XZ
?GetRequestedDataLocale@PacketParser@@QBEABV?$PacketElement@PBG@1@XZ
?GetRequestedLocale@PacketParser@@QBEABV?$PacketElement@PBG@1@XZ
?GetResourceUri@PacketParser@@QBEABV?$PacketElement@PBG@1@XZ
?GetRoot@XmlReader@@QAEPAU_FWXML_ELEMENT@@XZ
?GetSecurity@CWSManSecurityUI@@UAGJKPAPAXH@Z
?GetSecurityDescriptor@CConfigManager@@QAEHPAVIRequestContext@@W4ConfigSetting@@PAPAXPAW4WSManConfigSource@@@Z
?GetSelectorSetXml@PacketParser@@QAEABV?$PacketElement@PAU_FWXML_ELEMENT@@@1@XZ
?GetSequenceId@PacketParser@@QBEABV?$PacketElement@_K@1@XZ
?GetServiceCatalog@@YGPAVCatalog@@XZ
?GetSessionId@PacketParser@@QBEABV?$PacketElement@PBG@1@XZ
?GetSessionIdGuid@PacketParser@@QAEAAU_GUID@@XZ
?GetSessionIdGuid@SessionId@PacketParser@@QAEAAU_GUID@@XZ
?GetSetting@CConfigManager@@QAEHPAVIRequestContext@@W4ConfigSetting@@KPAGPAKPAW4WSManConfigSource@@@Z
?GetShellCompressionType@PacketParser@@QBEABV?$PacketElement@PBG@1@XZ
?GetSid@CSecurity@@SGPAXXZ
?GetSizeInUse@SBUFFER@@QBEIXZ
?GetSoapBody@PacketParser@@QAEPAU_FWXML_ELEMENT@@XZ
?GetSoapHeaders@PacketParser@@QAEPAU_FWXML_ELEMENT@@XZ
?GetSourceSubscriptionId@PacketParser@@QBEABV?$PacketElement@PBG@1@XZ
?GetSpaceUsed@BufferFormatter@@UBEK_N@Z
?GetSpaceUsed@CircularBufferFormatter@@UBEK_N@Z
?GetStrPtr@TSTRBUFFER@@QAEPAGXZ
?GetString@CConfigManager@@QAEHPAVIRequestContext@@W4ConfigSetting@@KPAGPAKPAW4WSManConfigSource@@@Z
?GetString@CWSManGroupPolicyManager@@QAEHPAVIRequestContext@@W4WSManGroupPolicySetting@@KPAGPAKPAW4WSManGroupPolicySettingState@@@Z
?GetString@Locale@@QAEPBGXZ
?GetStringInternal@CConfigManager@@AAEHPAVIRequestContext@@W4ConfigSetting@@KKPAGPAKPAW4WSManConfigSource@@@Z
?GetStringInternal@CWSManGroupPolicyManager@@AAEHPAVIRequestContext@@W4WSManGroupPolicySetting@@KKPAGPAKPAW4WSManGroupPolicySettingState@@@Z
?GetSubscriptionId@PacketParser@@QBEABV?$PacketElement@PBG@1@XZ
?GetSuccessCode@OnHTTPInitialize@@QBEKXZ
?GetTimeout@PacketParser@@QBEABV?$PacketElement@K@1@XZ
?GetTo@PacketParser@@QBEABV?$PacketElement@PBG@1@XZ
?GetToken@CSecurity@@SGPAXXZ
?GetToken@UserRecord@@QAEPAXXZ
?GetUpdatedSDDL@CWSManSecurityUI@@QAEPAGPAVIRequestContext@@@Z
?GetUri@CWSManResource@@QAEPBGXZ
?GetUserAdministratorType@UserRecord@@QBE?AW4AdministratorType@UserAuthzRecord@@XZ
?GetUserNameW@UserRecord@@QAEPBGXZ
?GetValue@?$PacketElement@K@PacketParser@@QBEKXZ
?GetValue@?$PacketElement@PAU_FWXML_ELEMENT@@@PacketParser@@QBEPAU_FWXML_ELEMENT@@XZ
?GetValue@?$PacketElement@PBG@PacketParser@@QBEPBGXZ
?GetValue@?$PacketElement@_K@PacketParser@@QBE_KXZ
?GetWsmanData@TSTRBUFFER@@QAEXPAU_WSMAN_DATA@@@Z
?GetXmlDoc@PacketParser@@QAEPAUFWXML_DOCUMENT@@XZ
?GrowBuffer@BufferFormatter@@UAEKK@Z
?GrowBuffer@BufferFormatter@@UAEKXZ
?GrowBuffer@CircularBufferFormatter@@UAEKK@Z
?GrowBuffer@CircularBufferFormatter@@UAEKXZ
?HandleAutoConfiguredListener@CConfigManager@@QAEHPAVIRequestContext@@PAVLISTENER_IDENTITY@@@Z
?HandleMigration@@YGHPAVWSManMigrationContext@@@Z
?HasFaultXML@CRequestContext@@QBEHXZ
?HasHtmlError@CRequestContext@@ABEHXZ
?HasOption@CWSManResourceNoResourceUri@@QAEHPBG@Z
?ImpersonateUserOrSelf@CSecurity@@SGHW4CallSiteId@@PAX@Z
?IncreaseProfileCount@UserRecord@@QAEXXZ
?Info@EventLog@@SGXK@Z
?Info@EventLog@@SGXKGPAPBG@Z
?Info@EventLog@@SGXKPBG@Z
?Init@CBaseConfigCache@@IAEHPAVIRequestContext@@H@Z
?Init@CWSManSecurityUI@@QAEHPAG0PAVIRequestContext@@@Z
?Init@ConfigRegistry@@IAEHXZ
?Init@XmlReader@@QAEHPAVIRequestContext@@PAUWSMAN_OBJECT@@@Z
?Init@XmlReader@@QAEHPAVIRequestContext@@PBG@Z
?InitCfgMgr@CConfigManager@@AAEHPAVWSMANCONFIGTABLE_IDENTITY@@@Z
?InitCfgMgr@CConfigManager@@AAEHPAVWSMANCONFIGTABLE_IDENTITY@@PAUHKEY__@@1@Z
?InitMap@CBaseConfigCache@@CGHPAVIRequestContext@@AAV?$AutoRelease@VCConfigCacheMap@CBaseConfigCache@@@@@Z
?Initialize@?$SafeMap@PAVCCertMapping@@UEmpty@@V?$SafeMap_Iterator@PAVCCertMapping@@UEmpty@@@@@@UAE_NAAVIRequestContext@@@Z
?Initialize@?$SafeMap@PAVCCertMapping@@UEmpty@@V?$SafeSet_Iterator@PAVCCertMapping@@@@@@UAE_NAAVIRequestContext@@@Z
?Initialize@?$SafeMap@PAVCListenerConnect@@PAV1@V?$SafeMap_Iterator@PAVCListenerConnect@@PAV1@@@@@UAE_NAAVIRequestContext@@@Z
?Initialize@?$SafeMap@PAVCListenerOperation@@UEmpty@@V?$SafeMap_Iterator@PAVCListenerOperation@@UEmpty@@@@@@UAE_NAAVIRequestContext@@@Z
?Initialize@?$SafeMap@PAVCListenerOperation@@UEmpty@@V?$SafeSet_Iterator@PAVCListenerOperation@@@@@@UAE_NAAVIRequestContext@@@Z
?Initialize@?$SafeMap@PAVCListenerReceive@@PAV1@V?$SafeMap_Iterator@PAVCListenerReceive@@PAV1@@@@@UAE_NAAVIRequestContext@@@Z
?Initialize@?$SafeMap@PAVCListenerSend@@PAV1@V?$SafeMap_Iterator@PAVCListenerSend@@PAV1@@@@@UAE_NAAVIRequestContext@@@Z
?Initialize@?$SafeMap@PAVCListenerSignal@@PAV1@V?$SafeMap_Iterator@PAVCListenerSignal@@PAV1@@@@@UAE_NAAVIRequestContext@@@Z
?Initialize@?$SafeMap@PAVCShellUriSettings@@UEmpty@@V?$SafeSet_Iterator@PAVCShellUriSettings@@@@@@UAE_NAAVIRequestContext@@@Z
?Initialize@?$SafeMap@PAVCollector@@UEmpty@@V?$SafeMap_Iterator@PAVCollector@@UEmpty@@@@@@UAE_NAAVIRequestContext@@@Z
?Initialize@?$SafeMap@PAVCollector@@UEmpty@@V?$SafeSet_Iterator@PAVCollector@@@@@@UAE_NAAVIRequestContext@@@Z
?Initialize@?$SafeMap@PAVHostOperation@@UEmpty@@V?$SafeMap_Iterator@PAVHostOperation@@UEmpty@@@@@@UAE_NAAVIRequestContext@@@Z
?Initialize@?$SafeMap@PAVHostOperation@@UEmpty@@V?$SafeSet_Iterator@PAVHostOperation@@@@@@UAE_NAAVIRequestContext@@@Z
?Initialize@?$SafeMap@PAVIOperation@@UEmpty@@V?$SafeMap_Iterator@PAVIOperation@@UEmpty@@@@@@UAE_NAAVIRequestContext@@@Z
?Initialize@?$SafeMap@PAVIOperation@@UEmpty@@V?$SafeSet_Iterator@PAVIOperation@@@@@@UAE_NAAVIRequestContext@@@Z
?Initialize@?$SafeMap@PAVListenerSourceSubscription@@UEmpty@@V?$SafeMap_Iterator@PAVListenerSourceSubscription@@UEmpty@@@@@@UAE_NAAVIRequestContext@@@Z
?Initialize@?$SafeMap@PAVListenerSourceSubscription@@UEmpty@@V?$SafeSet_Iterator@PAVListenerSourceSubscription@@@@@@UAE_NAAVIRequestContext@@@Z
?Initialize@?$SafeMap@PAVPushSubscription@@UEmpty@@V?$SafeMap_Iterator@PAVPushSubscription@@UEmpty@@@@@@UAE_NAAVIRequestContext@@@Z
?Initialize@?$SafeMap@PAVPushSubscription@@UEmpty@@V?$SafeSet_Iterator@PAVPushSubscription@@@@@@UAE_NAAVIRequestContext@@@Z
?Initialize@?$SafeMap@PAXUEmpty@@V?$SafeSet_Iterator@PAX@@@@UAE_NAAVIRequestContext@@@Z
?Initialize@?$SafeMap@UPluginKey@@KV?$SafeMap_Iterator@UPluginKey@@K@@@@UAE_NAAVIRequestContext@@@Z
?Initialize@?$SafeMap@UUserKey@@PAVBlockedRecord@@V?$SafeMap_Iterator@UUserKey@@PAVBlockedRecord@@@@@@UAE_NAAVIRequestContext@@@Z
?Initialize@?$SafeMap@VCertThumbprintKey@@VCertThumbprintMappedSet@CServiceConfigSettings@@V?$SafeMap_Iterator@VCertThumbprintKey@@VCertThumbprintMappedSet@CServiceConfigSettings@@@@@@UAE_NAAVIRequestContext@@@Z
?Initialize@?$SafeMap@VGuidKey@@PAVCListenerCommand@@V?$SafeMap_Iterator@VGuidKey@@PAVCListenerCommand@@@@@@UAE_NAAVIRequestContext@@@Z
?Initialize@?$SafeMap@VKey@CWmiPtrCache@@VMapping@2@V?$SafeMap_Iterator@VKey@CWmiPtrCache@@VMapping@2@@@@@UAE_NAAVIRequestContext@@@Z
?Initialize@?$SafeMap@VKey@Locale@@KV?$SafeMap_Iterator@VKey@Locale@@K@@@@UAE_NAAVIRequestContext@@@Z
?Initialize@?$SafeMap@VStringKey@@PAVListenerEvents@@V?$SafeMap_Iterator@VStringKey@@PAVListenerEvents@@@@@@UAE_NAAVIRequestContext@@@Z
?Initialize@?$SafeMap@VStringKey@@PAVListenerSourceSubscription@@V?$SafeMap_Iterator@VStringKey@@PAVListenerSourceSubscription@@@@@@UAE_NAAVIRequestContext@@@Z
?Initialize@?$SafeMap@VStringKey@@UOption@WinRM_OperationOptions@@V?$SafeMap_Iterator@VStringKey@@UOption@WinRM_OperationOptions@@@@@@UAE_NAAVIRequestContext@@@Z
?Initialize@?$SafeMap@VStringKeyCI@@KV?$SafeMap_Iterator@VStringKeyCI@@K@@@@UAE_NAAVIRequestContext@@@Z
?Initialize@?$SafeMap@VStringKeyCI@@PAVIISEndpoint@@V?$SafeMap_Iterator@VStringKeyCI@@PAVIISEndpoint@@@@@@UAE_NAAVIRequestContext@@@Z
?Initialize@?$SafeMap@VStringKeyCI@@UEmpty@@V?$SafeMap_Iterator@VStringKeyCI@@UEmpty@@@@@@UAE_NAAVIRequestContext@@@Z
?Initialize@?$SafeMap@VStringKeyCI@@UEmpty@@V?$SafeSet_Iterator@VStringKeyCI@@@@@@UAE_NAAVIRequestContext@@@Z
?Initialize@?$SafeMap@VStringKeyCI@@UUSER_CONTEXT_INFO@WSManHttpListener@@V?$SafeMap_Iterator@VStringKeyCI@@UUSER_CONTEXT_INFO@WSManHttpListener@@@@@@UAE_NAAVIRequestContext@@@Z
?Initialize@?$SafeMap@VStringKeyStore@@PAVExpiredOperationIdRecord@@V?$SafeMap_Iterator@VStringKeyStore@@PAVExpiredOperationIdRecord@@@@@@UAE_NAAVIRequestContext@@@Z
?Initialize@?$SafeMap@VStringKeyStore@@PAVServerFullDuplexChannel@@V?$SafeMap_Iterator@VStringKeyStore@@PAVServerFullDuplexChannel@@@@@@UAE_NAAVIRequestContext@@@Z
?Initialize@?$SafeMap@VTokenCacheKey@ServiceSoapProcessor@@VTokenCacheMapping@2@V?$SafeMap_Iterator@VTokenCacheKey@ServiceSoapProcessor@@VTokenCacheMapping@2@@@@@UAE_NAAVIRequestContext@@@Z
?Initialize@?$SafeMap@W4WSManSessionOption@@PAVOptionValue@SessionOptions@Client@WSMan@@V?$SafeMap_Iterator@W4WSManSessionOption@@PAVOptionValue@SessionOptions@Client@WSMan@@@@@@UAE_NAAVIRequestContext@@@Z
?Initialize@?$SafeMap@_KPAVSendPacketArgs@RobustConnectionBuffer@@V?$SafeMap_Iterator@_KPAVSendPacketArgs@RobustConnectionBuffer@@@@@@UAE_NAAVIRequestContext@@@Z
?Initialize@?$SafeMap_Iterator@PAVCCertMapping@@UEmpty@@@@QAEAAV1@XZ
?Initialize@?$SafeMap_Iterator@PAVCListenerOperation@@UEmpty@@@@QAEAAV1@XZ
?Initialize@?$SafeMap_Iterator@PAVCShellUriSettings@@UEmpty@@@@QAEAAV1@XZ
?Initialize@?$SafeMap_Iterator@VCertThumbprintKey@@VCertThumbprintMappedSet@CServiceConfigSettings@@@@QAEAAV1@XZ
?Initialize@?$SafeMap_Iterator@VStringKeyCI@@K@@QAEAAV1@XZ
?Initialize@?$SafeMap_Iterator@VStringKeyStore@@PAVExpiredOperationIdRecord@@@@QAEAAV1@XZ
?Initialize@?$SafeMap_Iterator@W4WSManSessionOption@@PAVOptionValue@SessionOptions@Client@WSMan@@@@QAEAAV1@XZ
?Initialize@CWSManGroupPolicyManager@@AAEHPAVIRequestContext@@PBG@Z
?Initialize@EventHandler@WSMan@@QAE_NAAVIRequestContext@@@Z
?Initialize@UserRecord@@SGXAAV1@ABUInitializer@1@@Z
?InitializeSources@CBaseConfigCache@@IAEHPAVIRequestContext@@HH@Z
?InitializeSourcesHelper@CBaseConfigCache@@MAEHPAVIRequestContext@@H@Z
?InitializeSourcesHelper@CClientConfigCache@@EAEHPAVIRequestContext@@H@Z
?InsertAtPosition@TSTRBUFFER@@QAEJPBGI@Z
?InternalFailure@CErrorContext@@UAAXKZZ
?InternalFailure@CRequestContext@@UAAXKZZ
?InternalHResult@CErrorContext@@UAAXKKZZ
?InternalHResult@CRequestContext@@UAAXKKZZ
?InternalParse@CWSManEPR@@MAEHPAVIRequestContext@@@Z
?InternalParse@CWSManResource@@MAEHPAVIRequestContext@@@Z
?IsActive@ChildLifeTimeManager@@QAE_NXZ
?IsAdmin@UserRecord@@QBE_NXZ
?IsAutoListenerConfigurationOn@CConfigManager@@SGHPAVIRequestContext@@PAH@Z
?IsCIM_Error@CRequestContext@@QAEHXZ
?IsCurrentListenerAutoConfigured@CConfigManager@@QAEHPAVIRequestContext@@PAH@Z
?IsCurrentListenerCompat@CConfigManager@@QBE_NXZ
?IsDynAlloced@RBUFFER@@IBEHXZ
?IsEPR@CWSManEPR@@UAEHXZ
?IsEPR@CWSManResourceNoResourceUri@@UAEHXZ
?IsEmpty@?$ILoader@VAdminSid@CSecurity@@@@QBE_NXZ
?IsEmpty@?$ILoader@VEventHandler@WSMan@@@@QBE_NXZ
?IsEmpty@?$ILoader@VInteractiveSid@CSecurity@@@@QBE_NXZ
?IsEmpty@?$ILoader@VIpHlpApiDllLoader@@@@QBE_NXZ
?IsEmpty@?$ILoader@VMachineName@@@@QBE_NXZ
?IsEmpty@?$ILoader@VNetworkServiceSid@CSecurity@@@@QBE_NXZ
?IsEmpty@?$ILoader@VNtDsApiDllLoader@@@@QBE_NXZ
?IsEmpty@?$ILoader@VResources@Locale@@@@QBE_NXZ
?IsEmpty@?$ILoader@VShell32DllLoader@@@@QBE_NXZ
?IsEmpty@?$ILoader@VShlWApiDllLoader@@@@QBE_NXZ
?IsEmpty@?$ILoader@VSubscriptionManager@@@@QBE_NXZ
?IsEmpty@?$ILoader@VUser32DllLoader@@@@QBE_NXZ
?IsEmpty@?$ILoader@VWSManMemCryptManager@@@@QBE_NXZ
?IsEmpty@?$SafeMap@PAVCListenerOperation@@UEmpty@@V?$SafeSet_Iterator@PAVCListenerOperation@@@@@@QBE_NXZ
?IsEmpty@?$SafeMap@VStringKeyCI@@KV?$SafeMap_Iterator@VStringKeyCI@@K@@@@QBE_NXZ
?IsEmpty@?$SafeMap@VStringKeyCI@@UEmpty@@V?$SafeSet_Iterator@VStringKeyCI@@@@@@QBE_NXZ
?IsEvent@SoapSemanticConverter@@QAE_NPAU_FWXML_ELEMENT@@@Z
?IsEventEnabled@EventHandler@WSMan@@SG_NABU_EVENT_DESCRIPTOR@@@Z
?IsEventProviderEnabled@EventHandler@WSMan@@SG_NXZ
?IsFound@?$PacketElement@K@PacketParser@@QBEHXZ
?IsFound@?$PacketElement@PAU_FWXML_ELEMENT@@@PacketParser@@QBEHXZ
?IsFound@?$PacketElement@PBG@PacketParser@@QBEHXZ
?IsFound@?$PacketElement@_K@PacketParser@@QBEHXZ
?IsGeneratingError@CErrorContext@@UBE_NXZ
?IsIdentifyPacket@PacketParser@@QBEHXZ
?IsInCommitMode@BufferFormatter@@QAE_NXZ
?IsInteractive@UserRecord@@QBE_NXZ
?IsLocalSystemSid@CSecurity@@SGHPAX@Z
?IsMustUnderstand@?$PacketElement@PBG@PacketParser@@QBEHXZ
?IsNonOperativePacket@PacketParser@@QBEHXZ
?IsPolicyControlledSetting@CConfigManager@@QAEHPAVIRequestContext@@W4ConfigSetting@@PAH@Z
?IsRobustConnectionPacket@PacketParser@@QBEHXZ
?IsStreamingEvent@SoapSemanticConverter@@QAE_NPAU_FWXML_ELEMENT@@PAVIRequestContext@@@Z
?IsStringNullOrEmpty@@YGHPBG@Z
?IsValid@?$SafeMap@PAVCListenerOperation@@UEmpty@@V?$SafeSet_Iterator@PAVCListenerOperation@@@@@@QBE_NXZ
?IsValid@?$SafeMap@UPluginKey@@KV?$SafeMap_Iterator@UPluginKey@@K@@@@QBE_NXZ
?IsValid@?$SafeMap@VStringKeyCI@@KV?$SafeMap_Iterator@VStringKeyCI@@K@@@@QBE_NXZ
?IsValid@?$SafeMap@VStringKeyCI@@UUSER_CONTEXT_INFO@WSManHttpListener@@V?$SafeMap_Iterator@VStringKeyCI@@UUSER_CONTEXT_INFO@WSManHttpListener@@@@@@QBE_NXZ
?IsValid@?$SafeMap@VStringKeyStore@@PAVServerFullDuplexChannel@@V?$SafeMap_Iterator@VStringKeyStore@@PAVServerFullDuplexChannel@@@@@@QBE_NXZ
?IsValid@?$SafeMap@W4WSManSessionOption@@PAVOptionValue@SessionOptions@Client@WSMan@@V?$SafeMap_Iterator@W4WSManSessionOption@@PAVOptionValue@SessionOptions@Client@WSMan@@@@@@QBE_NXZ
?IsValid@?$SafeMap_Iterator@PAVCCertMapping@@UEmpty@@@@QBE_NXZ
?IsValid@?$SafeMap_Iterator@PAVCListenerConnect@@PAV1@@@QBE_NXZ
?IsValid@?$SafeMap_Iterator@PAVCListenerOperation@@UEmpty@@@@QBE_NXZ
?IsValid@?$SafeMap_Iterator@PAVCListenerReceive@@PAV1@@@QBE_NXZ
?IsValid@?$SafeMap_Iterator@PAVCListenerSend@@PAV1@@@QBE_NXZ
?IsValid@?$SafeMap_Iterator@PAVCListenerSignal@@PAV1@@@QBE_NXZ
?IsValid@?$SafeMap_Iterator@PAVCShellUriSettings@@UEmpty@@@@QBE_NXZ
?IsValid@?$SafeMap_Iterator@PAVCollector@@UEmpty@@@@QBE_NXZ
?IsValid@?$SafeMap_Iterator@PAVHostOperation@@UEmpty@@@@QBE_NXZ
?IsValid@?$SafeMap_Iterator@PAVIOperation@@UEmpty@@@@QBE_NXZ
?IsValid@?$SafeMap_Iterator@PAVListenerSourceSubscription@@UEmpty@@@@QBE_NXZ
?IsValid@?$SafeMap_Iterator@PAVPushSubscription@@UEmpty@@@@QBE_NXZ
?IsValid@?$SafeMap_Iterator@PAXUEmpty@@@@QBE_NXZ
?IsValid@?$SafeMap_Iterator@UPluginKey@@K@@QBE_NXZ
?IsValid@?$SafeMap_Iterator@UUserKey@@PAVBlockedRecord@@@@QBE_NXZ
?IsValid@?$SafeMap_Iterator@VCertThumbprintKey@@VCertThumbprintMappedSet@CServiceConfigSettings@@@@QBE_NXZ
?IsValid@?$SafeMap_Iterator@VGuidKey@@PAVCListenerCommand@@@@QBE_NXZ
?IsValid@?$SafeMap_Iterator@VKey@CWmiPtrCache@@VMapping@2@@@QBE_NXZ
?IsValid@?$SafeMap_Iterator@VKey@Locale@@K@@QBE_NXZ
?IsValid@?$SafeMap_Iterator@VStringKey@@PAVListenerEvents@@@@QBE_NXZ
?IsValid@?$SafeMap_Iterator@VStringKey@@PAVListenerSourceSubscription@@@@QBE_NXZ
?IsValid@?$SafeMap_Iterator@VStringKey@@UOption@WinRM_OperationOptions@@@@QBE_NXZ
?IsValid@?$SafeMap_Iterator@VStringKeyCI@@K@@QBE_NXZ
?IsValid@?$SafeMap_Iterator@VStringKeyCI@@PAVIISEndpoint@@@@QBE_NXZ
?IsValid@?$SafeMap_Iterator@VStringKeyCI@@UEmpty@@@@QBE_NXZ
?IsValid@?$SafeMap_Iterator@VStringKeyCI@@UUSER_CONTEXT_INFO@WSManHttpListener@@@@QBE_NXZ
?IsValid@?$SafeMap_Iterator@VStringKeyStore@@PAVExpiredOperationIdRecord@@@@QBE_NXZ
?IsValid@?$SafeMap_Iterator@VStringKeyStore@@PAVServerFullDuplexChannel@@@@QBE_NXZ
?IsValid@?$SafeMap_Iterator@VTokenCacheKey@ServiceSoapProcessor@@VTokenCacheMapping@2@@@QBE_NXZ
?IsValid@?$SafeMap_Iterator@W4WSManSessionOption@@PAVOptionValue@SessionOptions@Client@WSMan@@@@QBE_NXZ
?IsValid@?$SafeMap_Iterator@_KPAVSendPacketArgs@RobustConnectionBuffer@@@@QBE_NXZ
?IsValid@CWSManCriticalSection@@QBEHXZ
?IsValid@RBUFFER@@IBEHXZ
?Key@?$SafeMap@VStringKeyCI@@KV?$SafeMap_Iterator@VStringKeyCI@@K@@@@QBEPBVStringKeyCI@@ABV2@@Z
?Key@?$SafeMap@VStringKeyCI@@UUSER_CONTEXT_INFO@WSManHttpListener@@V?$SafeMap_Iterator@VStringKeyCI@@UUSER_CONTEXT_INFO@WSManHttpListener@@@@@@QBEPBVStringKeyCI@@ABV2@@Z
?Key@?$SafeMap_Iterator@VKey@Locale@@K@@QBEABV0Locale@@XZ
?Key@?$SafeMap_Iterator@VStringKeyCI@@K@@QBEABVStringKeyCI@@XZ
?Key@?$SafeMap_Iterator@VStringKeyCI@@UUSER_CONTEXT_INFO@WSManHttpListener@@@@QBEABVStringKeyCI@@XZ
?LogError@CBaseConfigCache@@UAEXKK@Z
?LogErrorCode@CErrorContext@@QAEXXZ
?LogErrorCode@CRequestContext@@QAEXXZ
?LogErrorMessage@CRequestContext@@QAEXXZ
?LogNotificationEvent@CWSManGroupPolicyManager@@CGXK@Z
?LogReadErrors@CBaseConfigCache@@IAE?AW4ErrorLogging@@W4ConfigChangeSources@@@Z
?LowerBound@?$SafeMap_Iterator@VKey@Locale@@K@@QAEXABVKey@Locale@@@Z
?MakeUrlBinding@@YGHKPAGPAKPBG222@Z
?MakeUrlBinding@@YGPAGPAVIRequestContext@@PBG111@Z
?MapGeneric@CWSManSecurityUI@@UAGJPBU_GUID@@PAEPAK@Z
?Me@?$AutoCleanup@V?$AutoDelete@D@@PAD@@AAEAAV?$AutoDelete@D@@XZ
?Me@?$AutoCleanup@V?$AutoDelete@G@@PAG@@AAEAAV?$AutoDelete@G@@XZ
?Me@?$AutoCleanup@V?$AutoDelete@UIPRange@CWSManIPFilter@@@@PAUIPRange@CWSManIPFilter@@@@AAEAAV?$AutoDelete@UIPRange@CWSManIPFilter@@@@XZ
?Me@?$AutoCleanup@V?$AutoDelete@U_SID@@@@PAU_SID@@@@AAEAAV?$AutoDelete@U_SID@@@@XZ
?Me@?$AutoCleanup@V?$AutoDelete@U_WSMAN_STREAM_ID_SET@@@@PAU_WSMAN_STREAM_ID_SET@@@@AAEAAV?$AutoDelete@U_WSMAN_STREAM_ID_SET@@@@XZ
?Me@?$AutoCleanup@V?$AutoDelete@V?$Handle@VISubscription@@@@@@PAV?$Handle@VISubscription@@@@@@AAEAAV?$AutoDelete@V?$Handle@VISubscription@@@@@@XZ
?Me@?$AutoCleanup@V?$AutoDelete@V?$SafeMap_Iterator@PAVCListenerConnect@@PAV1@@@@@PAV?$SafeMap_Iterator@PAVCListenerConnect@@PAV1@@@@@AAEAAV?$AutoDelete@V?$SafeMap_Iterator@PAVCListenerConnect@@PAV1@@@@@XZ
?Me@?$AutoCleanup@V?$AutoDelete@V?$SafeMap_Iterator@PAVCListenerReceive@@PAV1@@@@@PAV?$SafeMap_Iterator@PAVCListenerReceive@@PAV1@@@@@AAEAAV?$AutoDelete@V?$SafeMap_Iterator@PAVCListenerReceive@@PAV1@@@@@XZ
?Me@?$AutoCleanup@V?$AutoDelete@V?$SafeMap_Iterator@PAVCListenerSend@@PAV1@@@@@PAV?$SafeMap_Iterator@PAVCListenerSend@@PAV1@@@@@AAEAAV?$AutoDelete@V?$SafeMap_Iterator@PAVCListenerSend@@PAV1@@@@@XZ
?Me@?$AutoCleanup@V?$AutoDelete@V?$SafeMap_Iterator@PAVCListenerSignal@@PAV1@@@@@PAV?$SafeMap_Iterator@PAVCListenerSignal@@PAV1@@@@@AAEAAV?$AutoDelete@V?$SafeMap_Iterator@PAVCListenerSignal@@PAV1@@@@@XZ
?Me@?$AutoCleanup@V?$AutoDelete@V?$SafeMap_Iterator@VGuidKey@@PAVCListenerCommand@@@@@@PAV?$SafeMap_Iterator@VGuidKey@@PAVCListenerCommand@@@@@@AAEAAV?$AutoDelete@V?$SafeMap_Iterator@VGuidKey@@PAVCListenerCommand@@@@@@XZ
?Me@?$AutoCleanup@V?$AutoDelete@V?$SafeMap_Iterator@VStringKeyCI@@K@@@@PAV?$SafeMap_Iterator@VStringKeyCI@@K@@@@AAEAAV?$AutoDelete@V?$SafeMap_Iterator@VStringKeyCI@@K@@@@XZ
?Me@?$AutoCleanup@V?$AutoDelete@V?$SafeMap_Iterator@W4WSManSessionOption@@PAVOptionValue@SessionOptions@Client@WSMan@@@@@@PAV?$SafeMap_Iterator@W4WSManSessionOption@@PAVOptionValue@SessionOptions@Client@WSMan@@@@@@AAEAAV?$AutoDelete@V?$SafeMap_Iterator@W4WSManSessionOption@@PAVOptionValue@SessionOptions@Client@WSMan@@@@@@XZ
?Me@?$AutoCleanup@V?$AutoDelete@V?$SafeSet@PAVCCertMapping@@@@@@PAV?$SafeSet@PAVCCertMapping@@@@@@AAEAAV?$AutoDelete@V?$SafeSet@PAVCCertMapping@@@@@@XZ
?Me@?$AutoCleanup@V?$AutoDelete@V?$SafeSet@PAVCShellUriSettings@@@@@@PAV?$SafeSet@PAVCShellUriSettings@@@@@@AAEAAV?$AutoDelete@V?$SafeSet@PAVCShellUriSettings@@@@@@XZ
?Me@?$AutoCleanup@V?$AutoDelete@V?$SafeSet_Iterator@PAVCListenerOperation@@@@@@PAV?$SafeSet_Iterator@PAVCListenerOperation@@@@@@AAEAAV?$AutoDelete@V?$SafeSet_Iterator@PAVCListenerOperation@@@@@@XZ
?Me@?$AutoCleanup@V?$AutoDelete@V?$SafeSet_Iterator@PAVCollector@@@@@@PAV?$SafeSet_Iterator@PAVCollector@@@@@@AAEAAV?$AutoDelete@V?$SafeSet_Iterator@PAVCollector@@@@@@XZ
?Me@?$AutoCleanup@V?$AutoDelete@V?$SafeSet_Iterator@PAVHostOperation@@@@@@PAV?$SafeSet_Iterator@PAVHostOperation@@@@@@AAEAAV?$AutoDelete@V?$SafeSet_Iterator@PAVHostOperation@@@@@@XZ
?Me@?$AutoCleanup@V?$AutoDelete@V?$SafeSet_Iterator@PAVListenerSourceSubscription@@@@@@PAV?$SafeSet_Iterator@PAVListenerSourceSubscription@@@@@@AAEAAV?$AutoDelete@V?$SafeSet_Iterator@PAVListenerSourceSubscription@@@@@@XZ
?Me@?$AutoCleanup@V?$AutoDelete@V?$SimpleStack@VCListenerOperation@@@@@@PAV?$SimpleStack@VCListenerOperation@@@@@@AAEAAV?$AutoDelete@V?$SimpleStack@VCListenerOperation@@@@@@XZ
?Me@?$AutoCleanup@V?$AutoDelete@V?$SimpleStack@VShellHostEntry@@@@@@PAV?$SimpleStack@VShellHostEntry@@@@@@AAEAAV?$AutoDelete@V?$SimpleStack@VShellHostEntry@@@@@@XZ
?Me@?$AutoCleanup@V?$AutoDelete@V?$queue@PAU_WSMAN_PUBLISHER_EVENT_STRUCT@@V?$deque@PAU_WSMAN_PUBLISHER_EVENT_STRUCT@@V?$transport_allocator@PAU_WSMAN_PUBLISHER_EVENT_STRUCT@@@@@std@@@std@@@@PAV?$queue@PAU_WSMAN_PUBLISHER_EVENT_STRUCT@@V?$deque@PAU_WSMAN_PUBLISHER_EVENT_STRUCT@@V?$transport_allocator@PAU_WSMAN_PUBLISHER_EVENT_STRUCT@@@@@std@@@std@@@@AAEAAV?$AutoDelete@V?$queue@PAU_WSMAN_PUBLISHER_EVENT_STRUCT@@V?$deque@PAU_WSMAN_PUBLISHER_EVENT_STRUCT@@V?$transport_allocator@PAU_WSMAN_PUBLISHER_EVENT_STRUCT@@@@@std@@@std@@@@XZ
?Me@?$AutoCleanup@V?$AutoDelete@V?$set@PAVCListenerSettings@@VCListenerSettingsLessFunctor@CServiceConfigSettings@@V?$transport_allocator@PAVCListenerSettings@@@@@std@@@@PAV?$set@PAVCListenerSettings@@VCListenerSettingsLessFunctor@CServiceConfigSettings@@V?$transport_allocator@PAVCListenerSettings@@@@@std@@@@AAEAAV?$AutoDelete@V?$set@PAVCListenerSettings@@VCListenerSettingsLessFunctor@CServiceConfigSettings@@V?$transport_allocator@PAVCListenerSettings@@@@@std@@@@XZ
?Me@?$AutoCleanup@V?$AutoDelete@V?$set@Usockaddr_storage@@VSockAddrLessFunctor@CListenerSettings@@V?$transport_allocator@Usockaddr_storage@@@@@std@@@@PAV?$set@Usockaddr_storage@@VSockAddrLessFunctor@CListenerSettings@@V?$transport_allocator@Usockaddr_storage@@@@@std@@@@AAEAAV?$AutoDelete@V?$set@Usockaddr_storage@@VSockAddrLessFunctor@CListenerSettings@@V?$transport_allocator@Usockaddr_storage@@@@@std@@@@XZ
?Me@?$AutoCleanup@V?$AutoDelete@V?$vector@PAVCWSManRequest@@V?$transport_allocator@PAVCWSManRequest@@@@@std@@@@PAV?$vector@PAVCWSManRequest@@V?$transport_allocator@PAVCWSManRequest@@@@@std@@@@AAEAAV?$AutoDelete@V?$vector@PAVCWSManRequest@@V?$transport_allocator@PAVCWSManRequest@@@@@std@@@@XZ
?Me@?$AutoCleanup@V?$AutoDelete@V?$vector@PAVHandleImpl@Client@WSMan@@V?$transport_allocator@PAVHandleImpl@Client@WSMan@@@@@std@@@@PAV?$vector@PAVHandleImpl@Client@WSMan@@V?$transport_allocator@PAVHandleImpl@Client@WSMan@@@@@std@@@@AAEAAV?$AutoDelete@V?$vector@PAVHandleImpl@Client@WSMan@@V?$transport_allocator@PAVHandleImpl@Client@WSMan@@@@@std@@@@XZ
?Me@?$AutoCleanup@V?$AutoDelete@V?$vector@PAVIServiceConfigObserver@@V?$transport_allocator@PAVIServiceConfigObserver@@@@@std@@@@PAV?$vector@PAVIServiceConfigObserver@@V?$transport_allocator@PAVIServiceConfigObserver@@@@@std@@@@AAEAAV?$AutoDelete@V?$vector@PAVIServiceConfigObserver@@V?$transport_allocator@PAVIServiceConfigObserver@@@@@std@@@@XZ
?Me@?$AutoCleanup@V?$AutoDelete@V?$vector@PAVWSManHttpSenderConnection@@V?$transport_allocator@PAVWSManHttpSenderConnection@@@@@std@@@@PAV?$vector@PAVWSManHttpSenderConnection@@V?$transport_allocator@PAVWSManHttpSenderConnection@@@@@std@@@@AAEAAV?$AutoDelete@V?$vector@PAVWSManHttpSenderConnection@@V?$transport_allocator@PAVWSManHttpSenderConnection@@@@@std@@@@XZ
?Me@?$AutoCleanup@V?$AutoDelete@VAdminSid@CSecurity@@@@PAVAdminSid@CSecurity@@@@AAEAAV?$AutoDelete@VAdminSid@CSecurity@@@@XZ
?Me@?$AutoCleanup@V?$AutoDelete@VBlockedRecord@@@@PAVBlockedRecord@@@@AAEAAV?$AutoDelete@VBlockedRecord@@@@XZ
?Me@?$AutoCleanup@V?$AutoDelete@VCBaseConfigCache@@@@PAVCBaseConfigCache@@@@AAEAAV?$AutoDelete@VCBaseConfigCache@@@@XZ
?Me@?$AutoCleanup@V?$AutoDelete@VCCertMapping@@@@PAVCCertMapping@@@@AAEAAV?$AutoDelete@VCCertMapping@@@@XZ
?Me@?$AutoCleanup@V?$AutoDelete@VCConfigChangeSource@@@@PAVCConfigChangeSource@@@@AAEAAV?$AutoDelete@VCConfigChangeSource@@@@XZ
?Me@?$AutoCleanup@V?$AutoDelete@VCListenerSettings@@@@PAVCListenerSettings@@@@AAEAAV?$AutoDelete@VCListenerSettings@@@@XZ
?Me@?$AutoCleanup@V?$AutoDelete@VCObserverConfigChangeErrors@@@@PAVCObserverConfigChangeErrors@@@@AAEAAV?$AutoDelete@VCObserverConfigChangeErrors@@@@XZ
?Me@?$AutoCleanup@V?$AutoDelete@VCServiceWatcher@CServiceConfigCache@@@@PAVCServiceWatcher@CServiceConfigCache@@@@AAEAAV?$AutoDelete@VCServiceWatcher@CServiceConfigCache@@@@XZ
?Me@?$AutoCleanup@V?$AutoDelete@VCShellUriSettings@@@@PAVCShellUriSettings@@@@AAEAAV?$AutoDelete@VCShellUriSettings@@@@XZ
?Me@?$AutoCleanup@V?$AutoDelete@VCWSManEPR@@@@PAVCWSManEPR@@@@AAEAAV?$AutoDelete@VCWSManEPR@@@@XZ
?Me@?$AutoCleanup@V?$AutoDelete@VCWSManResource@@@@PAVCWSManResource@@@@AAEAAV?$AutoDelete@VCWSManResource@@@@XZ
?Me@?$AutoCleanup@V?$AutoDelete@VCertHash@@@@PAVCertHash@@@@AAEAAV?$AutoDelete@VCertHash@@@@XZ
?Me@?$AutoCleanup@V?$AutoDelete@VConfigUpdate@@@@PAVConfigUpdate@@@@AAEAAV?$AutoDelete@VConfigUpdate@@@@XZ
?Me@?$AutoCleanup@V?$AutoDelete@VEnumSinkEx@@@@PAVEnumSinkEx@@@@AAEAAV?$AutoDelete@VEnumSinkEx@@@@XZ
?Me@?$AutoCleanup@V?$AutoDelete@VEventHandler@WSMan@@@@PAVEventHandler@WSMan@@@@AAEAAV?$AutoDelete@VEventHandler@WSMan@@@@XZ
?Me@?$AutoCleanup@V?$AutoDelete@VExpiredOperationIdRecord@@@@PAVExpiredOperationIdRecord@@@@AAEAAV?$AutoDelete@VExpiredOperationIdRecord@@@@XZ
?Me@?$AutoCleanup@V?$AutoDelete@VGPApiManager@@@@PAVGPApiManager@@@@AAEAAV?$AutoDelete@VGPApiManager@@@@XZ
?Me@?$AutoCleanup@V?$AutoDelete@VGeneralSinkEx@@@@PAVGeneralSinkEx@@@@AAEAAV?$AutoDelete@VGeneralSinkEx@@@@XZ
?Me@?$AutoCleanup@V?$AutoDelete@VIChannelObserverFactory@@@@PAVIChannelObserverFactory@@@@AAEAAV?$AutoDelete@VIChannelObserverFactory@@@@XZ
?Me@?$AutoCleanup@V?$AutoDelete@VIQueryDASHSMASHInterface@@@@PAVIQueryDASHSMASHInterface@@@@AAEAAV?$AutoDelete@VIQueryDASHSMASHInterface@@@@XZ
?Me@?$AutoCleanup@V?$AutoDelete@VISpecification@@@@PAVISpecification@@@@AAEAAV?$AutoDelete@VISpecification@@@@XZ
?Me@?$AutoCleanup@V?$AutoDelete@VInteractiveSid@CSecurity@@@@PAVInteractiveSid@CSecurity@@@@AAEAAV?$AutoDelete@VInteractiveSid@CSecurity@@@@XZ
?Me@?$AutoCleanup@V?$AutoDelete@VIpHlpApiDllLoader@@@@PAVIpHlpApiDllLoader@@@@AAEAAV?$AutoDelete@VIpHlpApiDllLoader@@@@XZ
?Me@?$AutoCleanup@V?$AutoDelete@VMachineName@@@@PAVMachineName@@@@AAEAAV?$AutoDelete@VMachineName@@@@XZ
?Me@?$AutoCleanup@V?$AutoDelete@VMasterReceiveData@CListenerReceive@@@@PAVMasterReceiveData@CListenerReceive@@@@AAEAAV?$AutoDelete@VMasterReceiveData@CListenerReceive@@@@XZ
?Me@?$AutoCleanup@V?$AutoDelete@VNetworkServiceSid@CSecurity@@@@PAVNetworkServiceSid@CSecurity@@@@AAEAAV?$AutoDelete@VNetworkServiceSid@CSecurity@@@@XZ
?Me@?$AutoCleanup@V?$AutoDelete@VNtDsApiDllLoader@@@@PAVNtDsApiDllLoader@@@@AAEAAV?$AutoDelete@VNtDsApiDllLoader@@@@XZ
?Me@?$AutoCleanup@V?$AutoDelete@VOptionValue@SessionOptions@Client@WSMan@@@@PAVOptionValue@SessionOptions@Client@WSMan@@@@AAEAAV?$AutoDelete@VOptionValue@SessionOptions@Client@WSMan@@@@XZ
?Me@?$AutoCleanup@V?$AutoDelete@VPacketCreator@@@@PAVPacketCreator@@@@AAEAAV?$AutoDelete@VPacketCreator@@@@XZ
?Me@?$AutoCleanup@V?$AutoDelete@VPacketParser@@@@PAVPacketParser@@@@AAEAAV?$AutoDelete@VPacketParser@@@@XZ
?Me@?$AutoCleanup@V?$AutoDelete@VResources@Locale@@@@PAVResources@Locale@@@@AAEAAV?$AutoDelete@VResources@Locale@@@@XZ
?Me@?$AutoCleanup@V?$AutoDelete@VRunAsConfiguration@@@@PAVRunAsConfiguration@@@@AAEAAV?$AutoDelete@VRunAsConfiguration@@@@XZ
?Me@?$AutoCleanup@V?$AutoDelete@VSecurityEntry@Catalog@@@@PAVSecurityEntry@Catalog@@@@AAEAAV?$AutoDelete@VSecurityEntry@Catalog@@@@XZ
?Me@?$AutoCleanup@V?$AutoDelete@VSendPacketArgs@RobustConnectionBuffer@@@@PAVSendPacketArgs@RobustConnectionBuffer@@@@AAEAAV?$AutoDelete@VSendPacketArgs@RobustConnectionBuffer@@@@XZ
?Me@?$AutoCleanup@V?$AutoDelete@VServiceSoapProcessor@@@@PAVServiceSoapProcessor@@@@AAEAAV?$AutoDelete@VServiceSoapProcessor@@@@XZ
?Me@?$AutoCleanup@V?$AutoDelete@VShell32DllLoader@@@@PAVShell32DllLoader@@@@AAEAAV?$AutoDelete@VShell32DllLoader@@@@XZ
?Me@?$AutoCleanup@V?$AutoDelete@VShlWApiDllLoader@@@@PAVShlWApiDllLoader@@@@AAEAAV?$AutoDelete@VShlWApiDllLoader@@@@XZ
?Me@?$AutoCleanup@V?$AutoDelete@VSubscriptionEnumerator@@@@PAVSubscriptionEnumerator@@@@AAEAAV?$AutoDelete@VSubscriptionEnumerator@@@@XZ
?Me@?$AutoCleanup@V?$AutoDelete@VSubscriptionManager@@@@PAVSubscriptionManager@@@@AAEAAV?$AutoDelete@VSubscriptionManager@@@@XZ
?Me@?$AutoCleanup@V?$AutoDelete@VTSTRBUFFER@@@@PAVTSTRBUFFER@@@@AAEAAV?$AutoDelete@VTSTRBUFFER@@@@XZ
?Me@?$AutoCleanup@V?$AutoDelete@VUniqueStringOverflow@@@@PAVUniqueStringOverflow@@@@AAEAAV?$AutoDelete@VUniqueStringOverflow@@@@XZ
?Me@?$AutoCleanup@V?$AutoDelete@VUser32DllLoader@@@@PAVUser32DllLoader@@@@AAEAAV?$AutoDelete@VUser32DllLoader@@@@XZ
?Me@?$AutoCleanup@V?$AutoDelete@VWSMANCONFIGTABLE_IDENTITY@@@@PAVWSMANCONFIGTABLE_IDENTITY@@@@AAEAAV?$AutoDelete@VWSMANCONFIGTABLE_IDENTITY@@@@XZ
?Me@?$AutoCleanup@V?$AutoDelete@VWSManMemCryptManager@@@@PAVWSManMemCryptManager@@@@AAEAAV?$AutoDelete@VWSManMemCryptManager@@@@XZ
?Me@?$AutoCleanup@V?$AutoDelete@VWmiEnumContext@@@@PAVWmiEnumContext@@@@AAEAAV?$AutoDelete@VWmiEnumContext@@@@XZ
?Me@?$AutoCleanup@V?$AutoDelete@VXmlReader@@@@PAVXmlReader@@@@AAEAAV?$AutoDelete@VXmlReader@@@@XZ
?Me@?$AutoCleanup@V?$AutoDeleteVector@$$CBG@@PBG@@AAEAAV?$AutoDeleteVector@$$CBG@@XZ
?Me@?$AutoCleanup@V?$AutoDeleteVector@D@@PAD@@AAEAAV?$AutoDeleteVector@D@@XZ
?Me@?$AutoCleanup@V?$AutoDeleteVector@E@@PAE@@AAEAAV?$AutoDeleteVector@E@@XZ
?Me@?$AutoCleanup@V?$AutoDeleteVector@G@@PAG@@AAEAAV?$AutoDeleteVector@G@@XZ
?Me@?$AutoCleanup@V?$AutoDeleteVector@H@@PAH@@AAEAAV?$AutoDeleteVector@H@@XZ
?Me@?$AutoCleanup@V?$AutoDeleteVector@PAG@@PAPAG@@AAEAAV?$AutoDeleteVector@PAG@@XZ
?Me@?$AutoCleanup@V?$AutoDeleteVector@PBG@@PAPBG@@AAEAAV?$AutoDeleteVector@PBG@@XZ
?Me@?$AutoCleanup@V?$AutoDeleteVector@U_CONFIG_UPDATE@@@@PAU_CONFIG_UPDATE@@@@AAEAAV?$AutoDeleteVector@U_CONFIG_UPDATE@@@@XZ
?Me@?$AutoCleanup@V?$AutoDeleteVector@U_WINRS_CREATE_SHELL_ENVIRONMENT_VARIABLE@@@@PAU_WINRS_CREATE_SHELL_ENVIRONMENT_VARIABLE@@@@AAEAAV?$AutoDeleteVector@U_WINRS_CREATE_SHELL_ENVIRONMENT_VARIABLE@@@@XZ
?Me@?$AutoCleanup@V?$AutoDeleteVector@U_WINRS_RUN_COMMAND_ARG@@@@PAU_WINRS_RUN_COMMAND_ARG@@@@AAEAAV?$AutoDeleteVector@U_WINRS_RUN_COMMAND_ARG@@@@XZ
?Me@?$AutoCleanup@V?$AutoDeleteVector@U_WSMAN_OPTION@@@@PAU_WSMAN_OPTION@@@@AAEAAV?$AutoDeleteVector@U_WSMAN_OPTION@@@@XZ
?Me@?$AutoCleanup@V?$AutoDeleteVector@X@@PAX@@AAEAAV?$AutoDeleteVector@X@@XZ
?Me@?$AutoCleanup@V?$AutoFree@E@@PAE@@AAEAAV?$AutoFree@E@@XZ
?Me@?$AutoCleanup@V?$AutoLocklessItemRecycle@VPacket@@@@PAVPacket@@@@AAEAAV?$AutoLocklessItemRecycle@VPacket@@@@XZ
?Me@?$AutoCleanup@V?$AutoRelease@UIAppHostAdminManager@@@@PAUIAppHostAdminManager@@@@AAEAAV?$AutoRelease@UIAppHostAdminManager@@@@XZ
?Me@?$AutoCleanup@V?$AutoRelease@UIAppHostChildElementCollection@@@@PAUIAppHostChildElementCollection@@@@AAEAAV?$AutoRelease@UIAppHostChildElementCollection@@@@XZ
?Me@?$AutoCleanup@V?$AutoRelease@UIAppHostConfigException@@@@PAUIAppHostConfigException@@@@AAEAAV?$AutoRelease@UIAppHostConfigException@@@@XZ
?Me@?$AutoCleanup@V?$AutoRelease@UIAppHostElement@@@@PAUIAppHostElement@@@@AAEAAV?$AutoRelease@UIAppHostElement@@@@XZ
?Me@?$AutoCleanup@V?$AutoRelease@UIAppHostElementCollection@@@@PAUIAppHostElementCollection@@@@AAEAAV?$AutoRelease@UIAppHostElementCollection@@@@XZ
?Me@?$AutoCleanup@V?$AutoRelease@UIAppHostProperty@@@@PAUIAppHostProperty@@@@AAEAAV?$AutoRelease@UIAppHostProperty@@@@XZ
?Me@?$AutoCleanup@V?$AutoRelease@UIAppHostPropertyCollection@@@@PAUIAppHostPropertyCollection@@@@AAEAAV?$AutoRelease@UIAppHostPropertyCollection@@@@XZ
?Me@?$AutoCleanup@V?$AutoRelease@UIClientSecurity@@@@PAUIClientSecurity@@@@AAEAAV?$AutoRelease@UIClientSecurity@@@@XZ
?Me@?$AutoCleanup@V?$AutoRelease@UIEnumWbemClassObject@@@@PAUIEnumWbemClassObject@@@@AAEAAV?$AutoRelease@UIEnumWbemClassObject@@@@XZ
?Me@?$AutoCleanup@V?$AutoRelease@UIErrorInfo@@@@PAUIErrorInfo@@@@AAEAAV?$AutoRelease@UIErrorInfo@@@@XZ
?Me@?$AutoCleanup@V?$AutoRelease@UIUnknown@@@@PAUIUnknown@@@@AAEAAV?$AutoRelease@UIUnknown@@@@XZ
?Me@?$AutoCleanup@V?$AutoRelease@UIWbemClassObject@@@@PAUIWbemClassObject@@@@AAEAAV?$AutoRelease@UIWbemClassObject@@@@XZ
?Me@?$AutoCleanup@V?$AutoRelease@UIWbemContext@@@@PAUIWbemContext@@@@AAEAAV?$AutoRelease@UIWbemContext@@@@XZ
?Me@?$AutoCleanup@V?$AutoRelease@UIWbemLocator@@@@PAUIWbemLocator@@@@AAEAAV?$AutoRelease@UIWbemLocator@@@@XZ
?Me@?$AutoCleanup@V?$AutoRelease@UIWbemObjectTextSrc@@@@PAUIWbemObjectTextSrc@@@@AAEAAV?$AutoRelease@UIWbemObjectTextSrc@@@@XZ
?Me@?$AutoCleanup@V?$AutoRelease@UIWbemPath@@@@PAUIWbemPath@@@@AAEAAV?$AutoRelease@UIWbemPath@@@@XZ
?Me@?$AutoCleanup@V?$AutoRelease@UIWbemPathKeyList@@@@PAUIWbemPathKeyList@@@@AAEAAV?$AutoRelease@UIWbemPathKeyList@@@@XZ
?Me@?$AutoCleanup@V?$AutoRelease@UIWbemQualifierSet@@@@PAUIWbemQualifierSet@@@@AAEAAV?$AutoRelease@UIWbemQualifierSet@@@@XZ
?Me@?$AutoCleanup@V?$AutoRelease@UIWbemQuery@@@@PAUIWbemQuery@@@@AAEAAV?$AutoRelease@UIWbemQuery@@@@XZ
?Me@?$AutoCleanup@V?$AutoRelease@UIWbemServices@@@@PAUIWbemServices@@@@AAEAAV?$AutoRelease@UIWbemServices@@@@XZ
?Me@?$AutoCleanup@V?$AutoRelease@VApplication@Client@WSMan@@@@PAVApplication@Client@WSMan@@@@AAEAAV?$AutoRelease@VApplication@Client@WSMan@@@@XZ
?Me@?$AutoCleanup@V?$AutoRelease@VCBaseConfigCache@@@@PAVCBaseConfigCache@@@@AAEAAV?$AutoRelease@VCBaseConfigCache@@@@XZ
?Me@?$AutoCleanup@V?$AutoRelease@VCClientConfigCache@@@@PAVCClientConfigCache@@@@AAEAAV?$AutoRelease@VCClientConfigCache@@@@XZ
?Me@?$AutoCleanup@V?$AutoRelease@VCClientConfigSettings@@@@PAVCClientConfigSettings@@@@AAEAAV?$AutoRelease@VCClientConfigSettings@@@@XZ
?Me@?$AutoCleanup@V?$AutoRelease@VCCommonConfigSettings@@@@PAVCCommonConfigSettings@@@@AAEAAV?$AutoRelease@VCCommonConfigSettings@@@@XZ
?Me@?$AutoCleanup@V?$AutoRelease@VCConfigCacheMap@CBaseConfigCache@@@@PAVCConfigCacheMap@CBaseConfigCache@@@@AAEAAV?$AutoRelease@VCConfigCacheMap@CBaseConfigCache@@@@XZ
?Me@?$AutoCleanup@V?$AutoRelease@VCConfigManager@@@@PAVCConfigManager@@@@AAEAAV?$AutoRelease@VCConfigManager@@@@XZ
?Me@?$AutoCleanup@V?$AutoRelease@VCListenerCommand@@@@PAVCListenerCommand@@@@AAEAAV?$AutoRelease@VCListenerCommand@@@@XZ
?Me@?$AutoCleanup@V?$AutoRelease@VCListenerMasterOperation@@@@PAVCListenerMasterOperation@@@@AAEAAV?$AutoRelease@VCListenerMasterOperation@@@@XZ
?Me@?$AutoCleanup@V?$AutoRelease@VCListenerReceive@@@@PAVCListenerReceive@@@@AAEAAV?$AutoRelease@VCListenerReceive@@@@XZ
?Me@?$AutoCleanup@V?$AutoRelease@VCListenerShell@@@@PAVCListenerShell@@@@AAEAAV?$AutoRelease@VCListenerShell@@@@XZ
?Me@?$AutoCleanup@V?$AutoRelease@VCRemoteOperation@@@@PAVCRemoteOperation@@@@AAEAAV?$AutoRelease@VCRemoteOperation@@@@XZ
?Me@?$AutoCleanup@V?$AutoRelease@VCRemoteSession@@@@PAVCRemoteSession@@@@AAEAAV?$AutoRelease@VCRemoteSession@@@@XZ
?Me@?$AutoCleanup@V?$AutoRelease@VCRequestContext@@@@PAVCRequestContext@@@@AAEAAV?$AutoRelease@VCRequestContext@@@@XZ
?Me@?$AutoCleanup@V?$AutoRelease@VCServiceCommonConfigSettings@@@@PAVCServiceCommonConfigSettings@@@@AAEAAV?$AutoRelease@VCServiceCommonConfigSettings@@@@XZ
?Me@?$AutoCleanup@V?$AutoRelease@VCServiceConfigCache@@@@PAVCServiceConfigCache@@@@AAEAAV?$AutoRelease@VCServiceConfigCache@@@@XZ
?Me@?$AutoCleanup@V?$AutoRelease@VCServiceConfigSettings@@@@PAVCServiceConfigSettings@@@@AAEAAV?$AutoRelease@VCServiceConfigSettings@@@@XZ
?Me@?$AutoCleanup@V?$AutoRelease@VCWSManEPR@@@@PAVCWSManEPR@@@@AAEAAV?$AutoRelease@VCWSManEPR@@@@XZ
?Me@?$AutoCleanup@V?$AutoRelease@VCWSManGroupPolicyCache@@@@PAVCWSManGroupPolicyCache@@@@AAEAAV?$AutoRelease@VCWSManGroupPolicyCache@@@@XZ
?Me@?$AutoCleanup@V?$AutoRelease@VCWSManGroupPolicyManager@@@@PAVCWSManGroupPolicyManager@@@@AAEAAV?$AutoRelease@VCWSManGroupPolicyManager@@@@XZ
?Me@?$AutoCleanup@V?$AutoRelease@VCWSManObject@@@@PAVCWSManObject@@@@AAEAAV?$AutoRelease@VCWSManObject@@@@XZ
?Me@?$AutoCleanup@V?$AutoRelease@VCWSManResource@@@@PAVCWSManResource@@@@AAEAAV?$AutoRelease@VCWSManResource@@@@XZ
?Me@?$AutoCleanup@V?$AutoRelease@VCWSManSession@@@@PAVCWSManSession@@@@AAEAAV?$AutoRelease@VCWSManSession@@@@XZ
?Me@?$AutoCleanup@V?$AutoRelease@VCWinRSPluginConfigCache@@@@PAVCWinRSPluginConfigCache@@@@AAEAAV?$AutoRelease@VCWinRSPluginConfigCache@@@@XZ
?Me@?$AutoCleanup@V?$AutoRelease@VCWinRSPluginConfigSettings@@@@PAVCWinRSPluginConfigSettings@@@@AAEAAV?$AutoRelease@VCWinRSPluginConfigSettings@@@@XZ
?Me@?$AutoCleanup@V?$AutoRelease@VCommand@Client@WSMan@@@@PAVCommand@Client@WSMan@@@@AAEAAV?$AutoRelease@VCommand@Client@WSMan@@@@XZ
?Me@?$AutoCleanup@V?$AutoRelease@VConfigNotification@@@@PAVConfigNotification@@@@AAEAAV?$AutoRelease@VConfigNotification@@@@XZ
?Me@?$AutoCleanup@V?$AutoRelease@VConnectShellOperation@Client@WSMan@@@@PAVConnectShellOperation@Client@WSMan@@@@AAEAAV?$AutoRelease@VConnectShellOperation@Client@WSMan@@@@XZ
?Me@?$AutoCleanup@V?$AutoRelease@VCreateShellOperation@Client@WSMan@@@@PAVCreateShellOperation@Client@WSMan@@@@AAEAAV?$AutoRelease@VCreateShellOperation@Client@WSMan@@@@XZ
?Me@?$AutoCleanup@V?$AutoRelease@VDeleteShellOperation@Client@WSMan@@@@PAVDeleteShellOperation@Client@WSMan@@@@AAEAAV?$AutoRelease@VDeleteShellOperation@Client@WSMan@@@@XZ
?Me@?$AutoCleanup@V?$AutoRelease@VDisconnectOperation@Client@WSMan@@@@PAVDisconnectOperation@Client@WSMan@@@@AAEAAV?$AutoRelease@VDisconnectOperation@Client@WSMan@@@@XZ
?Me@?$AutoCleanup@V?$AutoRelease@VEnumSinkEx@@@@PAVEnumSinkEx@@@@AAEAAV?$AutoRelease@VEnumSinkEx@@@@XZ
?Me@?$AutoCleanup@V?$AutoRelease@VGeneralSinkEx@@@@PAVGeneralSinkEx@@@@AAEAAV?$AutoRelease@VGeneralSinkEx@@@@XZ
?Me@?$AutoCleanup@V?$AutoRelease@VHostMappingTable@@@@PAVHostMappingTable@@@@AAEAAV?$AutoRelease@VHostMappingTable@@@@XZ
?Me@?$AutoCleanup@V?$AutoRelease@VIISConfigSettings@@@@PAVIISConfigSettings@@@@AAEAAV?$AutoRelease@VIISConfigSettings@@@@XZ
?Me@?$AutoCleanup@V?$AutoRelease@VIPCSoapProcessor@@@@PAVIPCSoapProcessor@@@@AAEAAV?$AutoRelease@VIPCSoapProcessor@@@@XZ
?Me@?$AutoCleanup@V?$AutoRelease@VIRequestContext@@@@PAVIRequestContext@@@@AAEAAV?$AutoRelease@VIRequestContext@@@@XZ
?Me@?$AutoCleanup@V?$AutoRelease@VISubscription@@@@PAVISubscription@@@@AAEAAV?$AutoRelease@VISubscription@@@@XZ
?Me@?$AutoCleanup@V?$AutoRelease@VInboundRequestDetails@@@@PAVInboundRequestDetails@@@@AAEAAV?$AutoRelease@VInboundRequestDetails@@@@XZ
?Me@?$AutoCleanup@V?$AutoRelease@VProxyManager@Client@WSMan@@@@PAVProxyManager@Client@WSMan@@@@AAEAAV?$AutoRelease@VProxyManager@Client@WSMan@@@@XZ
?Me@?$AutoCleanup@V?$AutoRelease@VProxySelection@Client@WSMan@@@@PAVProxySelection@Client@WSMan@@@@AAEAAV?$AutoRelease@VProxySelection@Client@WSMan@@@@XZ
?Me@?$AutoCleanup@V?$AutoRelease@VPushSubscribeOperation@@@@PAVPushSubscribeOperation@@@@AAEAAV?$AutoRelease@VPushSubscribeOperation@@@@XZ
?Me@?$AutoCleanup@V?$AutoRelease@VPushSubscription@@@@PAVPushSubscription@@@@AAEAAV?$AutoRelease@VPushSubscription@@@@XZ
?Me@?$AutoCleanup@V?$AutoRelease@VReceiveOperation@Client@WSMan@@@@PAVReceiveOperation@Client@WSMan@@@@AAEAAV?$AutoRelease@VReceiveOperation@Client@WSMan@@@@XZ
?Me@?$AutoCleanup@V?$AutoRelease@VReconnectOperation@Client@WSMan@@@@PAVReconnectOperation@Client@WSMan@@@@AAEAAV?$AutoRelease@VReconnectOperation@Client@WSMan@@@@XZ
?Me@?$AutoCleanup@V?$AutoRelease@VSendOperation@Client@WSMan@@@@PAVSendOperation@Client@WSMan@@@@AAEAAV?$AutoRelease@VSendOperation@Client@WSMan@@@@XZ
?Me@?$AutoCleanup@V?$AutoRelease@VShell@Client@WSMan@@@@PAVShell@Client@WSMan@@@@AAEAAV?$AutoRelease@VShell@Client@WSMan@@@@XZ
?Me@?$AutoCleanup@V?$AutoRelease@VShellInfo@@@@PAVShellInfo@@@@AAEAAV?$AutoRelease@VShellInfo@@@@XZ
?Me@?$AutoCleanup@V?$AutoRelease@VSignalOperation@Client@WSMan@@@@PAVSignalOperation@Client@WSMan@@@@AAEAAV?$AutoRelease@VSignalOperation@Client@WSMan@@@@XZ
?Me@?$AutoCleanup@V?$AutoRelease@VUserRecord@@@@PAVUserRecord@@@@AAEAAV?$AutoRelease@VUserRecord@@@@XZ
?Me@?$AutoCleanup@V?$AutoRelease@VWSManHttpListener@@@@PAVWSManHttpListener@@@@AAEAAV?$AutoRelease@VWSManHttpListener@@@@XZ
?Me@?$AutoCleanup@V?$AutoReleaseEx@VHostMappingTableEntry@@@@PAVHostMappingTableEntry@@@@AAEAAV?$AutoReleaseEx@VHostMappingTableEntry@@@@XZ
?Me@?$AutoCleanup@V?$AutoReleaseEx@VShell@Client@WSMan@@@@PAVShell@Client@WSMan@@@@AAEAAV?$AutoReleaseEx@VShell@Client@WSMan@@@@XZ
?Me@?$AutoCleanup@VAutoBstr@@PAG@@AAEAAVAutoBstr@@XZ
?Me@?$AutoCleanup@VAutoBstrNoAlloc@@PAG@@AAEAAVAutoBstrNoAlloc@@XZ
?Me@?$AutoCleanup@VAutoCertContext@@PBU_CERT_CONTEXT@@@@AAEAAVAutoCertContext@@XZ
?Me@?$AutoCleanup@VAutoChainContext@@PBU_CERT_CHAIN_CONTEXT@@@@AAEAAVAutoChainContext@@XZ
?Me@?$AutoCleanup@VAutoCoTaskMemFree@@PAX@@AAEAAVAutoCoTaskMemFree@@XZ
?Me@?$AutoCleanup@VAutoFwXmlCloseParser@@PAX@@AAEAAVAutoFwXmlCloseParser@@XZ
?Me@?$AutoCleanup@VAutoHandle@@PAX@@AAEAAVAutoHandle@@XZ
?Me@?$AutoCleanup@VAutoImpersonateUser@@PAX@@AAEAAVAutoImpersonateUser@@XZ
?Me@?$AutoCleanup@VAutoLibrary@@PAUHINSTANCE__@@@@AAEAAVAutoLibrary@@XZ
?Me@?$AutoCleanup@VAutoLocalFree@@PAX@@AAEAAVAutoLocalFree@@XZ
?Me@?$AutoCleanup@VAutoMIClass@@PAU_MI_Class@@@@AAEAAVAutoMIClass@@XZ
?Me@?$AutoCleanup@VAutoMIInstance@@PAU_MI_Instance@@@@AAEAAVAutoMIInstance@@XZ
?Me@?$AutoCleanup@VAutoObject@@PAUWSMAN_OBJECT@@@@AAEAAVAutoObject@@XZ
?Me@?$AutoCleanup@VAutoRegKey@@PAUHKEY__@@@@AAEAAVAutoRegKey@@XZ
?Me@?$AutoCleanup@VAutoSecurityDescriptor@@PAX@@AAEAAVAutoSecurityDescriptor@@XZ
?Me@?$AutoCleanup@VAutoWaitHandle@@PAX@@AAEAAVAutoWaitHandle@@XZ
?MoveSettingsToMigrationKey@@YGHPAVIRequestContext@@_N@Z
?NUM_BOMS@PacketFormatter@@0HB DATA
?NUM_CHARSETS@PacketFormatter@@0HB DATA
?Next@TSTRBUFFER@@QBEPBGPBG@Z
?NextCertMapping@CConfigManager@@QAEHXZ
?NextListener@CConfigManager@@QAEHXZ
?NextRow@CConfigManager@@QAEHXZ
?NextShellUri@CConfigManager@@QAEHXZ
?NoSemantics@ExtendedSemantic@@2KB DATA
?NotifyObservers@CWSManGroupPolicyManager@@UAEHPAVIRequestContext@@PAVIWSManGroupPolicyCacheDataProvider@@@Z
?OnChange@CBaseConfigCache@@UAEXW4ConfigChangeSources@@KW4ConfigChangeSeverityType@@@Z
?OpenRegKey@ConfigRegistry@@IAEJPAU_CONFIG_INFO@@KPAVWSMANCONFIGTABLE_IDENTITY@@PAVAutoRegKey@@PAUHKEY__@@@Z
?OverrideMaxEnvelopeSize@PacketParser@@QAEXK@Z
?OverrideTimeout@PacketParser@@QAEXK@Z
?Parse@CWSManResource@@SGPAV1@PAVIRequestContext@@PBG11PAU_WSMAN_SELECTOR_SET@@PAU_WSMAN_OPTION_SET@@H@Z
?Parse@CWSManResource@@SGPAV1@PAVIRequestContext@@PBGH@Z
?Parse@XmlReader@@AAEHPAVIRequestContext@@@Z
?ParseAction@PacketParser@@AAEHPAVIRequestContext@@PAU_FWXML_ELEMENT@@_N@Z
?ParseActivityId@PacketParser@@AAEHPAVIRequestContext@@PAU_FWXML_ELEMENT@@H@Z
?ParseBookmark@PacketParser@@AAEHPAVIRequestContext@@PAU_FWXML_ELEMENT@@H@Z
?ParseDataLocale@PacketParser@@AAEHPAVIRequestContext@@PAU_FWXML_ELEMENT@@H@Z
?ParseEprElement@CWSManEPR@@SGPAV1@PAVIRequestContext@@PAU_FWXML_ELEMENT@@@Z
?ParseEvent@SoapSemanticConverter@@QAEPAVSemanticMessage@@PAU_FWXML_ELEMENT@@PAKPAVIRequestContext@@@Z
?ParseFaultTo@PacketParser@@AAEHPAVIRequestContext@@PAU_FWXML_ELEMENT@@H@Z
?ParseFragment@PacketParser@@AAEHPAVIRequestContext@@PAU_FWXML_ELEMENT@@H@Z
?ParseHeader@PacketParser@@AAEHPAVCRequestContext@@PAU_FWXML_ELEMENT@@HPAVCServiceCommonConfigSettings@@@Z
?ParseHeaders@CWSManResourceNoResourceUri@@QAEHPAVIRequestContext@@PAU_FWXML_ELEMENT@@11@Z
?ParseHeaders@PacketParser@@AAEHPAVCRequestContext@@PAVCServiceCommonConfigSettings@@@Z
?ParseLocale@PacketParser@@AAEHPAVIRequestContext@@PAU_FWXML_ELEMENT@@H@Z
?ParseMachineID@PacketParser@@AAEHPAVIRequestContext@@PAU_FWXML_ELEMENT@@@Z
?ParseMaxEnvelopeSize@PacketParser@@AAEHPAVIRequestContext@@PAU_FWXML_ELEMENT@@HPAVCServiceCommonConfigSettings@@@Z
?ParseMessageId@PacketParser@@AAEHPAVIRequestContext@@PAU_FWXML_ELEMENT@@_N@Z
?ParseOperationId@PacketParser@@AAEHPAVIRequestContext@@PAU_FWXML_ELEMENT@@H@Z
?ParseOptionSet@CWSManResourceNoResourceUri@@QAEHPAVIRequestContext@@PAU_FWXML_ELEMENT@@@Z
?ParseOptions@PacketParser@@AAEHPAVIRequestContext@@PAU_FWXML_ELEMENT@@H@Z
?ParsePacket@PacketParser@@QAEHPAVCRequestContext@@PAVPacket@@PAVCServiceCommonConfigSettings@@@Z
?ParsePacketInternal@PacketParser@@AAEHPAVCRequestContext@@PAU_FWXML_ELEMENT@@PAVCServiceCommonConfigSettings@@@Z
?ParseReplyTo@PacketParser@@AAEHPAVIRequestContext@@PAU_FWXML_ELEMENT@@@Z
?ParseResourceLocator@CWSManResource@@SGPAV1@PAVIRequestContext@@PAU_WSMAN_RESOURCE_LOCATOR@@@Z
?ParseResourceUri@PacketParser@@AAEHPAVIRequestContext@@PAU_FWXML_ELEMENT@@H@Z
?ParseResponse@SoapSemanticConverter@@QAE_NPAU_FWXML_ELEMENT@@PAKPA_NPAVIRequestContext@@@Z
?ParseRobustConnectionAckSequenceId@PacketParser@@AAEKPA_K@Z
?ParseRobustConnectionMessages@PacketParser@@QAEKPAW4PacketType@1@PA_NPA_K2@Z
?ParseSelectors@PacketParser@@AAEHPAVIRequestContext@@PAU_FWXML_ELEMENT@@H@Z
?ParseSequenceId@PacketParser@@AAEHPAVIRequestContext@@PAU_FWXML_ELEMENT@@@Z
?ParseSessionId@PacketParser@@AAEHPAVIRequestContext@@PAU_FWXML_ELEMENT@@H@Z
?ParseShellCompression@PacketParser@@AAEHPAVIRequestContext@@PAU_FWXML_ELEMENT@@H@Z
?ParseStream@PacketParser@@QAEXPAVCRequestContext@@PAVITransportReceiver@@PAVPacket@@PAVCServiceCommonConfigSettings@@@Z
?ParseSubscriptionAgentPacket@PacketParser@@QAEHPAVCRequestContext@@PAVPacket@@PAVCServiceConfigSettings@@@Z
?ParseSubscriptionID@PacketParser@@AAEHPAVIRequestContext@@PAU_FWXML_ELEMENT@@H@Z
?ParseTimeout@PacketParser@@AAEHPAVIRequestContext@@PAU_FWXML_ELEMENT@@HPAVCServiceCommonConfigSettings@@@Z
?ParseToAddress@PacketParser@@AAEHPAVCRequestContext@@PAU_FWXML_ELEMENT@@@Z
?Passed@CErrorContext@@UBEHXZ
?PolicyChanged@CWSManGroupPolicyManager@@AAEXE@Z
?PostChange@CBaseConfigCache@@MAEHPAVIRequestContext@@PAVCCommonConfigSettings@@1@Z
?PostChange@CServiceConfigCache@@EAEHPAVIRequestContext@@PAVCCommonConfigSettings@@1@Z
?PostError@CBaseConfigCache@@MAEXK@Z
?PostError@CServiceConfigCache@@EAEXK@Z
?PrepareToCommitWithSize@BufferFormatter@@UAEKK@Z
?PrepareToCommitWithSize@CircularBufferFormatter@@UAEKK@Z
?PrintHandleTrace@@YGXPAX@Z
?PrintReleaseTrace@@YGXPAXJ@Z
?PrintUnregisterWaitTrace@@YGXPAX@Z
?ProcessContext@CErrorContext@@UAEHHPAKPAU_WSMAN_FAULT_OBJECT@@@Z
?ProcessContext@CErrorContext@@UAEHHPAU_WSMAN_ERROR@@@Z
?ProcessContext@CRequestContext@@QAEHHPAU_WSMAN_ENUMERATOR_RESULT@@@Z
?ProcessContext@CRequestContext@@QAEHHPAU_WSMAN_EVENTS_RESULT@@@Z
?ProcessContext@CRequestContext@@QAEHHPAU_WSMAN_RESULT@@@Z
?ProcessContext@CRequestContext@@QAEHHPAU_WSMAN_STATUS@@@Z
?ProcessContext@CRequestContext@@UAEHHPAKPAU_WSMAN_FAULT_OBJECT@@@Z
?ProcessContext@CRequestContext@@UAEHHPAU_WSMAN_ERROR@@@Z
?ProcessEPR@CWSManEPR@@AAEHPAVIRequestContext@@PAU_FWXML_ELEMENT@@@Z
?ProcessFragmentDialect@CWSManResourceNoResourceUri@@IAEHPAVIRequestContext@@PBGK@Z
?ProcessFragmentPath@CWSManResourceNoResourceUri@@IAEHPAVIRequestContext@@PBGK@Z
?ProcessKey@CWSManResourceNoResourceUri@@IAEHPAVIRequestContext@@PBG1@Z
?ProcessNestedEPR@CWSManResourceNoResourceUri@@IAEHPAVIRequestContext@@PBGPAU_FWXML_ELEMENT@@@Z
?ProcessOption@CWSManResourceNoResourceUri@@IAEHPAVIRequestContext@@PBG11H@Z
?ProcessRefParameters@CWSManEPR@@AAEHPAVIRequestContext@@PAU_FWXML_ELEMENT@@@Z
?ProcessRefProperties@CWSManEPR@@AAEHPAVIRequestContext@@PAU_FWXML_ELEMENT@@@Z
?ProcessUri@CWSManResource@@QAEHPAVIRequestContext@@PBGK@Z
?Progress@ExtendedSemantic@@2KB DATA
?PropertySheetPageCallback@CWSManSecurityUI@@UAGJPAUHWND__@@IW4_SI_PAGE_TYPE@@@Z
?ProviderFailure@CErrorContext@@UBEHXZ
?ProviderShutdownCleanup@CWinRSPluginConfigCache@@SGXXZ
?PutOverrideValue@?$PacketElement@K@PacketParser@@QAEXK@Z
?PutOverrideValue@?$PacketElement@PBG@PacketParser@@QAEXPBG@Z
?PutValue@?$PacketElement@K@PacketParser@@QAEXKH@Z
?PutValue@?$PacketElement@PAU_FWXML_ELEMENT@@@PacketParser@@QAEXPAU_FWXML_ELEMENT@@H@Z
?PutValue@?$PacketElement@PBG@PacketParser@@QAEXPBGH@Z
?PutValue@?$PacketElement@_K@PacketParser@@QAEX_KH@Z
?PutValue@Fragment@PacketParser@@QAEXPBG0H@Z
?PutValue@NotUnderstandSoapHeader@PacketParser@@QAEXPBG00@Z
?PutValue@ReferenceParameters@PacketParser@@QAEKPAU_FWXML_ELEMENT@@H@Z
?QueryInterface@CWSManSecurityUI@@UAGJABU_GUID@@PAPAX@Z
?QueryPtr@RBUFFER@@QBEPAXXZ
?QueryRegValue@CConfigManager@@AAEJPAU_CONFIG_INFO@@PAKKPAE1@Z
?QueryRegValue@CWSManGroupPolicyManager@@AAEJPAVIRequestContext@@PBU_WSMAN_POLICY_INFO@@PAKKPAE2@Z
?QuerySize@RBUFFER@@QBEIXZ
?QueryStr@TSTRBUFFER@@QBEPBGXZ
?QuotaComplete@UserRecord@@UAEXPAU_WSMAN_AUTHZ_QUOTA@@KPBG@Z
?ReAlloc@WSManMemory@@SGPAXPAXIHW4_NitsFaultMode@@@Z
?ReadCertMappingRegistryKey@CConfigManager@@SGHPAVIRequestContext@@PAVCERTMAPPING_IDENTITY@@PAG@Z
?ReadCredentialsFromCredmanStore@CConfigManager@@SGHPAVIRequestContext@@PAG1@Z
?ReadCurrentSettings@CClientConfigCache@@EAEPAVCCommonConfigSettings@@PAVIRequestContext@@W4ErrorLogging@@@Z
?ReadCurrentSettings@CServiceConfigCache@@EAEPAVCCommonConfigSettings@@PAVIRequestContext@@W4ErrorLogging@@@Z
?ReadCurrentSettings@CWinRSPluginConfigCache@@EAEPAVCCommonConfigSettings@@PAVIRequestContext@@W4ErrorLogging@@@Z
?ReadDefaultSettings@CClientConfigCache@@EAEPAVCCommonConfigSettings@@PAVIRequestContext@@@Z
?ReadDefaultSettings@CServiceConfigCache@@EAEPAVCCommonConfigSettings@@PAVIRequestContext@@@Z
?ReadDefaultSettings@CWinRSPluginConfigCache@@EAEPAVCCommonConfigSettings@@PAVIRequestContext@@@Z
?ReadShellUriRegistryKey@CConfigManager@@SGHPAVIRequestContext@@PAVSHELLURI_IDENTITY@@PAG@Z
?ReadTableRegistryKey@CConfigManager@@SGHPAVIRequestContext@@PAVWSMANCONFIGTABLE_IDENTITY@@PAG@Z
?ReallocStorage@RBUFFER@@IAEHI@Z
?RecordAccessDenied@CErrorContext@@UAEXXZ
?RecordAccessDenied@CRequestContext@@UAEXXZ
?RecordAccessDeniedWithDetail@CErrorContext@@UAAXKZZ
?RecordAccessDeniedWithDetail@CRequestContext@@UAAXKZZ
?RecordFailure@CErrorContext@@UAAXKKZZ
?RecordFailure@CErrorContext@@UAAXW4_MI_Result@@KKZZ
?RecordFailure@CErrorContext@@UAEXK@Z
?RecordFailure@CErrorContext@@UAEXPAU_WSMAN_FAULT_OBJECT@@@Z
?RecordFailure@CRequestContext@@AAEXKKPAPAD0@Z
?RecordFailure@CRequestContext@@UAAXKKZZ
?RecordFailure@CRequestContext@@UAAXW4_MI_Result@@KKZZ
?RecordFailure@CRequestContext@@UAEXK@Z
?RecordFailure@CRequestContext@@UAEXPAU_WSMAN_FAULT_OBJECT@@@Z
?RecordHresult@CErrorContext@@UAAXKKZZ
?RecordHresult@CRequestContext@@UAAXKKZZ
?RecordHtmlError@CRequestContext@@QAEHKPAU_FWXML_ELEMENT@@@Z
?RecordHtmlError@CRequestContext@@QAEHKPBGK@Z
?RecordMIFailure@IRequestContext@@QAEXW4_MI_Result@@K@Z
?RecordOutOfMemory@CErrorContext@@UAEXXZ
?RecordOutOfMemory@CRequestContext@@UAEXXZ
?RecordProviderFailure@CErrorContext@@UAEXPAU_WSMAN_FAULT_OBJECT@@PBG1@Z
?RecordProviderFailure@CRequestContext@@QAEXKHPBG00@Z
?RecordProviderFailure@CRequestContext@@UAEXPAU_WSMAN_FAULT_OBJECT@@PBG1@Z
?RecordSoapError@CErrorContext@@UAEHKPBG@Z
?RecordSoapError@CRequestContext@@QAEHKPAU_FWXML_ELEMENT@@@Z
?RecordSoapError@CRequestContext@@UAEHKPBG@Z
?RecordText@CRequestContext@@AAEHKPBGIK@Z
?RecordXml@CRequestContext@@AAEHKPAU_FWXML_ELEMENT@@K@Z
?Refresh@UserRecord@@QAEXXZ
?RegisterChild@ChildLifeTimeManager@@QAE_NXZ
?RegisterChunkBoundary@CircularBufferFormatter@@QAEKXZ
?RegisterConfigChangeNotification@CConfigManager@@QAEPAVConfigNotification@@PAX@Z
?RegisterForPolicyNotification@CWSManGroupPolicyManager@@AAEHPAVIRequestContext@@H@Z
?RegisterModule@@YGJKPAVIHttpModuleRegistrationInfo@@PAVIHttpServer@@@Z
?Release@?$SafeMap@PAVCCertMapping@@UEmpty@@V?$SafeMap_Iterator@PAVCCertMapping@@UEmpty@@@@@@UBEXXZ
?Release@?$SafeMap@PAVCCertMapping@@UEmpty@@V?$SafeSet_Iterator@PAVCCertMapping@@@@@@UBEXXZ
?Release@?$SafeMap@PAVCListenerConnect@@PAV1@V?$SafeMap_Iterator@PAVCListenerConnect@@PAV1@@@@@UBEXXZ
?Release@?$SafeMap@PAVCListenerOperation@@UEmpty@@V?$SafeMap_Iterator@PAVCListenerOperation@@UEmpty@@@@@@UBEXXZ
?Release@?$SafeMap@PAVCListenerOperation@@UEmpty@@V?$SafeSet_Iterator@PAVCListenerOperation@@@@@@UBEXXZ
?Release@?$SafeMap@PAVCListenerReceive@@PAV1@V?$SafeMap_Iterator@PAVCListenerReceive@@PAV1@@@@@UBEXXZ
?Release@?$SafeMap@PAVCListenerSend@@PAV1@V?$SafeMap_Iterator@PAVCListenerSend@@PAV1@@@@@UBEXXZ
?Release@?$SafeMap@PAVCListenerSignal@@PAV1@V?$SafeMap_Iterator@PAVCListenerSignal@@PAV1@@@@@UBEXXZ
?Release@?$SafeMap@PAVCShellUriSettings@@UEmpty@@V?$SafeSet_Iterator@PAVCShellUriSettings@@@@@@UBEXXZ
?Release@?$SafeMap@PAVCollector@@UEmpty@@V?$SafeMap_Iterator@PAVCollector@@UEmpty@@@@@@UBEXXZ
?Release@?$SafeMap@PAVCollector@@UEmpty@@V?$SafeSet_Iterator@PAVCollector@@@@@@UBEXXZ
?Release@?$SafeMap@PAVHostOperation@@UEmpty@@V?$SafeMap_Iterator@PAVHostOperation@@UEmpty@@@@@@UBEXXZ
?Release@?$SafeMap@PAVHostOperation@@UEmpty@@V?$SafeSet_Iterator@PAVHostOperation@@@@@@UBEXXZ
?Release@?$SafeMap@PAVIOperation@@UEmpty@@V?$SafeMap_Iterator@PAVIOperation@@UEmpty@@@@@@UBEXXZ
?Release@?$SafeMap@PAVIOperation@@UEmpty@@V?$SafeSet_Iterator@PAVIOperation@@@@@@UBEXXZ
?Release@?$SafeMap@PAVListenerSourceSubscription@@UEmpty@@V?$SafeMap_Iterator@PAVListenerSourceSubscription@@UEmpty@@@@@@UBEXXZ
?Release@?$SafeMap@PAVListenerSourceSubscription@@UEmpty@@V?$SafeSet_Iterator@PAVListenerSourceSubscription@@@@@@UBEXXZ
?Release@?$SafeMap@PAVPushSubscription@@UEmpty@@V?$SafeMap_Iterator@PAVPushSubscription@@UEmpty@@@@@@UBEXXZ
?Release@?$SafeMap@PAVPushSubscription@@UEmpty@@V?$SafeSet_Iterator@PAVPushSubscription@@@@@@UBEXXZ
?Release@?$SafeMap@PAXUEmpty@@V?$SafeSet_Iterator@PAX@@@@UBEXXZ
?Release@?$SafeMap@UPluginKey@@KV?$SafeMap_Iterator@UPluginKey@@K@@@@UBEXXZ
?Release@?$SafeMap@UUserKey@@PAVBlockedRecord@@V?$SafeMap_Iterator@UUserKey@@PAVBlockedRecord@@@@@@UBEXXZ
?Release@?$SafeMap@VCertThumbprintKey@@VCertThumbprintMappedSet@CServiceConfigSettings@@V?$SafeMap_Iterator@VCertThumbprintKey@@VCertThumbprintMappedSet@CServiceConfigSettings@@@@@@UBEXXZ
?Release@?$SafeMap@VGuidKey@@PAVCListenerCommand@@V?$SafeMap_Iterator@VGuidKey@@PAVCListenerCommand@@@@@@UBEXXZ
?Release@?$SafeMap@VKey@CWmiPtrCache@@VMapping@2@V?$SafeMap_Iterator@VKey@CWmiPtrCache@@VMapping@2@@@@@UBEXXZ
?Release@?$SafeMap@VKey@Locale@@KV?$SafeMap_Iterator@VKey@Locale@@K@@@@UBEXXZ
?Release@?$SafeMap@VStringKey@@PAVListenerEvents@@V?$SafeMap_Iterator@VStringKey@@PAVListenerEvents@@@@@@UBEXXZ
?Release@?$SafeMap@VStringKey@@PAVListenerSourceSubscription@@V?$SafeMap_Iterator@VStringKey@@PAVListenerSourceSubscription@@@@@@UBEXXZ
?Release@?$SafeMap@VStringKey@@UOption@WinRM_OperationOptions@@V?$SafeMap_Iterator@VStringKey@@UOption@WinRM_OperationOptions@@@@@@UBEXXZ
?Release@?$SafeMap@VStringKeyCI@@KV?$SafeMap_Iterator@VStringKeyCI@@K@@@@UBEXXZ
?Release@?$SafeMap@VStringKeyCI@@PAVIISEndpoint@@V?$SafeMap_Iterator@VStringKeyCI@@PAVIISEndpoint@@@@@@UBEXXZ
?Release@?$SafeMap@VStringKeyCI@@UEmpty@@V?$SafeMap_Iterator@VStringKeyCI@@UEmpty@@@@@@UBEXXZ
?Release@?$SafeMap@VStringKeyCI@@UEmpty@@V?$SafeSet_Iterator@VStringKeyCI@@@@@@UBEXXZ
?Release@?$SafeMap@VStringKeyCI@@UUSER_CONTEXT_INFO@WSManHttpListener@@V?$SafeMap_Iterator@VStringKeyCI@@UUSER_CONTEXT_INFO@WSManHttpListener@@@@@@UBEXXZ
?Release@?$SafeMap@VStringKeyStore@@PAVExpiredOperationIdRecord@@V?$SafeMap_Iterator@VStringKeyStore@@PAVExpiredOperationIdRecord@@@@@@UBEXXZ
?Release@?$SafeMap@VStringKeyStore@@PAVServerFullDuplexChannel@@V?$SafeMap_Iterator@VStringKeyStore@@PAVServerFullDuplexChannel@@@@@@UBEXXZ
?Release@?$SafeMap@VTokenCacheKey@ServiceSoapProcessor@@VTokenCacheMapping@2@V?$SafeMap_Iterator@VTokenCacheKey@ServiceSoapProcessor@@VTokenCacheMapping@2@@@@@UBEXXZ
?Release@?$SafeMap@W4WSManSessionOption@@PAVOptionValue@SessionOptions@Client@WSMan@@V?$SafeMap_Iterator@W4WSManSessionOption@@PAVOptionValue@SessionOptions@Client@WSMan@@@@@@UBEXXZ
?Release@?$SafeMap@_KPAVSendPacketArgs@RobustConnectionBuffer@@V?$SafeMap_Iterator@_KPAVSendPacketArgs@RobustConnectionBuffer@@@@@@UBEXXZ
?Release@?$SafeMap_Iterator@PAVCCertMapping@@UEmpty@@@@QAEXXZ
?Release@?$SafeMap_Iterator@PAVCListenerOperation@@UEmpty@@@@QAEXXZ
?Release@?$SafeMap_Iterator@PAVCShellUriSettings@@UEmpty@@@@QAEXXZ
?Release@?$SafeMap_Iterator@VCertThumbprintKey@@VCertThumbprintMappedSet@CServiceConfigSettings@@@@QAEXXZ
?Release@?$SafeMap_Iterator@VStringKeyCI@@K@@QAEXXZ
?Release@?$SafeMap_Iterator@VStringKeyStore@@PAVExpiredOperationIdRecord@@@@QAEXXZ
?Release@?$SafeMap_Iterator@W4WSManSessionOption@@PAVOptionValue@SessionOptions@Client@WSMan@@@@QAEXXZ
?Release@?$SafeMap_Lock@PAVCCertMapping@@UEmpty@@V?$SafeMap_Iterator@PAVCCertMapping@@UEmpty@@@@@@QAEXXZ
?Release@?$SafeMap_Lock@PAVCListenerOperation@@UEmpty@@V?$SafeMap_Iterator@PAVCListenerOperation@@UEmpty@@@@@@QAEXXZ
?Release@?$SafeMap_Lock@PAVCShellUriSettings@@UEmpty@@V?$SafeMap_Iterator@PAVCShellUriSettings@@UEmpty@@@@@@QAEXXZ
?Release@?$SafeMap_Lock@VCertThumbprintKey@@VCertThumbprintMappedSet@CServiceConfigSettings@@V?$SafeMap_Iterator@VCertThumbprintKey@@VCertThumbprintMappedSet@CServiceConfigSettings@@@@@@QAEXXZ
?Release@?$SafeMap_Lock@VStringKeyCI@@KV?$SafeMap_Iterator@VStringKeyCI@@K@@@@QAEXXZ
?Release@?$SafeMap_Lock@VStringKeyStore@@PAVExpiredOperationIdRecord@@V?$SafeMap_Iterator@VStringKeyStore@@PAVExpiredOperationIdRecord@@@@@@QAEXXZ
?Release@?$SafeMap_Lock@W4WSManSessionOption@@PAVOptionValue@SessionOptions@Client@WSMan@@V?$SafeMap_Iterator@W4WSManSessionOption@@PAVOptionValue@SessionOptions@Client@WSMan@@@@@@QAEXXZ
?Release@CBaseConfigCache@@UAEJP6GXPAX@Z0@Z
?Release@CWSManCriticalSection@@QAEXXZ
?Release@CWSManSecurityUI@@UAGKXZ
?Release@ILifeTimeMgmt@@UAEJP6GXPAX@Z0@Z
?Release@UserRecord@@QAEJXZ
?ReleaseExclusive@FastLock@@QAEXXZ
?ReleasePtr@?$AutoCleanup@V?$AutoDelete@D@@PAD@@AAEXXZ
?ReleasePtr@?$AutoCleanup@V?$AutoDelete@G@@PAG@@AAEXXZ
?ReleasePtr@?$AutoCleanup@V?$AutoDelete@UIPRange@CWSManIPFilter@@@@PAUIPRange@CWSManIPFilter@@@@AAEXXZ
?ReleasePtr@?$AutoCleanup@V?$AutoDelete@U_SID@@@@PAU_SID@@@@AAEXXZ
?ReleasePtr@?$AutoCleanup@V?$AutoDelete@U_WSMAN_STREAM_ID_SET@@@@PAU_WSMAN_STREAM_ID_SET@@@@AAEXXZ
?ReleasePtr@?$AutoCleanup@V?$AutoDelete@V?$Handle@VISubscription@@@@@@PAV?$Handle@VISubscription@@@@@@AAEXXZ
?ReleasePtr@?$AutoCleanup@V?$AutoDelete@V?$SafeMap_Iterator@PAVCListenerConnect@@PAV1@@@@@PAV?$SafeMap_Iterator@PAVCListenerConnect@@PAV1@@@@@AAEXXZ
?ReleasePtr@?$AutoCleanup@V?$AutoDelete@V?$SafeMap_Iterator@PAVCListenerReceive@@PAV1@@@@@PAV?$SafeMap_Iterator@PAVCListenerReceive@@PAV1@@@@@AAEXXZ
?ReleasePtr@?$AutoCleanup@V?$AutoDelete@V?$SafeMap_Iterator@PAVCListenerSend@@PAV1@@@@@PAV?$SafeMap_Iterator@PAVCListenerSend@@PAV1@@@@@AAEXXZ
?ReleasePtr@?$AutoCleanup@V?$AutoDelete@V?$SafeMap_Iterator@PAVCListenerSignal@@PAV1@@@@@PAV?$SafeMap_Iterator@PAVCListenerSignal@@PAV1@@@@@AAEXXZ
?ReleasePtr@?$AutoCleanup@V?$AutoDelete@V?$SafeMap_Iterator@VGuidKey@@PAVCListenerCommand@@@@@@PAV?$SafeMap_Iterator@VGuidKey@@PAVCListenerCommand@@@@@@AAEXXZ
?ReleasePtr@?$AutoCleanup@V?$AutoDelete@V?$SafeMap_Iterator@VStringKeyCI@@K@@@@PAV?$SafeMap_Iterator@VStringKeyCI@@K@@@@AAEXXZ
?ReleasePtr@?$AutoCleanup@V?$AutoDelete@V?$SafeMap_Iterator@W4WSManSessionOption@@PAVOptionValue@SessionOptions@Client@WSMan@@@@@@PAV?$SafeMap_Iterator@W4WSManSessionOption@@PAVOptionValue@SessionOptions@Client@WSMan@@@@@@AAEXXZ
?ReleasePtr@?$AutoCleanup@V?$AutoDelete@V?$SafeSet@PAVCCertMapping@@@@@@PAV?$SafeSet@PAVCCertMapping@@@@@@AAEXXZ
?ReleasePtr@?$AutoCleanup@V?$AutoDelete@V?$SafeSet@PAVCShellUriSettings@@@@@@PAV?$SafeSet@PAVCShellUriSettings@@@@@@AAEXXZ
?ReleasePtr@?$AutoCleanup@V?$AutoDelete@V?$SafeSet_Iterator@PAVCListenerOperation@@@@@@PAV?$SafeSet_Iterator@PAVCListenerOperation@@@@@@AAEXXZ
?ReleasePtr@?$AutoCleanup@V?$AutoDelete@V?$SafeSet_Iterator@PAVCollector@@@@@@PAV?$SafeSet_Iterator@PAVCollector@@@@@@AAEXXZ
?ReleasePtr@?$AutoCleanup@V?$AutoDelete@V?$SafeSet_Iterator@PAVHostOperation@@@@@@PAV?$SafeSet_Iterator@PAVHostOperation@@@@@@AAEXXZ
?ReleasePtr@?$AutoCleanup@V?$AutoDelete@V?$SafeSet_Iterator@PAVListenerSourceSubscription@@@@@@PAV?$SafeSet_Iterator@PAVListenerSourceSubscription@@@@@@AAEXXZ
?ReleasePtr@?$AutoCleanup@V?$AutoDelete@V?$SimpleStack@VCListenerOperation@@@@@@PAV?$SimpleStack@VCListenerOperation@@@@@@AAEXXZ
?ReleasePtr@?$AutoCleanup@V?$AutoDelete@V?$SimpleStack@VShellHostEntry@@@@@@PAV?$SimpleStack@VShellHostEntry@@@@@@AAEXXZ
?ReleasePtr@?$AutoCleanup@V?$AutoDelete@V?$queue@PAU_WSMAN_PUBLISHER_EVENT_STRUCT@@V?$deque@PAU_WSMAN_PUBLISHER_EVENT_STRUCT@@V?$transport_allocator@PAU_WSMAN_PUBLISHER_EVENT_STRUCT@@@@@std@@@std@@@@PAV?$queue@PAU_WSMAN_PUBLISHER_EVENT_STRUCT@@V?$deque@PAU_WSMAN_PUBLISHER_EVENT_STRUCT@@V?$transport_allocator@PAU_WSMAN_PUBLISHER_EVENT_STRUCT@@@@@std@@@std@@@@AAEXXZ
?ReleasePtr@?$AutoCleanup@V?$AutoDelete@V?$set@PAVCListenerSettings@@VCListenerSettingsLessFunctor@CServiceConfigSettings@@V?$transport_allocator@PAVCListenerSettings@@@@@std@@@@PAV?$set@PAVCListenerSettings@@VCListenerSettingsLessFunctor@CServiceConfigSettings@@V?$transport_allocator@PAVCListenerSettings@@@@@std@@@@AAEXXZ
?ReleasePtr@?$AutoCleanup@V?$AutoDelete@V?$set@Usockaddr_storage@@VSockAddrLessFunctor@CListenerSettings@@V?$transport_allocator@Usockaddr_storage@@@@@std@@@@PAV?$set@Usockaddr_storage@@VSockAddrLessFunctor@CListenerSettings@@V?$transport_allocator@Usockaddr_storage@@@@@std@@@@AAEXXZ
?ReleasePtr@?$AutoCleanup@V?$AutoDelete@V?$vector@PAVCWSManRequest@@V?$transport_allocator@PAVCWSManRequest@@@@@std@@@@PAV?$vector@PAVCWSManRequest@@V?$transport_allocator@PAVCWSManRequest@@@@@std@@@@AAEXXZ
?ReleasePtr@?$AutoCleanup@V?$AutoDelete@V?$vector@PAVHandleImpl@Client@WSMan@@V?$transport_allocator@PAVHandleImpl@Client@WSMan@@@@@std@@@@PAV?$vector@PAVHandleImpl@Client@WSMan@@V?$transport_allocator@PAVHandleImpl@Client@WSMan@@@@@std@@@@AAEXXZ
?ReleasePtr@?$AutoCleanup@V?$AutoDelete@V?$vector@PAVIServiceConfigObserver@@V?$transport_allocator@PAVIServiceConfigObserver@@@@@std@@@@PAV?$vector@PAVIServiceConfigObserver@@V?$transport_allocator@PAVIServiceConfigObserver@@@@@std@@@@AAEXXZ
?ReleasePtr@?$AutoCleanup@V?$AutoDelete@V?$vector@PAVWSManHttpSenderConnection@@V?$transport_allocator@PAVWSManHttpSenderConnection@@@@@std@@@@PAV?$vector@PAVWSManHttpSenderConnection@@V?$transport_allocator@PAVWSManHttpSenderConnection@@@@@std@@@@AAEXXZ
?ReleasePtr@?$AutoCleanup@V?$AutoDelete@VAdminSid@CSecurity@@@@PAVAdminSid@CSecurity@@@@AAEXXZ
?ReleasePtr@?$AutoCleanup@V?$AutoDelete@VBlockedRecord@@@@PAVBlockedRecord@@@@AAEXXZ
?ReleasePtr@?$AutoCleanup@V?$AutoDelete@VCBaseConfigCache@@@@PAVCBaseConfigCache@@@@AAEXXZ
?ReleasePtr@?$AutoCleanup@V?$AutoDelete@VCCertMapping@@@@PAVCCertMapping@@@@AAEXXZ
?ReleasePtr@?$AutoCleanup@V?$AutoDelete@VCConfigChangeSource@@@@PAVCConfigChangeSource@@@@AAEXXZ
?ReleasePtr@?$AutoCleanup@V?$AutoDelete@VCListenerSettings@@@@PAVCListenerSettings@@@@AAEXXZ
?ReleasePtr@?$AutoCleanup@V?$AutoDelete@VCObserverConfigChangeErrors@@@@PAVCObserverConfigChangeErrors@@@@AAEXXZ
?ReleasePtr@?$AutoCleanup@V?$AutoDelete@VCServiceWatcher@CServiceConfigCache@@@@PAVCServiceWatcher@CServiceConfigCache@@@@AAEXXZ
?ReleasePtr@?$AutoCleanup@V?$AutoDelete@VCShellUriSettings@@@@PAVCShellUriSettings@@@@AAEXXZ
?ReleasePtr@?$AutoCleanup@V?$AutoDelete@VCWSManEPR@@@@PAVCWSManEPR@@@@AAEXXZ
?ReleasePtr@?$AutoCleanup@V?$AutoDelete@VCWSManResource@@@@PAVCWSManResource@@@@AAEXXZ
?ReleasePtr@?$AutoCleanup@V?$AutoDelete@VCertHash@@@@PAVCertHash@@@@AAEXXZ
?ReleasePtr@?$AutoCleanup@V?$AutoDelete@VConfigUpdate@@@@PAVConfigUpdate@@@@AAEXXZ
?ReleasePtr@?$AutoCleanup@V?$AutoDelete@VEnumSinkEx@@@@PAVEnumSinkEx@@@@AAEXXZ
?ReleasePtr@?$AutoCleanup@V?$AutoDelete@VEventHandler@WSMan@@@@PAVEventHandler@WSMan@@@@AAEXXZ
?ReleasePtr@?$AutoCleanup@V?$AutoDelete@VExpiredOperationIdRecord@@@@PAVExpiredOperationIdRecord@@@@AAEXXZ
?ReleasePtr@?$AutoCleanup@V?$AutoDelete@VGPApiManager@@@@PAVGPApiManager@@@@AAEXXZ
?ReleasePtr@?$AutoCleanup@V?$AutoDelete@VGeneralSinkEx@@@@PAVGeneralSinkEx@@@@AAEXXZ
?ReleasePtr@?$AutoCleanup@V?$AutoDelete@VIChannelObserverFactory@@@@PAVIChannelObserverFactory@@@@AAEXXZ
?ReleasePtr@?$AutoCleanup@V?$AutoDelete@VIQueryDASHSMASHInterface@@@@PAVIQueryDASHSMASHInterface@@@@AAEXXZ
?ReleasePtr@?$AutoCleanup@V?$AutoDelete@VISpecification@@@@PAVISpecification@@@@AAEXXZ
?ReleasePtr@?$AutoCleanup@V?$AutoDelete@VInteractiveSid@CSecurity@@@@PAVInteractiveSid@CSecurity@@@@AAEXXZ
?ReleasePtr@?$AutoCleanup@V?$AutoDelete@VIpHlpApiDllLoader@@@@PAVIpHlpApiDllLoader@@@@AAEXXZ
?ReleasePtr@?$AutoCleanup@V?$AutoDelete@VMachineName@@@@PAVMachineName@@@@AAEXXZ
?ReleasePtr@?$AutoCleanup@V?$AutoDelete@VMasterReceiveData@CListenerReceive@@@@PAVMasterReceiveData@CListenerReceive@@@@AAEXXZ
?ReleasePtr@?$AutoCleanup@V?$AutoDelete@VNetworkServiceSid@CSecurity@@@@PAVNetworkServiceSid@CSecurity@@@@AAEXXZ
?ReleasePtr@?$AutoCleanup@V?$AutoDelete@VNtDsApiDllLoader@@@@PAVNtDsApiDllLoader@@@@AAEXXZ
?ReleasePtr@?$AutoCleanup@V?$AutoDelete@VOptionValue@SessionOptions@Client@WSMan@@@@PAVOptionValue@SessionOptions@Client@WSMan@@@@AAEXXZ
?ReleasePtr@?$AutoCleanup@V?$AutoDelete@VPacketCreator@@@@PAVPacketCreator@@@@AAEXXZ
?ReleasePtr@?$AutoCleanup@V?$AutoDelete@VPacketParser@@@@PAVPacketParser@@@@AAEXXZ
?ReleasePtr@?$AutoCleanup@V?$AutoDelete@VResources@Locale@@@@PAVResources@Locale@@@@AAEXXZ
?ReleasePtr@?$AutoCleanup@V?$AutoDelete@VRunAsConfiguration@@@@PAVRunAsConfiguration@@@@AAEXXZ
?ReleasePtr@?$AutoCleanup@V?$AutoDelete@VSecurityEntry@Catalog@@@@PAVSecurityEntry@Catalog@@@@AAEXXZ
?ReleasePtr@?$AutoCleanup@V?$AutoDelete@VSendPacketArgs@RobustConnectionBuffer@@@@PAVSendPacketArgs@RobustConnectionBuffer@@@@AAEXXZ
?ReleasePtr@?$AutoCleanup@V?$AutoDelete@VServiceSoapProcessor@@@@PAVServiceSoapProcessor@@@@AAEXXZ
?ReleasePtr@?$AutoCleanup@V?$AutoDelete@VShell32DllLoader@@@@PAVShell32DllLoader@@@@AAEXXZ
?ReleasePtr@?$AutoCleanup@V?$AutoDelete@VShlWApiDllLoader@@@@PAVShlWApiDllLoader@@@@AAEXXZ
?ReleasePtr@?$AutoCleanup@V?$AutoDelete@VSubscriptionEnumerator@@@@PAVSubscriptionEnumerator@@@@AAEXXZ
?ReleasePtr@?$AutoCleanup@V?$AutoDelete@VSubscriptionManager@@@@PAVSubscriptionManager@@@@AAEXXZ
?ReleasePtr@?$AutoCleanup@V?$AutoDelete@VTSTRBUFFER@@@@PAVTSTRBUFFER@@@@AAEXXZ
?ReleasePtr@?$AutoCleanup@V?$AutoDelete@VUniqueStringOverflow@@@@PAVUniqueStringOverflow@@@@AAEXXZ
?ReleasePtr@?$AutoCleanup@V?$AutoDelete@VUser32DllLoader@@@@PAVUser32DllLoader@@@@AAEXXZ
?ReleasePtr@?$AutoCleanup@V?$AutoDelete@VWSMANCONFIGTABLE_IDENTITY@@@@PAVWSMANCONFIGTABLE_IDENTITY@@@@AAEXXZ
?ReleasePtr@?$AutoCleanup@V?$AutoDelete@VWSManMemCryptManager@@@@PAVWSManMemCryptManager@@@@AAEXXZ
?ReleasePtr@?$AutoCleanup@V?$AutoDelete@VWmiEnumContext@@@@PAVWmiEnumContext@@@@AAEXXZ
?ReleasePtr@?$AutoCleanup@V?$AutoDelete@VXmlReader@@@@PAVXmlReader@@@@AAEXXZ
?ReleasePtr@?$AutoCleanup@V?$AutoDeleteVector@$$CBG@@PBG@@AAEXXZ
?ReleasePtr@?$AutoCleanup@V?$AutoDeleteVector@D@@PAD@@AAEXXZ
?ReleasePtr@?$AutoCleanup@V?$AutoDeleteVector@E@@PAE@@AAEXXZ
?ReleasePtr@?$AutoCleanup@V?$AutoDeleteVector@G@@PAG@@AAEXXZ
?ReleasePtr@?$AutoCleanup@V?$AutoDeleteVector@H@@PAH@@AAEXXZ
?ReleasePtr@?$AutoCleanup@V?$AutoDeleteVector@PAG@@PAPAG@@AAEXXZ
?ReleasePtr@?$AutoCleanup@V?$AutoDeleteVector@PBG@@PAPBG@@AAEXXZ
?ReleasePtr@?$AutoCleanup@V?$AutoDeleteVector@U_CONFIG_UPDATE@@@@PAU_CONFIG_UPDATE@@@@AAEXXZ
?ReleasePtr@?$AutoCleanup@V?$AutoDeleteVector@U_WINRS_CREATE_SHELL_ENVIRONMENT_VARIABLE@@@@PAU_WINRS_CREATE_SHELL_ENVIRONMENT_VARIABLE@@@@AAEXXZ
?ReleasePtr@?$AutoCleanup@V?$AutoDeleteVector@U_WINRS_RUN_COMMAND_ARG@@@@PAU_WINRS_RUN_COMMAND_ARG@@@@AAEXXZ
?ReleasePtr@?$AutoCleanup@V?$AutoDeleteVector@U_WSMAN_OPTION@@@@PAU_WSMAN_OPTION@@@@AAEXXZ
?ReleasePtr@?$AutoCleanup@V?$AutoDeleteVector@X@@PAX@@AAEXXZ
?ReleasePtr@?$AutoCleanup@V?$AutoFree@E@@PAE@@AAEXXZ
?ReleasePtr@?$AutoCleanup@V?$AutoLocklessItemRecycle@VPacket@@@@PAVPacket@@@@AAEXXZ
?ReleasePtr@?$AutoCleanup@V?$AutoRelease@UIAppHostAdminManager@@@@PAUIAppHostAdminManager@@@@AAEXXZ
?ReleasePtr@?$AutoCleanup@V?$AutoRelease@UIAppHostChildElementCollection@@@@PAUIAppHostChildElementCollection@@@@AAEXXZ
?ReleasePtr@?$AutoCleanup@V?$AutoRelease@UIAppHostConfigException@@@@PAUIAppHostConfigException@@@@AAEXXZ
?ReleasePtr@?$AutoCleanup@V?$AutoRelease@UIAppHostElement@@@@PAUIAppHostElement@@@@AAEXXZ
?ReleasePtr@?$AutoCleanup@V?$AutoRelease@UIAppHostElementCollection@@@@PAUIAppHostElementCollection@@@@AAEXXZ
?ReleasePtr@?$AutoCleanup@V?$AutoRelease@UIAppHostProperty@@@@PAUIAppHostProperty@@@@AAEXXZ
?ReleasePtr@?$AutoCleanup@V?$AutoRelease@UIAppHostPropertyCollection@@@@PAUIAppHostPropertyCollection@@@@AAEXXZ
?ReleasePtr@?$AutoCleanup@V?$AutoRelease@UIClientSecurity@@@@PAUIClientSecurity@@@@AAEXXZ
?ReleasePtr@?$AutoCleanup@V?$AutoRelease@UIEnumWbemClassObject@@@@PAUIEnumWbemClassObject@@@@AAEXXZ
?ReleasePtr@?$AutoCleanup@V?$AutoRelease@UIErrorInfo@@@@PAUIErrorInfo@@@@AAEXXZ
?ReleasePtr@?$AutoCleanup@V?$AutoRelease@UIUnknown@@@@PAUIUnknown@@@@AAEXXZ
?ReleasePtr@?$AutoCleanup@V?$AutoRelease@UIWbemClassObject@@@@PAUIWbemClassObject@@@@AAEXXZ
?ReleasePtr@?$AutoCleanup@V?$AutoRelease@UIWbemContext@@@@PAUIWbemContext@@@@AAEXXZ
?ReleasePtr@?$AutoCleanup@V?$AutoRelease@UIWbemLocator@@@@PAUIWbemLocator@@@@AAEXXZ
?ReleasePtr@?$AutoCleanup@V?$AutoRelease@UIWbemObjectTextSrc@@@@PAUIWbemObjectTextSrc@@@@AAEXXZ
?ReleasePtr@?$AutoCleanup@V?$AutoRelease@UIWbemPath@@@@PAUIWbemPath@@@@AAEXXZ
?ReleasePtr@?$AutoCleanup@V?$AutoRelease@UIWbemPathKeyList@@@@PAUIWbemPathKeyList@@@@AAEXXZ
?ReleasePtr@?$AutoCleanup@V?$AutoRelease@UIWbemQualifierSet@@@@PAUIWbemQualifierSet@@@@AAEXXZ
?ReleasePtr@?$AutoCleanup@V?$AutoRelease@UIWbemQuery@@@@PAUIWbemQuery@@@@AAEXXZ
?ReleasePtr@?$AutoCleanup@V?$AutoRelease@UIWbemServices@@@@PAUIWbemServices@@@@AAEXXZ
?ReleasePtr@?$AutoCleanup@V?$AutoRelease@VApplication@Client@WSMan@@@@PAVApplication@Client@WSMan@@@@AAEXXZ
?ReleasePtr@?$AutoCleanup@V?$AutoRelease@VCBaseConfigCache@@@@PAVCBaseConfigCache@@@@AAEXXZ
?ReleasePtr@?$AutoCleanup@V?$AutoRelease@VCClientConfigCache@@@@PAVCClientConfigCache@@@@AAEXXZ
?ReleasePtr@?$AutoCleanup@V?$AutoRelease@VCClientConfigSettings@@@@PAVCClientConfigSettings@@@@AAEXXZ
?ReleasePtr@?$AutoCleanup@V?$AutoRelease@VCCommonConfigSettings@@@@PAVCCommonConfigSettings@@@@AAEXXZ
?ReleasePtr@?$AutoCleanup@V?$AutoRelease@VCConfigCacheMap@CBaseConfigCache@@@@PAVCConfigCacheMap@CBaseConfigCache@@@@AAEXXZ
?ReleasePtr@?$AutoCleanup@V?$AutoRelease@VCConfigManager@@@@PAVCConfigManager@@@@AAEXXZ
?ReleasePtr@?$AutoCleanup@V?$AutoRelease@VCListenerCommand@@@@PAVCListenerCommand@@@@AAEXXZ
?ReleasePtr@?$AutoCleanup@V?$AutoRelease@VCListenerMasterOperation@@@@PAVCListenerMasterOperation@@@@AAEXXZ
?ReleasePtr@?$AutoCleanup@V?$AutoRelease@VCListenerReceive@@@@PAVCListenerReceive@@@@AAEXXZ
?ReleasePtr@?$AutoCleanup@V?$AutoRelease@VCListenerShell@@@@PAVCListenerShell@@@@AAEXXZ
?ReleasePtr@?$AutoCleanup@V?$AutoRelease@VCRemoteOperation@@@@PAVCRemoteOperation@@@@AAEXXZ
?ReleasePtr@?$AutoCleanup@V?$AutoRelease@VCRemoteSession@@@@PAVCRemoteSession@@@@AAEXXZ
?ReleasePtr@?$AutoCleanup@V?$AutoRelease@VCRequestContext@@@@PAVCRequestContext@@@@AAEXXZ
?ReleasePtr@?$AutoCleanup@V?$AutoRelease@VCServiceCommonConfigSettings@@@@PAVCServiceCommonConfigSettings@@@@AAEXXZ
?ReleasePtr@?$AutoCleanup@V?$AutoRelease@VCServiceConfigCache@@@@PAVCServiceConfigCache@@@@AAEXXZ
?ReleasePtr@?$AutoCleanup@V?$AutoRelease@VCServiceConfigSettings@@@@PAVCServiceConfigSettings@@@@AAEXXZ
?ReleasePtr@?$AutoCleanup@V?$AutoRelease@VCWSManEPR@@@@PAVCWSManEPR@@@@AAEXXZ
?ReleasePtr@?$AutoCleanup@V?$AutoRelease@VCWSManGroupPolicyCache@@@@PAVCWSManGroupPolicyCache@@@@AAEXXZ
?ReleasePtr@?$AutoCleanup@V?$AutoRelease@VCWSManGroupPolicyManager@@@@PAVCWSManGroupPolicyManager@@@@AAEXXZ
?ReleasePtr@?$AutoCleanup@V?$AutoRelease@VCWSManObject@@@@PAVCWSManObject@@@@AAEXXZ
?ReleasePtr@?$AutoCleanup@V?$AutoRelease@VCWSManResource@@@@PAVCWSManResource@@@@AAEXXZ
?ReleasePtr@?$AutoCleanup@V?$AutoRelease@VCWSManSession@@@@PAVCWSManSession@@@@AAEXXZ
?ReleasePtr@?$AutoCleanup@V?$AutoRelease@VCWinRSPluginConfigCache@@@@PAVCWinRSPluginConfigCache@@@@AAEXXZ
?ReleasePtr@?$AutoCleanup@V?$AutoRelease@VCWinRSPluginConfigSettings@@@@PAVCWinRSPluginConfigSettings@@@@AAEXXZ
?ReleasePtr@?$AutoCleanup@V?$AutoRelease@VCommand@Client@WSMan@@@@PAVCommand@Client@WSMan@@@@AAEXXZ
?ReleasePtr@?$AutoCleanup@V?$AutoRelease@VConfigNotification@@@@PAVConfigNotification@@@@AAEXXZ
?ReleasePtr@?$AutoCleanup@V?$AutoRelease@VConnectShellOperation@Client@WSMan@@@@PAVConnectShellOperation@Client@WSMan@@@@AAEXXZ
?ReleasePtr@?$AutoCleanup@V?$AutoRelease@VCreateShellOperation@Client@WSMan@@@@PAVCreateShellOperation@Client@WSMan@@@@AAEXXZ
?ReleasePtr@?$AutoCleanup@V?$AutoRelease@VDeleteShellOperation@Client@WSMan@@@@PAVDeleteShellOperation@Client@WSMan@@@@AAEXXZ
?ReleasePtr@?$AutoCleanup@V?$AutoRelease@VDisconnectOperation@Client@WSMan@@@@PAVDisconnectOperation@Client@WSMan@@@@AAEXXZ
?ReleasePtr@?$AutoCleanup@V?$AutoRelease@VEnumSinkEx@@@@PAVEnumSinkEx@@@@AAEXXZ
?ReleasePtr@?$AutoCleanup@V?$AutoRelease@VGeneralSinkEx@@@@PAVGeneralSinkEx@@@@AAEXXZ
?ReleasePtr@?$AutoCleanup@V?$AutoRelease@VHostMappingTable@@@@PAVHostMappingTable@@@@AAEXXZ
?ReleasePtr@?$AutoCleanup@V?$AutoRelease@VIISConfigSettings@@@@PAVIISConfigSettings@@@@AAEXXZ
?ReleasePtr@?$AutoCleanup@V?$AutoRelease@VIPCSoapProcessor@@@@PAVIPCSoapProcessor@@@@AAEXXZ
?ReleasePtr@?$AutoCleanup@V?$AutoRelease@VIRequestContext@@@@PAVIRequestContext@@@@AAEXXZ
?ReleasePtr@?$AutoCleanup@V?$AutoRelease@VISubscription@@@@PAVISubscription@@@@AAEXXZ
?ReleasePtr@?$AutoCleanup@V?$AutoRelease@VInboundRequestDetails@@@@PAVInboundRequestDetails@@@@AAEXXZ
?ReleasePtr@?$AutoCleanup@V?$AutoRelease@VProxyManager@Client@WSMan@@@@PAVProxyManager@Client@WSMan@@@@AAEXXZ
?ReleasePtr@?$AutoCleanup@V?$AutoRelease@VProxySelection@Client@WSMan@@@@PAVProxySelection@Client@WSMan@@@@AAEXXZ
?ReleasePtr@?$AutoCleanup@V?$AutoRelease@VPushSubscribeOperation@@@@PAVPushSubscribeOperation@@@@AAEXXZ
?ReleasePtr@?$AutoCleanup@V?$AutoRelease@VPushSubscription@@@@PAVPushSubscription@@@@AAEXXZ
?ReleasePtr@?$AutoCleanup@V?$AutoRelease@VReceiveOperation@Client@WSMan@@@@PAVReceiveOperation@Client@WSMan@@@@AAEXXZ
?ReleasePtr@?$AutoCleanup@V?$AutoRelease@VReconnectOperation@Client@WSMan@@@@PAVReconnectOperation@Client@WSMan@@@@AAEXXZ
?ReleasePtr@?$AutoCleanup@V?$AutoRelease@VSendOperation@Client@WSMan@@@@PAVSendOperation@Client@WSMan@@@@AAEXXZ
?ReleasePtr@?$AutoCleanup@V?$AutoRelease@VShell@Client@WSMan@@@@PAVShell@Client@WSMan@@@@AAEXXZ
?ReleasePtr@?$AutoCleanup@V?$AutoRelease@VShellInfo@@@@PAVShellInfo@@@@AAEXXZ
?ReleasePtr@?$AutoCleanup@V?$AutoRelease@VSignalOperation@Client@WSMan@@@@PAVSignalOperation@Client@WSMan@@@@AAEXXZ
?ReleasePtr@?$AutoCleanup@V?$AutoRelease@VUserRecord@@@@PAVUserRecord@@@@AAEXXZ
?ReleasePtr@?$AutoCleanup@V?$AutoRelease@VWSManHttpListener@@@@PAVWSManHttpListener@@@@AAEXXZ
?ReleasePtr@?$AutoCleanup@V?$AutoReleaseEx@VHostMappingTableEntry@@@@PAVHostMappingTableEntry@@@@AAEXXZ
?ReleasePtr@?$AutoCleanup@V?$AutoReleaseEx@VShell@Client@WSMan@@@@PAVShell@Client@WSMan@@@@AAEXXZ
?ReleasePtr@?$AutoCleanup@VAutoBstr@@PAG@@AAEXXZ
?ReleasePtr@?$AutoCleanup@VAutoBstrNoAlloc@@PAG@@AAEXXZ
?ReleasePtr@?$AutoCleanup@VAutoCertContext@@PBU_CERT_CONTEXT@@@@AAEXXZ
?ReleasePtr@?$AutoCleanup@VAutoChainContext@@PBU_CERT_CHAIN_CONTEXT@@@@AAEXXZ
?ReleasePtr@?$AutoCleanup@VAutoCoTaskMemFree@@PAX@@AAEXXZ
?ReleasePtr@?$AutoCleanup@VAutoFwXmlCloseParser@@PAX@@AAEXXZ
?ReleasePtr@?$AutoCleanup@VAutoHandle@@PAX@@AAEXXZ
?ReleasePtr@?$AutoCleanup@VAutoImpersonateUser@@PAX@@AAEXXZ
?ReleasePtr@?$AutoCleanup@VAutoLibrary@@PAUHINSTANCE__@@@@AAEXXZ
?ReleasePtr@?$AutoCleanup@VAutoLocalFree@@PAX@@AAEXXZ
?ReleasePtr@?$AutoCleanup@VAutoMIClass@@PAU_MI_Class@@@@AAEXXZ
?ReleasePtr@?$AutoCleanup@VAutoMIInstance@@PAU_MI_Instance@@@@AAEXXZ
?ReleasePtr@?$AutoCleanup@VAutoObject@@PAUWSMAN_OBJECT@@@@AAEXXZ
?ReleasePtr@?$AutoCleanup@VAutoRegKey@@PAUHKEY__@@@@AAEXXZ
?ReleasePtr@?$AutoCleanup@VAutoSecurityDescriptor@@PAX@@AAEXXZ
?ReleasePtr@?$AutoCleanup@VAutoWaitHandle@@PAX@@AAEXXZ
?ReleaseQuota@UserRecord@@QAEXW4OperationType@@PBVProvider@Catalog@@@Z
?ReleaseShared@FastLock@@QAEXXZ
?Remove@?$SafeMap@PAVCListenerOperation@@UEmpty@@V?$SafeSet_Iterator@PAVCListenerOperation@@@@@@QAE_NABQAVCListenerOperation@@@Z
?Remove@?$SafeMap@UUserKey@@PAVBlockedRecord@@V?$SafeMap_Iterator@UUserKey@@PAVBlockedRecord@@@@@@QAE_NABUUserKey@@@Z
?Remove@?$SafeMap@VStringKeyCI@@KV?$SafeMap_Iterator@VStringKeyCI@@K@@@@QAE_NABVStringKeyCI@@@Z
?Remove@?$SafeMap@VStringKeyCI@@UUSER_CONTEXT_INFO@WSManHttpListener@@V?$SafeMap_Iterator@VStringKeyCI@@UUSER_CONTEXT_INFO@WSManHttpListener@@@@@@QAE_NABVStringKeyCI@@@Z
?Remove@?$SafeMap@VStringKeyStore@@PAVExpiredOperationIdRecord@@V?$SafeMap_Iterator@VStringKeyStore@@PAVExpiredOperationIdRecord@@@@@@QAE_NABVStringKeyStore@@@Z
?Remove@?$SafeMap@VStringKeyStore@@PAVServerFullDuplexChannel@@V?$SafeMap_Iterator@VStringKeyStore@@PAVServerFullDuplexChannel@@@@@@QAE_NABVStringKeyStore@@@Z
?Remove@?$SafeMap@_KPAVSendPacketArgs@RobustConnectionBuffer@@V?$SafeMap_Iterator@_KPAVSendPacketArgs@RobustConnectionBuffer@@@@@@QAE_NAB_K@Z
?RemoveAll@CBaseConfigCache@@KGXPAVFastLock@@AAV?$AutoRelease@VCConfigCacheMap@CBaseConfigCache@@@@@Z
?RemoveFromMap@CBaseConfigCache@@AAEHXZ
?RemoveHttpsBinding@@YGXPBG@Z
?RemoveHttpsCertificate@@YGXPBG0@Z
?RemoveObserver@CServiceConfigCache@@AAEHPAVIServiceConfigObserver@@@Z
?RemovePluginXmlNewAttrForThresholdOrGreater@@YGHPAVIRequestContext@@@Z
?ReportEventW@EventLog@@SGXGKGPAPBG@Z
?Reset@?$PacketElement@K@PacketParser@@QAEX_N@Z
?Reset@?$PacketElement@PAU_FWXML_ELEMENT@@@PacketParser@@QAEX_N@Z
?Reset@?$PacketElement@PBG@PacketParser@@QAEX_N@Z
?Reset@?$PacketElement@_K@PacketParser@@QAEX_N@Z
?Reset@?$SafeMap_Iterator@PAVCCertMapping@@UEmpty@@@@QAEXXZ
?Reset@?$SafeMap_Iterator@PAVCListenerOperation@@UEmpty@@@@QAEXXZ
?Reset@?$SafeMap_Iterator@PAVCShellUriSettings@@UEmpty@@@@QAEXXZ
?Reset@?$SafeMap_Iterator@PAXUEmpty@@@@QAEXXZ
?Reset@?$SafeMap_Iterator@UPluginKey@@K@@QAEXXZ
?Reset@?$SafeMap_Iterator@UUserKey@@PAVBlockedRecord@@@@QAEXXZ
?Reset@?$SafeMap_Iterator@VCertThumbprintKey@@VCertThumbprintMappedSet@CServiceConfigSettings@@@@QAEXXZ
?Reset@?$SafeMap_Iterator@VKey@Locale@@K@@QAEXXZ
?Reset@?$SafeMap_Iterator@VStringKeyCI@@K@@QAEXXZ
?Reset@?$SafeMap_Iterator@VStringKeyCI@@UUSER_CONTEXT_INFO@WSManHttpListener@@@@QAEXXZ
?Reset@?$SafeMap_Iterator@VStringKeyStore@@PAVExpiredOperationIdRecord@@@@QAEXXZ
?Reset@?$SafeMap_Iterator@VStringKeyStore@@PAVServerFullDuplexChannel@@@@QAEXXZ
?Reset@?$SafeMap_Iterator@W4WSManSessionOption@@PAVOptionValue@SessionOptions@Client@WSMan@@@@QAEXXZ
?Reset@?$SafeMap_Iterator@_KPAVSendPacketArgs@RobustConnectionBuffer@@@@QAEXXZ
?Reset@BufferFormatter@@UAEXXZ
?Reset@CErrorContext@@UAEXH@Z
?Reset@CRequestContext@@UAEXH@Z
?Reset@CircularBufferFormatter@@UAEXXZ
?Reset@Locale@@QAEXXZ
?Reset@TSTRBUFFER@@QAEXXZ
?Reset@UserRecord@@QAEXXZ
?ResetProfileCount@UserRecord@@QAEXXZ
?ResetRobustConnectionHeaders@PacketParser@@AAEXXZ
?Resize@RBUFFER@@QAEHI@Z
?Resize@RBUFFER@@QAEHII@Z
?ResizeOptionList@CWSManResourceNoResourceUri@@IAE_NIAAVIRequestContext@@@Z
?RestoreAllPrivileges@@YGHPAU_TOKEN_PRIVILEGES@@@Z
?RetrieveCertMappingIdentity@CConfigManager@@AAEHPAUHKEY__@@PAVCERTMAPPING_IDENTITY@@@Z
?RetrieveListenerIdentity@CConfigManager@@AAEHPAUHKEY__@@PAGPAPAGPAVLISTENER_IDENTITY@@@Z
?RetrieveShellUriIdentity@CConfigManager@@AAEHPAUHKEY__@@PAVSHELLURI_IDENTITY@@@Z
?RetrieveTableIdentity@CConfigManager@@AAEHPAUHKEY__@@PAVWSMANCONFIGTABLE_IDENTITY@@@Z
?RevertToSelf@CSecurity@@SGHXZ
?RtlSecureZeroMemory@XmlReader@@QAEXXZ
?SafeStringToUI64@@YGJPBGEHPA_KPAVIRequestContext@@K@Z
?SetBOM@PacketFormatter@@QAE_NPAVPacket@@@Z
?SetBOM@PacketFormatter@@QAE_NPBEK@Z
?SetCIM_Error@CErrorContext@@UAEXXZ
?SetCIM_Error@CRequestContext@@UAEXXZ
?SetCharset@PacketFormatter@@QAEXW4Charset@1@@Z
?SetCharset@PacketFormatter@@QAE_NPBDK_NPA_N@Z
?SetCharsetAndBom@PacketFormatter@@QAEXW4Charset@1@0@Z
?SetConfigToUseDefaults@CErrorContext@@UAEXH@Z
?SetErrorAction@ExtendedSemantic@@QAEXW4_MI_OperationCallback_ResponseType@@W4_MI_CallbackMode@@@Z
?SetErrorState@CBaseConfigCache@@AAEXPAVCRequestContext@@K@Z
?SetExactCharSize@TSTRBUFFER@@QAEJI@Z
?SetExtendedErrorString@CErrorContext@@UAEXPAG@Z
?SetExtendedErrorString@CRequestContext@@UAEXPAG@Z
?SetExtraLogInfo@CErrorContext@@QAEXPBG000@Z
?SetFault@CErrorContext@@UAEXKKKPBG@Z
?SetFault@CRequestContext@@EAEXKKKPBG@Z
?SetFinishValue@ConfigRegistry@@IAEHPAVIRequestContext@@@Z
?SetFormatterMode@BufferFormatter@@QAEXW4Charset@PacketFormatter@@0@Z
?SetFragmentDialect@CWSManResourceNoResourceUri@@QAEHPBGPAVIRequestContext@@@Z
?SetFragmentPath@CWSManResourceNoResourceUri@@QAEHPBGPAVIRequestContext@@@Z
?SetGeneratingError@CErrorContext@@UAEXXZ
?SetLocale@CRequestContext@@QAE_NPBGK@Z
?SetLocale@Locale@@QAE_NKPBGPAVIRequestContext@@@Z
?SetMachineName@CRequestContext@@QAEKPBG@Z
?SetMachineName@CRequestContext@@QAEKPBGI@Z
?SetMachineName@CRequestContext@@QAEKXZ
?SetMaxEnvelopeSize@CircularBufferFormatter@@QAEXK@Z
?SetOptionsMustUnderstandValue@CWSManResourceNoResourceUri@@QAEXH@Z
?SetProfileHandle@UserRecord@@QAEX_J@Z
?SetProviderFailure@CErrorContext@@UAEXH@Z
?SetSecurity@CWSManSecurityUI@@UAGJKPAX@Z
?SetSize@TSTRBUFFER@@QAEJII@Z
?SetSizeInUse@SBUFFER@@QAEXI@Z
?SetThreadUILanguage@Locale@@QAE_NPAVIRequestContext@@@Z
?SetUpdateMode@BufferFormatter@@UAEXW4Mode@1@@Z
?SetUpdateMode@CircularBufferFormatter@@UAEXW4Mode@BufferFormatter@@@Z
?SetUri@CWSManResource@@QAEHPBGPAVIRequestContext@@@Z
?SetValid@RBUFFER@@IAEXH@Z
?SetXml@ReferenceParameters@PacketParser@@AAEKAAVBufferFormatter@@PAU_FWXML_ELEMENT@@@Z
?Shutdown@CBaseConfigCache@@IAEXXZ
?Shutdown@CConfigManager@@SGHXZ
?Shutdown@CWSManGroupPolicyManager@@SGHXZ
?Shutdown@ChildLifeTimeManager@@QAEXXZ
?ShutdownLocaleMap@Locale@@SGXXZ
?Size@?$SafeMap@PAVCListenerOperation@@UEmpty@@V?$SafeSet_Iterator@PAVCListenerOperation@@@@@@QBEHXZ
?Size@?$SafeMap@UUserKey@@PAVBlockedRecord@@V?$SafeMap_Iterator@UUserKey@@PAVBlockedRecord@@@@@@QBEHXZ
?Size@?$SafeMap@VCertThumbprintKey@@VCertThumbprintMappedSet@CServiceConfigSettings@@V?$SafeMap_Iterator@VCertThumbprintKey@@VCertThumbprintMappedSet@CServiceConfigSettings@@@@@@QBEHXZ
?Size@?$SafeMap@VStringKeyCI@@KV?$SafeMap_Iterator@VStringKeyCI@@K@@@@QBEHXZ
?Size@?$SafeMap@VStringKeyCI@@UEmpty@@V?$SafeSet_Iterator@VStringKeyCI@@@@@@QBEHXZ
?Size@?$SafeMap@VStringKeyStore@@PAVExpiredOperationIdRecord@@V?$SafeMap_Iterator@VStringKeyStore@@PAVExpiredOperationIdRecord@@@@@@QBEHXZ
?SkipOrphans@?$SafeMap_Iterator@PAVCCertMapping@@UEmpty@@@@IAEXXZ
?SkipOrphans@?$SafeMap_Iterator@PAVCListenerOperation@@UEmpty@@@@IAEXXZ
?SkipOrphans@?$SafeMap_Iterator@PAVCShellUriSettings@@UEmpty@@@@IAEXXZ
?SkipOrphans@?$SafeMap_Iterator@PAXUEmpty@@@@IAEXXZ
?SkipOrphans@?$SafeMap_Iterator@UPluginKey@@K@@IAEXXZ
?SkipOrphans@?$SafeMap_Iterator@UUserKey@@PAVBlockedRecord@@@@IAEXXZ
?SkipOrphans@?$SafeMap_Iterator@VCertThumbprintKey@@VCertThumbprintMappedSet@CServiceConfigSettings@@@@IAEXXZ
?SkipOrphans@?$SafeMap_Iterator@VKey@Locale@@K@@IAEXXZ
?SkipOrphans@?$SafeMap_Iterator@VStringKeyCI@@K@@IAEXXZ
?SkipOrphans@?$SafeMap_Iterator@VStringKeyCI@@UUSER_CONTEXT_INFO@WSManHttpListener@@@@IAEXXZ
?SkipOrphans@?$SafeMap_Iterator@VStringKeyStore@@PAVExpiredOperationIdRecord@@@@IAEXXZ
?SkipOrphans@?$SafeMap_Iterator@VStringKeyStore@@PAVServerFullDuplexChannel@@@@IAEXXZ
?SkipOrphans@?$SafeMap_Iterator@W4WSManSessionOption@@PAVOptionValue@SessionOptions@Client@WSMan@@@@IAEXXZ
?SkipOrphans@?$SafeMap_Iterator@_KPAVSendPacketArgs@RobustConnectionBuffer@@@@IAEXXZ
?StartSoapProcessor@@YGHXZ
?StopSoapProcessor@@YGHXZ
?Storage@?$AutoCleanup@V?$AutoDelete@G@@PAG@@QAEPAPAGXZ
?Storage@?$AutoCleanup@V?$AutoDelete@UIPRange@CWSManIPFilter@@@@PAUIPRange@CWSManIPFilter@@@@QAEPAPAUIPRange@CWSManIPFilter@@XZ
?Storage@?$AutoCleanup@V?$AutoDelete@VEnumSinkEx@@@@PAVEnumSinkEx@@@@QAEPAPAVEnumSinkEx@@XZ
?Storage@?$AutoCleanup@V?$AutoDelete@VGeneralSinkEx@@@@PAVGeneralSinkEx@@@@QAEPAPAVGeneralSinkEx@@XZ
?Storage@?$AutoCleanup@V?$AutoDelete@VIQueryDASHSMASHInterface@@@@PAVIQueryDASHSMASHInterface@@@@QAEPAPAVIQueryDASHSMASHInterface@@XZ
?Storage@?$AutoCleanup@V?$AutoDelete@VISpecification@@@@PAVISpecification@@@@QAEPAPAVISpecification@@XZ
?Storage@?$AutoCleanup@V?$AutoDelete@VPacketCreator@@@@PAVPacketCreator@@@@QAEPAPAVPacketCreator@@XZ
?Storage@?$AutoCleanup@V?$AutoDelete@VTSTRBUFFER@@@@PAVTSTRBUFFER@@@@QAEPAPAVTSTRBUFFER@@XZ
?Storage@?$AutoCleanup@V?$AutoDelete@VWmiEnumContext@@@@PAVWmiEnumContext@@@@QAEPAPAVWmiEnumContext@@XZ
?Storage@?$AutoCleanup@V?$AutoDelete@VXmlReader@@@@PAVXmlReader@@@@QAEPAPAVXmlReader@@XZ
?Storage@?$AutoCleanup@V?$AutoDeleteVector@$$CBG@@PBG@@QAEPAPBGXZ
?Storage@?$AutoCleanup@V?$AutoDeleteVector@E@@PAE@@QAEPAPAEXZ
?Storage@?$AutoCleanup@V?$AutoDeleteVector@G@@PAG@@QAEPAPAGXZ
?Storage@?$AutoCleanup@V?$AutoDeleteVector@PAG@@PAPAG@@QAEPAPAPAGXZ
?Storage@?$AutoCleanup@V?$AutoDeleteVector@PBG@@PAPBG@@QAEPAPAPBGXZ
?Storage@?$AutoCleanup@V?$AutoDeleteVector@U_WINRS_CREATE_SHELL_ENVIRONMENT_VARIABLE@@@@PAU_WINRS_CREATE_SHELL_ENVIRONMENT_VARIABLE@@@@QAEPAPAU_WINRS_CREATE_SHELL_ENVIRONMENT_VARIABLE@@XZ
?Storage@?$AutoCleanup@V?$AutoDeleteVector@U_WINRS_RUN_COMMAND_ARG@@@@PAU_WINRS_RUN_COMMAND_ARG@@@@QAEPAPAU_WINRS_RUN_COMMAND_ARG@@XZ
?Storage@?$AutoCleanup@V?$AutoDeleteVector@X@@PAX@@QAEPAPAXXZ
?Storage@?$AutoCleanup@V?$AutoFree@E@@PAE@@QAEPAPAEXZ
?Storage@?$AutoCleanup@V?$AutoLocklessItemRecycle@VPacket@@@@PAVPacket@@@@QAEPAPAVPacket@@XZ
?Storage@?$AutoCleanup@V?$AutoRelease@UIAppHostAdminManager@@@@PAUIAppHostAdminManager@@@@QAEPAPAUIAppHostAdminManager@@XZ
?Storage@?$AutoCleanup@V?$AutoRelease@UIAppHostChildElementCollection@@@@PAUIAppHostChildElementCollection@@@@QAEPAPAUIAppHostChildElementCollection@@XZ
?Storage@?$AutoCleanup@V?$AutoRelease@UIAppHostConfigException@@@@PAUIAppHostConfigException@@@@QAEPAPAUIAppHostConfigException@@XZ
?Storage@?$AutoCleanup@V?$AutoRelease@UIAppHostElement@@@@PAUIAppHostElement@@@@QAEPAPAUIAppHostElement@@XZ
?Storage@?$AutoCleanup@V?$AutoRelease@UIAppHostElementCollection@@@@PAUIAppHostElementCollection@@@@QAEPAPAUIAppHostElementCollection@@XZ
?Storage@?$AutoCleanup@V?$AutoRelease@UIAppHostProperty@@@@PAUIAppHostProperty@@@@QAEPAPAUIAppHostProperty@@XZ
?Storage@?$AutoCleanup@V?$AutoRelease@UIAppHostPropertyCollection@@@@PAUIAppHostPropertyCollection@@@@QAEPAPAUIAppHostPropertyCollection@@XZ
?Storage@?$AutoCleanup@V?$AutoRelease@UIClientSecurity@@@@PAUIClientSecurity@@@@QAEPAPAUIClientSecurity@@XZ
?Storage@?$AutoCleanup@V?$AutoRelease@UIEnumWbemClassObject@@@@PAUIEnumWbemClassObject@@@@QAEPAPAUIEnumWbemClassObject@@XZ
?Storage@?$AutoCleanup@V?$AutoRelease@UIErrorInfo@@@@PAUIErrorInfo@@@@QAEPAPAUIErrorInfo@@XZ
?Storage@?$AutoCleanup@V?$AutoRelease@UIUnknown@@@@PAUIUnknown@@@@QAEPAPAUIUnknown@@XZ
?Storage@?$AutoCleanup@V?$AutoRelease@UIWbemClassObject@@@@PAUIWbemClassObject@@@@QAEPAPAUIWbemClassObject@@XZ
?Storage@?$AutoCleanup@V?$AutoRelease@UIWbemContext@@@@PAUIWbemContext@@@@QAEPAPAUIWbemContext@@XZ
?Storage@?$AutoCleanup@V?$AutoRelease@UIWbemLocator@@@@PAUIWbemLocator@@@@QAEPAPAUIWbemLocator@@XZ
?Storage@?$AutoCleanup@V?$AutoRelease@UIWbemObjectTextSrc@@@@PAUIWbemObjectTextSrc@@@@QAEPAPAUIWbemObjectTextSrc@@XZ
?Storage@?$AutoCleanup@V?$AutoRelease@UIWbemPath@@@@PAUIWbemPath@@@@QAEPAPAUIWbemPath@@XZ
?Storage@?$AutoCleanup@V?$AutoRelease@UIWbemPathKeyList@@@@PAUIWbemPathKeyList@@@@QAEPAPAUIWbemPathKeyList@@XZ
?Storage@?$AutoCleanup@V?$AutoRelease@UIWbemQualifierSet@@@@PAUIWbemQualifierSet@@@@QAEPAPAUIWbemQualifierSet@@XZ
?Storage@?$AutoCleanup@V?$AutoRelease@UIWbemQuery@@@@PAUIWbemQuery@@@@QAEPAPAUIWbemQuery@@XZ
?Storage@?$AutoCleanup@V?$AutoRelease@UIWbemServices@@@@PAUIWbemServices@@@@QAEPAPAUIWbemServices@@XZ
?Storage@?$AutoCleanup@V?$AutoRelease@VCWSManEPR@@@@PAVCWSManEPR@@@@QAEPAPAVCWSManEPR@@XZ
?Storage@?$AutoCleanup@V?$AutoRelease@VCWinRSPluginConfigCache@@@@PAVCWinRSPluginConfigCache@@@@QAEPAPAVCWinRSPluginConfigCache@@XZ
?Storage@?$AutoCleanup@V?$AutoRelease@VCommand@Client@WSMan@@@@PAVCommand@Client@WSMan@@@@QAEPAPAVCommand@Client@WSMan@@XZ
?Storage@?$AutoCleanup@V?$AutoRelease@VEnumSinkEx@@@@PAVEnumSinkEx@@@@QAEPAPAVEnumSinkEx@@XZ
?Storage@?$AutoCleanup@V?$AutoRelease@VGeneralSinkEx@@@@PAVGeneralSinkEx@@@@QAEPAPAVGeneralSinkEx@@XZ
?Storage@?$AutoCleanup@V?$AutoRelease@VIRequestContext@@@@PAVIRequestContext@@@@QAEPAPAVIRequestContext@@XZ
?Storage@?$AutoCleanup@V?$AutoRelease@VReceiveOperation@Client@WSMan@@@@PAVReceiveOperation@Client@WSMan@@@@QAEPAPAVReceiveOperation@Client@WSMan@@XZ
?Storage@?$AutoCleanup@V?$AutoRelease@VSendOperation@Client@WSMan@@@@PAVSendOperation@Client@WSMan@@@@QAEPAPAVSendOperation@Client@WSMan@@XZ
?Storage@?$AutoCleanup@V?$AutoRelease@VShell@Client@WSMan@@@@PAVShell@Client@WSMan@@@@QAEPAPAVShell@Client@WSMan@@XZ
?Storage@?$AutoCleanup@V?$AutoRelease@VSignalOperation@Client@WSMan@@@@PAVSignalOperation@Client@WSMan@@@@QAEPAPAVSignalOperation@Client@WSMan@@XZ
?Storage@?$AutoCleanup@VAutoBstr@@PAG@@QAEPAPAGXZ
?Storage@?$AutoCleanup@VAutoBstrNoAlloc@@PAG@@QAEPAPAGXZ
?Storage@?$AutoCleanup@VAutoCertContext@@PBU_CERT_CONTEXT@@@@QAEPAPBU_CERT_CONTEXT@@XZ
?Storage@?$AutoCleanup@VAutoChainContext@@PBU_CERT_CHAIN_CONTEXT@@@@QAEPAPBU_CERT_CHAIN_CONTEXT@@XZ
?Storage@?$AutoCleanup@VAutoHandle@@PAX@@QAEPAPAXXZ
?Storage@?$AutoCleanup@VAutoImpersonateUser@@PAX@@QAEPAPAXXZ
?Storage@?$AutoCleanup@VAutoLocalFree@@PAX@@QAEPAPAXXZ
?Storage@?$AutoCleanup@VAutoMIClass@@PAU_MI_Class@@@@QAEPAPAU_MI_Class@@XZ
?Storage@?$AutoCleanup@VAutoMIInstance@@PAU_MI_Instance@@@@QAEPAPAU_MI_Instance@@XZ
?Storage@?$AutoCleanup@VAutoRegKey@@PAUHKEY__@@@@QAEPAPAUHKEY__@@XZ
?Storage@?$AutoCleanup@VAutoSecurityDescriptor@@PAX@@QAEPAPAXXZ
?Storage@?$AutoCleanup@VAutoWaitHandle@@PAX@@QAEPAPAXXZ
?StoreData@CWSManResource@@AAEHPAVIRequestContext@@PBG11PAU_WSMAN_SELECTOR_SET@@PAU_WSMAN_OPTION_SET@@@Z
?StoreData@CWSManResource@@QAEHPAVIRequestContext@@PBG@Z
?StoreDataFromResourceLocator@CWSManResource@@AAEHPAVIRequestContext@@PAU_WSMAN_RESOURCE_LOCATOR@@@Z
?StoreExpansion@CResourceAlias@@AAEXPBGPAU_ALIAS_INFORMATION@@@Z
?StreamingOutput@ExtendedSemantic@@2KB DATA
?StringCchEndsWithCI@@YGHPBG0@Z
?StringCchEquals@@YGHPBG0@Z
?StringCchEqualsCI@@YGHPBG0@Z
?StringCchStartsWith@@YGHPBG0@Z
?StringCchStartsWithCI@@YGHPBG0@Z
?StringConcatenate@CWSManResourceNoResourceUri@@IAEHAAPAGAAKKPAG@Z
?StringIsBlank@@YGHPBG@Z
?StringToDword@@YGHPBDPAK@Z
?StringToDword@@YGHPBGPAK@Z
?StringTrimWhitespace@@YGPAGPAG@Z
?Subscribe@CWSManGroupPolicyManager@@UAEHPAVIRequestContext@@PAVIWSManGroupPolicyObserver@@H@Z
?TruncateAt@TSTRBUFFER@@QAEXI@Z
?TryAcquire@CWSManCriticalSection@@QAEHXZ
?UnSubscribe@CWSManGroupPolicyManager@@UAEHPAVIRequestContext@@PAVIWSManGroupPolicyObserver@@@Z
?UninstallMigration@@YGHPAVIRequestContext@@@Z
?UnregisterChild@ChildLifeTimeManager@@QAEXXZ
?UnregisterPolicyNotification@CWSManGroupPolicyManager@@AAEHXZ
?Up@?$LoaderSerializer@VSubscriptionManager@@$01@@AAEJXZ
?UpdateCredentialsInCredmanStore@CConfigManager@@SGHPAVIRequestContext@@PAG1@Z
?UpdateHttpsBinding@@YGHPAVIRequestContext@@PBG1PAHHH@Z
?UpdateHttpsCertificate@@YGHPAVIRequestContext@@PBG11PAHHU_GUID@@@Z
?UpdateKey@CWSManResourceNoResourceUri@@QAEHPAVIRequestContext@@PBG1@Z
?Uri@CResourceAlias@@QAEPBGXZ
?UseClientToken@UserRecord@@QAE_NXZ
?UseDefaultConfig@CErrorContext@@UBEHXZ
?UsingDefaultLCID@Locale@@QAE_NXZ
?Validate@Locale@@SG_NPAU_WSMAN_DATA@@@Z
?Validate@Locale@@SG_NPBG@Z
?ValidateCBTHardeningLevel@ConfigRegistry@@IAEHPAVIRequestContext@@PBG@Z
?ValidateCertificateHash@ConfigRegistry@@IAEHPAVIRequestContext@@PBG111@Z
?ValidateHeaders@PacketParser@@QAEHPAVIRequestContext@@K@Z
?ValidateHostnameAndCertificateCN@ConfigRegistry@@IAEHPAVIRequestContext@@PBG1@Z
?ValidateIPFilter@ConfigRegistry@@IAEHPAVIRequestContext@@W4ConfigSetting@@PBG@Z
?ValidateInt@CWSManGroupPolicyManager@@AAEHPAVIRequestContext@@PBU_WSMAN_POLICY_INFO@@K@Z
?ValidateInt@ConfigRegistry@@IAEHPAVIRequestContext@@PAU_CONFIG_INFO@@KPBG@Z
?ValidateString@CWSManGroupPolicyManager@@AAEHPAVIRequestContext@@PBU_WSMAN_POLICY_INFO@@PBG@Z
?ValidateString@ConfigRegistry@@IAEHPAVIRequestContext@@PAU_CONFIG_INFO@@PBG@Z
?ValidateTrustedHosts@ConfigRegistry@@IAEHPAVIRequestContext@@PBG@Z
?ValidateUrlPrefix@ConfigRegistry@@IAEHPAVIRequestContext@@PBG@Z
?Verbose@ExtendedSemantic@@2KB DATA
?VerifyState@RBUFFER@@IBEXXZ
?WSManError@@YGXPBGK0KPAVIRequestContext@@@Z
?WSManMemoryOperation@@YGHW4WSMANMEMOPERATION@@PAXKK@Z
?WSManPostThreadMessageW@@YGHKIIJ@Z
?WaitForAllChildrenToUnregister@ChildLifeTimeManager@@QAEXK@Z
?WaitForConditionVar@CWSManCriticalSectionWithConditionVar@@QAEKK@Z
?WaitForMore@PacketParser@@UAE_NXZ
?WakeAllWaitingForConditionVar@CWSManCriticalSectionWithConditionVar@@QAEXXZ
?WakeAllWaitingOnNoOfChildren@ChildLifeTimeManager@@AAEXXZ
?Warning@EventLog@@SGXK@Z
?Warning@EventLog@@SGXKGPAPBG@Z
?Warning@EventLog@@SGXKPBG@Z
?Warning@ExtendedSemantic@@2KB DATA
?WatchForChanges@CServiceConfigCache@@QAEPAVCServiceWatcher@1@PAVIRequestContext@@PAVIServiceConfigObserver@@@Z
?WrapperCoSetProxyBlanket@@YGJPAUIUnknown@@KKPAGKKPAXKW4BehaviourForNoInterfaceError@@@Z
?Write@EventHandler@WSMan@@SGXABU_EVENT_DESCRIPTOR@@KPAU_EVENT_DATA_DESCRIPTOR@@@Z
?WriteCredentialsToCredmanStore@CConfigManager@@SGHPAVIRequestContext@@PAG1H@Z
?WriteSoapA@EventHandler@WSMan@@SGXABU_EVENT_DESCRIPTOR@@PBDK@Z
?WriteSoapMessageA@EventHandler@WSMan@@AAEXABU_EVENT_DESCRIPTOR@@PBDK@Z
?WriteSoapMessageW@EventHandler@WSMan@@AAEXABU_EVENT_DESCRIPTOR@@PBGK@Z
?WriteSoapMessageW_BE@EventHandler@WSMan@@AAEXABU_EVENT_DESCRIPTOR@@PBGK@Z
?WriteSoapW@EventHandler@WSMan@@SGXABU_EVENT_DESCRIPTOR@@PBGK@Z
?WriteSoapW_BE@EventHandler@WSMan@@SGXABU_EVENT_DESCRIPTOR@@PBGK@Z
?_PolicyChangedCallback@CWSManGroupPolicyManager@@CGXPAXE@Z
?back@?$SimpleQueue@T_LARGE_INTEGER@@@@QBE?BT_LARGE_INTEGER@@XZ
?empty@?$SimpleQueue@T_LARGE_INTEGER@@@@QBE_NXZ
?front@?$SimpleQueue@T_LARGE_INTEGER@@@@QBE?BT_LARGE_INTEGER@@XZ
?g_Resources@Locale@@0V?$Loader@VResources@Locale@@$0A@@@A DATA
?isValid@?$SafeSet@PAVCListenerOperation@@@@QBE_NXZ
?m_migContext@ConfigRegistry@@2PAVWSManMigrationContext@@A DATA
?pop@?$SimpleQueue@T_LARGE_INTEGER@@@@QAEXXZ
?push@?$SimpleQueue@T_LARGE_INTEGER@@@@QAEKT_LARGE_INTEGER@@@Z
?s_cacheMap@CClientConfigCache@@0V?$AutoRelease@VCConfigCacheMap@CBaseConfigCache@@@@A DATA
?s_cacheMap@CServiceConfigCache@@0V?$AutoRelease@VCConfigCacheMap@CBaseConfigCache@@@@A DATA
?s_cacheMap@CWinRSPluginConfigCache@@0V?$AutoRelease@VCConfigCacheMap@CBaseConfigCache@@@@A DATA
?s_config@CConfigManager@@0V?$AutoRelease@VCConfigManager@@@@A DATA
?s_lock@CConfigManager@@0VFastLock@@A DATA
?s_lock@CWSManGroupPolicyManager@@0VFastLock@@A DATA
?s_mapLock@CClientConfigCache@@0VFastLock@@A DATA
?s_mapLock@CServiceConfigCache@@0VFastLock@@A DATA
?s_mapLock@CWinRSPluginConfigCache@@0VFastLock@@A DATA
?s_policyManager@CWSManGroupPolicyManager@@0V?$AutoRelease@VCWSManGroupPolicyManager@@@@A DATA
EnumServiceUserResources@12
FwGetParsedDocument@8
FwGetRootElement@4
FwIsXmlEscapedProperly@8
FwXmlAddAttributeToAttributeList@44
FwXmlCloseParser@4
FwXmlCompareAttributeName@16
FwXmlCompareAttributeNameEx@24
FwXmlCompareElementName@16
FwXmlCompareElementNameEx@24
FwXmlCompareElementNameLen@16
FwXmlCompareElementNameSpace@16
FwXmlCompareName@16
FwXmlCreateXmlFromElement@24
FwXmlDecodeXmlEscapes@20
FwXmlEncodeXmlEscapes@12
FwXmlFindAttribute@28
FwXmlFindAttributeEx@24
FwXmlFindChildElement@28
FwXmlFindChildElementEx@24
FwXmlGetAttribute@8
FwXmlGetAttributeNameEx@4
FwXmlGetAttributeNamespacePrefix@4
FwXmlGetAttributeValue@4
FwXmlGetAttributeValueDWord@16
FwXmlGetBooleanValue@8
FwXmlGetBuffer@12
FwXmlGetChild@8
FwXmlGetElementName@16
FwXmlGetElementNameEx@4
FwXmlGetElementNamespacePrefix@4
FwXmlGetElementNamespaceUrl@4
FwXmlGetEntryNameEx@4
FwXmlGetNamespaceForPrefix@20
FwXmlGetNormalizedString@36
FwXmlGetReferenceXmlFromElement@8
FwXmlGetRemainder@8
FwXmlGetSimpleContent@20
FwXmlGetSimpleContentEx2@12
FwXmlGetSimpleContentEx@8
FwXmlHasText@8
FwXmlIsEmpty@8
FwXmlIsMustUnderstand@4
FwXmlIsNull@4
FwXmlIsSimpleContent@4
FwXmlIsSimpleContentOrEmpty@4
FwXmlIsTrueValue@4
FwXmlNumAttributes@4
FwXmlNumChildren@4
FwXmlNumChildrenWithName@16
FwXmlNumConsecutiveChildrenWithName@16
FwXmlParsePrefixedXML@20
FwXmlParseStream@20
FwXmlParseText@24
FwXmlParserCreate@8
FwXmlUpdatePrefixes@8
GetServiceSecurity@8
SetServiceSecurity@20
SubscriptionsProvEnumerate@20
WSManAckEvents@4
WSManAddSubscriptionManagerInternal@12
WSManCloseCommand@12
WSManCloseEnumerationHandle@4
WSManCloseEnumeratorHandle@4
WSManCloseObjectHandle@4
WSManCloseOperation@8
WSManClosePublisherHandle@4
WSManCloseSession@8
WSManCloseSessionHandle@4
WSManCloseShell@12
WSManCloseSubscriptionHandle@4
WSManConnectShell@32
WSManConnectShellCommand@28
WSManConstructError@12
WSManCreateEnumeratorInternal@16
WSManCreateInternal@28
WSManCreateInternalEx@28
WSManCreatePullSubscription@32
WSManCreatePushSubscription@36
WSManCreateSession@24
WSManCreateSessionInternal@32
WSManCreateShell@32
WSManCreateShellEx@36
WSManDecodeObject@20
WSManDeinitialize@8
WSManDeleteInternal@24
WSManDeleteInternalEx@24
WSManDeliverEndSubscriptionNotification@8
WSManDeliverEvent@24
WSManDisconnectShell@16
WSManEncodeObject@16
WSManEncodeObjectEx@20
WSManEncodeObjectInternal@16
WSManEnumerateInternal@40
WSManEnumerateInternalEx@40
WSManEnumeratorAddEvent@12
WSManEnumeratorAddObject@12
WSManEnumeratorBatchPolicyViolated@4
WSManEnumeratorNextObject@8
WSManEnumeratorObjectCount@4
WSManGetErrorMessage@28
WSManGetInternal@24
WSManGetInternalEx@24
WSManGetSessionOptionAsDword@12
WSManGetSessionOptionAsString@20
WSManIdentifyInternal@20
WSManInitialize@8
WSManInvokeInternal@32
WSManInvokeInternalEx@32
WSManPluginAuthzOperationComplete@20
WSManPluginAuthzQueryQuotaComplete@20
WSManPluginAuthzUserComplete@28
WSManPluginFreeRequestDetails@4
WSManPluginGetConfiguration@12
WSManPluginGetOperationParameters@12
WSManPluginInteractiveCallback@20
WSManPluginObjectAndBookmarkResult@16
WSManPluginObjectAndEprResult@20
WSManPluginObjectResult@12
WSManPluginOperationComplete@16
WSManPluginReceiveResult@24
WSManPluginReportCompletion@8
WSManPluginReportContext@12
WSManPluginShutdown@12
WSManPluginStartup@16
WSManProvCreate@20
WSManProvDelete@12
WSManProvEnumerate@20
WSManProvGet@12
WSManProvInvoke@24
WSManProvPut@20
WSManPull@20
WSManPullEvents@16
WSManPutInternal@28
WSManPutInternalEx@28
WSManReceiveShellOutput@24
WSManReconnectShell@12
WSManReconnectShellCommand@12
WSManRemoveSubscriptionManagerInternal@4
WSManRunShellCommand@28
WSManRunShellCommandEx@32
WSManSendShellInput@32
WSManSetSessionOption@12
WSManSignalShell@24
