LIBRARY "WsmSvc.DLL"
EXPORTS
??0?$AutoCleanup@V?$AutoDelete@D@@PEAD@@QEAA@PEAD@Z
??0?$AutoCleanup@V?$AutoDelete@G@@PEAG@@QEAA@PEAG@Z
??0?$AutoCleanup@V?$AutoDelete@UIPRange@CWSManIPFilter@@@@PEAUIPRange@CWSManIPFilter@@@@QEAA@PEAUIPRange@CWSManIPFilter@@@Z
??0?$AutoCleanup@V?$AutoDelete@U_SID@@@@PEAU_SID@@@@QEAA@PEAU_SID@@@Z
??0?$AutoCleanup@V?$AutoDelete@U_WSMAN_STREAM_ID_SET@@@@PEAU_WSMAN_STREAM_ID_SET@@@@QEAA@PEAU_WSMAN_STREAM_ID_SET@@@Z
??0?$AutoCleanup@V?$AutoDelete@V?$Handle@VISubscription@@@@@@PEAV?$Handle@VISubscription@@@@@@QEAA@PEAV?$Handle@VISubscription@@@@@Z
??0?$AutoCleanup@V?$AutoDelete@V?$SafeMap_Iterator@VStringKeyCI@@K@@@@PEAV?$SafeMap_Iterator@VStringKeyCI@@K@@@@QEAA@PEAV?$SafeMap_Iterator@VStringKeyCI@@K@@@Z
??0?$AutoCleanup@V?$AutoDelete@V?$SafeMap_Iterator@W4WSManSessionOption@@PEAVOptionValue@SessionOptions@Client@WSMan@@@@@@PEAV?$SafeMap_Iterator@W4WSManSessionOption@@PEAVOptionValue@SessionOptions@Client@WSMan@@@@@@QEAA@PEAV?$SafeMap_Iterator@W4WSManSessionOption@@PEAVOptionValue@SessionOptions@Client@WSMan@@@@@Z
??0?$AutoCleanup@V?$AutoDelete@V?$SafeSet@PEAVCCertMapping@@@@@@PEAV?$SafeSet@PEAVCCertMapping@@@@@@QEAA@PEAV?$SafeSet@PEAVCCertMapping@@@@@Z
??0?$AutoCleanup@V?$AutoDelete@V?$SafeSet@PEAVCShellUriSettings@@@@@@PEAV?$SafeSet@PEAVCShellUriSettings@@@@@@QEAA@PEAV?$SafeSet@PEAVCShellUriSettings@@@@@Z
??0?$AutoCleanup@V?$AutoDelete@V?$SafeSet_Iterator@PEAVCListenerOperation@@@@@@PEAV?$SafeSet_Iterator@PEAVCListenerOperation@@@@@@QEAA@PEAV?$SafeSet_Iterator@PEAVCListenerOperation@@@@@Z
??0?$AutoCleanup@V?$AutoDelete@V?$SimpleStack@VCListenerOperation@@@@@@PEAV?$SimpleStack@VCListenerOperation@@@@@@QEAA@PEAV?$SimpleStack@VCListenerOperation@@@@@Z
??0?$AutoCleanup@V?$AutoDelete@V?$SimpleStack@VShellHostEntry@@@@@@PEAV?$SimpleStack@VShellHostEntry@@@@@@QEAA@PEAV?$SimpleStack@VShellHostEntry@@@@@Z
??0?$AutoCleanup@V?$AutoDelete@V?$set@PEAVCListenerSettings@@VCListenerSettingsLessFunctor@CServiceConfigSettings@@V?$transport_allocator@PEAVCListenerSettings@@@@@std@@@@PEAV?$set@PEAVCListenerSettings@@VCListenerSettingsLessFunctor@CServiceConfigSettings@@V?$transport_allocator@PEAVCListenerSettings@@@@@std@@@@QEAA@PEAV?$set@PEAVCListenerSettings@@VCListenerSettingsLessFunctor@CServiceConfigSettings@@V?$transport_allocator@PEAVCListenerSettings@@@@@std@@@Z
??0?$AutoCleanup@V?$AutoDelete@V?$set@Usockaddr_storage@@VSockAddrLessFunctor@CListenerSettings@@V?$transport_allocator@Usockaddr_storage@@@@@std@@@@PEAV?$set@Usockaddr_storage@@VSockAddrLessFunctor@CListenerSettings@@V?$transport_allocator@Usockaddr_storage@@@@@std@@@@QEAA@PEAV?$set@Usockaddr_storage@@VSockAddrLessFunctor@CListenerSettings@@V?$transport_allocator@Usockaddr_storage@@@@@std@@@Z
??0?$AutoCleanup@V?$AutoDelete@V?$vector@PEAVHandleImpl@Client@WSMan@@V?$transport_allocator@PEAVHandleImpl@Client@WSMan@@@@@std@@@@PEAV?$vector@PEAVHandleImpl@Client@WSMan@@V?$transport_allocator@PEAVHandleImpl@Client@WSMan@@@@@std@@@@QEAA@PEAV?$vector@PEAVHandleImpl@Client@WSMan@@V?$transport_allocator@PEAVHandleImpl@Client@WSMan@@@@@std@@@Z
??0?$AutoCleanup@V?$AutoDelete@V?$vector@PEAVIServiceConfigObserver@@V?$transport_allocator@PEAVIServiceConfigObserver@@@@@std@@@@PEAV?$vector@PEAVIServiceConfigObserver@@V?$transport_allocator@PEAVIServiceConfigObserver@@@@@std@@@@QEAA@PEAV?$vector@PEAVIServiceConfigObserver@@V?$transport_allocator@PEAVIServiceConfigObserver@@@@@std@@@Z
??0?$AutoCleanup@V?$AutoDelete@VAdminSid@CSecurity@@@@PEAVAdminSid@CSecurity@@@@QEAA@PEAVAdminSid@CSecurity@@@Z
??0?$AutoCleanup@V?$AutoDelete@VBlockedRecord@@@@PEAVBlockedRecord@@@@QEAA@PEAVBlockedRecord@@@Z
??0?$AutoCleanup@V?$AutoDelete@VCBaseConfigCache@@@@PEAVCBaseConfigCache@@@@QEAA@PEAVCBaseConfigCache@@@Z
??0?$AutoCleanup@V?$AutoDelete@VCCertMapping@@@@PEAVCCertMapping@@@@QEAA@PEAVCCertMapping@@@Z
??0?$AutoCleanup@V?$AutoDelete@VCConfigChangeSource@@@@PEAVCConfigChangeSource@@@@QEAA@PEAVCConfigChangeSource@@@Z
??0?$AutoCleanup@V?$AutoDelete@VCListenerSettings@@@@PEAVCListenerSettings@@@@QEAA@PEAVCListenerSettings@@@Z
??0?$AutoCleanup@V?$AutoDelete@VCObserverConfigChangeErrors@@@@PEAVCObserverConfigChangeErrors@@@@QEAA@PEAVCObserverConfigChangeErrors@@@Z
??0?$AutoCleanup@V?$AutoDelete@VCServiceWatcher@CServiceConfigCache@@@@PEAVCServiceWatcher@CServiceConfigCache@@@@QEAA@PEAVCServiceWatcher@CServiceConfigCache@@@Z
??0?$AutoCleanup@V?$AutoDelete@VCShellUriSettings@@@@PEAVCShellUriSettings@@@@QEAA@PEAVCShellUriSettings@@@Z
??0?$AutoCleanup@V?$AutoDelete@VCWSManEPR@@@@PEAVCWSManEPR@@@@QEAA@PEAVCWSManEPR@@@Z
??0?$AutoCleanup@V?$AutoDelete@VCWSManResource@@@@PEAVCWSManResource@@@@QEAA@PEAVCWSManResource@@@Z
??0?$AutoCleanup@V?$AutoDelete@VCertHash@@@@PEAVCertHash@@@@QEAA@PEAVCertHash@@@Z
??0?$AutoCleanup@V?$AutoDelete@VConfigUpdate@@@@PEAVConfigUpdate@@@@QEAA@PEAVConfigUpdate@@@Z
??0?$AutoCleanup@V?$AutoDelete@VEnumSinkEx@@@@PEAVEnumSinkEx@@@@QEAA@PEAVEnumSinkEx@@@Z
??0?$AutoCleanup@V?$AutoDelete@VEnumSinkEx@@@@PEAVEnumSinkEx@@@@QEAA@XZ
??0?$AutoCleanup@V?$AutoDelete@VEventHandler@WSMan@@@@PEAVEventHandler@WSMan@@@@QEAA@PEAVEventHandler@WSMan@@@Z
??0?$AutoCleanup@V?$AutoDelete@VExpiredOperationIdRecord@@@@PEAVExpiredOperationIdRecord@@@@QEAA@PEAVExpiredOperationIdRecord@@@Z
??0?$AutoCleanup@V?$AutoDelete@VGPApiManager@@@@PEAVGPApiManager@@@@QEAA@PEAVGPApiManager@@@Z
??0?$AutoCleanup@V?$AutoDelete@VGeneralSinkEx@@@@PEAVGeneralSinkEx@@@@QEAA@PEAVGeneralSinkEx@@@Z
??0?$AutoCleanup@V?$AutoDelete@VGeneralSinkEx@@@@PEAVGeneralSinkEx@@@@QEAA@XZ
??0?$AutoCleanup@V?$AutoDelete@VIChannelObserverFactory@@@@PEAVIChannelObserverFactory@@@@QEAA@PEAVIChannelObserverFactory@@@Z
??0?$AutoCleanup@V?$AutoDelete@VIQueryDASHSMASHInterface@@@@PEAVIQueryDASHSMASHInterface@@@@QEAA@PEAVIQueryDASHSMASHInterface@@@Z
??0?$AutoCleanup@V?$AutoDelete@VIQueryDASHSMASHInterface@@@@PEAVIQueryDASHSMASHInterface@@@@QEAA@XZ
??0?$AutoCleanup@V?$AutoDelete@VISpecification@@@@PEAVISpecification@@@@QEAA@PEAVISpecification@@@Z
??0?$AutoCleanup@V?$AutoDelete@VISpecification@@@@PEAVISpecification@@@@QEAA@XZ
??0?$AutoCleanup@V?$AutoDelete@VInteractiveSid@CSecurity@@@@PEAVInteractiveSid@CSecurity@@@@QEAA@PEAVInteractiveSid@CSecurity@@@Z
??0?$AutoCleanup@V?$AutoDelete@VIpHlpApiDllLoader@@@@PEAVIpHlpApiDllLoader@@@@QEAA@PEAVIpHlpApiDllLoader@@@Z
??0?$AutoCleanup@V?$AutoDelete@VMachineName@@@@PEAVMachineName@@@@QEAA@PEAVMachineName@@@Z
??0?$AutoCleanup@V?$AutoDelete@VNetworkServiceSid@CSecurity@@@@PEAVNetworkServiceSid@CSecurity@@@@QEAA@PEAVNetworkServiceSid@CSecurity@@@Z
??0?$AutoCleanup@V?$AutoDelete@VNtDsApiDllLoader@@@@PEAVNtDsApiDllLoader@@@@QEAA@PEAVNtDsApiDllLoader@@@Z
??0?$AutoCleanup@V?$AutoDelete@VOptionValue@SessionOptions@Client@WSMan@@@@PEAVOptionValue@SessionOptions@Client@WSMan@@@@QEAA@PEAVOptionValue@SessionOptions@Client@WSMan@@@Z
??0?$AutoCleanup@V?$AutoDelete@VPacketCreator@@@@PEAVPacketCreator@@@@QEAA@PEAVPacketCreator@@@Z
??0?$AutoCleanup@V?$AutoDelete@VPacketParser@@@@PEAVPacketParser@@@@QEAA@PEAVPacketParser@@@Z
??0?$AutoCleanup@V?$AutoDelete@VResources@Locale@@@@PEAVResources@Locale@@@@QEAA@PEAVResources@Locale@@@Z
??0?$AutoCleanup@V?$AutoDelete@VRunAsConfiguration@@@@PEAVRunAsConfiguration@@@@QEAA@PEAVRunAsConfiguration@@@Z
??0?$AutoCleanup@V?$AutoDelete@VSecurityEntry@Catalog@@@@PEAVSecurityEntry@Catalog@@@@QEAA@PEAVSecurityEntry@Catalog@@@Z
??0?$AutoCleanup@V?$AutoDelete@VSendPacketArgs@RobustConnectionBuffer@@@@PEAVSendPacketArgs@RobustConnectionBuffer@@@@QEAA@PEAVSendPacketArgs@RobustConnectionBuffer@@@Z
??0?$AutoCleanup@V?$AutoDelete@VServiceSoapProcessor@@@@PEAVServiceSoapProcessor@@@@QEAA@PEAVServiceSoapProcessor@@@Z
??0?$AutoCleanup@V?$AutoDelete@VShell32DllLoader@@@@PEAVShell32DllLoader@@@@QEAA@PEAVShell32DllLoader@@@Z
??0?$AutoCleanup@V?$AutoDelete@VShlWApiDllLoader@@@@PEAVShlWApiDllLoader@@@@QEAA@PEAVShlWApiDllLoader@@@Z
??0?$AutoCleanup@V?$AutoDelete@VSubscriptionEnumerator@@@@PEAVSubscriptionEnumerator@@@@QEAA@PEAVSubscriptionEnumerator@@@Z
??0?$AutoCleanup@V?$AutoDelete@VSubscriptionManager@@@@PEAVSubscriptionManager@@@@QEAA@PEAVSubscriptionManager@@@Z
??0?$AutoCleanup@V?$AutoDelete@VTSTRBUFFER@@@@PEAVTSTRBUFFER@@@@QEAA@PEAVTSTRBUFFER@@@Z
??0?$AutoCleanup@V?$AutoDelete@VTSTRBUFFER@@@@PEAVTSTRBUFFER@@@@QEAA@XZ
??0?$AutoCleanup@V?$AutoDelete@VUniqueStringOverflow@@@@PEAVUniqueStringOverflow@@@@QEAA@PEAVUniqueStringOverflow@@@Z
??0?$AutoCleanup@V?$AutoDelete@VUser32DllLoader@@@@PEAVUser32DllLoader@@@@QEAA@PEAVUser32DllLoader@@@Z
??0?$AutoCleanup@V?$AutoDelete@VWSMANCONFIGTABLE_IDENTITY@@@@PEAVWSMANCONFIGTABLE_IDENTITY@@@@QEAA@PEAVWSMANCONFIGTABLE_IDENTITY@@@Z
??0?$AutoCleanup@V?$AutoDelete@VWSManMemCryptManager@@@@PEAVWSManMemCryptManager@@@@QEAA@PEAVWSManMemCryptManager@@@Z
??0?$AutoCleanup@V?$AutoDelete@VWmiEnumContext@@@@PEAVWmiEnumContext@@@@QEAA@PEAVWmiEnumContext@@@Z
??0?$AutoCleanup@V?$AutoDelete@VWmiEnumContext@@@@PEAVWmiEnumContext@@@@QEAA@XZ
??0?$AutoCleanup@V?$AutoDelete@VXmlReader@@@@PEAVXmlReader@@@@QEAA@PEAVXmlReader@@@Z
??0?$AutoCleanup@V?$AutoDeleteVector@$$CBG@@PEBG@@QEAA@PEBG@Z
??0?$AutoCleanup@V?$AutoDeleteVector@D@@PEAD@@QEAA@PEAD@Z
??0?$AutoCleanup@V?$AutoDeleteVector@E@@PEAE@@QEAA@PEAE@Z
??0?$AutoCleanup@V?$AutoDeleteVector@E@@PEAE@@QEAA@XZ
??0?$AutoCleanup@V?$AutoDeleteVector@G@@PEAG@@QEAA@PEAG@Z
??0?$AutoCleanup@V?$AutoDeleteVector@G@@PEAG@@QEAA@XZ
??0?$AutoCleanup@V?$AutoDeleteVector@H@@PEAH@@QEAA@PEAH@Z
??0?$AutoCleanup@V?$AutoDeleteVector@PEAG@@PEAPEAG@@QEAA@PEAPEAG@Z
??0?$AutoCleanup@V?$AutoDeleteVector@PEAG@@PEAPEAG@@QEAA@XZ
??0?$AutoCleanup@V?$AutoDeleteVector@PEBG@@PEAPEBG@@QEAA@PEAPEBG@Z
??0?$AutoCleanup@V?$AutoDeleteVector@PEBG@@PEAPEBG@@QEAA@XZ
??0?$AutoCleanup@V?$AutoDeleteVector@U_CONFIG_UPDATE@@@@PEAU_CONFIG_UPDATE@@@@QEAA@PEAU_CONFIG_UPDATE@@@Z
??0?$AutoCleanup@V?$AutoDeleteVector@U_WINRS_CREATE_SHELL_ENVIRONMENT_VARIABLE@@@@PEAU_WINRS_CREATE_SHELL_ENVIRONMENT_VARIABLE@@@@QEAA@PEAU_WINRS_CREATE_SHELL_ENVIRONMENT_VARIABLE@@@Z
??0?$AutoCleanup@V?$AutoDeleteVector@U_WINRS_CREATE_SHELL_ENVIRONMENT_VARIABLE@@@@PEAU_WINRS_CREATE_SHELL_ENVIRONMENT_VARIABLE@@@@QEAA@XZ
??0?$AutoCleanup@V?$AutoDeleteVector@U_WINRS_RUN_COMMAND_ARG@@@@PEAU_WINRS_RUN_COMMAND_ARG@@@@QEAA@PEAU_WINRS_RUN_COMMAND_ARG@@@Z
??0?$AutoCleanup@V?$AutoDeleteVector@U_WINRS_RUN_COMMAND_ARG@@@@PEAU_WINRS_RUN_COMMAND_ARG@@@@QEAA@XZ
??0?$AutoCleanup@V?$AutoDeleteVector@U_WSMAN_OPTION@@@@PEAU_WSMAN_OPTION@@@@QEAA@PEAU_WSMAN_OPTION@@@Z
??0?$AutoCleanup@V?$AutoDeleteVector@X@@PEAX@@QEAA@PEAX@Z
??0?$AutoCleanup@V?$AutoFree@E@@PEAE@@QEAA@PEAE@Z
??0?$AutoCleanup@V?$AutoLocklessItemRecycle@VPacket@@@@PEAVPacket@@@@QEAA@PEAVPacket@@@Z
??0?$AutoCleanup@V?$AutoRelease@UIAppHostAdminManager@@@@PEAUIAppHostAdminManager@@@@QEAA@PEAUIAppHostAdminManager@@@Z
??0?$AutoCleanup@V?$AutoRelease@UIAppHostChildElementCollection@@@@PEAUIAppHostChildElementCollection@@@@QEAA@PEAUIAppHostChildElementCollection@@@Z
??0?$AutoCleanup@V?$AutoRelease@UIAppHostConfigException@@@@PEAUIAppHostConfigException@@@@QEAA@PEAUIAppHostConfigException@@@Z
??0?$AutoCleanup@V?$AutoRelease@UIAppHostElement@@@@PEAUIAppHostElement@@@@QEAA@PEAUIAppHostElement@@@Z
??0?$AutoCleanup@V?$AutoRelease@UIAppHostElementCollection@@@@PEAUIAppHostElementCollection@@@@QEAA@PEAUIAppHostElementCollection@@@Z
??0?$AutoCleanup@V?$AutoRelease@UIAppHostProperty@@@@PEAUIAppHostProperty@@@@QEAA@PEAUIAppHostProperty@@@Z
??0?$AutoCleanup@V?$AutoRelease@UIAppHostPropertyCollection@@@@PEAUIAppHostPropertyCollection@@@@QEAA@PEAUIAppHostPropertyCollection@@@Z
??0?$AutoCleanup@V?$AutoRelease@UIClientSecurity@@@@PEAUIClientSecurity@@@@QEAA@PEAUIClientSecurity@@@Z
??0?$AutoCleanup@V?$AutoRelease@UIClientSecurity@@@@PEAUIClientSecurity@@@@QEAA@XZ
??0?$AutoCleanup@V?$AutoRelease@UIEnumWbemClassObject@@@@PEAUIEnumWbemClassObject@@@@QEAA@PEAUIEnumWbemClassObject@@@Z
??0?$AutoCleanup@V?$AutoRelease@UIEnumWbemClassObject@@@@PEAUIEnumWbemClassObject@@@@QEAA@XZ
??0?$AutoCleanup@V?$AutoRelease@UIErrorInfo@@@@PEAUIErrorInfo@@@@QEAA@PEAUIErrorInfo@@@Z
??0?$AutoCleanup@V?$AutoRelease@UIErrorInfo@@@@PEAUIErrorInfo@@@@QEAA@XZ
??0?$AutoCleanup@V?$AutoRelease@UIUnknown@@@@PEAUIUnknown@@@@QEAA@PEAUIUnknown@@@Z
??0?$AutoCleanup@V?$AutoRelease@UIUnknown@@@@PEAUIUnknown@@@@QEAA@XZ
??0?$AutoCleanup@V?$AutoRelease@UIWbemClassObject@@@@PEAUIWbemClassObject@@@@QEAA@PEAUIWbemClassObject@@@Z
??0?$AutoCleanup@V?$AutoRelease@UIWbemClassObject@@@@PEAUIWbemClassObject@@@@QEAA@XZ
??0?$AutoCleanup@V?$AutoRelease@UIWbemContext@@@@PEAUIWbemContext@@@@QEAA@PEAUIWbemContext@@@Z
??0?$AutoCleanup@V?$AutoRelease@UIWbemContext@@@@PEAUIWbemContext@@@@QEAA@XZ
??0?$AutoCleanup@V?$AutoRelease@UIWbemLocator@@@@PEAUIWbemLocator@@@@QEAA@PEAUIWbemLocator@@@Z
??0?$AutoCleanup@V?$AutoRelease@UIWbemLocator@@@@PEAUIWbemLocator@@@@QEAA@XZ
??0?$AutoCleanup@V?$AutoRelease@UIWbemObjectTextSrc@@@@PEAUIWbemObjectTextSrc@@@@QEAA@PEAUIWbemObjectTextSrc@@@Z
??0?$AutoCleanup@V?$AutoRelease@UIWbemObjectTextSrc@@@@PEAUIWbemObjectTextSrc@@@@QEAA@XZ
??0?$AutoCleanup@V?$AutoRelease@UIWbemPath@@@@PEAUIWbemPath@@@@QEAA@PEAUIWbemPath@@@Z
??0?$AutoCleanup@V?$AutoRelease@UIWbemPath@@@@PEAUIWbemPath@@@@QEAA@XZ
??0?$AutoCleanup@V?$AutoRelease@UIWbemPathKeyList@@@@PEAUIWbemPathKeyList@@@@QEAA@PEAUIWbemPathKeyList@@@Z
??0?$AutoCleanup@V?$AutoRelease@UIWbemPathKeyList@@@@PEAUIWbemPathKeyList@@@@QEAA@XZ
??0?$AutoCleanup@V?$AutoRelease@UIWbemQualifierSet@@@@PEAUIWbemQualifierSet@@@@QEAA@PEAUIWbemQualifierSet@@@Z
??0?$AutoCleanup@V?$AutoRelease@UIWbemQualifierSet@@@@PEAUIWbemQualifierSet@@@@QEAA@XZ
??0?$AutoCleanup@V?$AutoRelease@UIWbemQuery@@@@PEAUIWbemQuery@@@@QEAA@PEAUIWbemQuery@@@Z
??0?$AutoCleanup@V?$AutoRelease@UIWbemQuery@@@@PEAUIWbemQuery@@@@QEAA@XZ
??0?$AutoCleanup@V?$AutoRelease@UIWbemServices@@@@PEAUIWbemServices@@@@QEAA@PEAUIWbemServices@@@Z
??0?$AutoCleanup@V?$AutoRelease@UIWbemServices@@@@PEAUIWbemServices@@@@QEAA@XZ
??0?$AutoCleanup@V?$AutoRelease@VApplication@Client@WSMan@@@@PEAVApplication@Client@WSMan@@@@QEAA@PEAVApplication@Client@WSMan@@@Z
??0?$AutoCleanup@V?$AutoRelease@VCBaseConfigCache@@@@PEAVCBaseConfigCache@@@@QEAA@PEAVCBaseConfigCache@@@Z
??0?$AutoCleanup@V?$AutoRelease@VCClientConfigSettings@@@@PEAVCClientConfigSettings@@@@QEAA@PEAVCClientConfigSettings@@@Z
??0?$AutoCleanup@V?$AutoRelease@VCCommonConfigSettings@@@@PEAVCCommonConfigSettings@@@@QEAA@PEAVCCommonConfigSettings@@@Z
??0?$AutoCleanup@V?$AutoRelease@VCConfigCacheMap@CBaseConfigCache@@@@PEAVCConfigCacheMap@CBaseConfigCache@@@@QEAA@PEAVCConfigCacheMap@CBaseConfigCache@@@Z
??0?$AutoCleanup@V?$AutoRelease@VCConfigManager@@@@PEAVCConfigManager@@@@QEAA@PEAVCConfigManager@@@Z
??0?$AutoCleanup@V?$AutoRelease@VCRemoteOperation@@@@PEAVCRemoteOperation@@@@QEAA@PEAVCRemoteOperation@@@Z
??0?$AutoCleanup@V?$AutoRelease@VCRemoteSession@@@@PEAVCRemoteSession@@@@QEAA@PEAVCRemoteSession@@@Z
??0?$AutoCleanup@V?$AutoRelease@VCRequestContext@@@@PEAVCRequestContext@@@@QEAA@PEAVCRequestContext@@@Z
??0?$AutoCleanup@V?$AutoRelease@VCServiceCommonConfigSettings@@@@PEAVCServiceCommonConfigSettings@@@@QEAA@PEAVCServiceCommonConfigSettings@@@Z
??0?$AutoCleanup@V?$AutoRelease@VCServiceConfigCache@@@@PEAVCServiceConfigCache@@@@QEAA@PEAVCServiceConfigCache@@@Z
??0?$AutoCleanup@V?$AutoRelease@VCServiceConfigSettings@@@@PEAVCServiceConfigSettings@@@@QEAA@PEAVCServiceConfigSettings@@@Z
??0?$AutoCleanup@V?$AutoRelease@VCWSManEPR@@@@PEAVCWSManEPR@@@@QEAA@PEAVCWSManEPR@@@Z
??0?$AutoCleanup@V?$AutoRelease@VCWSManEPR@@@@PEAVCWSManEPR@@@@QEAA@XZ
??0?$AutoCleanup@V?$AutoRelease@VCWSManGroupPolicyCache@@@@PEAVCWSManGroupPolicyCache@@@@QEAA@PEAVCWSManGroupPolicyCache@@@Z
??0?$AutoCleanup@V?$AutoRelease@VCWSManGroupPolicyManager@@@@PEAVCWSManGroupPolicyManager@@@@QEAA@PEAVCWSManGroupPolicyManager@@@Z
??0?$AutoCleanup@V?$AutoRelease@VCWSManObject@@@@PEAVCWSManObject@@@@QEAA@PEAVCWSManObject@@@Z
??0?$AutoCleanup@V?$AutoRelease@VCWSManResource@@@@PEAVCWSManResource@@@@QEAA@PEAVCWSManResource@@@Z
??0?$AutoCleanup@V?$AutoRelease@VCWinRSPluginConfigCache@@@@PEAVCWinRSPluginConfigCache@@@@QEAA@PEAVCWinRSPluginConfigCache@@@Z
??0?$AutoCleanup@V?$AutoRelease@VCWinRSPluginConfigCache@@@@PEAVCWinRSPluginConfigCache@@@@QEAA@XZ
??0?$AutoCleanup@V?$AutoRelease@VCWinRSPluginConfigSettings@@@@PEAVCWinRSPluginConfigSettings@@@@QEAA@PEAVCWinRSPluginConfigSettings@@@Z
??0?$AutoCleanup@V?$AutoRelease@VCommand@Client@WSMan@@@@PEAVCommand@Client@WSMan@@@@QEAA@PEAVCommand@Client@WSMan@@@Z
??0?$AutoCleanup@V?$AutoRelease@VConfigNotification@@@@PEAVConfigNotification@@@@QEAA@PEAVConfigNotification@@@Z
??0?$AutoCleanup@V?$AutoRelease@VConnectShellOperation@Client@WSMan@@@@PEAVConnectShellOperation@Client@WSMan@@@@QEAA@PEAVConnectShellOperation@Client@WSMan@@@Z
??0?$AutoCleanup@V?$AutoRelease@VCreateShellOperation@Client@WSMan@@@@PEAVCreateShellOperation@Client@WSMan@@@@QEAA@PEAVCreateShellOperation@Client@WSMan@@@Z
??0?$AutoCleanup@V?$AutoRelease@VDeleteShellOperation@Client@WSMan@@@@PEAVDeleteShellOperation@Client@WSMan@@@@QEAA@PEAVDeleteShellOperation@Client@WSMan@@@Z
??0?$AutoCleanup@V?$AutoRelease@VDisconnectOperation@Client@WSMan@@@@PEAVDisconnectOperation@Client@WSMan@@@@QEAA@PEAVDisconnectOperation@Client@WSMan@@@Z
??0?$AutoCleanup@V?$AutoRelease@VEnumSinkEx@@@@PEAVEnumSinkEx@@@@QEAA@PEAVEnumSinkEx@@@Z
??0?$AutoCleanup@V?$AutoRelease@VEnumSinkEx@@@@PEAVEnumSinkEx@@@@QEAA@XZ
??0?$AutoCleanup@V?$AutoRelease@VGeneralSinkEx@@@@PEAVGeneralSinkEx@@@@QEAA@PEAVGeneralSinkEx@@@Z
??0?$AutoCleanup@V?$AutoRelease@VGeneralSinkEx@@@@PEAVGeneralSinkEx@@@@QEAA@XZ
??0?$AutoCleanup@V?$AutoRelease@VIISConfigSettings@@@@PEAVIISConfigSettings@@@@QEAA@PEAVIISConfigSettings@@@Z
??0?$AutoCleanup@V?$AutoRelease@VIPCSoapProcessor@@@@PEAVIPCSoapProcessor@@@@QEAA@PEAVIPCSoapProcessor@@@Z
??0?$AutoCleanup@V?$AutoRelease@VIRequestContext@@@@PEAVIRequestContext@@@@QEAA@PEAVIRequestContext@@@Z
??0?$AutoCleanup@V?$AutoRelease@VIRequestContext@@@@PEAVIRequestContext@@@@QEAA@XZ
??0?$AutoCleanup@V?$AutoRelease@VISubscription@@@@PEAVISubscription@@@@QEAA@PEAVISubscription@@@Z
??0?$AutoCleanup@V?$AutoRelease@VInboundRequestDetails@@@@PEAVInboundRequestDetails@@@@QEAA@PEAVInboundRequestDetails@@@Z
??0?$AutoCleanup@V?$AutoRelease@VReceiveOperation@Client@WSMan@@@@PEAVReceiveOperation@Client@WSMan@@@@QEAA@PEAVReceiveOperation@Client@WSMan@@@Z
??0?$AutoCleanup@V?$AutoRelease@VReconnectOperation@Client@WSMan@@@@PEAVReconnectOperation@Client@WSMan@@@@QEAA@PEAVReconnectOperation@Client@WSMan@@@Z
??0?$AutoCleanup@V?$AutoRelease@VSendOperation@Client@WSMan@@@@PEAVSendOperation@Client@WSMan@@@@QEAA@PEAVSendOperation@Client@WSMan@@@Z
??0?$AutoCleanup@V?$AutoRelease@VShell@Client@WSMan@@@@PEAVShell@Client@WSMan@@@@QEAA@PEAVShell@Client@WSMan@@@Z
??0?$AutoCleanup@V?$AutoRelease@VShellInfo@@@@PEAVShellInfo@@@@QEAA@PEAVShellInfo@@@Z
??0?$AutoCleanup@V?$AutoRelease@VSignalOperation@Client@WSMan@@@@PEAVSignalOperation@Client@WSMan@@@@QEAA@PEAVSignalOperation@Client@WSMan@@@Z
??0?$AutoCleanup@V?$AutoRelease@VUserRecord@@@@PEAVUserRecord@@@@QEAA@PEAVUserRecord@@@Z
??0?$AutoCleanup@V?$AutoRelease@VWSManHttpListener@@@@PEAVWSManHttpListener@@@@QEAA@PEAVWSManHttpListener@@@Z
??0?$AutoCleanup@V?$AutoReleaseEx@VHostMappingTableEntry@@@@PEAVHostMappingTableEntry@@@@QEAA@PEAVHostMappingTableEntry@@@Z
??0?$AutoCleanup@V?$AutoReleaseEx@VShell@Client@WSMan@@@@PEAVShell@Client@WSMan@@@@QEAA@PEAVShell@Client@WSMan@@@Z
??0?$AutoCleanup@VAutoBstr@@PEAG@@QEAA@PEAG@Z
??0?$AutoCleanup@VAutoBstr@@PEAG@@QEAA@XZ
??0?$AutoCleanup@VAutoBstrNoAlloc@@PEAG@@QEAA@PEAG@Z
??0?$AutoCleanup@VAutoBstrNoAlloc@@PEAG@@QEAA@XZ
??0?$AutoCleanup@VAutoCertContext@@PEBU_CERT_CONTEXT@@@@QEAA@PEBU_CERT_CONTEXT@@@Z
??0?$AutoCleanup@VAutoCertContext@@PEBU_CERT_CONTEXT@@@@QEAA@XZ
??0?$AutoCleanup@VAutoChainContext@@PEBU_CERT_CHAIN_CONTEXT@@@@QEAA@PEBU_CERT_CHAIN_CONTEXT@@@Z
??0?$AutoCleanup@VAutoChainContext@@PEBU_CERT_CHAIN_CONTEXT@@@@QEAA@XZ
??0?$AutoCleanup@VAutoCoTaskMemFree@@PEAX@@QEAA@PEAX@Z
??0?$AutoCleanup@VAutoCoTaskMemFree@@PEAX@@QEAA@XZ
??0?$AutoCleanup@VAutoFwXmlCloseParser@@PEAX@@QEAA@PEAX@Z
??0?$AutoCleanup@VAutoFwXmlCloseParser@@PEAX@@QEAA@XZ
??0?$AutoCleanup@VAutoHandle@@PEAX@@QEAA@PEAX@Z
??0?$AutoCleanup@VAutoHandle@@PEAX@@QEAA@XZ
??0?$AutoCleanup@VAutoImpersonateUser@@PEAX@@QEAA@PEAX@Z
??0?$AutoCleanup@VAutoImpersonateUser@@PEAX@@QEAA@XZ
??0?$AutoCleanup@VAutoLibrary@@PEAUHINSTANCE__@@@@QEAA@PEAUHINSTANCE__@@@Z
??0?$AutoCleanup@VAutoLibrary@@PEAUHINSTANCE__@@@@QEAA@XZ
??0?$AutoCleanup@VAutoLocalFree@@PEAX@@QEAA@PEAX@Z
??0?$AutoCleanup@VAutoLocalFree@@PEAX@@QEAA@XZ
??0?$AutoCleanup@VAutoMIClass@@PEAU_MI_Class@@@@QEAA@PEAU_MI_Class@@@Z
??0?$AutoCleanup@VAutoMIClass@@PEAU_MI_Class@@@@QEAA@XZ
??0?$AutoCleanup@VAutoMIInstance@@PEAU_MI_Instance@@@@QEAA@PEAU_MI_Instance@@@Z
??0?$AutoCleanup@VAutoMIInstance@@PEAU_MI_Instance@@@@QEAA@XZ
??0?$AutoCleanup@VAutoObject@@PEAUWSMAN_OBJECT@@@@QEAA@PEAUWSMAN_OBJECT@@@Z
??0?$AutoCleanup@VAutoObject@@PEAUWSMAN_OBJECT@@@@QEAA@XZ
??0?$AutoCleanup@VAutoRegKey@@PEAUHKEY__@@@@QEAA@PEAUHKEY__@@@Z
??0?$AutoCleanup@VAutoRegKey@@PEAUHKEY__@@@@QEAA@XZ
??0?$AutoCleanup@VAutoSecurityDescriptor@@PEAX@@QEAA@PEAX@Z
??0?$AutoCleanup@VAutoSecurityDescriptor@@PEAX@@QEAA@XZ
??0?$AutoCleanup@VAutoWaitHandle@@PEAX@@QEAA@PEAX@Z
??0?$AutoCleanup@VAutoWaitHandle@@PEAX@@QEAA@XZ
??0?$AutoDelete@D@@QEAA@XZ
??0?$AutoDelete@G@@QEAA@PEAG@Z
??0?$AutoDelete@G@@QEAA@XZ
??0?$AutoDelete@UIPRange@CWSManIPFilter@@@@QEAA@XZ
??0?$AutoDelete@U_SID@@@@QEAA@PEAU_SID@@@Z
??0?$AutoDelete@U_WSMAN_STREAM_ID_SET@@@@QEAA@PEAU_WSMAN_STREAM_ID_SET@@@Z
??0?$AutoDelete@V?$Handle@VISubscription@@@@@@QEAA@PEAV?$Handle@VISubscription@@@@@Z
??0?$AutoDelete@V?$SafeMap_Iterator@VStringKeyCI@@K@@@@QEAA@XZ
??0?$AutoDelete@V?$SafeMap_Iterator@W4WSManSessionOption@@PEAVOptionValue@SessionOptions@Client@WSMan@@@@@@QEAA@XZ
??0?$AutoDelete@V?$SafeSet@PEAVCCertMapping@@@@@@QEAA@PEAV?$SafeSet@PEAVCCertMapping@@@@@Z
??0?$AutoDelete@V?$SafeSet@PEAVCCertMapping@@@@@@QEAA@XZ
??0?$AutoDelete@V?$SafeSet@PEAVCShellUriSettings@@@@@@QEAA@PEAV?$SafeSet@PEAVCShellUriSettings@@@@@Z
??0?$AutoDelete@V?$SafeSet@PEAVCShellUriSettings@@@@@@QEAA@XZ
??0?$AutoDelete@V?$SafeSet_Iterator@PEAVCListenerOperation@@@@@@QEAA@XZ
??0?$AutoDelete@V?$SimpleStack@VCListenerOperation@@@@@@QEAA@XZ
??0?$AutoDelete@V?$SimpleStack@VShellHostEntry@@@@@@QEAA@XZ
??0?$AutoDelete@V?$set@PEAVCListenerSettings@@VCListenerSettingsLessFunctor@CServiceConfigSettings@@V?$transport_allocator@PEAVCListenerSettings@@@@@std@@@@QEAA@PEAV?$set@PEAVCListenerSettings@@VCListenerSettingsLessFunctor@CServiceConfigSettings@@V?$transport_allocator@PEAVCListenerSettings@@@@@std@@@Z
??0?$AutoDelete@V?$set@PEAVCListenerSettings@@VCListenerSettingsLessFunctor@CServiceConfigSettings@@V?$transport_allocator@PEAVCListenerSettings@@@@@std@@@@QEAA@XZ
??0?$AutoDelete@V?$set@Usockaddr_storage@@VSockAddrLessFunctor@CListenerSettings@@V?$transport_allocator@Usockaddr_storage@@@@@std@@@@QEAA@XZ
??0?$AutoDelete@V?$vector@PEAVHandleImpl@Client@WSMan@@V?$transport_allocator@PEAVHandleImpl@Client@WSMan@@@@@std@@@@QEAA@XZ
??0?$AutoDelete@V?$vector@PEAVIServiceConfigObserver@@V?$transport_allocator@PEAVIServiceConfigObserver@@@@@std@@@@QEAA@XZ
??0?$AutoDelete@VAdminSid@CSecurity@@@@QEAA@PEAVAdminSid@CSecurity@@@Z
??0?$AutoDelete@VBlockedRecord@@@@QEAA@XZ
??0?$AutoDelete@VCBaseConfigCache@@@@QEAA@PEAVCBaseConfigCache@@@Z
??0?$AutoDelete@VCCertMapping@@@@QEAA@PEAVCCertMapping@@@Z
??0?$AutoDelete@VCConfigChangeSource@@@@QEAA@XZ
??0?$AutoDelete@VCListenerSettings@@@@QEAA@PEAVCListenerSettings@@@Z
??0?$AutoDelete@VCObserverConfigChangeErrors@@@@QEAA@XZ
??0?$AutoDelete@VCServiceWatcher@CServiceConfigCache@@@@QEAA@PEAVCServiceWatcher@CServiceConfigCache@@@Z
??0?$AutoDelete@VCServiceWatcher@CServiceConfigCache@@@@QEAA@XZ
??0?$AutoDelete@VCShellUriSettings@@@@QEAA@PEAVCShellUriSettings@@@Z
??0?$AutoDelete@VCWSManEPR@@@@QEAA@PEAVCWSManEPR@@@Z
??0?$AutoDelete@VCWSManResource@@@@QEAA@PEAVCWSManResource@@@Z
??0?$AutoDelete@VCWSManResource@@@@QEAA@XZ
??0?$AutoDelete@VCertHash@@@@QEAA@PEAVCertHash@@@Z
??0?$AutoDelete@VCertHash@@@@QEAA@XZ
??0?$AutoDelete@VConfigUpdate@@@@QEAA@PEAVConfigUpdate@@@Z
??0?$AutoDelete@VConfigUpdate@@@@QEAA@XZ
??0?$AutoDelete@VEnumSinkEx@@@@QEAA@PEAVEnumSinkEx@@@Z
??0?$AutoDelete@VEnumSinkEx@@@@QEAA@XZ
??0?$AutoDelete@VEventHandler@WSMan@@@@QEAA@PEAVEventHandler@WSMan@@@Z
??0?$AutoDelete@VExpiredOperationIdRecord@@@@QEAA@PEAVExpiredOperationIdRecord@@@Z
??0?$AutoDelete@VGPApiManager@@@@QEAA@XZ
??0?$AutoDelete@VGeneralSinkEx@@@@QEAA@PEAVGeneralSinkEx@@@Z
??0?$AutoDelete@VGeneralSinkEx@@@@QEAA@XZ
??0?$AutoDelete@VIChannelObserverFactory@@@@QEAA@PEAVIChannelObserverFactory@@@Z
??0?$AutoDelete@VIChannelObserverFactory@@@@QEAA@XZ
??0?$AutoDelete@VIQueryDASHSMASHInterface@@@@QEAA@PEAVIQueryDASHSMASHInterface@@@Z
??0?$AutoDelete@VIQueryDASHSMASHInterface@@@@QEAA@XZ
??0?$AutoDelete@VISpecification@@@@QEAA@PEAVISpecification@@@Z
??0?$AutoDelete@VISpecification@@@@QEAA@XZ
??0?$AutoDelete@VInteractiveSid@CSecurity@@@@QEAA@PEAVInteractiveSid@CSecurity@@@Z
??0?$AutoDelete@VIpHlpApiDllLoader@@@@QEAA@PEAVIpHlpApiDllLoader@@@Z
??0?$AutoDelete@VMachineName@@@@QEAA@PEAVMachineName@@@Z
??0?$AutoDelete@VNetworkServiceSid@CSecurity@@@@QEAA@PEAVNetworkServiceSid@CSecurity@@@Z
??0?$AutoDelete@VNtDsApiDllLoader@@@@QEAA@PEAVNtDsApiDllLoader@@@Z
??0?$AutoDelete@VOptionValue@SessionOptions@Client@WSMan@@@@QEAA@PEAVOptionValue@SessionOptions@Client@WSMan@@@Z
??0?$AutoDelete@VPacketCreator@@@@QEAA@PEAVPacketCreator@@@Z
??0?$AutoDelete@VPacketCreator@@@@QEAA@XZ
??0?$AutoDelete@VPacketParser@@@@QEAA@XZ
??0?$AutoDelete@VResources@Locale@@@@QEAA@PEAVResources@Locale@@@Z
??0?$AutoDelete@VRunAsConfiguration@@@@QEAA@PEAVRunAsConfiguration@@@Z
??0?$AutoDelete@VSecurityEntry@Catalog@@@@QEAA@PEAVSecurityEntry@Catalog@@@Z
??0?$AutoDelete@VSendPacketArgs@RobustConnectionBuffer@@@@QEAA@PEAVSendPacketArgs@RobustConnectionBuffer@@@Z
??0?$AutoDelete@VServiceSoapProcessor@@@@QEAA@XZ
??0?$AutoDelete@VShell32DllLoader@@@@QEAA@PEAVShell32DllLoader@@@Z
??0?$AutoDelete@VShlWApiDllLoader@@@@QEAA@PEAVShlWApiDllLoader@@@Z
??0?$AutoDelete@VSubscriptionEnumerator@@@@QEAA@XZ
??0?$AutoDelete@VSubscriptionManager@@@@QEAA@PEAVSubscriptionManager@@@Z
??0?$AutoDelete@VTSTRBUFFER@@@@QEAA@PEAVTSTRBUFFER@@@Z
??0?$AutoDelete@VTSTRBUFFER@@@@QEAA@XZ
??0?$AutoDelete@VUniqueStringOverflow@@@@QEAA@XZ
??0?$AutoDelete@VUser32DllLoader@@@@QEAA@PEAVUser32DllLoader@@@Z
??0?$AutoDelete@VWSMANCONFIGTABLE_IDENTITY@@@@QEAA@PEAVWSMANCONFIGTABLE_IDENTITY@@@Z
??0?$AutoDelete@VWSManMemCryptManager@@@@QEAA@PEAVWSManMemCryptManager@@@Z
??0?$AutoDelete@VWmiEnumContext@@@@QEAA@PEAVWmiEnumContext@@@Z
??0?$AutoDelete@VWmiEnumContext@@@@QEAA@XZ
??0?$AutoDelete@VXmlReader@@@@QEAA@PEAVXmlReader@@@Z
??0?$AutoDelete@VXmlReader@@@@QEAA@XZ
??0?$AutoDeleteVector@$$CBG@@QEAA@XZ
??0?$AutoDeleteVector@D@@QEAA@PEAD@Z
??0?$AutoDeleteVector@D@@QEAA@XZ
??0?$AutoDeleteVector@E@@QEAA@PEAE@Z
??0?$AutoDeleteVector@E@@QEAA@XZ
??0?$AutoDeleteVector@G@@QEAA@PEAG@Z
??0?$AutoDeleteVector@G@@QEAA@XZ
??0?$AutoDeleteVector@H@@QEAA@PEAH@Z
??0?$AutoDeleteVector@PEAG@@QEAA@PEAPEAG@Z
??0?$AutoDeleteVector@PEAG@@QEAA@XZ
??0?$AutoDeleteVector@PEBG@@QEAA@PEAPEBG@Z
??0?$AutoDeleteVector@PEBG@@QEAA@XZ
??0?$AutoDeleteVector@U_CONFIG_UPDATE@@@@QEAA@XZ
??0?$AutoDeleteVector@U_WINRS_CREATE_SHELL_ENVIRONMENT_VARIABLE@@@@QEAA@PEAU_WINRS_CREATE_SHELL_ENVIRONMENT_VARIABLE@@@Z
??0?$AutoDeleteVector@U_WINRS_CREATE_SHELL_ENVIRONMENT_VARIABLE@@@@QEAA@XZ
??0?$AutoDeleteVector@U_WINRS_RUN_COMMAND_ARG@@@@QEAA@PEAU_WINRS_RUN_COMMAND_ARG@@@Z
??0?$AutoDeleteVector@U_WINRS_RUN_COMMAND_ARG@@@@QEAA@XZ
??0?$AutoDeleteVector@U_WSMAN_OPTION@@@@QEAA@PEAU_WSMAN_OPTION@@@Z
??0?$AutoDeleteVector@U_WSMAN_OPTION@@@@QEAA@XZ
??0?$AutoDeleteVector@X@@QEAA@PEAX@Z
??0?$AutoDeleteVector@X@@QEAA@XZ
??0?$AutoFree@E@@QEAA@PEAE@Z
??0?$AutoFree@E@@QEAA@XZ
??0?$AutoLocklessItemRecycle@VPacket@@@@QEAA@PEAVPacket@@@Z
??0?$AutoLocklessItemRecycle@VPacket@@@@QEAA@XZ
??0?$AutoRelease@UIAppHostAdminManager@@@@QEAA@PEAUIAppHostAdminManager@@@Z
??0?$AutoRelease@UIAppHostChildElementCollection@@@@QEAA@XZ
??0?$AutoRelease@UIAppHostConfigException@@@@QEAA@PEAUIAppHostConfigException@@@Z
??0?$AutoRelease@UIAppHostElement@@@@QEAA@PEAUIAppHostElement@@@Z
??0?$AutoRelease@UIAppHostElement@@@@QEAA@XZ
??0?$AutoRelease@UIAppHostElementCollection@@@@QEAA@XZ
??0?$AutoRelease@UIAppHostProperty@@@@QEAA@XZ
??0?$AutoRelease@UIAppHostPropertyCollection@@@@QEAA@XZ
??0?$AutoRelease@UIClientSecurity@@@@QEAA@PEAUIClientSecurity@@@Z
??0?$AutoRelease@UIClientSecurity@@@@QEAA@XZ
??0?$AutoRelease@UIEnumWbemClassObject@@@@QEAA@PEAUIEnumWbemClassObject@@@Z
??0?$AutoRelease@UIEnumWbemClassObject@@@@QEAA@XZ
??0?$AutoRelease@UIErrorInfo@@@@QEAA@PEAUIErrorInfo@@@Z
??0?$AutoRelease@UIErrorInfo@@@@QEAA@XZ
??0?$AutoRelease@UIUnknown@@@@QEAA@PEAUIUnknown@@@Z
??0?$AutoRelease@UIUnknown@@@@QEAA@XZ
??0?$AutoRelease@UIWbemClassObject@@@@QEAA@PEAUIWbemClassObject@@@Z
??0?$AutoRelease@UIWbemClassObject@@@@QEAA@XZ
??0?$AutoRelease@UIWbemContext@@@@QEAA@PEAUIWbemContext@@@Z
??0?$AutoRelease@UIWbemContext@@@@QEAA@XZ
??0?$AutoRelease@UIWbemLocator@@@@QEAA@PEAUIWbemLocator@@@Z
??0?$AutoRelease@UIWbemLocator@@@@QEAA@XZ
??0?$AutoRelease@UIWbemObjectTextSrc@@@@QEAA@PEAUIWbemObjectTextSrc@@@Z
??0?$AutoRelease@UIWbemObjectTextSrc@@@@QEAA@XZ
??0?$AutoRelease@UIWbemPath@@@@QEAA@PEAUIWbemPath@@@Z
??0?$AutoRelease@UIWbemPath@@@@QEAA@XZ
??0?$AutoRelease@UIWbemPathKeyList@@@@QEAA@PEAUIWbemPathKeyList@@@Z
??0?$AutoRelease@UIWbemPathKeyList@@@@QEAA@XZ
??0?$AutoRelease@UIWbemQualifierSet@@@@QEAA@PEAUIWbemQualifierSet@@@Z
??0?$AutoRelease@UIWbemQualifierSet@@@@QEAA@XZ
??0?$AutoRelease@UIWbemQuery@@@@QEAA@PEAUIWbemQuery@@@Z
??0?$AutoRelease@UIWbemQuery@@@@QEAA@XZ
??0?$AutoRelease@UIWbemServices@@@@QEAA@PEAUIWbemServices@@@Z
??0?$AutoRelease@UIWbemServices@@@@QEAA@XZ
??0?$AutoRelease@VApplication@Client@WSMan@@@@QEAA@XZ
??0?$AutoRelease@VCBaseConfigCache@@@@QEAA@PEAVCBaseConfigCache@@@Z
??0?$AutoRelease@VCClientConfigSettings@@@@QEAA@PEAVCClientConfigSettings@@@Z
??0?$AutoRelease@VCClientConfigSettings@@@@QEAA@XZ
??0?$AutoRelease@VCCommonConfigSettings@@@@QEAA@PEAVCCommonConfigSettings@@@Z
??0?$AutoRelease@VCCommonConfigSettings@@@@QEAA@XZ
??0?$AutoRelease@VCConfigCacheMap@CBaseConfigCache@@@@QEAA@PEAVCConfigCacheMap@CBaseConfigCache@@@Z
??0?$AutoRelease@VCConfigCacheMap@CBaseConfigCache@@@@QEAA@XZ
??0?$AutoRelease@VCConfigManager@@@@QEAA@PEAVCConfigManager@@@Z
??0?$AutoRelease@VCConfigManager@@@@QEAA@XZ
??0?$AutoRelease@VCRemoteOperation@@@@QEAA@PEAVCRemoteOperation@@@Z
??0?$AutoRelease@VCRemoteSession@@@@QEAA@PEAVCRemoteSession@@@Z
??0?$AutoRelease@VCRemoteSession@@@@QEAA@XZ
??0?$AutoRelease@VCRequestContext@@@@QEAA@PEAVCRequestContext@@@Z
??0?$AutoRelease@VCRequestContext@@@@QEAA@XZ
??0?$AutoRelease@VCServiceCommonConfigSettings@@@@QEAA@PEAVCServiceCommonConfigSettings@@@Z
??0?$AutoRelease@VCServiceCommonConfigSettings@@@@QEAA@XZ
??0?$AutoRelease@VCServiceConfigCache@@@@QEAA@PEAVCServiceConfigCache@@@Z
??0?$AutoRelease@VCServiceConfigCache@@@@QEAA@XZ
??0?$AutoRelease@VCServiceConfigSettings@@@@QEAA@PEAVCServiceConfigSettings@@@Z
??0?$AutoRelease@VCServiceConfigSettings@@@@QEAA@XZ
??0?$AutoRelease@VCWSManEPR@@@@QEAA@PEAVCWSManEPR@@@Z
??0?$AutoRelease@VCWSManEPR@@@@QEAA@XZ
??0?$AutoRelease@VCWSManGroupPolicyCache@@@@QEAA@PEAVCWSManGroupPolicyCache@@@Z
??0?$AutoRelease@VCWSManGroupPolicyManager@@@@QEAA@PEAVCWSManGroupPolicyManager@@@Z
??0?$AutoRelease@VCWSManObject@@@@QEAA@PEAVCWSManObject@@@Z
??0?$AutoRelease@VCWSManResource@@@@QEAA@PEAVCWSManResource@@@Z
??0?$AutoRelease@VCWSManResource@@@@QEAA@XZ
??0?$AutoRelease@VCWinRSPluginConfigCache@@@@QEAA@PEAVCWinRSPluginConfigCache@@@Z
??0?$AutoRelease@VCWinRSPluginConfigCache@@@@QEAA@XZ
??0?$AutoRelease@VCWinRSPluginConfigSettings@@@@QEAA@PEAVCWinRSPluginConfigSettings@@@Z
??0?$AutoRelease@VCommand@Client@WSMan@@@@QEAA@PEAVCommand@Client@WSMan@@@Z
??0?$AutoRelease@VConfigNotification@@@@QEAA@PEAVConfigNotification@@@Z
??0?$AutoRelease@VConnectShellOperation@Client@WSMan@@@@QEAA@PEAVConnectShellOperation@Client@WSMan@@@Z
??0?$AutoRelease@VCreateShellOperation@Client@WSMan@@@@QEAA@PEAVCreateShellOperation@Client@WSMan@@@Z
??0?$AutoRelease@VDeleteShellOperation@Client@WSMan@@@@QEAA@PEAVDeleteShellOperation@Client@WSMan@@@Z
??0?$AutoRelease@VDisconnectOperation@Client@WSMan@@@@QEAA@PEAVDisconnectOperation@Client@WSMan@@@Z
??0?$AutoRelease@VEnumSinkEx@@@@QEAA@PEAVEnumSinkEx@@@Z
??0?$AutoRelease@VEnumSinkEx@@@@QEAA@XZ
??0?$AutoRelease@VGeneralSinkEx@@@@QEAA@PEAVGeneralSinkEx@@@Z
??0?$AutoRelease@VGeneralSinkEx@@@@QEAA@XZ
??0?$AutoRelease@VIISConfigSettings@@@@QEAA@XZ
??0?$AutoRelease@VIPCSoapProcessor@@@@QEAA@PEAVIPCSoapProcessor@@@Z
??0?$AutoRelease@VIRequestContext@@@@QEAA@PEAVIRequestContext@@@Z
??0?$AutoRelease@VIRequestContext@@@@QEAA@XZ
??0?$AutoRelease@VISubscription@@@@QEAA@PEAVISubscription@@@Z
??0?$AutoRelease@VInboundRequestDetails@@@@QEAA@XZ
??0?$AutoRelease@VReceiveOperation@Client@WSMan@@@@QEAA@PEAVReceiveOperation@Client@WSMan@@@Z
??0?$AutoRelease@VReconnectOperation@Client@WSMan@@@@QEAA@PEAVReconnectOperation@Client@WSMan@@@Z
??0?$AutoRelease@VSendOperation@Client@WSMan@@@@QEAA@PEAVSendOperation@Client@WSMan@@@Z
??0?$AutoRelease@VShell@Client@WSMan@@@@QEAA@PEAVShell@Client@WSMan@@@Z
??0?$AutoRelease@VShellInfo@@@@QEAA@XZ
??0?$AutoRelease@VSignalOperation@Client@WSMan@@@@QEAA@PEAVSignalOperation@Client@WSMan@@@Z
??0?$AutoRelease@VUserRecord@@@@QEAA@XZ
??0?$AutoRelease@VWSManHttpListener@@@@QEAA@PEAVWSManHttpListener@@@Z
??0?$AutoReleaseEx@VHostMappingTableEntry@@@@QEAA@XZ
??0?$AutoReleaseEx@VShell@Client@WSMan@@@@QEAA@PEAVShell@Client@WSMan@@@Z
??0?$ILoader@VAdminSid@CSecurity@@@@QEAA@P8AdminSid@CSecurity@@EAA_NAEAVIRequestContext@@@Z1@Z
??0?$ILoader@VEventHandler@WSMan@@@@QEAA@P8EventHandler@WSMan@@EAA_NAEAVIRequestContext@@@Z1@Z
??0?$ILoader@VInteractiveSid@CSecurity@@@@QEAA@P8InteractiveSid@CSecurity@@EAA_NAEAVIRequestContext@@@Z1@Z
??0?$ILoader@VIpHlpApiDllLoader@@@@QEAA@P8IpHlpApiDllLoader@@EAA_NAEAVIRequestContext@@@Z1@Z
??0?$ILoader@VMachineName@@@@QEAA@P8MachineName@@EAA_NAEAVIRequestContext@@@Z1@Z
??0?$ILoader@VNetworkServiceSid@CSecurity@@@@QEAA@P8NetworkServiceSid@CSecurity@@EAA_NAEAVIRequestContext@@@Z1@Z
??0?$ILoader@VNtDsApiDllLoader@@@@QEAA@P8NtDsApiDllLoader@@EAA_NAEAVIRequestContext@@@Z1@Z
??0?$ILoader@VResources@Locale@@@@QEAA@P8Resources@Locale@@EAA_NAEAVIRequestContext@@@Z1@Z
??0?$ILoader@VShell32DllLoader@@@@QEAA@P8Shell32DllLoader@@EAA_NAEAVIRequestContext@@@Z1@Z
??0?$ILoader@VShlWApiDllLoader@@@@QEAA@P8ShlWApiDllLoader@@EAA_NAEAVIRequestContext@@@Z1@Z
??0?$ILoader@VSubscriptionManager@@@@QEAA@P8SubscriptionManager@@EAA_NAEAVIRequestContext@@@Z1@Z
??0?$ILoader@VUser32DllLoader@@@@QEAA@P8User32DllLoader@@EAA_NAEAVIRequestContext@@@Z1@Z
??0?$ILoader@VWSManMemCryptManager@@@@QEAA@P8WSManMemCryptManager@@EAA_NAEAVIRequestContext@@@Z1@Z
??0?$Loader@VAdminSid@CSecurity@@$00@@QEAA@XZ
??0?$Loader@VEventHandler@WSMan@@$00@@QEAA@XZ
??0?$Loader@VInteractiveSid@CSecurity@@$00@@QEAA@XZ
??0?$Loader@VIpHlpApiDllLoader@@$00@@QEAA@XZ
??0?$Loader@VMachineName@@$00@@QEAA@XZ
??0?$Loader@VNetworkServiceSid@CSecurity@@$00@@QEAA@XZ
??0?$Loader@VNtDsApiDllLoader@@$00@@QEAA@XZ
??0?$Loader@VResources@Locale@@$0A@@@QEAA@XZ
??0?$Loader@VShell32DllLoader@@$00@@QEAA@XZ
??0?$Loader@VShlWApiDllLoader@@$00@@QEAA@XZ
??0?$Loader@VUser32DllLoader@@$00@@QEAA@XZ
??0?$Loader@VWSManMemCryptManager@@$00@@QEAA@XZ
??0?$LoaderSerializer@VAdminSid@CSecurity@@$00@@QEAA@P8AdminSid@CSecurity@@EAA_NAEAVIRequestContext@@@Z1@Z
??0?$LoaderSerializer@VEventHandler@WSMan@@$00@@QEAA@P8EventHandler@WSMan@@EAA_NAEAVIRequestContext@@@Z1@Z
??0?$LoaderSerializer@VInteractiveSid@CSecurity@@$00@@QEAA@P8InteractiveSid@CSecurity@@EAA_NAEAVIRequestContext@@@Z1@Z
??0?$LoaderSerializer@VIpHlpApiDllLoader@@$00@@QEAA@P8IpHlpApiDllLoader@@EAA_NAEAVIRequestContext@@@Z1@Z
??0?$LoaderSerializer@VMachineName@@$00@@QEAA@P8MachineName@@EAA_NAEAVIRequestContext@@@Z1@Z
??0?$LoaderSerializer@VNetworkServiceSid@CSecurity@@$00@@QEAA@P8NetworkServiceSid@CSecurity@@EAA_NAEAVIRequestContext@@@Z1@Z
??0?$LoaderSerializer@VNtDsApiDllLoader@@$00@@QEAA@P8NtDsApiDllLoader@@EAA_NAEAVIRequestContext@@@Z1@Z
??0?$LoaderSerializer@VResources@Locale@@$0A@@@QEAA@P8Resources@Locale@@EAA_NAEAVIRequestContext@@@Z1@Z
??0?$LoaderSerializer@VShell32DllLoader@@$00@@QEAA@P8Shell32DllLoader@@EAA_NAEAVIRequestContext@@@Z1@Z
??0?$LoaderSerializer@VShlWApiDllLoader@@$00@@QEAA@P8ShlWApiDllLoader@@EAA_NAEAVIRequestContext@@@Z1@Z
??0?$LoaderSerializer@VSubscriptionManager@@$01@@QEAA@P8SubscriptionManager@@EAA_NAEAVIRequestContext@@@Z1@Z
??0?$LoaderSerializer@VUser32DllLoader@@$00@@QEAA@P8User32DllLoader@@EAA_NAEAVIRequestContext@@@Z1@Z
??0?$LoaderSerializer@VWSManMemCryptManager@@$00@@QEAA@P8WSManMemCryptManager@@EAA_NAEAVIRequestContext@@@Z1@Z
??0?$PacketElement@K@PacketParser@@QEAA@XZ
??0?$PacketElement@PEAU_FWXML_ELEMENT@@@PacketParser@@QEAA@XZ
??0?$PacketElement@PEBG@PacketParser@@QEAA@XZ
??0?$PacketElement@_K@PacketParser@@QEAA@XZ
??0?$SafeMap@PEAVCCertMapping@@UEmpty@@V?$SafeSet_Iterator@PEAVCCertMapping@@@@@@QEAA@XZ
??0?$SafeMap@PEAVCListenerOperation@@UEmpty@@V?$SafeSet_Iterator@PEAVCListenerOperation@@@@@@QEAA@XZ
??0?$SafeMap@PEAVCShellUriSettings@@UEmpty@@V?$SafeSet_Iterator@PEAVCShellUriSettings@@@@@@QEAA@XZ
??0?$SafeMap@PEAXUEmpty@@V?$SafeSet_Iterator@PEAX@@@@QEAA@XZ
??0?$SafeMap@UPluginKey@@KV?$SafeMap_Iterator@UPluginKey@@K@@@@QEAA@XZ
??0?$SafeMap@UUserKey@@PEAVBlockedRecord@@V?$SafeMap_Iterator@UUserKey@@PEAVBlockedRecord@@@@@@QEAA@XZ
??0?$SafeMap@VCertThumbprintKey@@VCertThumbprintMappedSet@CServiceConfigSettings@@V?$SafeMap_Iterator@VCertThumbprintKey@@VCertThumbprintMappedSet@CServiceConfigSettings@@@@@@QEAA@XZ
??0?$SafeMap@VKey@Locale@@KV?$SafeMap_Iterator@VKey@Locale@@K@@@@QEAA@XZ
??0?$SafeMap@VStringKeyCI@@KV?$SafeMap_Iterator@VStringKeyCI@@K@@@@QEAA@XZ
??0?$SafeMap@VStringKeyCI@@UUSER_CONTEXT_INFO@WSManHttpListener@@V?$SafeMap_Iterator@VStringKeyCI@@UUSER_CONTEXT_INFO@WSManHttpListener@@@@@@QEAA@XZ
??0?$SafeMap@VStringKeyStore@@PEAVExpiredOperationIdRecord@@V?$SafeMap_Iterator@VStringKeyStore@@PEAVExpiredOperationIdRecord@@@@@@QEAA@XZ
??0?$SafeMap@VStringKeyStore@@PEAVServerFullDuplexChannel@@V?$SafeMap_Iterator@VStringKeyStore@@PEAVServerFullDuplexChannel@@@@@@QEAA@XZ
??0?$SafeMap@W4WSManSessionOption@@PEAVOptionValue@SessionOptions@Client@WSMan@@V?$SafeMap_Iterator@W4WSManSessionOption@@PEAVOptionValue@SessionOptions@Client@WSMan@@@@@@QEAA@XZ
??0?$SafeMap@_KPEAVSendPacketArgs@RobustConnectionBuffer@@V?$SafeMap_Iterator@_KPEAVSendPacketArgs@RobustConnectionBuffer@@@@@@QEAA@XZ
??0?$SafeMap_Iterator@PEAVCCertMapping@@UEmpty@@@@QEAA@AEAV?$SafeMap@PEAVCCertMapping@@UEmpty@@V?$SafeMap_Iterator@PEAVCCertMapping@@UEmpty@@@@@@_N@Z
??0?$SafeMap_Iterator@PEAVCListenerOperation@@UEmpty@@@@QEAA@AEAV?$SafeMap@PEAVCListenerOperation@@UEmpty@@V?$SafeMap_Iterator@PEAVCListenerOperation@@UEmpty@@@@@@_N@Z
??0?$SafeMap_Iterator@PEAVCShellUriSettings@@UEmpty@@@@QEAA@AEAV?$SafeMap@PEAVCShellUriSettings@@UEmpty@@V?$SafeMap_Iterator@PEAVCShellUriSettings@@UEmpty@@@@@@_N@Z
??0?$SafeMap_Iterator@PEAXUEmpty@@@@QEAA@AEAV?$SafeMap@PEAXUEmpty@@V?$SafeMap_Iterator@PEAXUEmpty@@@@@@_N@Z
??0?$SafeMap_Iterator@UPluginKey@@K@@QEAA@AEAV?$SafeMap@UPluginKey@@KV?$SafeMap_Iterator@UPluginKey@@K@@@@_N@Z
??0?$SafeMap_Iterator@UUserKey@@PEAVBlockedRecord@@@@QEAA@AEAV?$SafeMap@UUserKey@@PEAVBlockedRecord@@V?$SafeMap_Iterator@UUserKey@@PEAVBlockedRecord@@@@@@_N@Z
??0?$SafeMap_Iterator@VCertThumbprintKey@@VCertThumbprintMappedSet@CServiceConfigSettings@@@@QEAA@AEAV?$SafeMap@VCertThumbprintKey@@VCertThumbprintMappedSet@CServiceConfigSettings@@V?$SafeMap_Iterator@VCertThumbprintKey@@VCertThumbprintMappedSet@CServiceConfigSettings@@@@@@_N@Z
??0?$SafeMap_Iterator@VKey@Locale@@K@@QEAA@AEAV?$SafeMap@VKey@Locale@@KV?$SafeMap_Iterator@VKey@Locale@@K@@@@_N@Z
??0?$SafeMap_Iterator@VStringKeyCI@@K@@QEAA@AEAV?$SafeMap@VStringKeyCI@@KV?$SafeMap_Iterator@VStringKeyCI@@K@@@@_N@Z
??0?$SafeMap_Iterator@VStringKeyCI@@UUSER_CONTEXT_INFO@WSManHttpListener@@@@QEAA@AEAV?$SafeMap@VStringKeyCI@@UUSER_CONTEXT_INFO@WSManHttpListener@@V?$SafeMap_Iterator@VStringKeyCI@@UUSER_CONTEXT_INFO@WSManHttpListener@@@@@@_N@Z
??0?$SafeMap_Iterator@VStringKeyStore@@PEAVExpiredOperationIdRecord@@@@QEAA@AEAV?$SafeMap@VStringKeyStore@@PEAVExpiredOperationIdRecord@@V?$SafeMap_Iterator@VStringKeyStore@@PEAVExpiredOperationIdRecord@@@@@@_N@Z
??0?$SafeMap_Iterator@VStringKeyStore@@PEAVServerFullDuplexChannel@@@@QEAA@AEAV?$SafeMap@VStringKeyStore@@PEAVServerFullDuplexChannel@@V?$SafeMap_Iterator@VStringKeyStore@@PEAVServerFullDuplexChannel@@@@@@_N@Z
??0?$SafeMap_Iterator@W4WSManSessionOption@@PEAVOptionValue@SessionOptions@Client@WSMan@@@@QEAA@AEAV?$SafeMap@W4WSManSessionOption@@PEAVOptionValue@SessionOptions@Client@WSMan@@V?$SafeMap_Iterator@W4WSManSessionOption@@PEAVOptionValue@SessionOptions@Client@WSMan@@@@@@_N@Z
??0?$SafeMap_Iterator@_KPEAVSendPacketArgs@RobustConnectionBuffer@@@@QEAA@AEAV?$SafeMap@_KPEAVSendPacketArgs@RobustConnectionBuffer@@V?$SafeMap_Iterator@_KPEAVSendPacketArgs@RobustConnectionBuffer@@@@@@_N@Z
??0?$SafeMap_Lock@PEAVCCertMapping@@UEmpty@@V?$SafeMap_Iterator@PEAVCCertMapping@@UEmpty@@@@@@QEAA@AEBV?$SafeMap@PEAVCCertMapping@@UEmpty@@V?$SafeMap_Iterator@PEAVCCertMapping@@UEmpty@@@@@@_N@Z
??0?$SafeMap_Lock@PEAVCCertMapping@@UEmpty@@V?$SafeSet_Iterator@PEAVCCertMapping@@@@@@QEAA@AEBV?$SafeMap@PEAVCCertMapping@@UEmpty@@V?$SafeSet_Iterator@PEAVCCertMapping@@@@@@_N@Z
??0?$SafeMap_Lock@PEAVCListenerOperation@@UEmpty@@V?$SafeMap_Iterator@PEAVCListenerOperation@@UEmpty@@@@@@QEAA@AEBV?$SafeMap@PEAVCListenerOperation@@UEmpty@@V?$SafeMap_Iterator@PEAVCListenerOperation@@UEmpty@@@@@@_N@Z
??0?$SafeMap_Lock@PEAVCListenerOperation@@UEmpty@@V?$SafeSet_Iterator@PEAVCListenerOperation@@@@@@QEAA@AEBV?$SafeMap@PEAVCListenerOperation@@UEmpty@@V?$SafeSet_Iterator@PEAVCListenerOperation@@@@@@_N@Z
??0?$SafeMap_Lock@PEAVCShellUriSettings@@UEmpty@@V?$SafeMap_Iterator@PEAVCShellUriSettings@@UEmpty@@@@@@QEAA@AEBV?$SafeMap@PEAVCShellUriSettings@@UEmpty@@V?$SafeMap_Iterator@PEAVCShellUriSettings@@UEmpty@@@@@@_N@Z
??0?$SafeMap_Lock@PEAVCShellUriSettings@@UEmpty@@V?$SafeSet_Iterator@PEAVCShellUriSettings@@@@@@QEAA@AEBV?$SafeMap@PEAVCShellUriSettings@@UEmpty@@V?$SafeSet_Iterator@PEAVCShellUriSettings@@@@@@_N@Z
??0?$SafeMap_Lock@PEAXUEmpty@@V?$SafeMap_Iterator@PEAXUEmpty@@@@@@QEAA@AEBV?$SafeMap@PEAXUEmpty@@V?$SafeMap_Iterator@PEAXUEmpty@@@@@@_N@Z
??0?$SafeMap_Lock@PEAXUEmpty@@V?$SafeSet_Iterator@PEAX@@@@QEAA@AEBV?$SafeMap@PEAXUEmpty@@V?$SafeSet_Iterator@PEAX@@@@_N@Z
??0?$SafeMap_Lock@UPluginKey@@KV?$SafeMap_Iterator@UPluginKey@@K@@@@QEAA@AEBV?$SafeMap@UPluginKey@@KV?$SafeMap_Iterator@UPluginKey@@K@@@@_N@Z
??0?$SafeMap_Lock@UUserKey@@PEAVBlockedRecord@@V?$SafeMap_Iterator@UUserKey@@PEAVBlockedRecord@@@@@@QEAA@AEBV?$SafeMap@UUserKey@@PEAVBlockedRecord@@V?$SafeMap_Iterator@UUserKey@@PEAVBlockedRecord@@@@@@_N@Z
??0?$SafeMap_Lock@VCertThumbprintKey@@VCertThumbprintMappedSet@CServiceConfigSettings@@V?$SafeMap_Iterator@VCertThumbprintKey@@VCertThumbprintMappedSet@CServiceConfigSettings@@@@@@QEAA@AEBV?$SafeMap@VCertThumbprintKey@@VCertThumbprintMappedSet@CServiceConfigSettings@@V?$SafeMap_Iterator@VCertThumbprintKey@@VCertThumbprintMappedSet@CServiceConfigSettings@@@@@@_N@Z
??0?$SafeMap_Lock@VKey@Locale@@KV?$SafeMap_Iterator@VKey@Locale@@K@@@@QEAA@AEBV?$SafeMap@VKey@Locale@@KV?$SafeMap_Iterator@VKey@Locale@@K@@@@_N@Z
??0?$SafeMap_Lock@VStringKeyCI@@KV?$SafeMap_Iterator@VStringKeyCI@@K@@@@QEAA@AEBV?$SafeMap@VStringKeyCI@@KV?$SafeMap_Iterator@VStringKeyCI@@K@@@@_N@Z
??0?$SafeMap_Lock@VStringKeyCI@@UEmpty@@V?$SafeSet_Iterator@VStringKeyCI@@@@@@QEAA@AEBV?$SafeMap@VStringKeyCI@@UEmpty@@V?$SafeSet_Iterator@VStringKeyCI@@@@@@_N@Z
??0?$SafeMap_Lock@VStringKeyCI@@UUSER_CONTEXT_INFO@WSManHttpListener@@V?$SafeMap_Iterator@VStringKeyCI@@UUSER_CONTEXT_INFO@WSManHttpListener@@@@@@QEAA@AEBV?$SafeMap@VStringKeyCI@@UUSER_CONTEXT_INFO@WSManHttpListener@@V?$SafeMap_Iterator@VStringKeyCI@@UUSER_CONTEXT_INFO@WSManHttpListener@@@@@@_N@Z
??0?$SafeMap_Lock@VStringKeyStore@@PEAVExpiredOperationIdRecord@@V?$SafeMap_Iterator@VStringKeyStore@@PEAVExpiredOperationIdRecord@@@@@@QEAA@AEBV?$SafeMap@VStringKeyStore@@PEAVExpiredOperationIdRecord@@V?$SafeMap_Iterator@VStringKeyStore@@PEAVExpiredOperationIdRecord@@@@@@_N@Z
??0?$SafeMap_Lock@VStringKeyStore@@PEAVServerFullDuplexChannel@@V?$SafeMap_Iterator@VStringKeyStore@@PEAVServerFullDuplexChannel@@@@@@QEAA@AEBV?$SafeMap@VStringKeyStore@@PEAVServerFullDuplexChannel@@V?$SafeMap_Iterator@VStringKeyStore@@PEAVServerFullDuplexChannel@@@@@@_N@Z
??0?$SafeMap_Lock@W4WSManSessionOption@@PEAVOptionValue@SessionOptions@Client@WSMan@@V?$SafeMap_Iterator@W4WSManSessionOption@@PEAVOptionValue@SessionOptions@Client@WSMan@@@@@@QEAA@AEBV?$SafeMap@W4WSManSessionOption@@PEAVOptionValue@SessionOptions@Client@WSMan@@V?$SafeMap_Iterator@W4WSManSessionOption@@PEAVOptionValue@SessionOptions@Client@WSMan@@@@@@_N@Z
??0?$SafeMap_Lock@_KPEAVSendPacketArgs@RobustConnectionBuffer@@V?$SafeMap_Iterator@_KPEAVSendPacketArgs@RobustConnectionBuffer@@@@@@QEAA@AEBV?$SafeMap@_KPEAVSendPacketArgs@RobustConnectionBuffer@@V?$SafeMap_Iterator@_KPEAVSendPacketArgs@RobustConnectionBuffer@@@@@@_N@Z
??0?$SafeSet@PEAVCCertMapping@@@@QEAA@XZ
??0?$SafeSet@PEAVCListenerOperation@@@@QEAA@XZ
??0?$SafeSet@PEAVCShellUriSettings@@@@QEAA@XZ
??0?$SafeSet@PEAX@@QEAA@XZ
??0?$SafeSet_Iterator@PEAVCCertMapping@@@@QEAA@AEAV?$SafeMap@PEAVCCertMapping@@UEmpty@@V?$SafeSet_Iterator@PEAVCCertMapping@@@@@@_N@Z
??0?$SafeSet_Iterator@PEAVCCertMapping@@@@QEAA@AEAV?$SafeSet@PEAVCCertMapping@@@@@Z
??0?$SafeSet_Iterator@PEAVCListenerOperation@@@@QEAA@AEAV?$SafeMap@PEAVCListenerOperation@@UEmpty@@V?$SafeSet_Iterator@PEAVCListenerOperation@@@@@@_N@Z
??0?$SafeSet_Iterator@PEAVCListenerOperation@@@@QEAA@AEAV?$SafeSet@PEAVCListenerOperation@@@@@Z
??0?$SafeSet_Iterator@PEAVCShellUriSettings@@@@QEAA@AEAV?$SafeMap@PEAVCShellUriSettings@@UEmpty@@V?$SafeSet_Iterator@PEAVCShellUriSettings@@@@@@_N@Z
??0?$SafeSet_Iterator@PEAX@@QEAA@AEAV?$SafeMap@PEAXUEmpty@@V?$SafeSet_Iterator@PEAX@@@@_N@Z
??0?$SimpleQueue@T_LARGE_INTEGER@@@@QEAA@XZ
??0AutoBstr@@QEAA@PEAG@Z
??0AutoBstr@@QEAA@XZ
??0AutoBstrNoAlloc@@QEAA@PEAG@Z
??0AutoBstrNoAlloc@@QEAA@XZ
??0AutoCertContext@@QEAA@PEBU_CERT_CONTEXT@@@Z
??0AutoCertContext@@QEAA@XZ
??0AutoChainContext@@QEAA@PEBU_CERT_CHAIN_CONTEXT@@@Z
??0AutoChainContext@@QEAA@XZ
??0AutoCoTaskMemFree@@QEAA@PEAX@Z
??0AutoCoTaskMemFree@@QEAA@XZ
??0AutoFwXmlCloseParser@@QEAA@PEAX@Z
??0AutoFwXmlCloseParser@@QEAA@XZ
??0AutoHandle@@QEAA@PEAX@Z
??0AutoHandle@@QEAA@XZ
??0AutoImpersonateUser@@QEAA@PEAX@Z
??0AutoImpersonateUser@@QEAA@XZ
??0AutoLibrary@@QEAA@PEAUHINSTANCE__@@@Z
??0AutoLibrary@@QEAA@XZ
??0AutoLocalFree@@QEAA@PEAX@Z
??0AutoLocalFree@@QEAA@XZ
??0AutoMIClass@@QEAA@PEAU_MI_Class@@@Z
??0AutoMIClass@@QEAA@XZ
??0AutoMIInstance@@QEAA@PEAU_MI_Instance@@@Z
??0AutoMIInstance@@QEAA@XZ
??0AutoObject@@QEAA@PEAUWSMAN_OBJECT@@@Z
??0AutoObject@@QEAA@XZ
??0AutoRegKey@@QEAA@PEAUHKEY__@@@Z
??0AutoRegKey@@QEAA@XZ
??0AutoSecurityDescriptor@@QEAA@PEAX@Z
??0AutoSecurityDescriptor@@QEAA@XZ
??0AutoWaitHandle@@QEAA@PEAX@Z
??0AutoWaitHandle@@QEAA@XZ
??0BufferFormatter@@QEAA@PEAEK@Z
??0BufferFormatter@@QEAA@XZ
??0CBaseConfigCache@@IEAA@W4ConfigLocation@CConfigChangeSource@@PEAVFastLock@@PEAVCConfigCacheMap@0@@Z
??0CClientConfigCache@@AEAA@XZ
??0CConfigManager@@AEAA@XZ
??0CErrorContext@@QEAA@_N@Z
??0CRequestContext@@QEAA@PEBG@Z
??0CRequestContext@@QEAA@XZ
??0CResourceAlias@@QEAA@PEBG@Z
??0CServiceConfigCache@@AEAA@XZ
??0CServiceWatcher@CServiceConfigCache@@AEAA@PEAV1@PEAVIServiceConfigObserver@@@Z
??0CWSManCriticalSection@@QEAA@XZ
??0CWSManCriticalSectionWithConditionVar@@QEAA@XZ
??0CWSManEPR@@QEAA@H@Z
??0CWSManGroupPolicyManager@@AEAA@XZ
??0CWSManResource@@QEAA@H@Z
??0CWSManResourceNoResourceUri@@QEAA@H@Z
??0CWSManSecurityUI@@QEAA@XZ
??0CWinRSPluginConfigCache@@AEAA@XZ
??0ChildLifeTimeManager@@QEAA@AEBV0@@Z
??0ChildLifeTimeManager@@QEAA@XZ
??0CircularBufferFormatter@@QEAA@XZ
??0ConfigRegistry@@IEAA@XZ
??0EtwCorrelationHelper@@QEAA@AEBV0@@Z
??0EventHandler@WSMan@@QEAA@XZ
??0ExtendedSemantic@@QEAA@K@Z
??0FastLock@@QEAA@XZ
??0Fragment@PacketParser@@QEAA@XZ
??0IConfigChangeObserver@@QEAA@AEBV0@@Z
??0IConfigChangeObserver@@QEAA@XZ
??0ILifeTimeMgmt@@QEAA@AEBV0@@Z
??0ILifeTimeMgmt@@QEAA@XZ
??0IRequestContext@@IEAA@XZ
??0IWSManGroupPolicyObserver@@QEAA@AEBV0@@Z
??0IWSManGroupPolicyObserver@@QEAA@XZ
??0IWSManGroupPolicyPublisher@@QEAA@AEBV0@@Z
??0IWSManGroupPolicyPublisher@@QEAA@XZ
??0Locale@@QEAA@AEBV0@@Z
??0Locale@@QEAA@PEAVIRequestContext@@@Z
??0Locale@@QEAA@XZ
??0MessageId@PacketParser@@QEAA@XZ
??0NotUnderstandSoapHeader@PacketParser@@QEAA@XZ
??0OnHTTPInitialize@@QEAA@XZ
??0OperationId@PacketParser@@QEAA@XZ
??0OwnLock@@QEAA@AEAVFastLock@@@Z
??0PacketFormatter@@QEAA@XZ
??0PacketParser@@QEAA@XZ
??0RBUFFER@@QEAA@I@Z
??0RBUFFER@@QEAA@PEAEI@Z
??0ReferenceParameters@PacketParser@@QEAA@XZ
??0SBUFFER@@QEAA@XZ
??0SessionId@PacketParser@@QEAA@XZ
??0ShareLock@@QEAA@AEAVFastLock@@@Z
??0SoapSemanticConverter@@QEAA@XZ
??0TSTRBUFFER@@QEAA@XZ
??0UserAuthzRecord@@QEAA@$$QEAV0@@Z
??0UserAuthzRecord@@QEAA@AEBV0@@Z
??0UserAuthzRecord@@QEAA@XZ
??0UserRecord@@QEAA@XZ
??0XmlReader@@QEAA@XZ
??1?$AutoCleanup@V?$AutoDelete@D@@PEAD@@QEAA@XZ
??1?$AutoCleanup@V?$AutoDelete@G@@PEAG@@QEAA@XZ
??1?$AutoCleanup@V?$AutoDelete@UIPRange@CWSManIPFilter@@@@PEAUIPRange@CWSManIPFilter@@@@QEAA@XZ
??1?$AutoCleanup@V?$AutoDelete@U_SID@@@@PEAU_SID@@@@QEAA@XZ
??1?$AutoCleanup@V?$AutoDelete@U_WSMAN_STREAM_ID_SET@@@@PEAU_WSMAN_STREAM_ID_SET@@@@QEAA@XZ
??1?$AutoCleanup@V?$AutoDelete@V?$Handle@VISubscription@@@@@@PEAV?$Handle@VISubscription@@@@@@QEAA@XZ
??1?$AutoCleanup@V?$AutoDelete@V?$SafeMap_Iterator@PEAVCListenerConnect@@PEAV1@@@@@PEAV?$SafeMap_Iterator@PEAVCListenerConnect@@PEAV1@@@@@QEAA@XZ
??1?$AutoCleanup@V?$AutoDelete@V?$SafeMap_Iterator@PEAVCListenerReceive@@PEAV1@@@@@PEAV?$SafeMap_Iterator@PEAVCListenerReceive@@PEAV1@@@@@QEAA@XZ
??1?$AutoCleanup@V?$AutoDelete@V?$SafeMap_Iterator@PEAVCListenerSend@@PEAV1@@@@@PEAV?$SafeMap_Iterator@PEAVCListenerSend@@PEAV1@@@@@QEAA@XZ
??1?$AutoCleanup@V?$AutoDelete@V?$SafeMap_Iterator@PEAVCListenerSignal@@PEAV1@@@@@PEAV?$SafeMap_Iterator@PEAVCListenerSignal@@PEAV1@@@@@QEAA@XZ
??1?$AutoCleanup@V?$AutoDelete@V?$SafeMap_Iterator@VGuidKey@@PEAVCListenerCommand@@@@@@PEAV?$SafeMap_Iterator@VGuidKey@@PEAVCListenerCommand@@@@@@QEAA@XZ
??1?$AutoCleanup@V?$AutoDelete@V?$SafeMap_Iterator@VStringKeyCI@@K@@@@PEAV?$SafeMap_Iterator@VStringKeyCI@@K@@@@QEAA@XZ
??1?$AutoCleanup@V?$AutoDelete@V?$SafeMap_Iterator@W4WSManSessionOption@@PEAVOptionValue@SessionOptions@Client@WSMan@@@@@@PEAV?$SafeMap_Iterator@W4WSManSessionOption@@PEAVOptionValue@SessionOptions@Client@WSMan@@@@@@QEAA@XZ
??1?$AutoCleanup@V?$AutoDelete@V?$SafeSet@PEAVCCertMapping@@@@@@PEAV?$SafeSet@PEAVCCertMapping@@@@@@QEAA@XZ
??1?$AutoCleanup@V?$AutoDelete@V?$SafeSet@PEAVCShellUriSettings@@@@@@PEAV?$SafeSet@PEAVCShellUriSettings@@@@@@QEAA@XZ
??1?$AutoCleanup@V?$AutoDelete@V?$SafeSet_Iterator@PEAVCListenerOperation@@@@@@PEAV?$SafeSet_Iterator@PEAVCListenerOperation@@@@@@QEAA@XZ
??1?$AutoCleanup@V?$AutoDelete@V?$SafeSet_Iterator@PEAVCollector@@@@@@PEAV?$SafeSet_Iterator@PEAVCollector@@@@@@QEAA@XZ
??1?$AutoCleanup@V?$AutoDelete@V?$SafeSet_Iterator@PEAVHostOperation@@@@@@PEAV?$SafeSet_Iterator@PEAVHostOperation@@@@@@QEAA@XZ
??1?$AutoCleanup@V?$AutoDelete@V?$SafeSet_Iterator@PEAVListenerSourceSubscription@@@@@@PEAV?$SafeSet_Iterator@PEAVListenerSourceSubscription@@@@@@QEAA@XZ
??1?$AutoCleanup@V?$AutoDelete@V?$SimpleStack@VCListenerOperation@@@@@@PEAV?$SimpleStack@VCListenerOperation@@@@@@QEAA@XZ
??1?$AutoCleanup@V?$AutoDelete@V?$SimpleStack@VShellHostEntry@@@@@@PEAV?$SimpleStack@VShellHostEntry@@@@@@QEAA@XZ
??1?$AutoCleanup@V?$AutoDelete@V?$queue@PEAU_WSMAN_PUBLISHER_EVENT_STRUCT@@V?$deque@PEAU_WSMAN_PUBLISHER_EVENT_STRUCT@@V?$transport_allocator@PEAU_WSMAN_PUBLISHER_EVENT_STRUCT@@@@@std@@@std@@@@PEAV?$queue@PEAU_WSMAN_PUBLISHER_EVENT_STRUCT@@V?$deque@PEAU_WSMAN_PUBLISHER_EVENT_STRUCT@@V?$transport_allocator@PEAU_WSMAN_PUBLISHER_EVENT_STRUCT@@@@@std@@@std@@@@QEAA@XZ
??1?$AutoCleanup@V?$AutoDelete@V?$set@PEAVCListenerSettings@@VCListenerSettingsLessFunctor@CServiceConfigSettings@@V?$transport_allocator@PEAVCListenerSettings@@@@@std@@@@PEAV?$set@PEAVCListenerSettings@@VCListenerSettingsLessFunctor@CServiceConfigSettings@@V?$transport_allocator@PEAVCListenerSettings@@@@@std@@@@QEAA@XZ
??1?$AutoCleanup@V?$AutoDelete@V?$set@Usockaddr_storage@@VSockAddrLessFunctor@CListenerSettings@@V?$transport_allocator@Usockaddr_storage@@@@@std@@@@PEAV?$set@Usockaddr_storage@@VSockAddrLessFunctor@CListenerSettings@@V?$transport_allocator@Usockaddr_storage@@@@@std@@@@QEAA@XZ
??1?$AutoCleanup@V?$AutoDelete@V?$vector@PEAVCWSManRequest@@V?$transport_allocator@PEAVCWSManRequest@@@@@std@@@@PEAV?$vector@PEAVCWSManRequest@@V?$transport_allocator@PEAVCWSManRequest@@@@@std@@@@QEAA@XZ
??1?$AutoCleanup@V?$AutoDelete@V?$vector@PEAVHandleImpl@Client@WSMan@@V?$transport_allocator@PEAVHandleImpl@Client@WSMan@@@@@std@@@@PEAV?$vector@PEAVHandleImpl@Client@WSMan@@V?$transport_allocator@PEAVHandleImpl@Client@WSMan@@@@@std@@@@QEAA@XZ
??1?$AutoCleanup@V?$AutoDelete@V?$vector@PEAVIServiceConfigObserver@@V?$transport_allocator@PEAVIServiceConfigObserver@@@@@std@@@@PEAV?$vector@PEAVIServiceConfigObserver@@V?$transport_allocator@PEAVIServiceConfigObserver@@@@@std@@@@QEAA@XZ
??1?$AutoCleanup@V?$AutoDelete@V?$vector@PEAVWSManHttpSenderConnection@@V?$transport_allocator@PEAVWSManHttpSenderConnection@@@@@std@@@@PEAV?$vector@PEAVWSManHttpSenderConnection@@V?$transport_allocator@PEAVWSManHttpSenderConnection@@@@@std@@@@QEAA@XZ
??1?$AutoCleanup@V?$AutoDelete@VAdminSid@CSecurity@@@@PEAVAdminSid@CSecurity@@@@QEAA@XZ
??1?$AutoCleanup@V?$AutoDelete@VBlockedRecord@@@@PEAVBlockedRecord@@@@QEAA@XZ
??1?$AutoCleanup@V?$AutoDelete@VCBaseConfigCache@@@@PEAVCBaseConfigCache@@@@QEAA@XZ
??1?$AutoCleanup@V?$AutoDelete@VCCertMapping@@@@PEAVCCertMapping@@@@QEAA@XZ
??1?$AutoCleanup@V?$AutoDelete@VCConfigChangeSource@@@@PEAVCConfigChangeSource@@@@QEAA@XZ
??1?$AutoCleanup@V?$AutoDelete@VCListenerSettings@@@@PEAVCListenerSettings@@@@QEAA@XZ
??1?$AutoCleanup@V?$AutoDelete@VCObserverConfigChangeErrors@@@@PEAVCObserverConfigChangeErrors@@@@QEAA@XZ
??1?$AutoCleanup@V?$AutoDelete@VCServiceWatcher@CServiceConfigCache@@@@PEAVCServiceWatcher@CServiceConfigCache@@@@QEAA@XZ
??1?$AutoCleanup@V?$AutoDelete@VCShellUriSettings@@@@PEAVCShellUriSettings@@@@QEAA@XZ
??1?$AutoCleanup@V?$AutoDelete@VCWSManEPR@@@@PEAVCWSManEPR@@@@QEAA@XZ
??1?$AutoCleanup@V?$AutoDelete@VCWSManResource@@@@PEAVCWSManResource@@@@QEAA@XZ
??1?$AutoCleanup@V?$AutoDelete@VCertHash@@@@PEAVCertHash@@@@QEAA@XZ
??1?$AutoCleanup@V?$AutoDelete@VConfigUpdate@@@@PEAVConfigUpdate@@@@QEAA@XZ
??1?$AutoCleanup@V?$AutoDelete@VEnumSinkEx@@@@PEAVEnumSinkEx@@@@QEAA@XZ
??1?$AutoCleanup@V?$AutoDelete@VEventHandler@WSMan@@@@PEAVEventHandler@WSMan@@@@QEAA@XZ
??1?$AutoCleanup@V?$AutoDelete@VExpiredOperationIdRecord@@@@PEAVExpiredOperationIdRecord@@@@QEAA@XZ
??1?$AutoCleanup@V?$AutoDelete@VGPApiManager@@@@PEAVGPApiManager@@@@QEAA@XZ
??1?$AutoCleanup@V?$AutoDelete@VGeneralSinkEx@@@@PEAVGeneralSinkEx@@@@QEAA@XZ
??1?$AutoCleanup@V?$AutoDelete@VIChannelObserverFactory@@@@PEAVIChannelObserverFactory@@@@QEAA@XZ
??1?$AutoCleanup@V?$AutoDelete@VIQueryDASHSMASHInterface@@@@PEAVIQueryDASHSMASHInterface@@@@QEAA@XZ
??1?$AutoCleanup@V?$AutoDelete@VISpecification@@@@PEAVISpecification@@@@QEAA@XZ
??1?$AutoCleanup@V?$AutoDelete@VInteractiveSid@CSecurity@@@@PEAVInteractiveSid@CSecurity@@@@QEAA@XZ
??1?$AutoCleanup@V?$AutoDelete@VIpHlpApiDllLoader@@@@PEAVIpHlpApiDllLoader@@@@QEAA@XZ
??1?$AutoCleanup@V?$AutoDelete@VMachineName@@@@PEAVMachineName@@@@QEAA@XZ
??1?$AutoCleanup@V?$AutoDelete@VMasterReceiveData@CListenerReceive@@@@PEAVMasterReceiveData@CListenerReceive@@@@QEAA@XZ
??1?$AutoCleanup@V?$AutoDelete@VNetworkServiceSid@CSecurity@@@@PEAVNetworkServiceSid@CSecurity@@@@QEAA@XZ
??1?$AutoCleanup@V?$AutoDelete@VNtDsApiDllLoader@@@@PEAVNtDsApiDllLoader@@@@QEAA@XZ
??1?$AutoCleanup@V?$AutoDelete@VOptionValue@SessionOptions@Client@WSMan@@@@PEAVOptionValue@SessionOptions@Client@WSMan@@@@QEAA@XZ
??1?$AutoCleanup@V?$AutoDelete@VPacketCreator@@@@PEAVPacketCreator@@@@QEAA@XZ
??1?$AutoCleanup@V?$AutoDelete@VPacketParser@@@@PEAVPacketParser@@@@QEAA@XZ
??1?$AutoCleanup@V?$AutoDelete@VResources@Locale@@@@PEAVResources@Locale@@@@QEAA@XZ
??1?$AutoCleanup@V?$AutoDelete@VRunAsConfiguration@@@@PEAVRunAsConfiguration@@@@QEAA@XZ
??1?$AutoCleanup@V?$AutoDelete@VSecurityEntry@Catalog@@@@PEAVSecurityEntry@Catalog@@@@QEAA@XZ
??1?$AutoCleanup@V?$AutoDelete@VSendPacketArgs@RobustConnectionBuffer@@@@PEAVSendPacketArgs@RobustConnectionBuffer@@@@QEAA@XZ
??1?$AutoCleanup@V?$AutoDelete@VServiceSoapProcessor@@@@PEAVServiceSoapProcessor@@@@QEAA@XZ
??1?$AutoCleanup@V?$AutoDelete@VShell32DllLoader@@@@PEAVShell32DllLoader@@@@QEAA@XZ
??1?$AutoCleanup@V?$AutoDelete@VShlWApiDllLoader@@@@PEAVShlWApiDllLoader@@@@QEAA@XZ
??1?$AutoCleanup@V?$AutoDelete@VSubscriptionEnumerator@@@@PEAVSubscriptionEnumerator@@@@QEAA@XZ
??1?$AutoCleanup@V?$AutoDelete@VSubscriptionManager@@@@PEAVSubscriptionManager@@@@QEAA@XZ
??1?$AutoCleanup@V?$AutoDelete@VTSTRBUFFER@@@@PEAVTSTRBUFFER@@@@QEAA@XZ
??1?$AutoCleanup@V?$AutoDelete@VUniqueStringOverflow@@@@PEAVUniqueStringOverflow@@@@QEAA@XZ
??1?$AutoCleanup@V?$AutoDelete@VUser32DllLoader@@@@PEAVUser32DllLoader@@@@QEAA@XZ
??1?$AutoCleanup@V?$AutoDelete@VWSMANCONFIGTABLE_IDENTITY@@@@PEAVWSMANCONFIGTABLE_IDENTITY@@@@QEAA@XZ
??1?$AutoCleanup@V?$AutoDelete@VWSManMemCryptManager@@@@PEAVWSManMemCryptManager@@@@QEAA@XZ
??1?$AutoCleanup@V?$AutoDelete@VWmiEnumContext@@@@PEAVWmiEnumContext@@@@QEAA@XZ
??1?$AutoCleanup@V?$AutoDelete@VXmlReader@@@@PEAVXmlReader@@@@QEAA@XZ
??1?$AutoCleanup@V?$AutoDeleteVector@$$CBG@@PEBG@@QEAA@XZ
??1?$AutoCleanup@V?$AutoDeleteVector@D@@PEAD@@QEAA@XZ
??1?$AutoCleanup@V?$AutoDeleteVector@E@@PEAE@@QEAA@XZ
??1?$AutoCleanup@V?$AutoDeleteVector@G@@PEAG@@QEAA@XZ
??1?$AutoCleanup@V?$AutoDeleteVector@H@@PEAH@@QEAA@XZ
??1?$AutoCleanup@V?$AutoDeleteVector@PEAG@@PEAPEAG@@QEAA@XZ
??1?$AutoCleanup@V?$AutoDeleteVector@PEBG@@PEAPEBG@@QEAA@XZ
??1?$AutoCleanup@V?$AutoDeleteVector@U_CONFIG_UPDATE@@@@PEAU_CONFIG_UPDATE@@@@QEAA@XZ
??1?$AutoCleanup@V?$AutoDeleteVector@U_WINRS_CREATE_SHELL_ENVIRONMENT_VARIABLE@@@@PEAU_WINRS_CREATE_SHELL_ENVIRONMENT_VARIABLE@@@@QEAA@XZ
??1?$AutoCleanup@V?$AutoDeleteVector@U_WINRS_RUN_COMMAND_ARG@@@@PEAU_WINRS_RUN_COMMAND_ARG@@@@QEAA@XZ
??1?$AutoCleanup@V?$AutoDeleteVector@U_WSMAN_OPTION@@@@PEAU_WSMAN_OPTION@@@@QEAA@XZ
??1?$AutoCleanup@V?$AutoDeleteVector@X@@PEAX@@QEAA@XZ
??1?$AutoCleanup@V?$AutoFree@E@@PEAE@@QEAA@XZ
??1?$AutoCleanup@V?$AutoLocklessItemRecycle@VPacket@@@@PEAVPacket@@@@QEAA@XZ
??1?$AutoCleanup@V?$AutoRelease@UIAppHostAdminManager@@@@PEAUIAppHostAdminManager@@@@QEAA@XZ
??1?$AutoCleanup@V?$AutoRelease@UIAppHostChildElementCollection@@@@PEAUIAppHostChildElementCollection@@@@QEAA@XZ
??1?$AutoCleanup@V?$AutoRelease@UIAppHostConfigException@@@@PEAUIAppHostConfigException@@@@QEAA@XZ
??1?$AutoCleanup@V?$AutoRelease@UIAppHostElement@@@@PEAUIAppHostElement@@@@QEAA@XZ
??1?$AutoCleanup@V?$AutoRelease@UIAppHostElementCollection@@@@PEAUIAppHostElementCollection@@@@QEAA@XZ
??1?$AutoCleanup@V?$AutoRelease@UIAppHostProperty@@@@PEAUIAppHostProperty@@@@QEAA@XZ
??1?$AutoCleanup@V?$AutoRelease@UIAppHostPropertyCollection@@@@PEAUIAppHostPropertyCollection@@@@QEAA@XZ
??1?$AutoCleanup@V?$AutoRelease@UIClientSecurity@@@@PEAUIClientSecurity@@@@QEAA@XZ
??1?$AutoCleanup@V?$AutoRelease@UIEnumWbemClassObject@@@@PEAUIEnumWbemClassObject@@@@QEAA@XZ
??1?$AutoCleanup@V?$AutoRelease@UIErrorInfo@@@@PEAUIErrorInfo@@@@QEAA@XZ
??1?$AutoCleanup@V?$AutoRelease@UIUnknown@@@@PEAUIUnknown@@@@QEAA@XZ
??1?$AutoCleanup@V?$AutoRelease@UIWbemClassObject@@@@PEAUIWbemClassObject@@@@QEAA@XZ
??1?$AutoCleanup@V?$AutoRelease@UIWbemContext@@@@PEAUIWbemContext@@@@QEAA@XZ
??1?$AutoCleanup@V?$AutoRelease@UIWbemLocator@@@@PEAUIWbemLocator@@@@QEAA@XZ
??1?$AutoCleanup@V?$AutoRelease@UIWbemObjectTextSrc@@@@PEAUIWbemObjectTextSrc@@@@QEAA@XZ
??1?$AutoCleanup@V?$AutoRelease@UIWbemPath@@@@PEAUIWbemPath@@@@QEAA@XZ
??1?$AutoCleanup@V?$AutoRelease@UIWbemPathKeyList@@@@PEAUIWbemPathKeyList@@@@QEAA@XZ
??1?$AutoCleanup@V?$AutoRelease@UIWbemQualifierSet@@@@PEAUIWbemQualifierSet@@@@QEAA@XZ
??1?$AutoCleanup@V?$AutoRelease@UIWbemQuery@@@@PEAUIWbemQuery@@@@QEAA@XZ
??1?$AutoCleanup@V?$AutoRelease@UIWbemServices@@@@PEAUIWbemServices@@@@QEAA@XZ
??1?$AutoCleanup@V?$AutoRelease@VApplication@Client@WSMan@@@@PEAVApplication@Client@WSMan@@@@QEAA@XZ
??1?$AutoCleanup@V?$AutoRelease@VCBaseConfigCache@@@@PEAVCBaseConfigCache@@@@QEAA@XZ
??1?$AutoCleanup@V?$AutoRelease@VCClientConfigCache@@@@PEAVCClientConfigCache@@@@QEAA@XZ
??1?$AutoCleanup@V?$AutoRelease@VCClientConfigSettings@@@@PEAVCClientConfigSettings@@@@QEAA@XZ
??1?$AutoCleanup@V?$AutoRelease@VCCommonConfigSettings@@@@PEAVCCommonConfigSettings@@@@QEAA@XZ
??1?$AutoCleanup@V?$AutoRelease@VCConfigCacheMap@CBaseConfigCache@@@@PEAVCConfigCacheMap@CBaseConfigCache@@@@QEAA@XZ
??1?$AutoCleanup@V?$AutoRelease@VCConfigManager@@@@PEAVCConfigManager@@@@QEAA@XZ
??1?$AutoCleanup@V?$AutoRelease@VCListenerCommand@@@@PEAVCListenerCommand@@@@QEAA@XZ
??1?$AutoCleanup@V?$AutoRelease@VCListenerMasterOperation@@@@PEAVCListenerMasterOperation@@@@QEAA@XZ
??1?$AutoCleanup@V?$AutoRelease@VCListenerReceive@@@@PEAVCListenerReceive@@@@QEAA@XZ
??1?$AutoCleanup@V?$AutoRelease@VCListenerShell@@@@PEAVCListenerShell@@@@QEAA@XZ
??1?$AutoCleanup@V?$AutoRelease@VCRemoteOperation@@@@PEAVCRemoteOperation@@@@QEAA@XZ
??1?$AutoCleanup@V?$AutoRelease@VCRemoteSession@@@@PEAVCRemoteSession@@@@QEAA@XZ
??1?$AutoCleanup@V?$AutoRelease@VCRequestContext@@@@PEAVCRequestContext@@@@QEAA@XZ
??1?$AutoCleanup@V?$AutoRelease@VCServiceCommonConfigSettings@@@@PEAVCServiceCommonConfigSettings@@@@QEAA@XZ
??1?$AutoCleanup@V?$AutoRelease@VCServiceConfigCache@@@@PEAVCServiceConfigCache@@@@QEAA@XZ
??1?$AutoCleanup@V?$AutoRelease@VCServiceConfigSettings@@@@PEAVCServiceConfigSettings@@@@QEAA@XZ
??1?$AutoCleanup@V?$AutoRelease@VCWSManEPR@@@@PEAVCWSManEPR@@@@QEAA@XZ
??1?$AutoCleanup@V?$AutoRelease@VCWSManGroupPolicyCache@@@@PEAVCWSManGroupPolicyCache@@@@QEAA@XZ
??1?$AutoCleanup@V?$AutoRelease@VCWSManGroupPolicyManager@@@@PEAVCWSManGroupPolicyManager@@@@QEAA@XZ
??1?$AutoCleanup@V?$AutoRelease@VCWSManObject@@@@PEAVCWSManObject@@@@QEAA@XZ
??1?$AutoCleanup@V?$AutoRelease@VCWSManResource@@@@PEAVCWSManResource@@@@QEAA@XZ
??1?$AutoCleanup@V?$AutoRelease@VCWSManSession@@@@PEAVCWSManSession@@@@QEAA@XZ
??1?$AutoCleanup@V?$AutoRelease@VCWinRSPluginConfigCache@@@@PEAVCWinRSPluginConfigCache@@@@QEAA@XZ
??1?$AutoCleanup@V?$AutoRelease@VCWinRSPluginConfigSettings@@@@PEAVCWinRSPluginConfigSettings@@@@QEAA@XZ
??1?$AutoCleanup@V?$AutoRelease@VCommand@Client@WSMan@@@@PEAVCommand@Client@WSMan@@@@QEAA@XZ
??1?$AutoCleanup@V?$AutoRelease@VConfigNotification@@@@PEAVConfigNotification@@@@QEAA@XZ
??1?$AutoCleanup@V?$AutoRelease@VConnectShellOperation@Client@WSMan@@@@PEAVConnectShellOperation@Client@WSMan@@@@QEAA@XZ
??1?$AutoCleanup@V?$AutoRelease@VCreateShellOperation@Client@WSMan@@@@PEAVCreateShellOperation@Client@WSMan@@@@QEAA@XZ
??1?$AutoCleanup@V?$AutoRelease@VDeleteShellOperation@Client@WSMan@@@@PEAVDeleteShellOperation@Client@WSMan@@@@QEAA@XZ
??1?$AutoCleanup@V?$AutoRelease@VDisconnectOperation@Client@WSMan@@@@PEAVDisconnectOperation@Client@WSMan@@@@QEAA@XZ
??1?$AutoCleanup@V?$AutoRelease@VEnumSinkEx@@@@PEAVEnumSinkEx@@@@QEAA@XZ
??1?$AutoCleanup@V?$AutoRelease@VGeneralSinkEx@@@@PEAVGeneralSinkEx@@@@QEAA@XZ
??1?$AutoCleanup@V?$AutoRelease@VHostMappingTable@@@@PEAVHostMappingTable@@@@QEAA@XZ
??1?$AutoCleanup@V?$AutoRelease@VIISConfigSettings@@@@PEAVIISConfigSettings@@@@QEAA@XZ
??1?$AutoCleanup@V?$AutoRelease@VIPCSoapProcessor@@@@PEAVIPCSoapProcessor@@@@QEAA@XZ
??1?$AutoCleanup@V?$AutoRelease@VIRequestContext@@@@PEAVIRequestContext@@@@QEAA@XZ
??1?$AutoCleanup@V?$AutoRelease@VISubscription@@@@PEAVISubscription@@@@QEAA@XZ
??1?$AutoCleanup@V?$AutoRelease@VInboundRequestDetails@@@@PEAVInboundRequestDetails@@@@QEAA@XZ
??1?$AutoCleanup@V?$AutoRelease@VProxyManager@Client@WSMan@@@@PEAVProxyManager@Client@WSMan@@@@QEAA@XZ
??1?$AutoCleanup@V?$AutoRelease@VProxySelection@Client@WSMan@@@@PEAVProxySelection@Client@WSMan@@@@QEAA@XZ
??1?$AutoCleanup@V?$AutoRelease@VPushSubscribeOperation@@@@PEAVPushSubscribeOperation@@@@QEAA@XZ
??1?$AutoCleanup@V?$AutoRelease@VPushSubscription@@@@PEAVPushSubscription@@@@QEAA@XZ
??1?$AutoCleanup@V?$AutoRelease@VReceiveOperation@Client@WSMan@@@@PEAVReceiveOperation@Client@WSMan@@@@QEAA@XZ
??1?$AutoCleanup@V?$AutoRelease@VReconnectOperation@Client@WSMan@@@@PEAVReconnectOperation@Client@WSMan@@@@QEAA@XZ
??1?$AutoCleanup@V?$AutoRelease@VSendOperation@Client@WSMan@@@@PEAVSendOperation@Client@WSMan@@@@QEAA@XZ
??1?$AutoCleanup@V?$AutoRelease@VShell@Client@WSMan@@@@PEAVShell@Client@WSMan@@@@QEAA@XZ
??1?$AutoCleanup@V?$AutoRelease@VShellInfo@@@@PEAVShellInfo@@@@QEAA@XZ
??1?$AutoCleanup@V?$AutoRelease@VSignalOperation@Client@WSMan@@@@PEAVSignalOperation@Client@WSMan@@@@QEAA@XZ
??1?$AutoCleanup@V?$AutoRelease@VUserRecord@@@@PEAVUserRecord@@@@QEAA@XZ
??1?$AutoCleanup@V?$AutoRelease@VWSManHttpListener@@@@PEAVWSManHttpListener@@@@QEAA@XZ
??1?$AutoCleanup@V?$AutoReleaseEx@VHostMappingTableEntry@@@@PEAVHostMappingTableEntry@@@@QEAA@XZ
??1?$AutoCleanup@V?$AutoReleaseEx@VShell@Client@WSMan@@@@PEAVShell@Client@WSMan@@@@QEAA@XZ
??1?$AutoCleanup@VAutoBstr@@PEAG@@QEAA@XZ
??1?$AutoCleanup@VAutoBstrNoAlloc@@PEAG@@QEAA@XZ
??1?$AutoCleanup@VAutoCertContext@@PEBU_CERT_CONTEXT@@@@QEAA@XZ
??1?$AutoCleanup@VAutoChainContext@@PEBU_CERT_CHAIN_CONTEXT@@@@QEAA@XZ
??1?$AutoCleanup@VAutoCoTaskMemFree@@PEAX@@QEAA@XZ
??1?$AutoCleanup@VAutoFwXmlCloseParser@@PEAX@@QEAA@XZ
??1?$AutoCleanup@VAutoHandle@@PEAX@@QEAA@XZ
??1?$AutoCleanup@VAutoImpersonateUser@@PEAX@@QEAA@XZ
??1?$AutoCleanup@VAutoLibrary@@PEAUHINSTANCE__@@@@QEAA@XZ
??1?$AutoCleanup@VAutoLocalFree@@PEAX@@QEAA@XZ
??1?$AutoCleanup@VAutoMIClass@@PEAU_MI_Class@@@@QEAA@XZ
??1?$AutoCleanup@VAutoMIInstance@@PEAU_MI_Instance@@@@QEAA@XZ
??1?$AutoCleanup@VAutoObject@@PEAUWSMAN_OBJECT@@@@QEAA@XZ
??1?$AutoCleanup@VAutoRegKey@@PEAUHKEY__@@@@QEAA@XZ
??1?$AutoCleanup@VAutoSecurityDescriptor@@PEAX@@QEAA@XZ
??1?$AutoCleanup@VAutoWaitHandle@@PEAX@@QEAA@XZ
??1?$AutoDelete@D@@QEAA@XZ
??1?$AutoDelete@G@@QEAA@XZ
??1?$AutoDelete@UIPRange@CWSManIPFilter@@@@QEAA@XZ
??1?$AutoDelete@U_SID@@@@QEAA@XZ
??1?$AutoDelete@U_WSMAN_STREAM_ID_SET@@@@QEAA@XZ
??1?$AutoDelete@V?$Handle@VISubscription@@@@@@QEAA@XZ
??1?$AutoDelete@V?$SafeMap_Iterator@PEAVCListenerConnect@@PEAV1@@@@@QEAA@XZ
??1?$AutoDelete@V?$SafeMap_Iterator@PEAVCListenerReceive@@PEAV1@@@@@QEAA@XZ
??1?$AutoDelete@V?$SafeMap_Iterator@PEAVCListenerSend@@PEAV1@@@@@QEAA@XZ
??1?$AutoDelete@V?$SafeMap_Iterator@PEAVCListenerSignal@@PEAV1@@@@@QEAA@XZ
??1?$AutoDelete@V?$SafeMap_Iterator@VGuidKey@@PEAVCListenerCommand@@@@@@QEAA@XZ
??1?$AutoDelete@V?$SafeMap_Iterator@VStringKeyCI@@K@@@@QEAA@XZ
??1?$AutoDelete@V?$SafeMap_Iterator@W4WSManSessionOption@@PEAVOptionValue@SessionOptions@Client@WSMan@@@@@@QEAA@XZ
??1?$AutoDelete@V?$SafeSet@PEAVCCertMapping@@@@@@QEAA@XZ
??1?$AutoDelete@V?$SafeSet@PEAVCShellUriSettings@@@@@@QEAA@XZ
??1?$AutoDelete@V?$SafeSet_Iterator@PEAVCListenerOperation@@@@@@QEAA@XZ
??1?$AutoDelete@V?$SafeSet_Iterator@PEAVCollector@@@@@@QEAA@XZ
??1?$AutoDelete@V?$SafeSet_Iterator@PEAVHostOperation@@@@@@QEAA@XZ
??1?$AutoDelete@V?$SafeSet_Iterator@PEAVListenerSourceSubscription@@@@@@QEAA@XZ
??1?$AutoDelete@V?$SimpleStack@VCListenerOperation@@@@@@QEAA@XZ
??1?$AutoDelete@V?$SimpleStack@VShellHostEntry@@@@@@QEAA@XZ
??1?$AutoDelete@V?$queue@PEAU_WSMAN_PUBLISHER_EVENT_STRUCT@@V?$deque@PEAU_WSMAN_PUBLISHER_EVENT_STRUCT@@V?$transport_allocator@PEAU_WSMAN_PUBLISHER_EVENT_STRUCT@@@@@std@@@std@@@@QEAA@XZ
??1?$AutoDelete@V?$set@PEAVCListenerSettings@@VCListenerSettingsLessFunctor@CServiceConfigSettings@@V?$transport_allocator@PEAVCListenerSettings@@@@@std@@@@QEAA@XZ
??1?$AutoDelete@V?$set@Usockaddr_storage@@VSockAddrLessFunctor@CListenerSettings@@V?$transport_allocator@Usockaddr_storage@@@@@std@@@@QEAA@XZ
??1?$AutoDelete@V?$vector@PEAVCWSManRequest@@V?$transport_allocator@PEAVCWSManRequest@@@@@std@@@@QEAA@XZ
??1?$AutoDelete@V?$vector@PEAVHandleImpl@Client@WSMan@@V?$transport_allocator@PEAVHandleImpl@Client@WSMan@@@@@std@@@@QEAA@XZ
??1?$AutoDelete@V?$vector@PEAVIServiceConfigObserver@@V?$transport_allocator@PEAVIServiceConfigObserver@@@@@std@@@@QEAA@XZ
??1?$AutoDelete@V?$vector@PEAVWSManHttpSenderConnection@@V?$transport_allocator@PEAVWSManHttpSenderConnection@@@@@std@@@@QEAA@XZ
??1?$AutoDelete@VAdminSid@CSecurity@@@@QEAA@XZ
??1?$AutoDelete@VBlockedRecord@@@@QEAA@XZ
??1?$AutoDelete@VCBaseConfigCache@@@@QEAA@XZ
??1?$AutoDelete@VCCertMapping@@@@QEAA@XZ
??1?$AutoDelete@VCConfigChangeSource@@@@QEAA@XZ
??1?$AutoDelete@VCListenerSettings@@@@QEAA@XZ
??1?$AutoDelete@VCObserverConfigChangeErrors@@@@QEAA@XZ
??1?$AutoDelete@VCServiceWatcher@CServiceConfigCache@@@@QEAA@XZ
??1?$AutoDelete@VCShellUriSettings@@@@QEAA@XZ
??1?$AutoDelete@VCWSManEPR@@@@QEAA@XZ
??1?$AutoDelete@VCWSManResource@@@@QEAA@XZ
??1?$AutoDelete@VCertHash@@@@QEAA@XZ
??1?$AutoDelete@VConfigUpdate@@@@QEAA@XZ
??1?$AutoDelete@VEnumSinkEx@@@@QEAA@XZ
??1?$AutoDelete@VEventHandler@WSMan@@@@QEAA@XZ
??1?$AutoDelete@VExpiredOperationIdRecord@@@@QEAA@XZ
??1?$AutoDelete@VGPApiManager@@@@QEAA@XZ
??1?$AutoDelete@VGeneralSinkEx@@@@QEAA@XZ
??1?$AutoDelete@VIChannelObserverFactory@@@@QEAA@XZ
??1?$AutoDelete@VIQueryDASHSMASHInterface@@@@QEAA@XZ
??1?$AutoDelete@VISpecification@@@@QEAA@XZ
??1?$AutoDelete@VInteractiveSid@CSecurity@@@@QEAA@XZ
??1?$AutoDelete@VIpHlpApiDllLoader@@@@QEAA@XZ
??1?$AutoDelete@VMachineName@@@@QEAA@XZ
??1?$AutoDelete@VMasterReceiveData@CListenerReceive@@@@QEAA@XZ
??1?$AutoDelete@VNetworkServiceSid@CSecurity@@@@QEAA@XZ
??1?$AutoDelete@VNtDsApiDllLoader@@@@QEAA@XZ
??1?$AutoDelete@VOptionValue@SessionOptions@Client@WSMan@@@@QEAA@XZ
??1?$AutoDelete@VPacketCreator@@@@QEAA@XZ
??1?$AutoDelete@VPacketParser@@@@QEAA@XZ
??1?$AutoDelete@VResources@Locale@@@@QEAA@XZ
??1?$AutoDelete@VRunAsConfiguration@@@@QEAA@XZ
??1?$AutoDelete@VSecurityEntry@Catalog@@@@QEAA@XZ
??1?$AutoDelete@VSendPacketArgs@RobustConnectionBuffer@@@@QEAA@XZ
??1?$AutoDelete@VServiceSoapProcessor@@@@QEAA@XZ
??1?$AutoDelete@VShell32DllLoader@@@@QEAA@XZ
??1?$AutoDelete@VShlWApiDllLoader@@@@QEAA@XZ
??1?$AutoDelete@VSubscriptionEnumerator@@@@QEAA@XZ
??1?$AutoDelete@VSubscriptionManager@@@@QEAA@XZ
??1?$AutoDelete@VTSTRBUFFER@@@@QEAA@XZ
??1?$AutoDelete@VUniqueStringOverflow@@@@QEAA@XZ
??1?$AutoDelete@VUser32DllLoader@@@@QEAA@XZ
??1?$AutoDelete@VWSMANCONFIGTABLE_IDENTITY@@@@QEAA@XZ
??1?$AutoDelete@VWSManMemCryptManager@@@@QEAA@XZ
??1?$AutoDelete@VWmiEnumContext@@@@QEAA@XZ
??1?$AutoDelete@VXmlReader@@@@QEAA@XZ
??1?$AutoDeleteVector@$$CBG@@QEAA@XZ
??1?$AutoDeleteVector@D@@QEAA@XZ
??1?$AutoDeleteVector@E@@QEAA@XZ
??1?$AutoDeleteVector@G@@QEAA@XZ
??1?$AutoDeleteVector@H@@QEAA@XZ
??1?$AutoDeleteVector@PEAG@@QEAA@XZ
??1?$AutoDeleteVector@PEBG@@QEAA@XZ
??1?$AutoDeleteVector@U_CONFIG_UPDATE@@@@QEAA@XZ
??1?$AutoDeleteVector@U_WINRS_CREATE_SHELL_ENVIRONMENT_VARIABLE@@@@QEAA@XZ
??1?$AutoDeleteVector@U_WINRS_RUN_COMMAND_ARG@@@@QEAA@XZ
??1?$AutoDeleteVector@U_WSMAN_OPTION@@@@QEAA@XZ
??1?$AutoDeleteVector@X@@QEAA@XZ
??1?$AutoFree@E@@QEAA@XZ
??1?$AutoLocklessItemRecycle@VPacket@@@@QEAA@XZ
??1?$AutoRelease@UIAppHostAdminManager@@@@QEAA@XZ
??1?$AutoRelease@UIAppHostChildElementCollection@@@@QEAA@XZ
??1?$AutoRelease@UIAppHostConfigException@@@@QEAA@XZ
??1?$AutoRelease@UIAppHostElement@@@@QEAA@XZ
??1?$AutoRelease@UIAppHostElementCollection@@@@QEAA@XZ
??1?$AutoRelease@UIAppHostProperty@@@@QEAA@XZ
??1?$AutoRelease@UIAppHostPropertyCollection@@@@QEAA@XZ
??1?$AutoRelease@UIClientSecurity@@@@QEAA@XZ
??1?$AutoRelease@UIEnumWbemClassObject@@@@QEAA@XZ
??1?$AutoRelease@UIErrorInfo@@@@QEAA@XZ
??1?$AutoRelease@UIUnknown@@@@QEAA@XZ
??1?$AutoRelease@UIWbemClassObject@@@@QEAA@XZ
??1?$AutoRelease@UIWbemContext@@@@QEAA@XZ
??1?$AutoRelease@UIWbemLocator@@@@QEAA@XZ
??1?$AutoRelease@UIWbemObjectTextSrc@@@@QEAA@XZ
??1?$AutoRelease@UIWbemPath@@@@QEAA@XZ
??1?$AutoRelease@UIWbemPathKeyList@@@@QEAA@XZ
??1?$AutoRelease@UIWbemQualifierSet@@@@QEAA@XZ
??1?$AutoRelease@UIWbemQuery@@@@QEAA@XZ
??1?$AutoRelease@UIWbemServices@@@@QEAA@XZ
??1?$AutoRelease@VApplication@Client@WSMan@@@@QEAA@XZ
??1?$AutoRelease@VCBaseConfigCache@@@@QEAA@XZ
??1?$AutoRelease@VCClientConfigCache@@@@QEAA@XZ
??1?$AutoRelease@VCClientConfigSettings@@@@QEAA@XZ
??1?$AutoRelease@VCCommonConfigSettings@@@@QEAA@XZ
??1?$AutoRelease@VCConfigCacheMap@CBaseConfigCache@@@@QEAA@XZ
??1?$AutoRelease@VCConfigManager@@@@QEAA@XZ
??1?$AutoRelease@VCListenerCommand@@@@QEAA@XZ
??1?$AutoRelease@VCListenerMasterOperation@@@@QEAA@XZ
??1?$AutoRelease@VCListenerReceive@@@@QEAA@XZ
??1?$AutoRelease@VCListenerShell@@@@QEAA@XZ
??1?$AutoRelease@VCRemoteOperation@@@@QEAA@XZ
??1?$AutoRelease@VCRemoteSession@@@@QEAA@XZ
??1?$AutoRelease@VCRequestContext@@@@QEAA@XZ
??1?$AutoRelease@VCServiceCommonConfigSettings@@@@QEAA@XZ
??1?$AutoRelease@VCServiceConfigCache@@@@QEAA@XZ
??1?$AutoRelease@VCServiceConfigSettings@@@@QEAA@XZ
??1?$AutoRelease@VCWSManEPR@@@@QEAA@XZ
??1?$AutoRelease@VCWSManGroupPolicyCache@@@@QEAA@XZ
??1?$AutoRelease@VCWSManGroupPolicyManager@@@@QEAA@XZ
??1?$AutoRelease@VCWSManObject@@@@QEAA@XZ
??1?$AutoRelease@VCWSManResource@@@@QEAA@XZ
??1?$AutoRelease@VCWSManSession@@@@QEAA@XZ
??1?$AutoRelease@VCWinRSPluginConfigCache@@@@QEAA@XZ
??1?$AutoRelease@VCWinRSPluginConfigSettings@@@@QEAA@XZ
??1?$AutoRelease@VCommand@Client@WSMan@@@@QEAA@XZ
??1?$AutoRelease@VConfigNotification@@@@QEAA@XZ
??1?$AutoRelease@VConnectShellOperation@Client@WSMan@@@@QEAA@XZ
??1?$AutoRelease@VCreateShellOperation@Client@WSMan@@@@QEAA@XZ
??1?$AutoRelease@VDeleteShellOperation@Client@WSMan@@@@QEAA@XZ
??1?$AutoRelease@VDisconnectOperation@Client@WSMan@@@@QEAA@XZ
??1?$AutoRelease@VEnumSinkEx@@@@QEAA@XZ
??1?$AutoRelease@VGeneralSinkEx@@@@QEAA@XZ
??1?$AutoRelease@VHostMappingTable@@@@QEAA@XZ
??1?$AutoRelease@VIISConfigSettings@@@@QEAA@XZ
??1?$AutoRelease@VIPCSoapProcessor@@@@QEAA@XZ
??1?$AutoRelease@VIRequestContext@@@@QEAA@XZ
??1?$AutoRelease@VISubscription@@@@QEAA@XZ
??1?$AutoRelease@VInboundRequestDetails@@@@QEAA@XZ
??1?$AutoRelease@VProxyManager@Client@WSMan@@@@QEAA@XZ
??1?$AutoRelease@VProxySelection@Client@WSMan@@@@QEAA@XZ
??1?$AutoRelease@VPushSubscribeOperation@@@@QEAA@XZ
??1?$AutoRelease@VPushSubscription@@@@QEAA@XZ
??1?$AutoRelease@VReceiveOperation@Client@WSMan@@@@QEAA@XZ
??1?$AutoRelease@VReconnectOperation@Client@WSMan@@@@QEAA@XZ
??1?$AutoRelease@VSendOperation@Client@WSMan@@@@QEAA@XZ
??1?$AutoRelease@VShell@Client@WSMan@@@@QEAA@XZ
??1?$AutoRelease@VShellInfo@@@@QEAA@XZ
??1?$AutoRelease@VSignalOperation@Client@WSMan@@@@QEAA@XZ
??1?$AutoRelease@VUserRecord@@@@QEAA@XZ
??1?$AutoRelease@VWSManHttpListener@@@@QEAA@XZ
??1?$AutoReleaseEx@VHostMappingTableEntry@@@@QEAA@XZ
??1?$AutoReleaseEx@VShell@Client@WSMan@@@@QEAA@XZ
??1?$ILoader@VAdminSid@CSecurity@@@@QEAA@XZ
??1?$ILoader@VEventHandler@WSMan@@@@QEAA@XZ
??1?$ILoader@VInteractiveSid@CSecurity@@@@QEAA@XZ
??1?$ILoader@VIpHlpApiDllLoader@@@@QEAA@XZ
??1?$ILoader@VMachineName@@@@QEAA@XZ
??1?$ILoader@VNetworkServiceSid@CSecurity@@@@QEAA@XZ
??1?$ILoader@VNtDsApiDllLoader@@@@QEAA@XZ
??1?$ILoader@VResources@Locale@@@@QEAA@XZ
??1?$ILoader@VShell32DllLoader@@@@QEAA@XZ
??1?$ILoader@VShlWApiDllLoader@@@@QEAA@XZ
??1?$ILoader@VSubscriptionManager@@@@QEAA@XZ
??1?$ILoader@VUser32DllLoader@@@@QEAA@XZ
??1?$ILoader@VWSManMemCryptManager@@@@QEAA@XZ
??1?$Loader@VAdminSid@CSecurity@@$00@@QEAA@XZ
??1?$Loader@VEventHandler@WSMan@@$00@@QEAA@XZ
??1?$Loader@VInteractiveSid@CSecurity@@$00@@QEAA@XZ
??1?$Loader@VIpHlpApiDllLoader@@$00@@QEAA@XZ
??1?$Loader@VMachineName@@$00@@QEAA@XZ
??1?$Loader@VNetworkServiceSid@CSecurity@@$00@@QEAA@XZ
??1?$Loader@VNtDsApiDllLoader@@$00@@QEAA@XZ
??1?$Loader@VResources@Locale@@$0A@@@QEAA@XZ
??1?$Loader@VShell32DllLoader@@$00@@QEAA@XZ
??1?$Loader@VShlWApiDllLoader@@$00@@QEAA@XZ
??1?$Loader@VSubscriptionManager@@$01@@QEAA@XZ
??1?$Loader@VUser32DllLoader@@$00@@QEAA@XZ
??1?$Loader@VWSManMemCryptManager@@$00@@QEAA@XZ
??1?$LoaderSerializer@VAdminSid@CSecurity@@$00@@QEAA@XZ
??1?$LoaderSerializer@VEventHandler@WSMan@@$00@@QEAA@XZ
??1?$LoaderSerializer@VInteractiveSid@CSecurity@@$00@@QEAA@XZ
??1?$LoaderSerializer@VIpHlpApiDllLoader@@$00@@QEAA@XZ
??1?$LoaderSerializer@VMachineName@@$00@@QEAA@XZ
??1?$LoaderSerializer@VNetworkServiceSid@CSecurity@@$00@@QEAA@XZ
??1?$LoaderSerializer@VNtDsApiDllLoader@@$00@@QEAA@XZ
??1?$LoaderSerializer@VResources@Locale@@$0A@@@QEAA@XZ
??1?$LoaderSerializer@VShell32DllLoader@@$00@@QEAA@XZ
??1?$LoaderSerializer@VShlWApiDllLoader@@$00@@QEAA@XZ
??1?$LoaderSerializer@VSubscriptionManager@@$01@@QEAA@XZ
??1?$LoaderSerializer@VUser32DllLoader@@$00@@QEAA@XZ
??1?$LoaderSerializer@VWSManMemCryptManager@@$00@@QEAA@XZ
??1?$SafeMap@PEAVCCertMapping@@UEmpty@@V?$SafeSet_Iterator@PEAVCCertMapping@@@@@@QEAA@XZ
??1?$SafeMap@PEAVCListenerOperation@@UEmpty@@V?$SafeSet_Iterator@PEAVCListenerOperation@@@@@@QEAA@XZ
??1?$SafeMap@PEAVCShellUriSettings@@UEmpty@@V?$SafeSet_Iterator@PEAVCShellUriSettings@@@@@@QEAA@XZ
??1?$SafeMap@PEAVCollector@@UEmpty@@V?$SafeSet_Iterator@PEAVCollector@@@@@@QEAA@XZ
??1?$SafeMap@PEAVHostOperation@@UEmpty@@V?$SafeSet_Iterator@PEAVHostOperation@@@@@@QEAA@XZ
??1?$SafeMap@PEAVIOperation@@UEmpty@@V?$SafeSet_Iterator@PEAVIOperation@@@@@@QEAA@XZ
??1?$SafeMap@PEAVListenerSourceSubscription@@UEmpty@@V?$SafeSet_Iterator@PEAVListenerSourceSubscription@@@@@@QEAA@XZ
??1?$SafeMap@PEAVPushSubscription@@UEmpty@@V?$SafeSet_Iterator@PEAVPushSubscription@@@@@@QEAA@XZ
??1?$SafeMap@PEAXUEmpty@@V?$SafeSet_Iterator@PEAX@@@@QEAA@XZ
??1?$SafeMap@UPluginKey@@KV?$SafeMap_Iterator@UPluginKey@@K@@@@QEAA@XZ
??1?$SafeMap@UUserKey@@PEAVBlockedRecord@@V?$SafeMap_Iterator@UUserKey@@PEAVBlockedRecord@@@@@@QEAA@XZ
??1?$SafeMap@VCertThumbprintKey@@VCertThumbprintMappedSet@CServiceConfigSettings@@V?$SafeMap_Iterator@VCertThumbprintKey@@VCertThumbprintMappedSet@CServiceConfigSettings@@@@@@QEAA@XZ
??1?$SafeMap@VKey@Locale@@KV?$SafeMap_Iterator@VKey@Locale@@K@@@@QEAA@XZ
??1?$SafeMap@VStringKeyCI@@KV?$SafeMap_Iterator@VStringKeyCI@@K@@@@QEAA@XZ
??1?$SafeMap@VStringKeyCI@@UEmpty@@V?$SafeSet_Iterator@VStringKeyCI@@@@@@QEAA@XZ
??1?$SafeMap@VStringKeyCI@@UUSER_CONTEXT_INFO@WSManHttpListener@@V?$SafeMap_Iterator@VStringKeyCI@@UUSER_CONTEXT_INFO@WSManHttpListener@@@@@@QEAA@XZ
??1?$SafeMap@VStringKeyStore@@PEAVExpiredOperationIdRecord@@V?$SafeMap_Iterator@VStringKeyStore@@PEAVExpiredOperationIdRecord@@@@@@QEAA@XZ
??1?$SafeMap@VStringKeyStore@@PEAVServerFullDuplexChannel@@V?$SafeMap_Iterator@VStringKeyStore@@PEAVServerFullDuplexChannel@@@@@@QEAA@XZ
??1?$SafeMap@W4WSManSessionOption@@PEAVOptionValue@SessionOptions@Client@WSMan@@V?$SafeMap_Iterator@W4WSManSessionOption@@PEAVOptionValue@SessionOptions@Client@WSMan@@@@@@QEAA@XZ
??1?$SafeMap@_KPEAVSendPacketArgs@RobustConnectionBuffer@@V?$SafeMap_Iterator@_KPEAVSendPacketArgs@RobustConnectionBuffer@@@@@@QEAA@XZ
??1?$SafeMap_Iterator@PEAVCCertMapping@@UEmpty@@@@QEAA@XZ
??1?$SafeMap_Iterator@PEAVCListenerConnect@@PEAV1@@@QEAA@XZ
??1?$SafeMap_Iterator@PEAVCListenerOperation@@UEmpty@@@@QEAA@XZ
??1?$SafeMap_Iterator@PEAVCListenerReceive@@PEAV1@@@QEAA@XZ
??1?$SafeMap_Iterator@PEAVCListenerSend@@PEAV1@@@QEAA@XZ
??1?$SafeMap_Iterator@PEAVCListenerSignal@@PEAV1@@@QEAA@XZ
??1?$SafeMap_Iterator@PEAVCShellUriSettings@@UEmpty@@@@QEAA@XZ
??1?$SafeMap_Iterator@PEAVCollector@@UEmpty@@@@QEAA@XZ
??1?$SafeMap_Iterator@PEAVHostOperation@@UEmpty@@@@QEAA@XZ
??1?$SafeMap_Iterator@PEAVIOperation@@UEmpty@@@@QEAA@XZ
??1?$SafeMap_Iterator@PEAVListenerSourceSubscription@@UEmpty@@@@QEAA@XZ
??1?$SafeMap_Iterator@PEAVPushSubscription@@UEmpty@@@@QEAA@XZ
??1?$SafeMap_Iterator@PEAXUEmpty@@@@QEAA@XZ
??1?$SafeMap_Iterator@UPluginKey@@K@@QEAA@XZ
??1?$SafeMap_Iterator@UUserKey@@PEAVBlockedRecord@@@@QEAA@XZ
??1?$SafeMap_Iterator@VCertThumbprintKey@@VCertThumbprintMappedSet@CServiceConfigSettings@@@@QEAA@XZ
??1?$SafeMap_Iterator@VGuidKey@@PEAVCListenerCommand@@@@QEAA@XZ
??1?$SafeMap_Iterator@VKey@Locale@@K@@QEAA@XZ
??1?$SafeMap_Iterator@VStringKeyCI@@K@@QEAA@XZ
??1?$SafeMap_Iterator@VStringKeyCI@@UEmpty@@@@QEAA@XZ
??1?$SafeMap_Iterator@VStringKeyCI@@UUSER_CONTEXT_INFO@WSManHttpListener@@@@QEAA@XZ
??1?$SafeMap_Iterator@VStringKeyStore@@PEAVExpiredOperationIdRecord@@@@QEAA@XZ
??1?$SafeMap_Iterator@VStringKeyStore@@PEAVServerFullDuplexChannel@@@@QEAA@XZ
??1?$SafeMap_Iterator@W4WSManSessionOption@@PEAVOptionValue@SessionOptions@Client@WSMan@@@@QEAA@XZ
??1?$SafeMap_Iterator@_KPEAVSendPacketArgs@RobustConnectionBuffer@@@@QEAA@XZ
??1?$SafeMap_Lock@PEAVCCertMapping@@UEmpty@@V?$SafeMap_Iterator@PEAVCCertMapping@@UEmpty@@@@@@QEAA@XZ
??1?$SafeMap_Lock@PEAVCCertMapping@@UEmpty@@V?$SafeSet_Iterator@PEAVCCertMapping@@@@@@QEAA@XZ
??1?$SafeMap_Lock@PEAVCListenerConnect@@PEAV1@V?$SafeMap_Iterator@PEAVCListenerConnect@@PEAV1@@@@@QEAA@XZ
??1?$SafeMap_Lock@PEAVCListenerOperation@@UEmpty@@V?$SafeMap_Iterator@PEAVCListenerOperation@@UEmpty@@@@@@QEAA@XZ
??1?$SafeMap_Lock@PEAVCListenerOperation@@UEmpty@@V?$SafeSet_Iterator@PEAVCListenerOperation@@@@@@QEAA@XZ
??1?$SafeMap_Lock@PEAVCListenerReceive@@PEAV1@V?$SafeMap_Iterator@PEAVCListenerReceive@@PEAV1@@@@@QEAA@XZ
??1?$SafeMap_Lock@PEAVCListenerSend@@PEAV1@V?$SafeMap_Iterator@PEAVCListenerSend@@PEAV1@@@@@QEAA@XZ
??1?$SafeMap_Lock@PEAVCListenerSignal@@PEAV1@V?$SafeMap_Iterator@PEAVCListenerSignal@@PEAV1@@@@@QEAA@XZ
??1?$SafeMap_Lock@PEAVCShellUriSettings@@UEmpty@@V?$SafeMap_Iterator@PEAVCShellUriSettings@@UEmpty@@@@@@QEAA@XZ
??1?$SafeMap_Lock@PEAVCShellUriSettings@@UEmpty@@V?$SafeSet_Iterator@PEAVCShellUriSettings@@@@@@QEAA@XZ
??1?$SafeMap_Lock@PEAVCollector@@UEmpty@@V?$SafeMap_Iterator@PEAVCollector@@UEmpty@@@@@@QEAA@XZ
??1?$SafeMap_Lock@PEAVHostOperation@@UEmpty@@V?$SafeMap_Iterator@PEAVHostOperation@@UEmpty@@@@@@QEAA@XZ
??1?$SafeMap_Lock@PEAVIOperation@@UEmpty@@V?$SafeMap_Iterator@PEAVIOperation@@UEmpty@@@@@@QEAA@XZ
??1?$SafeMap_Lock@PEAVListenerSourceSubscription@@UEmpty@@V?$SafeMap_Iterator@PEAVListenerSourceSubscription@@UEmpty@@@@@@QEAA@XZ
??1?$SafeMap_Lock@PEAVPushSubscription@@UEmpty@@V?$SafeMap_Iterator@PEAVPushSubscription@@UEmpty@@@@@@QEAA@XZ
??1?$SafeMap_Lock@PEAXUEmpty@@V?$SafeMap_Iterator@PEAXUEmpty@@@@@@QEAA@XZ
??1?$SafeMap_Lock@PEAXUEmpty@@V?$SafeSet_Iterator@PEAX@@@@QEAA@XZ
??1?$SafeMap_Lock@UPluginKey@@KV?$SafeMap_Iterator@UPluginKey@@K@@@@QEAA@XZ
??1?$SafeMap_Lock@UUserKey@@PEAVBlockedRecord@@V?$SafeMap_Iterator@UUserKey@@PEAVBlockedRecord@@@@@@QEAA@XZ
??1?$SafeMap_Lock@VCertThumbprintKey@@VCertThumbprintMappedSet@CServiceConfigSettings@@V?$SafeMap_Iterator@VCertThumbprintKey@@VCertThumbprintMappedSet@CServiceConfigSettings@@@@@@QEAA@XZ
??1?$SafeMap_Lock@VGuidKey@@PEAVCListenerCommand@@V?$SafeMap_Iterator@VGuidKey@@PEAVCListenerCommand@@@@@@QEAA@XZ
??1?$SafeMap_Lock@VKey@Locale@@KV?$SafeMap_Iterator@VKey@Locale@@K@@@@QEAA@XZ
??1?$SafeMap_Lock@VStringKeyCI@@KV?$SafeMap_Iterator@VStringKeyCI@@K@@@@QEAA@XZ
??1?$SafeMap_Lock@VStringKeyCI@@UEmpty@@V?$SafeMap_Iterator@VStringKeyCI@@UEmpty@@@@@@QEAA@XZ
??1?$SafeMap_Lock@VStringKeyCI@@UEmpty@@V?$SafeSet_Iterator@VStringKeyCI@@@@@@QEAA@XZ
??1?$SafeMap_Lock@VStringKeyCI@@UUSER_CONTEXT_INFO@WSManHttpListener@@V?$SafeMap_Iterator@VStringKeyCI@@UUSER_CONTEXT_INFO@WSManHttpListener@@@@@@QEAA@XZ
??1?$SafeMap_Lock@VStringKeyStore@@PEAVExpiredOperationIdRecord@@V?$SafeMap_Iterator@VStringKeyStore@@PEAVExpiredOperationIdRecord@@@@@@QEAA@XZ
??1?$SafeMap_Lock@VStringKeyStore@@PEAVServerFullDuplexChannel@@V?$SafeMap_Iterator@VStringKeyStore@@PEAVServerFullDuplexChannel@@@@@@QEAA@XZ
??1?$SafeMap_Lock@W4WSManSessionOption@@PEAVOptionValue@SessionOptions@Client@WSMan@@V?$SafeMap_Iterator@W4WSManSessionOption@@PEAVOptionValue@SessionOptions@Client@WSMan@@@@@@QEAA@XZ
??1?$SafeMap_Lock@_KPEAVSendPacketArgs@RobustConnectionBuffer@@V?$SafeMap_Iterator@_KPEAVSendPacketArgs@RobustConnectionBuffer@@@@@@QEAA@XZ
??1?$SafeSet@PEAVCCertMapping@@@@QEAA@XZ
??1?$SafeSet@PEAVCListenerOperation@@@@QEAA@XZ
??1?$SafeSet@PEAVCShellUriSettings@@@@QEAA@XZ
??1?$SafeSet@PEAVCollector@@@@QEAA@XZ
??1?$SafeSet@PEAVHostOperation@@@@QEAA@XZ
??1?$SafeSet@PEAVIOperation@@@@QEAA@XZ
??1?$SafeSet@PEAVListenerSourceSubscription@@@@QEAA@XZ
??1?$SafeSet@PEAVPushSubscription@@@@QEAA@XZ
??1?$SafeSet@PEAX@@QEAA@XZ
??1?$SafeSet@VStringKeyCI@@@@QEAA@XZ
??1?$SafeSet_Iterator@PEAVCCertMapping@@@@QEAA@XZ
??1?$SafeSet_Iterator@PEAVCListenerOperation@@@@QEAA@XZ
??1?$SafeSet_Iterator@PEAVCShellUriSettings@@@@QEAA@XZ
??1?$SafeSet_Iterator@PEAVCollector@@@@QEAA@XZ
??1?$SafeSet_Iterator@PEAVHostOperation@@@@QEAA@XZ
??1?$SafeSet_Iterator@PEAVIOperation@@@@QEAA@XZ
??1?$SafeSet_Iterator@PEAVListenerSourceSubscription@@@@QEAA@XZ
??1?$SafeSet_Iterator@PEAVPushSubscription@@@@QEAA@XZ
??1?$SafeSet_Iterator@PEAX@@QEAA@XZ
??1?$SafeSet_Iterator@VStringKeyCI@@@@QEAA@XZ
??1?$SimpleQueue@T_LARGE_INTEGER@@@@QEAA@XZ
??1AutoBstr@@QEAA@XZ
??1AutoBstrNoAlloc@@QEAA@XZ
??1AutoCertContext@@QEAA@XZ
??1AutoChainContext@@QEAA@XZ
??1AutoCoTaskMemFree@@QEAA@XZ
??1AutoFwXmlCloseParser@@QEAA@XZ
??1AutoHandle@@QEAA@XZ
??1AutoImpersonateUser@@QEAA@XZ
??1AutoLibrary@@QEAA@XZ
??1AutoLocalFree@@QEAA@XZ
??1AutoMIClass@@QEAA@XZ
??1AutoMIInstance@@QEAA@XZ
??1AutoObject@@QEAA@XZ
??1AutoRegKey@@QEAA@XZ
??1AutoSecurityDescriptor@@QEAA@XZ
??1AutoWaitHandle@@QEAA@XZ
??1BufferFormatter@@UEAA@XZ
??1CBaseConfigCache@@UEAA@XZ
??1CClientConfigCache@@UEAA@XZ
??1CCommonConfigSettings@@UEAA@XZ
??1CConfigManager@@UEAA@XZ
??1CErrorContext@@UEAA@XZ
??1CRequestContext@@UEAA@XZ
??1CResourceAlias@@QEAA@XZ
??1CServiceConfigCache@@EEAA@XZ
??1CServiceWatcher@CServiceConfigCache@@QEAA@XZ
??1CWSManCriticalSection@@QEAA@XZ
??1CWSManCriticalSectionWithConditionVar@@QEAA@XZ
??1CWSManEPR@@UEAA@XZ
??1CWSManGroupPolicyManager@@EEAA@XZ
??1CWSManResource@@UEAA@XZ
??1CWSManResourceNoResourceUri@@UEAA@XZ
??1CWSManSecurityUI@@QEAA@XZ
??1CWinRSPluginConfigCache@@EEAA@XZ
??1ChildLifeTimeManager@@QEAA@XZ
??1CircularBufferFormatter@@UEAA@XZ
??1ConfigRegistry@@IEAA@XZ
??1EtwCorrelationHelper@@UEAA@XZ
??1EventHandler@WSMan@@QEAA@XZ
??1IConfigChangeObserver@@UEAA@XZ
??1ILifeTimeMgmt@@UEAA@XZ
??1IRequestContext@@UEAA@XZ
??1IWSManGroupPolicyObserver@@UEAA@XZ
??1IWSManGroupPolicyPublisher@@UEAA@XZ
??1MessageId@PacketParser@@QEAA@XZ
??1OnHTTPInitialize@@QEAA@XZ
??1OperationId@PacketParser@@QEAA@XZ
??1OwnLock@@QEAA@XZ
??1PacketParser@@QEAA@XZ
??1RBUFFER@@QEAA@XZ
??1ReferenceParameters@PacketParser@@QEAA@XZ
??1SBUFFER@@QEAA@XZ
??1ShareLock@@QEAA@XZ
??1SoapSemanticConverter@@QEAA@XZ
??1TSTRBUFFER@@QEAA@XZ
??1UserRecord@@QEAA@XZ
??1XmlReader@@QEAA@XZ
??4?$AutoCleanup@V?$AutoDelete@D@@PEAD@@QEAAAEAV?$AutoDelete@D@@PEAD@Z
??4?$AutoCleanup@V?$AutoDelete@G@@PEAG@@QEAAAEAV?$AutoDelete@G@@PEAG@Z
??4?$AutoCleanup@V?$AutoDelete@V?$SafeMap_Iterator@VStringKeyCI@@K@@@@PEAV?$SafeMap_Iterator@VStringKeyCI@@K@@@@QEAAAEAV?$AutoDelete@V?$SafeMap_Iterator@VStringKeyCI@@K@@@@PEAV?$SafeMap_Iterator@VStringKeyCI@@K@@@Z
??4?$AutoCleanup@V?$AutoDelete@V?$SafeMap_Iterator@W4WSManSessionOption@@PEAVOptionValue@SessionOptions@Client@WSMan@@@@@@PEAV?$SafeMap_Iterator@W4WSManSessionOption@@PEAVOptionValue@SessionOptions@Client@WSMan@@@@@@QEAAAEAV?$AutoDelete@V?$SafeMap_Iterator@W4WSManSessionOption@@PEAVOptionValue@SessionOptions@Client@WSMan@@@@@@PEAV?$SafeMap_Iterator@W4WSManSessionOption@@PEAVOptionValue@SessionOptions@Client@WSMan@@@@@Z
??4?$AutoCleanup@V?$AutoDelete@V?$SafeSet@PEAVCCertMapping@@@@@@PEAV?$SafeSet@PEAVCCertMapping@@@@@@QEAAAEAV?$AutoDelete@V?$SafeSet@PEAVCCertMapping@@@@@@PEAV?$SafeSet@PEAVCCertMapping@@@@@Z
??4?$AutoCleanup@V?$AutoDelete@V?$SafeSet@PEAVCShellUriSettings@@@@@@PEAV?$SafeSet@PEAVCShellUriSettings@@@@@@QEAAAEAV?$AutoDelete@V?$SafeSet@PEAVCShellUriSettings@@@@@@PEAV?$SafeSet@PEAVCShellUriSettings@@@@@Z
??4?$AutoCleanup@V?$AutoDelete@V?$SafeSet_Iterator@PEAVCListenerOperation@@@@@@PEAV?$SafeSet_Iterator@PEAVCListenerOperation@@@@@@QEAAAEAV?$AutoDelete@V?$SafeSet_Iterator@PEAVCListenerOperation@@@@@@PEAV?$SafeSet_Iterator@PEAVCListenerOperation@@@@@Z
??4?$AutoCleanup@V?$AutoDelete@V?$set@PEAVCListenerSettings@@VCListenerSettingsLessFunctor@CServiceConfigSettings@@V?$transport_allocator@PEAVCListenerSettings@@@@@std@@@@PEAV?$set@PEAVCListenerSettings@@VCListenerSettingsLessFunctor@CServiceConfigSettings@@V?$transport_allocator@PEAVCListenerSettings@@@@@std@@@@QEAAAEAV?$AutoDelete@V?$set@PEAVCListenerSettings@@VCListenerSettingsLessFunctor@CServiceConfigSettings@@V?$transport_allocator@PEAVCListenerSettings@@@@@std@@@@PEAV?$set@PEAVCListenerSettings@@VCListenerSettingsLessFunctor@CServiceConfigSettings@@V?$transport_allocator@PEAVCListenerSettings@@@@@std@@@Z
??4?$AutoCleanup@V?$AutoDelete@V?$set@Usockaddr_storage@@VSockAddrLessFunctor@CListenerSettings@@V?$transport_allocator@Usockaddr_storage@@@@@std@@@@PEAV?$set@Usockaddr_storage@@VSockAddrLessFunctor@CListenerSettings@@V?$transport_allocator@Usockaddr_storage@@@@@std@@@@QEAAAEAV?$AutoDelete@V?$set@Usockaddr_storage@@VSockAddrLessFunctor@CListenerSettings@@V?$transport_allocator@Usockaddr_storage@@@@@std@@@@PEAV?$set@Usockaddr_storage@@VSockAddrLessFunctor@CListenerSettings@@V?$transport_allocator@Usockaddr_storage@@@@@std@@@Z
??4?$AutoCleanup@V?$AutoDelete@V?$vector@PEAVHandleImpl@Client@WSMan@@V?$transport_allocator@PEAVHandleImpl@Client@WSMan@@@@@std@@@@PEAV?$vector@PEAVHandleImpl@Client@WSMan@@V?$transport_allocator@PEAVHandleImpl@Client@WSMan@@@@@std@@@@QEAAAEAV?$AutoDelete@V?$vector@PEAVHandleImpl@Client@WSMan@@V?$transport_allocator@PEAVHandleImpl@Client@WSMan@@@@@std@@@@PEAV?$vector@PEAVHandleImpl@Client@WSMan@@V?$transport_allocator@PEAVHandleImpl@Client@WSMan@@@@@std@@@Z
??4?$AutoCleanup@V?$AutoDelete@V?$vector@PEAVIServiceConfigObserver@@V?$transport_allocator@PEAVIServiceConfigObserver@@@@@std@@@@PEAV?$vector@PEAVIServiceConfigObserver@@V?$transport_allocator@PEAVIServiceConfigObserver@@@@@std@@@@QEAAAEAV?$AutoDelete@V?$vector@PEAVIServiceConfigObserver@@V?$transport_allocator@PEAVIServiceConfigObserver@@@@@std@@@@PEAV?$vector@PEAVIServiceConfigObserver@@V?$transport_allocator@PEAVIServiceConfigObserver@@@@@std@@@Z
??4?$AutoCleanup@V?$AutoDelete@VBlockedRecord@@@@PEAVBlockedRecord@@@@QEAAAEAV?$AutoDelete@VBlockedRecord@@@@PEAVBlockedRecord@@@Z
??4?$AutoCleanup@V?$AutoDelete@VCConfigChangeSource@@@@PEAVCConfigChangeSource@@@@QEAAAEAV?$AutoDelete@VCConfigChangeSource@@@@PEAVCConfigChangeSource@@@Z
??4?$AutoCleanup@V?$AutoDelete@VCObserverConfigChangeErrors@@@@PEAVCObserverConfigChangeErrors@@@@QEAAAEAV?$AutoDelete@VCObserverConfigChangeErrors@@@@PEAVCObserverConfigChangeErrors@@@Z
??4?$AutoCleanup@V?$AutoDelete@VCServiceWatcher@CServiceConfigCache@@@@PEAVCServiceWatcher@CServiceConfigCache@@@@QEAAAEAV?$AutoDelete@VCServiceWatcher@CServiceConfigCache@@@@PEAVCServiceWatcher@CServiceConfigCache@@@Z
??4?$AutoCleanup@V?$AutoDelete@VCWSManResource@@@@PEAVCWSManResource@@@@QEAAAEAV?$AutoDelete@VCWSManResource@@@@PEAVCWSManResource@@@Z
??4?$AutoCleanup@V?$AutoDelete@VCertHash@@@@PEAVCertHash@@@@QEAAAEAV?$AutoDelete@VCertHash@@@@PEAVCertHash@@@Z
??4?$AutoCleanup@V?$AutoDelete@VConfigUpdate@@@@PEAVConfigUpdate@@@@QEAAAEAV?$AutoDelete@VConfigUpdate@@@@PEAVConfigUpdate@@@Z
??4?$AutoCleanup@V?$AutoDelete@VEnumSinkEx@@@@PEAVEnumSinkEx@@@@QEAAAEAV?$AutoDelete@VEnumSinkEx@@@@PEAVEnumSinkEx@@@Z
??4?$AutoCleanup@V?$AutoDelete@VGPApiManager@@@@PEAVGPApiManager@@@@QEAAAEAV?$AutoDelete@VGPApiManager@@@@PEAVGPApiManager@@@Z
??4?$AutoCleanup@V?$AutoDelete@VGeneralSinkEx@@@@PEAVGeneralSinkEx@@@@QEAAAEAV?$AutoDelete@VGeneralSinkEx@@@@PEAVGeneralSinkEx@@@Z
??4?$AutoCleanup@V?$AutoDelete@VIChannelObserverFactory@@@@PEAVIChannelObserverFactory@@@@QEAAAEAV?$AutoDelete@VIChannelObserverFactory@@@@PEAVIChannelObserverFactory@@@Z
??4?$AutoCleanup@V?$AutoDelete@VIQueryDASHSMASHInterface@@@@PEAVIQueryDASHSMASHInterface@@@@QEAAAEAV?$AutoDelete@VIQueryDASHSMASHInterface@@@@PEAVIQueryDASHSMASHInterface@@@Z
??4?$AutoCleanup@V?$AutoDelete@VISpecification@@@@PEAVISpecification@@@@QEAAAEAV?$AutoDelete@VISpecification@@@@PEAVISpecification@@@Z
??4?$AutoCleanup@V?$AutoDelete@VPacketCreator@@@@PEAVPacketCreator@@@@QEAAAEAV?$AutoDelete@VPacketCreator@@@@PEAVPacketCreator@@@Z
??4?$AutoCleanup@V?$AutoDelete@VPacketParser@@@@PEAVPacketParser@@@@QEAAAEAV?$AutoDelete@VPacketParser@@@@PEAVPacketParser@@@Z
??4?$AutoCleanup@V?$AutoDelete@VRunAsConfiguration@@@@PEAVRunAsConfiguration@@@@QEAAAEAV?$AutoDelete@VRunAsConfiguration@@@@PEAVRunAsConfiguration@@@Z
??4?$AutoCleanup@V?$AutoDelete@VSecurityEntry@Catalog@@@@PEAVSecurityEntry@Catalog@@@@QEAAAEAV?$AutoDelete@VSecurityEntry@Catalog@@@@PEAVSecurityEntry@Catalog@@@Z
??4?$AutoCleanup@V?$AutoDelete@VServiceSoapProcessor@@@@PEAVServiceSoapProcessor@@@@QEAAAEAV?$AutoDelete@VServiceSoapProcessor@@@@PEAVServiceSoapProcessor@@@Z
??4?$AutoCleanup@V?$AutoDelete@VSubscriptionEnumerator@@@@PEAVSubscriptionEnumerator@@@@QEAAAEAV?$AutoDelete@VSubscriptionEnumerator@@@@PEAVSubscriptionEnumerator@@@Z
??4?$AutoCleanup@V?$AutoDelete@VTSTRBUFFER@@@@PEAVTSTRBUFFER@@@@QEAAAEAV?$AutoDelete@VTSTRBUFFER@@@@PEAVTSTRBUFFER@@@Z
??4?$AutoCleanup@V?$AutoDelete@VUniqueStringOverflow@@@@PEAVUniqueStringOverflow@@@@QEAAAEAV?$AutoDelete@VUniqueStringOverflow@@@@PEAVUniqueStringOverflow@@@Z
??4?$AutoCleanup@V?$AutoDelete@VWSMANCONFIGTABLE_IDENTITY@@@@PEAVWSMANCONFIGTABLE_IDENTITY@@@@QEAAAEAV?$AutoDelete@VWSMANCONFIGTABLE_IDENTITY@@@@PEAVWSMANCONFIGTABLE_IDENTITY@@@Z
??4?$AutoCleanup@V?$AutoDelete@VWmiEnumContext@@@@PEAVWmiEnumContext@@@@QEAAAEAV?$AutoDelete@VWmiEnumContext@@@@PEAVWmiEnumContext@@@Z
??4?$AutoCleanup@V?$AutoDelete@VXmlReader@@@@PEAVXmlReader@@@@QEAAAEAV?$AutoDelete@VXmlReader@@@@PEAVXmlReader@@@Z
??4?$AutoCleanup@V?$AutoDeleteVector@$$CBG@@PEBG@@QEAAAEAV?$AutoDeleteVector@$$CBG@@PEBG@Z
??4?$AutoCleanup@V?$AutoDeleteVector@D@@PEAD@@QEAAAEAV?$AutoDeleteVector@D@@PEAD@Z
??4?$AutoCleanup@V?$AutoDeleteVector@E@@PEAE@@QEAAAEAV?$AutoDeleteVector@E@@PEAE@Z
??4?$AutoCleanup@V?$AutoDeleteVector@G@@PEAG@@QEAAAEAV?$AutoDeleteVector@G@@PEAG@Z
??4?$AutoCleanup@V?$AutoDeleteVector@PEAG@@PEAPEAG@@QEAAAEAV?$AutoDeleteVector@PEAG@@PEAPEAG@Z
??4?$AutoCleanup@V?$AutoDeleteVector@PEBG@@PEAPEBG@@QEAAAEAV?$AutoDeleteVector@PEBG@@PEAPEBG@Z
??4?$AutoCleanup@V?$AutoDeleteVector@U_CONFIG_UPDATE@@@@PEAU_CONFIG_UPDATE@@@@QEAAAEAV?$AutoDeleteVector@U_CONFIG_UPDATE@@@@PEAU_CONFIG_UPDATE@@@Z
??4?$AutoCleanup@V?$AutoDeleteVector@U_WINRS_CREATE_SHELL_ENVIRONMENT_VARIABLE@@@@PEAU_WINRS_CREATE_SHELL_ENVIRONMENT_VARIABLE@@@@QEAAAEAV?$AutoDeleteVector@U_WINRS_CREATE_SHELL_ENVIRONMENT_VARIABLE@@@@PEAU_WINRS_CREATE_SHELL_ENVIRONMENT_VARIABLE@@@Z
??4?$AutoCleanup@V?$AutoDeleteVector@U_WINRS_RUN_COMMAND_ARG@@@@PEAU_WINRS_RUN_COMMAND_ARG@@@@QEAAAEAV?$AutoDeleteVector@U_WINRS_RUN_COMMAND_ARG@@@@PEAU_WINRS_RUN_COMMAND_ARG@@@Z
??4?$AutoCleanup@V?$AutoDeleteVector@U_WSMAN_OPTION@@@@PEAU_WSMAN_OPTION@@@@QEAAAEAV?$AutoDeleteVector@U_WSMAN_OPTION@@@@PEAU_WSMAN_OPTION@@@Z
??4?$AutoCleanup@V?$AutoDeleteVector@X@@PEAX@@QEAAAEAV?$AutoDeleteVector@X@@PEAX@Z
??4?$AutoCleanup@V?$AutoFree@E@@PEAE@@QEAAAEAV?$AutoFree@E@@PEAE@Z
??4?$AutoCleanup@V?$AutoLocklessItemRecycle@VPacket@@@@PEAVPacket@@@@QEAAAEAV?$AutoLocklessItemRecycle@VPacket@@@@PEAVPacket@@@Z
??4?$AutoCleanup@V?$AutoRelease@UIClientSecurity@@@@PEAUIClientSecurity@@@@QEAAAEAV?$AutoRelease@UIClientSecurity@@@@PEAUIClientSecurity@@@Z
??4?$AutoCleanup@V?$AutoRelease@UIEnumWbemClassObject@@@@PEAUIEnumWbemClassObject@@@@QEAAAEAV?$AutoRelease@UIEnumWbemClassObject@@@@PEAUIEnumWbemClassObject@@@Z
??4?$AutoCleanup@V?$AutoRelease@UIErrorInfo@@@@PEAUIErrorInfo@@@@QEAAAEAV?$AutoRelease@UIErrorInfo@@@@PEAUIErrorInfo@@@Z
??4?$AutoCleanup@V?$AutoRelease@UIUnknown@@@@PEAUIUnknown@@@@QEAAAEAV?$AutoRelease@UIUnknown@@@@PEAUIUnknown@@@Z
??4?$AutoCleanup@V?$AutoRelease@UIWbemClassObject@@@@PEAUIWbemClassObject@@@@QEAAAEAV?$AutoRelease@UIWbemClassObject@@@@PEAUIWbemClassObject@@@Z
??4?$AutoCleanup@V?$AutoRelease@UIWbemContext@@@@PEAUIWbemContext@@@@QEAAAEAV?$AutoRelease@UIWbemContext@@@@PEAUIWbemContext@@@Z
??4?$AutoCleanup@V?$AutoRelease@UIWbemLocator@@@@PEAUIWbemLocator@@@@QEAAAEAV?$AutoRelease@UIWbemLocator@@@@PEAUIWbemLocator@@@Z
??4?$AutoCleanup@V?$AutoRelease@UIWbemObjectTextSrc@@@@PEAUIWbemObjectTextSrc@@@@QEAAAEAV?$AutoRelease@UIWbemObjectTextSrc@@@@PEAUIWbemObjectTextSrc@@@Z
??4?$AutoCleanup@V?$AutoRelease@UIWbemPath@@@@PEAUIWbemPath@@@@QEAAAEAV?$AutoRelease@UIWbemPath@@@@PEAUIWbemPath@@@Z
??4?$AutoCleanup@V?$AutoRelease@UIWbemPathKeyList@@@@PEAUIWbemPathKeyList@@@@QEAAAEAV?$AutoRelease@UIWbemPathKeyList@@@@PEAUIWbemPathKeyList@@@Z
??4?$AutoCleanup@V?$AutoRelease@UIWbemQualifierSet@@@@PEAUIWbemQualifierSet@@@@QEAAAEAV?$AutoRelease@UIWbemQualifierSet@@@@PEAUIWbemQualifierSet@@@Z
??4?$AutoCleanup@V?$AutoRelease@UIWbemQuery@@@@PEAUIWbemQuery@@@@QEAAAEAV?$AutoRelease@UIWbemQuery@@@@PEAUIWbemQuery@@@Z
??4?$AutoCleanup@V?$AutoRelease@UIWbemServices@@@@PEAUIWbemServices@@@@QEAAAEAV?$AutoRelease@UIWbemServices@@@@PEAUIWbemServices@@@Z
??4?$AutoCleanup@V?$AutoRelease@VApplication@Client@WSMan@@@@PEAVApplication@Client@WSMan@@@@QEAAAEAV?$AutoRelease@VApplication@Client@WSMan@@@@PEAVApplication@Client@WSMan@@@Z
??4?$AutoCleanup@V?$AutoRelease@VCBaseConfigCache@@@@PEAVCBaseConfigCache@@@@QEAAAEAV?$AutoRelease@VCBaseConfigCache@@@@PEAVCBaseConfigCache@@@Z
??4?$AutoCleanup@V?$AutoRelease@VCClientConfigSettings@@@@PEAVCClientConfigSettings@@@@QEAAAEAV?$AutoRelease@VCClientConfigSettings@@@@PEAVCClientConfigSettings@@@Z
??4?$AutoCleanup@V?$AutoRelease@VCCommonConfigSettings@@@@PEAVCCommonConfigSettings@@@@QEAAAEAV?$AutoRelease@VCCommonConfigSettings@@@@PEAVCCommonConfigSettings@@@Z
??4?$AutoCleanup@V?$AutoRelease@VCConfigCacheMap@CBaseConfigCache@@@@PEAVCConfigCacheMap@CBaseConfigCache@@@@QEAAAEAV?$AutoRelease@VCConfigCacheMap@CBaseConfigCache@@@@PEAVCConfigCacheMap@CBaseConfigCache@@@Z
??4?$AutoCleanup@V?$AutoRelease@VCConfigManager@@@@PEAVCConfigManager@@@@QEAAAEAV?$AutoRelease@VCConfigManager@@@@PEAVCConfigManager@@@Z
??4?$AutoCleanup@V?$AutoRelease@VCRemoteOperation@@@@PEAVCRemoteOperation@@@@QEAAAEAV?$AutoRelease@VCRemoteOperation@@@@PEAVCRemoteOperation@@@Z
??4?$AutoCleanup@V?$AutoRelease@VCRemoteSession@@@@PEAVCRemoteSession@@@@QEAAAEAV?$AutoRelease@VCRemoteSession@@@@PEAVCRemoteSession@@@Z
??4?$AutoCleanup@V?$AutoRelease@VCRequestContext@@@@PEAVCRequestContext@@@@QEAAAEAV?$AutoRelease@VCRequestContext@@@@PEAVCRequestContext@@@Z
??4?$AutoCleanup@V?$AutoRelease@VCServiceCommonConfigSettings@@@@PEAVCServiceCommonConfigSettings@@@@QEAAAEAV?$AutoRelease@VCServiceCommonConfigSettings@@@@PEAVCServiceCommonConfigSettings@@@Z
??4?$AutoCleanup@V?$AutoRelease@VCServiceConfigCache@@@@PEAVCServiceConfigCache@@@@QEAAAEAV?$AutoRelease@VCServiceConfigCache@@@@PEAVCServiceConfigCache@@@Z
??4?$AutoCleanup@V?$AutoRelease@VCServiceConfigSettings@@@@PEAVCServiceConfigSettings@@@@QEAAAEAV?$AutoRelease@VCServiceConfigSettings@@@@PEAVCServiceConfigSettings@@@Z
??4?$AutoCleanup@V?$AutoRelease@VCWSManEPR@@@@PEAVCWSManEPR@@@@QEAAAEAV?$AutoRelease@VCWSManEPR@@@@PEAVCWSManEPR@@@Z
??4?$AutoCleanup@V?$AutoRelease@VCWSManGroupPolicyManager@@@@PEAVCWSManGroupPolicyManager@@@@QEAAAEAV?$AutoRelease@VCWSManGroupPolicyManager@@@@PEAVCWSManGroupPolicyManager@@@Z
??4?$AutoCleanup@V?$AutoRelease@VCWSManResource@@@@PEAVCWSManResource@@@@QEAAAEAV?$AutoRelease@VCWSManResource@@@@PEAVCWSManResource@@@Z
??4?$AutoCleanup@V?$AutoRelease@VCWinRSPluginConfigCache@@@@PEAVCWinRSPluginConfigCache@@@@QEAAAEAV?$AutoRelease@VCWinRSPluginConfigCache@@@@PEAVCWinRSPluginConfigCache@@@Z
??4?$AutoCleanup@V?$AutoRelease@VCWinRSPluginConfigSettings@@@@PEAVCWinRSPluginConfigSettings@@@@QEAAAEAV?$AutoRelease@VCWinRSPluginConfigSettings@@@@PEAVCWinRSPluginConfigSettings@@@Z
??4?$AutoCleanup@V?$AutoRelease@VEnumSinkEx@@@@PEAVEnumSinkEx@@@@QEAAAEAV?$AutoRelease@VEnumSinkEx@@@@PEAVEnumSinkEx@@@Z
??4?$AutoCleanup@V?$AutoRelease@VGeneralSinkEx@@@@PEAVGeneralSinkEx@@@@QEAAAEAV?$AutoRelease@VGeneralSinkEx@@@@PEAVGeneralSinkEx@@@Z
??4?$AutoCleanup@V?$AutoRelease@VIRequestContext@@@@PEAVIRequestContext@@@@QEAAAEAV?$AutoRelease@VIRequestContext@@@@PEAVIRequestContext@@@Z
??4?$AutoCleanup@V?$AutoRelease@VISubscription@@@@PEAVISubscription@@@@QEAAAEAV?$AutoRelease@VISubscription@@@@PEAVISubscription@@@Z
??4?$AutoCleanup@V?$AutoRelease@VInboundRequestDetails@@@@PEAVInboundRequestDetails@@@@QEAAAEAV?$AutoRelease@VInboundRequestDetails@@@@PEAVInboundRequestDetails@@@Z
??4?$AutoCleanup@V?$AutoRelease@VUserRecord@@@@PEAVUserRecord@@@@QEAAAEAV?$AutoRelease@VUserRecord@@@@PEAVUserRecord@@@Z
??4?$AutoCleanup@V?$AutoRelease@VWSManHttpListener@@@@PEAVWSManHttpListener@@@@QEAAAEAV?$AutoRelease@VWSManHttpListener@@@@PEAVWSManHttpListener@@@Z
??4?$AutoCleanup@V?$AutoReleaseEx@VShell@Client@WSMan@@@@PEAVShell@Client@WSMan@@@@QEAAAEAV?$AutoReleaseEx@VShell@Client@WSMan@@@@PEAVShell@Client@WSMan@@@Z
??4?$AutoCleanup@VAutoBstr@@PEAG@@QEAAAEAVAutoBstr@@PEAG@Z
??4?$AutoCleanup@VAutoBstrNoAlloc@@PEAG@@QEAAAEAVAutoBstrNoAlloc@@PEAG@Z
??4?$AutoCleanup@VAutoCertContext@@PEBU_CERT_CONTEXT@@@@QEAAAEAVAutoCertContext@@PEBU_CERT_CONTEXT@@@Z
??4?$AutoCleanup@VAutoChainContext@@PEBU_CERT_CHAIN_CONTEXT@@@@QEAAAEAVAutoChainContext@@PEBU_CERT_CHAIN_CONTEXT@@@Z
??4?$AutoCleanup@VAutoCoTaskMemFree@@PEAX@@QEAAAEAVAutoCoTaskMemFree@@PEAX@Z
??4?$AutoCleanup@VAutoFwXmlCloseParser@@PEAX@@QEAAAEAVAutoFwXmlCloseParser@@PEAX@Z
??4?$AutoCleanup@VAutoHandle@@PEAX@@QEAAAEAVAutoHandle@@PEAX@Z
??4?$AutoCleanup@VAutoImpersonateUser@@PEAX@@QEAAAEAVAutoImpersonateUser@@PEAX@Z
??4?$AutoCleanup@VAutoLibrary@@PEAUHINSTANCE__@@@@QEAAAEAVAutoLibrary@@PEAUHINSTANCE__@@@Z
??4?$AutoCleanup@VAutoLocalFree@@PEAX@@QEAAAEAVAutoLocalFree@@PEAX@Z
??4?$AutoCleanup@VAutoMIClass@@PEAU_MI_Class@@@@QEAAAEAVAutoMIClass@@PEAU_MI_Class@@@Z
??4?$AutoCleanup@VAutoMIInstance@@PEAU_MI_Instance@@@@QEAAAEAVAutoMIInstance@@PEAU_MI_Instance@@@Z
??4?$AutoCleanup@VAutoObject@@PEAUWSMAN_OBJECT@@@@QEAAAEAVAutoObject@@PEAUWSMAN_OBJECT@@@Z
??4?$AutoCleanup@VAutoRegKey@@PEAUHKEY__@@@@QEAAAEAVAutoRegKey@@PEAUHKEY__@@@Z
??4?$AutoCleanup@VAutoSecurityDescriptor@@PEAX@@QEAAAEAVAutoSecurityDescriptor@@PEAX@Z
??4?$AutoCleanup@VAutoWaitHandle@@PEAX@@QEAAAEAVAutoWaitHandle@@PEAX@Z
??4?$AutoDelete@D@@QEAAAEAV0@PEAD@Z
??4?$AutoDelete@G@@QEAAAEAV0@PEAG@Z
??4?$AutoDelete@V?$SafeMap_Iterator@VStringKeyCI@@K@@@@QEAAAEAV0@PEAV?$SafeMap_Iterator@VStringKeyCI@@K@@@Z
??4?$AutoDelete@V?$SafeMap_Iterator@W4WSManSessionOption@@PEAVOptionValue@SessionOptions@Client@WSMan@@@@@@QEAAAEAV0@PEAV?$SafeMap_Iterator@W4WSManSessionOption@@PEAVOptionValue@SessionOptions@Client@WSMan@@@@@Z
??4?$AutoDelete@V?$SafeSet@PEAVCCertMapping@@@@@@QEAAAEAV0@PEAV?$SafeSet@PEAVCCertMapping@@@@@Z
??4?$AutoDelete@V?$SafeSet@PEAVCShellUriSettings@@@@@@QEAAAEAV0@PEAV?$SafeSet@PEAVCShellUriSettings@@@@@Z
??4?$AutoDelete@V?$SafeSet_Iterator@PEAVCListenerOperation@@@@@@QEAAAEAV0@PEAV?$SafeSet_Iterator@PEAVCListenerOperation@@@@@Z
??4?$AutoDelete@V?$set@PEAVCListenerSettings@@VCListenerSettingsLessFunctor@CServiceConfigSettings@@V?$transport_allocator@PEAVCListenerSettings@@@@@std@@@@QEAAAEAV0@PEAV?$set@PEAVCListenerSettings@@VCListenerSettingsLessFunctor@CServiceConfigSettings@@V?$transport_allocator@PEAVCListenerSettings@@@@@std@@@Z
??4?$AutoDelete@V?$set@Usockaddr_storage@@VSockAddrLessFunctor@CListenerSettings@@V?$transport_allocator@Usockaddr_storage@@@@@std@@@@QEAAAEAV0@PEAV?$set@Usockaddr_storage@@VSockAddrLessFunctor@CListenerSettings@@V?$transport_allocator@Usockaddr_storage@@@@@std@@@Z
??4?$AutoDelete@V?$vector@PEAVHandleImpl@Client@WSMan@@V?$transport_allocator@PEAVHandleImpl@Client@WSMan@@@@@std@@@@QEAAAEAV0@PEAV?$vector@PEAVHandleImpl@Client@WSMan@@V?$transport_allocator@PEAVHandleImpl@Client@WSMan@@@@@std@@@Z
??4?$AutoDelete@V?$vector@PEAVIServiceConfigObserver@@V?$transport_allocator@PEAVIServiceConfigObserver@@@@@std@@@@QEAAAEAV0@PEAV?$vector@PEAVIServiceConfigObserver@@V?$transport_allocator@PEAVIServiceConfigObserver@@@@@std@@@Z
??4?$AutoDelete@VBlockedRecord@@@@QEAAAEAV0@PEAVBlockedRecord@@@Z
??4?$AutoDelete@VCConfigChangeSource@@@@QEAAAEAV0@PEAVCConfigChangeSource@@@Z
??4?$AutoDelete@VCObserverConfigChangeErrors@@@@QEAAAEAV0@PEAVCObserverConfigChangeErrors@@@Z
??4?$AutoDelete@VCServiceWatcher@CServiceConfigCache@@@@QEAAAEAV0@PEAVCServiceWatcher@CServiceConfigCache@@@Z
??4?$AutoDelete@VCWSManResource@@@@QEAAAEAV0@PEAVCWSManResource@@@Z
??4?$AutoDelete@VCertHash@@@@QEAAAEAV0@PEAVCertHash@@@Z
??4?$AutoDelete@VConfigUpdate@@@@QEAAAEAV0@PEAVConfigUpdate@@@Z
??4?$AutoDelete@VEnumSinkEx@@@@QEAAAEAV0@PEAVEnumSinkEx@@@Z
??4?$AutoDelete@VGPApiManager@@@@QEAAAEAV0@PEAVGPApiManager@@@Z
??4?$AutoDelete@VGeneralSinkEx@@@@QEAAAEAV0@PEAVGeneralSinkEx@@@Z
??4?$AutoDelete@VIChannelObserverFactory@@@@QEAAAEAV0@PEAVIChannelObserverFactory@@@Z
??4?$AutoDelete@VIQueryDASHSMASHInterface@@@@QEAAAEAV0@PEAVIQueryDASHSMASHInterface@@@Z
??4?$AutoDelete@VISpecification@@@@QEAAAEAV0@PEAVISpecification@@@Z
??4?$AutoDelete@VPacketCreator@@@@QEAAAEAV0@PEAVPacketCreator@@@Z
??4?$AutoDelete@VPacketParser@@@@QEAAAEAV0@PEAVPacketParser@@@Z
??4?$AutoDelete@VRunAsConfiguration@@@@QEAAAEAV0@PEAVRunAsConfiguration@@@Z
??4?$AutoDelete@VSecurityEntry@Catalog@@@@QEAAAEAV0@PEAVSecurityEntry@Catalog@@@Z
??4?$AutoDelete@VServiceSoapProcessor@@@@QEAAAEAV0@PEAVServiceSoapProcessor@@@Z
??4?$AutoDelete@VSubscriptionEnumerator@@@@QEAAAEAV0@PEAVSubscriptionEnumerator@@@Z
??4?$AutoDelete@VTSTRBUFFER@@@@QEAAAEAV0@PEAVTSTRBUFFER@@@Z
??4?$AutoDelete@VUniqueStringOverflow@@@@QEAAAEAV0@PEAVUniqueStringOverflow@@@Z
??4?$AutoDelete@VWSMANCONFIGTABLE_IDENTITY@@@@QEAAAEAV0@PEAVWSMANCONFIGTABLE_IDENTITY@@@Z
??4?$AutoDelete@VWmiEnumContext@@@@QEAAAEAV0@PEAVWmiEnumContext@@@Z
??4?$AutoDelete@VXmlReader@@@@QEAAAEAV0@PEAVXmlReader@@@Z
??4?$AutoDeleteVector@$$CBG@@QEAAAEAV0@PEBG@Z
??4?$AutoDeleteVector@D@@QEAAAEAV0@PEAD@Z
??4?$AutoDeleteVector@E@@QEAAAEAV0@PEAE@Z
??4?$AutoDeleteVector@G@@QEAAAEAV0@PEAG@Z
??4?$AutoDeleteVector@PEAG@@QEAAAEAV0@PEAPEAG@Z
??4?$AutoDeleteVector@PEBG@@QEAAAEAV0@PEAPEBG@Z
??4?$AutoDeleteVector@U_CONFIG_UPDATE@@@@QEAAAEAV0@PEAU_CONFIG_UPDATE@@@Z
??4?$AutoDeleteVector@U_WINRS_CREATE_SHELL_ENVIRONMENT_VARIABLE@@@@QEAAAEAV0@PEAU_WINRS_CREATE_SHELL_ENVIRONMENT_VARIABLE@@@Z
??4?$AutoDeleteVector@U_WINRS_RUN_COMMAND_ARG@@@@QEAAAEAV0@PEAU_WINRS_RUN_COMMAND_ARG@@@Z
??4?$AutoDeleteVector@U_WSMAN_OPTION@@@@QEAAAEAV0@PEAU_WSMAN_OPTION@@@Z
??4?$AutoDeleteVector@X@@QEAAAEAV0@PEAX@Z
??4?$AutoFree@E@@QEAAAEAV0@PEAE@Z
??4?$AutoLocklessItemRecycle@VPacket@@@@QEAAAEAV0@PEAVPacket@@@Z
??4?$AutoRelease@UIClientSecurity@@@@QEAAAEAV0@PEAUIClientSecurity@@@Z
??4?$AutoRelease@UIEnumWbemClassObject@@@@QEAAAEAV0@PEAUIEnumWbemClassObject@@@Z
??4?$AutoRelease@UIErrorInfo@@@@QEAAAEAV0@PEAUIErrorInfo@@@Z
??4?$AutoRelease@UIUnknown@@@@QEAAAEAV0@PEAUIUnknown@@@Z
??4?$AutoRelease@UIWbemClassObject@@@@QEAAAEAV0@PEAUIWbemClassObject@@@Z
??4?$AutoRelease@UIWbemContext@@@@QEAAAEAV0@PEAUIWbemContext@@@Z
??4?$AutoRelease@UIWbemLocator@@@@QEAAAEAV0@PEAUIWbemLocator@@@Z
??4?$AutoRelease@UIWbemObjectTextSrc@@@@QEAAAEAV0@PEAUIWbemObjectTextSrc@@@Z
??4?$AutoRelease@UIWbemPath@@@@QEAAAEAV0@PEAUIWbemPath@@@Z
??4?$AutoRelease@UIWbemPathKeyList@@@@QEAAAEAV0@PEAUIWbemPathKeyList@@@Z
??4?$AutoRelease@UIWbemQualifierSet@@@@QEAAAEAV0@PEAUIWbemQualifierSet@@@Z
??4?$AutoRelease@UIWbemQuery@@@@QEAAAEAV0@PEAUIWbemQuery@@@Z
??4?$AutoRelease@UIWbemServices@@@@QEAAAEAV0@PEAUIWbemServices@@@Z
??4?$AutoRelease@VApplication@Client@WSMan@@@@QEAAAEAV0@PEAVApplication@Client@WSMan@@@Z
??4?$AutoRelease@VCBaseConfigCache@@@@QEAAAEAV0@PEAVCBaseConfigCache@@@Z
??4?$AutoRelease@VCClientConfigSettings@@@@QEAAAEAV0@PEAVCClientConfigSettings@@@Z
??4?$AutoRelease@VCCommonConfigSettings@@@@QEAAAEAV0@PEAVCCommonConfigSettings@@@Z
??4?$AutoRelease@VCConfigCacheMap@CBaseConfigCache@@@@QEAAAEAV0@PEAVCConfigCacheMap@CBaseConfigCache@@@Z
??4?$AutoRelease@VCConfigManager@@@@QEAAAEAV0@PEAVCConfigManager@@@Z
??4?$AutoRelease@VCRemoteOperation@@@@QEAAAEAV0@PEAVCRemoteOperation@@@Z
??4?$AutoRelease@VCRemoteSession@@@@QEAAAEAV0@PEAVCRemoteSession@@@Z
??4?$AutoRelease@VCRequestContext@@@@QEAAAEAV0@PEAVCRequestContext@@@Z
??4?$AutoRelease@VCServiceCommonConfigSettings@@@@QEAAAEAV0@PEAVCServiceCommonConfigSettings@@@Z
??4?$AutoRelease@VCServiceConfigCache@@@@QEAAAEAV0@PEAVCServiceConfigCache@@@Z
??4?$AutoRelease@VCServiceConfigSettings@@@@QEAAAEAV0@PEAVCServiceConfigSettings@@@Z
??4?$AutoRelease@VCWSManEPR@@@@QEAAAEAV0@PEAVCWSManEPR@@@Z
??4?$AutoRelease@VCWSManGroupPolicyManager@@@@QEAAAEAV0@PEAVCWSManGroupPolicyManager@@@Z
??4?$AutoRelease@VCWSManResource@@@@QEAAAEAV0@PEAVCWSManResource@@@Z
??4?$AutoRelease@VCWinRSPluginConfigCache@@@@QEAAAEAV0@PEAVCWinRSPluginConfigCache@@@Z
??4?$AutoRelease@VCWinRSPluginConfigSettings@@@@QEAAAEAV0@PEAVCWinRSPluginConfigSettings@@@Z
??4?$AutoRelease@VEnumSinkEx@@@@QEAAAEAV0@PEAVEnumSinkEx@@@Z
??4?$AutoRelease@VGeneralSinkEx@@@@QEAAAEAV0@PEAVGeneralSinkEx@@@Z
??4?$AutoRelease@VIRequestContext@@@@QEAAAEAV0@PEAVIRequestContext@@@Z
??4?$AutoRelease@VISubscription@@@@QEAAAEAV0@PEAVISubscription@@@Z
??4?$AutoRelease@VInboundRequestDetails@@@@QEAAAEAV0@PEAVInboundRequestDetails@@@Z
??4?$AutoRelease@VUserRecord@@@@QEAAAEAV0@PEAVUserRecord@@@Z
??4?$AutoRelease@VWSManHttpListener@@@@QEAAAEAV0@PEAVWSManHttpListener@@@Z
??4?$AutoReleaseEx@VShell@Client@WSMan@@@@QEAAAEAV0@PEAVShell@Client@WSMan@@@Z
??4?$PacketElement@K@PacketParser@@QEAAAEAV01@$$QEAV01@@Z
??4?$PacketElement@K@PacketParser@@QEAAAEAV01@AEBV01@@Z
??4?$PacketElement@PEAU_FWXML_ELEMENT@@@PacketParser@@QEAAAEAV01@$$QEAV01@@Z
??4?$PacketElement@PEAU_FWXML_ELEMENT@@@PacketParser@@QEAAAEAV01@AEBV01@@Z
??4?$PacketElement@PEBG@PacketParser@@QEAAAEAV01@$$QEAV01@@Z
??4?$PacketElement@PEBG@PacketParser@@QEAAAEAV01@AEBV01@@Z
??4?$PacketElement@_K@PacketParser@@QEAAAEAV01@$$QEAV01@@Z
??4?$PacketElement@_K@PacketParser@@QEAAAEAV01@AEBV01@@Z
??4?$SimpleQueue@T_LARGE_INTEGER@@@@QEAAAEAV0@AEBV0@@Z
??4AutoBstr@@QEAAAEAV0@PEAG@Z
??4AutoBstrNoAlloc@@QEAAAEAV0@PEAG@Z
??4AutoCertContext@@QEAAAEAV0@PEBU_CERT_CONTEXT@@@Z
??4AutoChainContext@@QEAAAEAV0@PEBU_CERT_CHAIN_CONTEXT@@@Z
??4AutoCoTaskMemFree@@QEAAAEAV0@PEAX@Z
??4AutoFwXmlCloseParser@@QEAAAEAV0@PEAX@Z
??4AutoHandle@@QEAAAEAV0@PEAX@Z
??4AutoImpersonateUser@@QEAAAEAV0@PEAX@Z
??4AutoLibrary@@QEAAAEAV0@PEAUHINSTANCE__@@@Z
??4AutoLocalFree@@QEAAAEAV0@PEAX@Z
??4AutoMIClass@@QEAAAEAV0@PEAU_MI_Class@@@Z
??4AutoMIInstance@@QEAAAEAV0@PEAU_MI_Instance@@@Z
??4AutoObject@@QEAAAEAV0@PEAUWSMAN_OBJECT@@@Z
??4AutoRegKey@@QEAAAEAV0@PEAUHKEY__@@@Z
??4AutoSecurityDescriptor@@QEAAAEAV0@PEAX@Z
??4AutoWaitHandle@@QEAAAEAV0@PEAX@Z
??4ChildLifeTimeManager@@QEAAAEAV0@AEBV0@@Z
??4ConfigRegistry@@QEAAAEAV0@AEBV0@@Z
??4EtwCorrelationHelper@@QEAAAEAV0@AEBV0@@Z
??4EventLog@@QEAAAEAV0@$$QEAV0@@Z
??4EventLog@@QEAAAEAV0@AEBV0@@Z
??4ExtendedSemantic@@QEAAAEAV0@$$QEAV0@@Z
??4ExtendedSemantic@@QEAAAEAV0@AEBV0@@Z
??4FastLock@@QEAAAEAV0@$$QEAV0@@Z
??4FastLock@@QEAAAEAV0@AEBV0@@Z
??4Fragment@PacketParser@@QEAAAEAV01@$$QEAV01@@Z
??4Fragment@PacketParser@@QEAAAEAV01@AEBV01@@Z
??4IConfigChangeObserver@@QEAAAEAV0@AEBV0@@Z
??4ILifeTimeMgmt@@QEAAAEAV0@AEBV0@@Z
??4IWSManGroupPolicyObserver@@QEAAAEAV0@AEBV0@@Z
??4IWSManGroupPolicyPublisher@@QEAAAEAV0@AEBV0@@Z
??4Locale@@QEAAAEAV0@AEBV0@@Z
??4NotUnderstandSoapHeader@PacketParser@@QEAAAEAV01@$$QEAV01@@Z
??4NotUnderstandSoapHeader@PacketParser@@QEAAAEAV01@AEBV01@@Z
??4PacketFormatter@@QEAAAEAV0@$$QEAV0@@Z
??4PacketFormatter@@QEAAAEAV0@AEBV0@@Z
??4RBUFFER@@QEAAAEAV0@AEBV0@@Z
??4SBUFFER@@QEAAAEAV0@$$QEAV0@@Z
??4SBUFFER@@QEAAAEAV0@AEBV0@@Z
??4SessionId@PacketParser@@QEAAAEAV01@$$QEAV01@@Z
??4SessionId@PacketParser@@QEAAAEAV01@AEBV01@@Z
??4SoapSemanticConverter@@QEAAAEAV0@AEBV0@@Z
??4UserAuthzRecord@@QEAAAEAV0@$$QEAV0@@Z
??4UserAuthzRecord@@QEAAAEAV0@AEBV0@@Z
??6BufferFormatter@@UEAAAEAV0@AEAVBufferFormatterDataFormatDWORD@@@Z
??6BufferFormatter@@UEAAAEAV0@AEAVBufferFormatterDataFormatULONGLONG@@@Z
??6BufferFormatter@@UEAAAEAV0@AEAVBufferFormatterDataPCWSTR@@@Z
??6BufferFormatter@@UEAAAEAV0@AEAVBufferFormatterDataPUCHAR@@@Z
??6BufferFormatter@@UEAAAEAV0@AEAVBufferFormatterDataXmlEscape@@@Z
??6BufferFormatter@@UEAAAEAV0@K@Z
??6BufferFormatter@@UEAAAEAV0@PEAU_FWXML_ELEMENT@@@Z
??7?$AutoCleanup@V?$AutoDelete@G@@PEAG@@QEBA_NXZ
??7?$AutoCleanup@V?$AutoDelete@V?$SafeSet@PEAVCCertMapping@@@@@@PEAV?$SafeSet@PEAVCCertMapping@@@@@@QEBA_NXZ
??7?$AutoCleanup@V?$AutoDelete@V?$SafeSet@PEAVCShellUriSettings@@@@@@PEAV?$SafeSet@PEAVCShellUriSettings@@@@@@QEBA_NXZ
??7?$AutoCleanup@V?$AutoDelete@V?$set@PEAVCListenerSettings@@VCListenerSettingsLessFunctor@CServiceConfigSettings@@V?$transport_allocator@PEAVCListenerSettings@@@@@std@@@@PEAV?$set@PEAVCListenerSettings@@VCListenerSettingsLessFunctor@CServiceConfigSettings@@V?$transport_allocator@PEAVCListenerSettings@@@@@std@@@@QEBA_NXZ
??7?$AutoCleanup@V?$AutoDelete@VConfigUpdate@@@@PEAVConfigUpdate@@@@QEBA_NXZ
??7?$AutoCleanup@V?$AutoDelete@VEnumSinkEx@@@@PEAVEnumSinkEx@@@@QEBA_NXZ
??7?$AutoCleanup@V?$AutoDelete@VGeneralSinkEx@@@@PEAVGeneralSinkEx@@@@QEBA_NXZ
??7?$AutoCleanup@V?$AutoDelete@VIQueryDASHSMASHInterface@@@@PEAVIQueryDASHSMASHInterface@@@@QEBA_NXZ
??7?$AutoCleanup@V?$AutoDelete@VISpecification@@@@PEAVISpecification@@@@QEBA_NXZ
??7?$AutoCleanup@V?$AutoDelete@VRunAsConfiguration@@@@PEAVRunAsConfiguration@@@@QEBA_NXZ
??7?$AutoCleanup@V?$AutoDelete@VSubscriptionEnumerator@@@@PEAVSubscriptionEnumerator@@@@QEBA_NXZ
??7?$AutoCleanup@V?$AutoDelete@VTSTRBUFFER@@@@PEAVTSTRBUFFER@@@@QEBA_NXZ
??7?$AutoCleanup@V?$AutoDelete@VWmiEnumContext@@@@PEAVWmiEnumContext@@@@QEBA_NXZ
??7?$AutoCleanup@V?$AutoDeleteVector@D@@PEAD@@QEBA_NXZ
??7?$AutoCleanup@V?$AutoDeleteVector@E@@PEAE@@QEBA_NXZ
??7?$AutoCleanup@V?$AutoDeleteVector@G@@PEAG@@QEBA_NXZ
??7?$AutoCleanup@V?$AutoDeleteVector@PEAG@@PEAPEAG@@QEBA_NXZ
??7?$AutoCleanup@V?$AutoDeleteVector@PEBG@@PEAPEBG@@QEBA_NXZ
??7?$AutoCleanup@V?$AutoDeleteVector@U_WINRS_CREATE_SHELL_ENVIRONMENT_VARIABLE@@@@PEAU_WINRS_CREATE_SHELL_ENVIRONMENT_VARIABLE@@@@QEBA_NXZ
??7?$AutoCleanup@V?$AutoDeleteVector@U_WINRS_RUN_COMMAND_ARG@@@@PEAU_WINRS_RUN_COMMAND_ARG@@@@QEBA_NXZ
??7?$AutoCleanup@V?$AutoDeleteVector@X@@PEAX@@QEBA_NXZ
??7?$AutoCleanup@V?$AutoRelease@UIClientSecurity@@@@PEAUIClientSecurity@@@@QEBA_NXZ
??7?$AutoCleanup@V?$AutoRelease@UIEnumWbemClassObject@@@@PEAUIEnumWbemClassObject@@@@QEBA_NXZ
??7?$AutoCleanup@V?$AutoRelease@UIErrorInfo@@@@PEAUIErrorInfo@@@@QEBA_NXZ
??7?$AutoCleanup@V?$AutoRelease@UIUnknown@@@@PEAUIUnknown@@@@QEBA_NXZ
??7?$AutoCleanup@V?$AutoRelease@UIWbemClassObject@@@@PEAUIWbemClassObject@@@@QEBA_NXZ
??7?$AutoCleanup@V?$AutoRelease@UIWbemContext@@@@PEAUIWbemContext@@@@QEBA_NXZ
??7?$AutoCleanup@V?$AutoRelease@UIWbemLocator@@@@PEAUIWbemLocator@@@@QEBA_NXZ
??7?$AutoCleanup@V?$AutoRelease@UIWbemObjectTextSrc@@@@PEAUIWbemObjectTextSrc@@@@QEBA_NXZ
??7?$AutoCleanup@V?$AutoRelease@UIWbemPath@@@@PEAUIWbemPath@@@@QEBA_NXZ
??7?$AutoCleanup@V?$AutoRelease@UIWbemPathKeyList@@@@PEAUIWbemPathKeyList@@@@QEBA_NXZ
??7?$AutoCleanup@V?$AutoRelease@UIWbemQualifierSet@@@@PEAUIWbemQualifierSet@@@@QEBA_NXZ
??7?$AutoCleanup@V?$AutoRelease@UIWbemQuery@@@@PEAUIWbemQuery@@@@QEBA_NXZ
??7?$AutoCleanup@V?$AutoRelease@UIWbemServices@@@@PEAUIWbemServices@@@@QEBA_NXZ
??7?$AutoCleanup@V?$AutoRelease@VCClientConfigSettings@@@@PEAVCClientConfigSettings@@@@QEBA_NXZ
??7?$AutoCleanup@V?$AutoRelease@VCConfigManager@@@@PEAVCConfigManager@@@@QEBA_NXZ
??7?$AutoCleanup@V?$AutoRelease@VCRemoteSession@@@@PEAVCRemoteSession@@@@QEBA_NXZ
??7?$AutoCleanup@V?$AutoRelease@VCRequestContext@@@@PEAVCRequestContext@@@@QEBA_NXZ
??7?$AutoCleanup@V?$AutoRelease@VCWSManEPR@@@@PEAVCWSManEPR@@@@QEBA_NXZ
??7?$AutoCleanup@V?$AutoRelease@VCWSManResource@@@@PEAVCWSManResource@@@@QEBA_NXZ
??7?$AutoCleanup@V?$AutoRelease@VCWinRSPluginConfigCache@@@@PEAVCWinRSPluginConfigCache@@@@QEBA_NXZ
??7?$AutoCleanup@V?$AutoRelease@VEnumSinkEx@@@@PEAVEnumSinkEx@@@@QEBA_NXZ
??7?$AutoCleanup@V?$AutoRelease@VGeneralSinkEx@@@@PEAVGeneralSinkEx@@@@QEBA_NXZ
??7?$AutoCleanup@V?$AutoRelease@VIRequestContext@@@@PEAVIRequestContext@@@@QEBA_NXZ
??7?$AutoCleanup@V?$AutoRelease@VInboundRequestDetails@@@@PEAVInboundRequestDetails@@@@QEBA_NXZ
??7?$AutoCleanup@VAutoBstrNoAlloc@@PEAG@@QEBA_NXZ
??7?$AutoCleanup@VAutoCertContext@@PEBU_CERT_CONTEXT@@@@QEBA_NXZ
??7?$AutoCleanup@VAutoHandle@@PEAX@@QEBA_NXZ
??7?$AutoCleanup@VAutoImpersonateUser@@PEAX@@QEBA_NXZ
??7?$AutoCleanup@VAutoMIClass@@PEAU_MI_Class@@@@QEBA_NXZ
??7?$AutoCleanup@VAutoRegKey@@PEAUHKEY__@@@@QEBA_NXZ
??7?$AutoCleanup@VAutoSecurityDescriptor@@PEAX@@QEBA_NXZ
??A?$SafeMap@UPluginKey@@KV?$SafeMap_Iterator@UPluginKey@@K@@@@QEAAPEAKAEBUPluginKey@@@Z
??A?$SafeMap@UUserKey@@PEAVBlockedRecord@@V?$SafeMap_Iterator@UUserKey@@PEAVBlockedRecord@@@@@@QEAAPEAPEAVBlockedRecord@@AEBUUserKey@@@Z
??A?$SafeMap@VCertThumbprintKey@@VCertThumbprintMappedSet@CServiceConfigSettings@@V?$SafeMap_Iterator@VCertThumbprintKey@@VCertThumbprintMappedSet@CServiceConfigSettings@@@@@@QEAAPEAVCertThumbprintMappedSet@CServiceConfigSettings@@AEBVCertThumbprintKey@@@Z
??A?$SafeMap@VStringKeyCI@@KV?$SafeMap_Iterator@VStringKeyCI@@K@@@@QEAAPEAKAEBVStringKeyCI@@@Z
??A?$SafeMap@VStringKeyCI@@UUSER_CONTEXT_INFO@WSManHttpListener@@V?$SafeMap_Iterator@VStringKeyCI@@UUSER_CONTEXT_INFO@WSManHttpListener@@@@@@QEAAPEAUUSER_CONTEXT_INFO@WSManHttpListener@@AEBVStringKeyCI@@@Z
??A?$SafeMap@VStringKeyStore@@PEAVExpiredOperationIdRecord@@V?$SafeMap_Iterator@VStringKeyStore@@PEAVExpiredOperationIdRecord@@@@@@QEAAPEAPEAVExpiredOperationIdRecord@@AEBVStringKeyStore@@@Z
??A?$SafeMap@VStringKeyStore@@PEAVServerFullDuplexChannel@@V?$SafeMap_Iterator@VStringKeyStore@@PEAVServerFullDuplexChannel@@@@@@QEAAPEAPEAVServerFullDuplexChannel@@AEBVStringKeyStore@@@Z
??A?$SafeMap@W4WSManSessionOption@@PEAVOptionValue@SessionOptions@Client@WSMan@@V?$SafeMap_Iterator@W4WSManSessionOption@@PEAVOptionValue@SessionOptions@Client@WSMan@@@@@@QEAAPEAPEAVOptionValue@SessionOptions@Client@WSMan@@AEBW4WSManSessionOption@@@Z
??A?$SafeMap@_KPEAVSendPacketArgs@RobustConnectionBuffer@@V?$SafeMap_Iterator@_KPEAVSendPacketArgs@RobustConnectionBuffer@@@@@@QEAAPEAPEAVSendPacketArgs@RobustConnectionBuffer@@AEB_K@Z
??A?$SafeSet@PEAX@@QEBAPEBQEAXAEBQEAX@Z
??B?$AutoCleanup@V?$AutoDelete@D@@PEAD@@QEAAPEADXZ
??B?$AutoCleanup@V?$AutoDelete@G@@PEAG@@QEAAPEAGXZ
??B?$AutoCleanup@V?$AutoDelete@G@@PEAG@@QEBAQEAGXZ
??B?$AutoCleanup@V?$AutoDelete@UIPRange@CWSManIPFilter@@@@PEAUIPRange@CWSManIPFilter@@@@QEAAPEAUIPRange@CWSManIPFilter@@XZ
??B?$AutoCleanup@V?$AutoDelete@U_SID@@@@PEAU_SID@@@@QEAAPEAU_SID@@XZ
??B?$AutoCleanup@V?$AutoDelete@U_WSMAN_STREAM_ID_SET@@@@PEAU_WSMAN_STREAM_ID_SET@@@@QEAAPEAU_WSMAN_STREAM_ID_SET@@XZ
??B?$AutoCleanup@V?$AutoDelete@V?$Handle@VISubscription@@@@@@PEAV?$Handle@VISubscription@@@@@@QEAAPEAV?$Handle@VISubscription@@@@XZ
??B?$AutoCleanup@V?$AutoDelete@V?$SafeMap_Iterator@VStringKeyCI@@K@@@@PEAV?$SafeMap_Iterator@VStringKeyCI@@K@@@@QEAAPEAV?$SafeMap_Iterator@VStringKeyCI@@K@@XZ
??B?$AutoCleanup@V?$AutoDelete@V?$SafeMap_Iterator@W4WSManSessionOption@@PEAVOptionValue@SessionOptions@Client@WSMan@@@@@@PEAV?$SafeMap_Iterator@W4WSManSessionOption@@PEAVOptionValue@SessionOptions@Client@WSMan@@@@@@QEAAPEAV?$SafeMap_Iterator@W4WSManSessionOption@@PEAVOptionValue@SessionOptions@Client@WSMan@@@@XZ
??B?$AutoCleanup@V?$AutoDelete@V?$SafeSet@PEAVCCertMapping@@@@@@PEAV?$SafeSet@PEAVCCertMapping@@@@@@QEAAPEAV?$SafeSet@PEAVCCertMapping@@@@XZ
??B?$AutoCleanup@V?$AutoDelete@V?$SafeSet@PEAVCShellUriSettings@@@@@@PEAV?$SafeSet@PEAVCShellUriSettings@@@@@@QEAAPEAV?$SafeSet@PEAVCShellUriSettings@@@@XZ
??B?$AutoCleanup@V?$AutoDelete@V?$SafeSet_Iterator@PEAVCListenerOperation@@@@@@PEAV?$SafeSet_Iterator@PEAVCListenerOperation@@@@@@QEAAPEAV?$SafeSet_Iterator@PEAVCListenerOperation@@@@XZ
??B?$AutoCleanup@V?$AutoDelete@V?$set@PEAVCListenerSettings@@VCListenerSettingsLessFunctor@CServiceConfigSettings@@V?$transport_allocator@PEAVCListenerSettings@@@@@std@@@@PEAV?$set@PEAVCListenerSettings@@VCListenerSettingsLessFunctor@CServiceConfigSettings@@V?$transport_allocator@PEAVCListenerSettings@@@@@std@@@@QEAAPEAV?$set@PEAVCListenerSettings@@VCListenerSettingsLessFunctor@CServiceConfigSettings@@V?$transport_allocator@PEAVCListenerSettings@@@@@std@@XZ
??B?$AutoCleanup@V?$AutoDelete@V?$set@Usockaddr_storage@@VSockAddrLessFunctor@CListenerSettings@@V?$transport_allocator@Usockaddr_storage@@@@@std@@@@PEAV?$set@Usockaddr_storage@@VSockAddrLessFunctor@CListenerSettings@@V?$transport_allocator@Usockaddr_storage@@@@@std@@@@QEAAPEAV?$set@Usockaddr_storage@@VSockAddrLessFunctor@CListenerSettings@@V?$transport_allocator@Usockaddr_storage@@@@@std@@XZ
??B?$AutoCleanup@V?$AutoDelete@V?$vector@PEAVHandleImpl@Client@WSMan@@V?$transport_allocator@PEAVHandleImpl@Client@WSMan@@@@@std@@@@PEAV?$vector@PEAVHandleImpl@Client@WSMan@@V?$transport_allocator@PEAVHandleImpl@Client@WSMan@@@@@std@@@@QEAAPEAV?$vector@PEAVHandleImpl@Client@WSMan@@V?$transport_allocator@PEAVHandleImpl@Client@WSMan@@@@@std@@XZ
??B?$AutoCleanup@V?$AutoDelete@V?$vector@PEAVHandleImpl@Client@WSMan@@V?$transport_allocator@PEAVHandleImpl@Client@WSMan@@@@@std@@@@PEAV?$vector@PEAVHandleImpl@Client@WSMan@@V?$transport_allocator@PEAVHandleImpl@Client@WSMan@@@@@std@@@@QEBAQEAV?$vector@PEAVHandleImpl@Client@WSMan@@V?$transport_allocator@PEAVHandleImpl@Client@WSMan@@@@@std@@XZ
??B?$AutoCleanup@V?$AutoDelete@V?$vector@PEAVIServiceConfigObserver@@V?$transport_allocator@PEAVIServiceConfigObserver@@@@@std@@@@PEAV?$vector@PEAVIServiceConfigObserver@@V?$transport_allocator@PEAVIServiceConfigObserver@@@@@std@@@@QEAAPEAV?$vector@PEAVIServiceConfigObserver@@V?$transport_allocator@PEAVIServiceConfigObserver@@@@@std@@XZ
??B?$AutoCleanup@V?$AutoDelete@VAdminSid@CSecurity@@@@PEAVAdminSid@CSecurity@@@@QEAAPEAVAdminSid@CSecurity@@XZ
??B?$AutoCleanup@V?$AutoDelete@VBlockedRecord@@@@PEAVBlockedRecord@@@@QEAAPEAVBlockedRecord@@XZ
??B?$AutoCleanup@V?$AutoDelete@VCBaseConfigCache@@@@PEAVCBaseConfigCache@@@@QEAAPEAVCBaseConfigCache@@XZ
??B?$AutoCleanup@V?$AutoDelete@VCCertMapping@@@@PEAVCCertMapping@@@@QEAAPEAVCCertMapping@@XZ
??B?$AutoCleanup@V?$AutoDelete@VCConfigChangeSource@@@@PEAVCConfigChangeSource@@@@QEAAPEAVCConfigChangeSource@@XZ
??B?$AutoCleanup@V?$AutoDelete@VCListenerSettings@@@@PEAVCListenerSettings@@@@QEAAPEAVCListenerSettings@@XZ
??B?$AutoCleanup@V?$AutoDelete@VCObserverConfigChangeErrors@@@@PEAVCObserverConfigChangeErrors@@@@QEAAPEAVCObserverConfigChangeErrors@@XZ
??B?$AutoCleanup@V?$AutoDelete@VCServiceWatcher@CServiceConfigCache@@@@PEAVCServiceWatcher@CServiceConfigCache@@@@QEAAPEAVCServiceWatcher@CServiceConfigCache@@XZ
??B?$AutoCleanup@V?$AutoDelete@VCShellUriSettings@@@@PEAVCShellUriSettings@@@@QEAAPEAVCShellUriSettings@@XZ
??B?$AutoCleanup@V?$AutoDelete@VCWSManEPR@@@@PEAVCWSManEPR@@@@QEAAPEAVCWSManEPR@@XZ
??B?$AutoCleanup@V?$AutoDelete@VCWSManResource@@@@PEAVCWSManResource@@@@QEAAPEAVCWSManResource@@XZ
??B?$AutoCleanup@V?$AutoDelete@VCertHash@@@@PEAVCertHash@@@@QEAAPEAVCertHash@@XZ
??B?$AutoCleanup@V?$AutoDelete@VConfigUpdate@@@@PEAVConfigUpdate@@@@QEAAPEAVConfigUpdate@@XZ
??B?$AutoCleanup@V?$AutoDelete@VEnumSinkEx@@@@PEAVEnumSinkEx@@@@QEAAPEAVEnumSinkEx@@XZ
??B?$AutoCleanup@V?$AutoDelete@VEnumSinkEx@@@@PEAVEnumSinkEx@@@@QEBAQEAVEnumSinkEx@@XZ
??B?$AutoCleanup@V?$AutoDelete@VEventHandler@WSMan@@@@PEAVEventHandler@WSMan@@@@QEAAPEAVEventHandler@WSMan@@XZ
??B?$AutoCleanup@V?$AutoDelete@VExpiredOperationIdRecord@@@@PEAVExpiredOperationIdRecord@@@@QEAAPEAVExpiredOperationIdRecord@@XZ
??B?$AutoCleanup@V?$AutoDelete@VGPApiManager@@@@PEAVGPApiManager@@@@QEAAPEAVGPApiManager@@XZ
??B?$AutoCleanup@V?$AutoDelete@VGeneralSinkEx@@@@PEAVGeneralSinkEx@@@@QEAAPEAVGeneralSinkEx@@XZ
??B?$AutoCleanup@V?$AutoDelete@VGeneralSinkEx@@@@PEAVGeneralSinkEx@@@@QEBAQEAVGeneralSinkEx@@XZ
??B?$AutoCleanup@V?$AutoDelete@VIChannelObserverFactory@@@@PEAVIChannelObserverFactory@@@@QEAAPEAVIChannelObserverFactory@@XZ
??B?$AutoCleanup@V?$AutoDelete@VIQueryDASHSMASHInterface@@@@PEAVIQueryDASHSMASHInterface@@@@QEAAPEAVIQueryDASHSMASHInterface@@XZ
??B?$AutoCleanup@V?$AutoDelete@VIQueryDASHSMASHInterface@@@@PEAVIQueryDASHSMASHInterface@@@@QEBAQEAVIQueryDASHSMASHInterface@@XZ
??B?$AutoCleanup@V?$AutoDelete@VISpecification@@@@PEAVISpecification@@@@QEAAPEAVISpecification@@XZ
??B?$AutoCleanup@V?$AutoDelete@VISpecification@@@@PEAVISpecification@@@@QEBAQEAVISpecification@@XZ
??B?$AutoCleanup@V?$AutoDelete@VInteractiveSid@CSecurity@@@@PEAVInteractiveSid@CSecurity@@@@QEAAPEAVInteractiveSid@CSecurity@@XZ
??B?$AutoCleanup@V?$AutoDelete@VIpHlpApiDllLoader@@@@PEAVIpHlpApiDllLoader@@@@QEAAPEAVIpHlpApiDllLoader@@XZ
??B?$AutoCleanup@V?$AutoDelete@VMachineName@@@@PEAVMachineName@@@@QEAAPEAVMachineName@@XZ
??B?$AutoCleanup@V?$AutoDelete@VNetworkServiceSid@CSecurity@@@@PEAVNetworkServiceSid@CSecurity@@@@QEAAPEAVNetworkServiceSid@CSecurity@@XZ
??B?$AutoCleanup@V?$AutoDelete@VNtDsApiDllLoader@@@@PEAVNtDsApiDllLoader@@@@QEAAPEAVNtDsApiDllLoader@@XZ
??B?$AutoCleanup@V?$AutoDelete@VOptionValue@SessionOptions@Client@WSMan@@@@PEAVOptionValue@SessionOptions@Client@WSMan@@@@QEAAPEAVOptionValue@SessionOptions@Client@WSMan@@XZ
??B?$AutoCleanup@V?$AutoDelete@VPacketCreator@@@@PEAVPacketCreator@@@@QEAAPEAVPacketCreator@@XZ
??B?$AutoCleanup@V?$AutoDelete@VPacketParser@@@@PEAVPacketParser@@@@QEAAPEAVPacketParser@@XZ
??B?$AutoCleanup@V?$AutoDelete@VResources@Locale@@@@PEAVResources@Locale@@@@QEAAPEAVResources@Locale@@XZ
??B?$AutoCleanup@V?$AutoDelete@VSecurityEntry@Catalog@@@@PEAVSecurityEntry@Catalog@@@@QEAAPEAVSecurityEntry@Catalog@@XZ
??B?$AutoCleanup@V?$AutoDelete@VServiceSoapProcessor@@@@PEAVServiceSoapProcessor@@@@QEAAPEAVServiceSoapProcessor@@XZ
??B?$AutoCleanup@V?$AutoDelete@VShell32DllLoader@@@@PEAVShell32DllLoader@@@@QEAAPEAVShell32DllLoader@@XZ
??B?$AutoCleanup@V?$AutoDelete@VShlWApiDllLoader@@@@PEAVShlWApiDllLoader@@@@QEAAPEAVShlWApiDllLoader@@XZ
??B?$AutoCleanup@V?$AutoDelete@VSubscriptionManager@@@@PEAVSubscriptionManager@@@@QEAAPEAVSubscriptionManager@@XZ
??B?$AutoCleanup@V?$AutoDelete@VTSTRBUFFER@@@@PEAVTSTRBUFFER@@@@QEAAPEAVTSTRBUFFER@@XZ
??B?$AutoCleanup@V?$AutoDelete@VTSTRBUFFER@@@@PEAVTSTRBUFFER@@@@QEBAQEAVTSTRBUFFER@@XZ
??B?$AutoCleanup@V?$AutoDelete@VUniqueStringOverflow@@@@PEAVUniqueStringOverflow@@@@QEAAPEAVUniqueStringOverflow@@XZ
??B?$AutoCleanup@V?$AutoDelete@VUser32DllLoader@@@@PEAVUser32DllLoader@@@@QEAAPEAVUser32DllLoader@@XZ
??B?$AutoCleanup@V?$AutoDelete@VWSMANCONFIGTABLE_IDENTITY@@@@PEAVWSMANCONFIGTABLE_IDENTITY@@@@QEAAPEAVWSMANCONFIGTABLE_IDENTITY@@XZ
??B?$AutoCleanup@V?$AutoDelete@VWSManMemCryptManager@@@@PEAVWSManMemCryptManager@@@@QEAAPEAVWSManMemCryptManager@@XZ
??B?$AutoCleanup@V?$AutoDelete@VWmiEnumContext@@@@PEAVWmiEnumContext@@@@QEAAPEAVWmiEnumContext@@XZ
??B?$AutoCleanup@V?$AutoDelete@VWmiEnumContext@@@@PEAVWmiEnumContext@@@@QEBAQEAVWmiEnumContext@@XZ
??B?$AutoCleanup@V?$AutoDelete@VXmlReader@@@@PEAVXmlReader@@@@QEAAPEAVXmlReader@@XZ
??B?$AutoCleanup@V?$AutoDeleteVector@$$CBG@@PEBG@@QEAAPEBGXZ
??B?$AutoCleanup@V?$AutoDeleteVector@D@@PEAD@@QEAAPEADXZ
??B?$AutoCleanup@V?$AutoDeleteVector@E@@PEAE@@QEAAPEAEXZ
??B?$AutoCleanup@V?$AutoDeleteVector@E@@PEAE@@QEBAQEAEXZ
??B?$AutoCleanup@V?$AutoDeleteVector@G@@PEAG@@QEAAPEAGXZ
??B?$AutoCleanup@V?$AutoDeleteVector@G@@PEAG@@QEBAQEAGXZ
??B?$AutoCleanup@V?$AutoDeleteVector@H@@PEAH@@QEAAPEAHXZ
??B?$AutoCleanup@V?$AutoDeleteVector@PEAG@@PEAPEAG@@QEAAPEAPEAGXZ
??B?$AutoCleanup@V?$AutoDeleteVector@PEAG@@PEAPEAG@@QEBAQEAPEAGXZ
??B?$AutoCleanup@V?$AutoDeleteVector@PEBG@@PEAPEBG@@QEAAPEAPEBGXZ
??B?$AutoCleanup@V?$AutoDeleteVector@PEBG@@PEAPEBG@@QEBAQEAPEBGXZ
??B?$AutoCleanup@V?$AutoDeleteVector@U_CONFIG_UPDATE@@@@PEAU_CONFIG_UPDATE@@@@QEAAPEAU_CONFIG_UPDATE@@XZ
??B?$AutoCleanup@V?$AutoDeleteVector@U_WINRS_CREATE_SHELL_ENVIRONMENT_VARIABLE@@@@PEAU_WINRS_CREATE_SHELL_ENVIRONMENT_VARIABLE@@@@QEAAPEAU_WINRS_CREATE_SHELL_ENVIRONMENT_VARIABLE@@XZ
??B?$AutoCleanup@V?$AutoDeleteVector@U_WINRS_CREATE_SHELL_ENVIRONMENT_VARIABLE@@@@PEAU_WINRS_CREATE_SHELL_ENVIRONMENT_VARIABLE@@@@QEBAQEAU_WINRS_CREATE_SHELL_ENVIRONMENT_VARIABLE@@XZ
??B?$AutoCleanup@V?$AutoDeleteVector@U_WINRS_RUN_COMMAND_ARG@@@@PEAU_WINRS_RUN_COMMAND_ARG@@@@QEAAPEAU_WINRS_RUN_COMMAND_ARG@@XZ
??B?$AutoCleanup@V?$AutoDeleteVector@U_WINRS_RUN_COMMAND_ARG@@@@PEAU_WINRS_RUN_COMMAND_ARG@@@@QEBAQEAU_WINRS_RUN_COMMAND_ARG@@XZ
??B?$AutoCleanup@V?$AutoDeleteVector@U_WSMAN_OPTION@@@@PEAU_WSMAN_OPTION@@@@QEAAPEAU_WSMAN_OPTION@@XZ
??B?$AutoCleanup@V?$AutoDeleteVector@X@@PEAX@@QEAAPEAXXZ
??B?$AutoCleanup@V?$AutoFree@E@@PEAE@@QEAAPEAEXZ
??B?$AutoCleanup@V?$AutoFree@E@@PEAE@@QEBAQEAEXZ
??B?$AutoCleanup@V?$AutoLocklessItemRecycle@VPacket@@@@PEAVPacket@@@@QEAAPEAVPacket@@XZ
??B?$AutoCleanup@V?$AutoRelease@UIAppHostChildElementCollection@@@@PEAUIAppHostChildElementCollection@@@@QEAAPEAUIAppHostChildElementCollection@@XZ
??B?$AutoCleanup@V?$AutoRelease@UIAppHostElement@@@@PEAUIAppHostElement@@@@QEAAPEAUIAppHostElement@@XZ
??B?$AutoCleanup@V?$AutoRelease@UIAppHostElementCollection@@@@PEAUIAppHostElementCollection@@@@QEAAPEAUIAppHostElementCollection@@XZ
??B?$AutoCleanup@V?$AutoRelease@UIClientSecurity@@@@PEAUIClientSecurity@@@@QEAAPEAUIClientSecurity@@XZ
??B?$AutoCleanup@V?$AutoRelease@UIClientSecurity@@@@PEAUIClientSecurity@@@@QEBAQEAUIClientSecurity@@XZ
??B?$AutoCleanup@V?$AutoRelease@UIEnumWbemClassObject@@@@PEAUIEnumWbemClassObject@@@@QEAAPEAUIEnumWbemClassObject@@XZ
??B?$AutoCleanup@V?$AutoRelease@UIEnumWbemClassObject@@@@PEAUIEnumWbemClassObject@@@@QEBAQEAUIEnumWbemClassObject@@XZ
??B?$AutoCleanup@V?$AutoRelease@UIErrorInfo@@@@PEAUIErrorInfo@@@@QEAAPEAUIErrorInfo@@XZ
??B?$AutoCleanup@V?$AutoRelease@UIErrorInfo@@@@PEAUIErrorInfo@@@@QEBAQEAUIErrorInfo@@XZ
??B?$AutoCleanup@V?$AutoRelease@UIUnknown@@@@PEAUIUnknown@@@@QEAAPEAUIUnknown@@XZ
??B?$AutoCleanup@V?$AutoRelease@UIUnknown@@@@PEAUIUnknown@@@@QEBAQEAUIUnknown@@XZ
??B?$AutoCleanup@V?$AutoRelease@UIWbemClassObject@@@@PEAUIWbemClassObject@@@@QEAAPEAUIWbemClassObject@@XZ
??B?$AutoCleanup@V?$AutoRelease@UIWbemClassObject@@@@PEAUIWbemClassObject@@@@QEBAQEAUIWbemClassObject@@XZ
??B?$AutoCleanup@V?$AutoRelease@UIWbemContext@@@@PEAUIWbemContext@@@@QEAAPEAUIWbemContext@@XZ
??B?$AutoCleanup@V?$AutoRelease@UIWbemContext@@@@PEAUIWbemContext@@@@QEBAQEAUIWbemContext@@XZ
??B?$AutoCleanup@V?$AutoRelease@UIWbemLocator@@@@PEAUIWbemLocator@@@@QEAAPEAUIWbemLocator@@XZ
??B?$AutoCleanup@V?$AutoRelease@UIWbemLocator@@@@PEAUIWbemLocator@@@@QEBAQEAUIWbemLocator@@XZ
??B?$AutoCleanup@V?$AutoRelease@UIWbemObjectTextSrc@@@@PEAUIWbemObjectTextSrc@@@@QEAAPEAUIWbemObjectTextSrc@@XZ
??B?$AutoCleanup@V?$AutoRelease@UIWbemObjectTextSrc@@@@PEAUIWbemObjectTextSrc@@@@QEBAQEAUIWbemObjectTextSrc@@XZ
??B?$AutoCleanup@V?$AutoRelease@UIWbemPath@@@@PEAUIWbemPath@@@@QEAAPEAUIWbemPath@@XZ
??B?$AutoCleanup@V?$AutoRelease@UIWbemPath@@@@PEAUIWbemPath@@@@QEBAQEAUIWbemPath@@XZ
??B?$AutoCleanup@V?$AutoRelease@UIWbemPathKeyList@@@@PEAUIWbemPathKeyList@@@@QEAAPEAUIWbemPathKeyList@@XZ
??B?$AutoCleanup@V?$AutoRelease@UIWbemPathKeyList@@@@PEAUIWbemPathKeyList@@@@QEBAQEAUIWbemPathKeyList@@XZ
??B?$AutoCleanup@V?$AutoRelease@UIWbemQualifierSet@@@@PEAUIWbemQualifierSet@@@@QEAAPEAUIWbemQualifierSet@@XZ
??B?$AutoCleanup@V?$AutoRelease@UIWbemQualifierSet@@@@PEAUIWbemQualifierSet@@@@QEBAQEAUIWbemQualifierSet@@XZ
??B?$AutoCleanup@V?$AutoRelease@UIWbemQuery@@@@PEAUIWbemQuery@@@@QEAAPEAUIWbemQuery@@XZ
??B?$AutoCleanup@V?$AutoRelease@UIWbemQuery@@@@PEAUIWbemQuery@@@@QEBAQEAUIWbemQuery@@XZ
??B?$AutoCleanup@V?$AutoRelease@UIWbemServices@@@@PEAUIWbemServices@@@@QEAAPEAUIWbemServices@@XZ
??B?$AutoCleanup@V?$AutoRelease@UIWbemServices@@@@PEAUIWbemServices@@@@QEBAQEAUIWbemServices@@XZ
??B?$AutoCleanup@V?$AutoRelease@VCBaseConfigCache@@@@PEAVCBaseConfigCache@@@@QEAAPEAVCBaseConfigCache@@XZ
??B?$AutoCleanup@V?$AutoRelease@VCClientConfigSettings@@@@PEAVCClientConfigSettings@@@@QEAAPEAVCClientConfigSettings@@XZ
??B?$AutoCleanup@V?$AutoRelease@VCCommonConfigSettings@@@@PEAVCCommonConfigSettings@@@@QEAAPEAVCCommonConfigSettings@@XZ
??B?$AutoCleanup@V?$AutoRelease@VCConfigCacheMap@CBaseConfigCache@@@@PEAVCConfigCacheMap@CBaseConfigCache@@@@QEAAPEAVCConfigCacheMap@CBaseConfigCache@@XZ
??B?$AutoCleanup@V?$AutoRelease@VCConfigManager@@@@PEAVCConfigManager@@@@QEAAPEAVCConfigManager@@XZ
??B?$AutoCleanup@V?$AutoRelease@VCRemoteSession@@@@PEAVCRemoteSession@@@@QEAAPEAVCRemoteSession@@XZ
??B?$AutoCleanup@V?$AutoRelease@VCRequestContext@@@@PEAVCRequestContext@@@@QEAAPEAVCRequestContext@@XZ
??B?$AutoCleanup@V?$AutoRelease@VCServiceCommonConfigSettings@@@@PEAVCServiceCommonConfigSettings@@@@QEAAPEAVCServiceCommonConfigSettings@@XZ
??B?$AutoCleanup@V?$AutoRelease@VCServiceConfigCache@@@@PEAVCServiceConfigCache@@@@QEAAPEAVCServiceConfigCache@@XZ
??B?$AutoCleanup@V?$AutoRelease@VCServiceConfigSettings@@@@PEAVCServiceConfigSettings@@@@QEAAPEAVCServiceConfigSettings@@XZ
??B?$AutoCleanup@V?$AutoRelease@VCWSManEPR@@@@PEAVCWSManEPR@@@@QEAAPEAVCWSManEPR@@XZ
??B?$AutoCleanup@V?$AutoRelease@VCWSManEPR@@@@PEAVCWSManEPR@@@@QEBAQEAVCWSManEPR@@XZ
??B?$AutoCleanup@V?$AutoRelease@VCWSManGroupPolicyCache@@@@PEAVCWSManGroupPolicyCache@@@@QEAAPEAVCWSManGroupPolicyCache@@XZ
??B?$AutoCleanup@V?$AutoRelease@VCWSManGroupPolicyManager@@@@PEAVCWSManGroupPolicyManager@@@@QEAAPEAVCWSManGroupPolicyManager@@XZ
??B?$AutoCleanup@V?$AutoRelease@VCWSManObject@@@@PEAVCWSManObject@@@@QEAAPEAVCWSManObject@@XZ
??B?$AutoCleanup@V?$AutoRelease@VCWSManResource@@@@PEAVCWSManResource@@@@QEAAPEAVCWSManResource@@XZ
??B?$AutoCleanup@V?$AutoRelease@VCWSManResource@@@@PEAVCWSManResource@@@@QEBAQEAVCWSManResource@@XZ
??B?$AutoCleanup@V?$AutoRelease@VCWinRSPluginConfigCache@@@@PEAVCWinRSPluginConfigCache@@@@QEAAPEAVCWinRSPluginConfigCache@@XZ
??B?$AutoCleanup@V?$AutoRelease@VCWinRSPluginConfigCache@@@@PEAVCWinRSPluginConfigCache@@@@QEBAQEAVCWinRSPluginConfigCache@@XZ
??B?$AutoCleanup@V?$AutoRelease@VCWinRSPluginConfigSettings@@@@PEAVCWinRSPluginConfigSettings@@@@QEAAPEAVCWinRSPluginConfigSettings@@XZ
??B?$AutoCleanup@V?$AutoRelease@VCommand@Client@WSMan@@@@PEAVCommand@Client@WSMan@@@@QEAAPEAVCommand@Client@WSMan@@XZ
??B?$AutoCleanup@V?$AutoRelease@VConfigNotification@@@@PEAVConfigNotification@@@@QEAAPEAVConfigNotification@@XZ
??B?$AutoCleanup@V?$AutoRelease@VConnectShellOperation@Client@WSMan@@@@PEAVConnectShellOperation@Client@WSMan@@@@QEAAPEAVConnectShellOperation@Client@WSMan@@XZ
??B?$AutoCleanup@V?$AutoRelease@VCreateShellOperation@Client@WSMan@@@@PEAVCreateShellOperation@Client@WSMan@@@@QEAAPEAVCreateShellOperation@Client@WSMan@@XZ
??B?$AutoCleanup@V?$AutoRelease@VDeleteShellOperation@Client@WSMan@@@@PEAVDeleteShellOperation@Client@WSMan@@@@QEAAPEAVDeleteShellOperation@Client@WSMan@@XZ
??B?$AutoCleanup@V?$AutoRelease@VDisconnectOperation@Client@WSMan@@@@PEAVDisconnectOperation@Client@WSMan@@@@QEAAPEAVDisconnectOperation@Client@WSMan@@XZ
??B?$AutoCleanup@V?$AutoRelease@VEnumSinkEx@@@@PEAVEnumSinkEx@@@@QEAAPEAVEnumSinkEx@@XZ
??B?$AutoCleanup@V?$AutoRelease@VEnumSinkEx@@@@PEAVEnumSinkEx@@@@QEBAQEAVEnumSinkEx@@XZ
??B?$AutoCleanup@V?$AutoRelease@VGeneralSinkEx@@@@PEAVGeneralSinkEx@@@@QEAAPEAVGeneralSinkEx@@XZ
??B?$AutoCleanup@V?$AutoRelease@VGeneralSinkEx@@@@PEAVGeneralSinkEx@@@@QEBAQEAVGeneralSinkEx@@XZ
??B?$AutoCleanup@V?$AutoRelease@VIISConfigSettings@@@@PEAVIISConfigSettings@@@@QEAAPEAVIISConfigSettings@@XZ
??B?$AutoCleanup@V?$AutoRelease@VIPCSoapProcessor@@@@PEAVIPCSoapProcessor@@@@QEAAPEAVIPCSoapProcessor@@XZ
??B?$AutoCleanup@V?$AutoRelease@VIRequestContext@@@@PEAVIRequestContext@@@@QEAAPEAVIRequestContext@@XZ
??B?$AutoCleanup@V?$AutoRelease@VIRequestContext@@@@PEAVIRequestContext@@@@QEBAQEAVIRequestContext@@XZ
??B?$AutoCleanup@V?$AutoRelease@VISubscription@@@@PEAVISubscription@@@@QEAAPEAVISubscription@@XZ
??B?$AutoCleanup@V?$AutoRelease@VInboundRequestDetails@@@@PEAVInboundRequestDetails@@@@QEAAPEAVInboundRequestDetails@@XZ
??B?$AutoCleanup@V?$AutoRelease@VInboundRequestDetails@@@@PEAVInboundRequestDetails@@@@QEBAQEAVInboundRequestDetails@@XZ
??B?$AutoCleanup@V?$AutoRelease@VReceiveOperation@Client@WSMan@@@@PEAVReceiveOperation@Client@WSMan@@@@QEAAPEAVReceiveOperation@Client@WSMan@@XZ
??B?$AutoCleanup@V?$AutoRelease@VReconnectOperation@Client@WSMan@@@@PEAVReconnectOperation@Client@WSMan@@@@QEAAPEAVReconnectOperation@Client@WSMan@@XZ
??B?$AutoCleanup@V?$AutoRelease@VSendOperation@Client@WSMan@@@@PEAVSendOperation@Client@WSMan@@@@QEAAPEAVSendOperation@Client@WSMan@@XZ
??B?$AutoCleanup@V?$AutoRelease@VShell@Client@WSMan@@@@PEAVShell@Client@WSMan@@@@QEAAPEAVShell@Client@WSMan@@XZ
??B?$AutoCleanup@V?$AutoRelease@VShell@Client@WSMan@@@@PEAVShell@Client@WSMan@@@@QEBAQEAVShell@Client@WSMan@@XZ
??B?$AutoCleanup@V?$AutoRelease@VSignalOperation@Client@WSMan@@@@PEAVSignalOperation@Client@WSMan@@@@QEAAPEAVSignalOperation@Client@WSMan@@XZ
??B?$AutoCleanup@V?$AutoRelease@VUserRecord@@@@PEAVUserRecord@@@@QEAAPEAVUserRecord@@XZ
??B?$AutoCleanup@V?$AutoRelease@VUserRecord@@@@PEAVUserRecord@@@@QEBAQEAVUserRecord@@XZ
??B?$AutoCleanup@VAutoBstr@@PEAG@@QEAAPEAGXZ
??B?$AutoCleanup@VAutoBstrNoAlloc@@PEAG@@QEAAPEAGXZ
??B?$AutoCleanup@VAutoBstrNoAlloc@@PEAG@@QEBAQEAGXZ
??B?$AutoCleanup@VAutoCertContext@@PEBU_CERT_CONTEXT@@@@QEAAPEBU_CERT_CONTEXT@@XZ
??B?$AutoCleanup@VAutoHandle@@PEAX@@QEAAPEAXXZ
??B?$AutoCleanup@VAutoHandle@@PEAX@@QEBAQEAXXZ
??B?$AutoCleanup@VAutoImpersonateUser@@PEAX@@QEAAPEAXXZ
??B?$AutoCleanup@VAutoImpersonateUser@@PEAX@@QEBAQEAXXZ
??B?$AutoCleanup@VAutoLibrary@@PEAUHINSTANCE__@@@@QEAAPEAUHINSTANCE__@@XZ
??B?$AutoCleanup@VAutoLocalFree@@PEAX@@QEAAPEAXXZ
??B?$AutoCleanup@VAutoMIClass@@PEAU_MI_Class@@@@QEAAPEAU_MI_Class@@XZ
??B?$AutoCleanup@VAutoMIInstance@@PEAU_MI_Instance@@@@QEAAPEAU_MI_Instance@@XZ
??B?$AutoCleanup@VAutoRegKey@@PEAUHKEY__@@@@QEAAPEAUHKEY__@@XZ
??B?$AutoCleanup@VAutoSecurityDescriptor@@PEAX@@QEAAPEAXXZ
??B?$SafeMap_Iterator@PEAVCCertMapping@@UEmpty@@@@QEBA_NXZ
??B?$SafeMap_Iterator@PEAVCListenerOperation@@UEmpty@@@@QEBA_NXZ
??B?$SafeMap_Iterator@PEAVCShellUriSettings@@UEmpty@@@@QEBA_NXZ
??B?$SafeMap_Iterator@VCertThumbprintKey@@VCertThumbprintMappedSet@CServiceConfigSettings@@@@QEBA_NXZ
??B?$SafeMap_Iterator@VKey@Locale@@K@@QEBA_NXZ
??B?$SafeMap_Iterator@VStringKeyCI@@K@@QEBA_NXZ
??B?$SafeMap_Iterator@VStringKeyCI@@UUSER_CONTEXT_INFO@WSManHttpListener@@@@QEBA_NXZ
??B?$SafeMap_Iterator@VStringKeyStore@@PEAVExpiredOperationIdRecord@@@@QEBA_NXZ
??B?$SafeMap_Iterator@W4WSManSessionOption@@PEAVOptionValue@SessionOptions@Client@WSMan@@@@QEBA_NXZ
??C?$AutoCleanup@V?$AutoDelete@U_WSMAN_STREAM_ID_SET@@@@PEAU_WSMAN_STREAM_ID_SET@@@@QEAAPEAU_WSMAN_STREAM_ID_SET@@XZ
??C?$AutoCleanup@V?$AutoDelete@V?$Handle@VISubscription@@@@@@PEAV?$Handle@VISubscription@@@@@@QEAAPEAV?$Handle@VISubscription@@@@XZ
??C?$AutoCleanup@V?$AutoDelete@V?$SafeMap_Iterator@VStringKeyCI@@K@@@@PEAV?$SafeMap_Iterator@VStringKeyCI@@K@@@@QEAAPEAV?$SafeMap_Iterator@VStringKeyCI@@K@@XZ
??C?$AutoCleanup@V?$AutoDelete@V?$SafeMap_Iterator@W4WSManSessionOption@@PEAVOptionValue@SessionOptions@Client@WSMan@@@@@@PEAV?$SafeMap_Iterator@W4WSManSessionOption@@PEAVOptionValue@SessionOptions@Client@WSMan@@@@@@QEAAPEAV?$SafeMap_Iterator@W4WSManSessionOption@@PEAVOptionValue@SessionOptions@Client@WSMan@@@@XZ
??C?$AutoCleanup@V?$AutoDelete@V?$SafeSet@PEAVCCertMapping@@@@@@PEAV?$SafeSet@PEAVCCertMapping@@@@@@QEAAPEAV?$SafeSet@PEAVCCertMapping@@@@XZ
??C?$AutoCleanup@V?$AutoDelete@V?$SafeSet@PEAVCShellUriSettings@@@@@@PEAV?$SafeSet@PEAVCShellUriSettings@@@@@@QEAAPEAV?$SafeSet@PEAVCShellUriSettings@@@@XZ
??C?$AutoCleanup@V?$AutoDelete@V?$SafeSet_Iterator@PEAVCListenerOperation@@@@@@PEAV?$SafeSet_Iterator@PEAVCListenerOperation@@@@@@QEAAPEAV?$SafeSet_Iterator@PEAVCListenerOperation@@@@XZ
??C?$AutoCleanup@V?$AutoDelete@V?$set@PEAVCListenerSettings@@VCListenerSettingsLessFunctor@CServiceConfigSettings@@V?$transport_allocator@PEAVCListenerSettings@@@@@std@@@@PEAV?$set@PEAVCListenerSettings@@VCListenerSettingsLessFunctor@CServiceConfigSettings@@V?$transport_allocator@PEAVCListenerSettings@@@@@std@@@@QEAAPEAV?$set@PEAVCListenerSettings@@VCListenerSettingsLessFunctor@CServiceConfigSettings@@V?$transport_allocator@PEAVCListenerSettings@@@@@std@@XZ
??C?$AutoCleanup@V?$AutoDelete@V?$set@Usockaddr_storage@@VSockAddrLessFunctor@CListenerSettings@@V?$transport_allocator@Usockaddr_storage@@@@@std@@@@PEAV?$set@Usockaddr_storage@@VSockAddrLessFunctor@CListenerSettings@@V?$transport_allocator@Usockaddr_storage@@@@@std@@@@QEAAPEAV?$set@Usockaddr_storage@@VSockAddrLessFunctor@CListenerSettings@@V?$transport_allocator@Usockaddr_storage@@@@@std@@XZ
??C?$AutoCleanup@V?$AutoDelete@V?$vector@PEAVHandleImpl@Client@WSMan@@V?$transport_allocator@PEAVHandleImpl@Client@WSMan@@@@@std@@@@PEAV?$vector@PEAVHandleImpl@Client@WSMan@@V?$transport_allocator@PEAVHandleImpl@Client@WSMan@@@@@std@@@@QEAAPEAV?$vector@PEAVHandleImpl@Client@WSMan@@V?$transport_allocator@PEAVHandleImpl@Client@WSMan@@@@@std@@XZ
??C?$AutoCleanup@V?$AutoDelete@V?$vector@PEAVIServiceConfigObserver@@V?$transport_allocator@PEAVIServiceConfigObserver@@@@@std@@@@PEAV?$vector@PEAVIServiceConfigObserver@@V?$transport_allocator@PEAVIServiceConfigObserver@@@@@std@@@@QEAAPEAV?$vector@PEAVIServiceConfigObserver@@V?$transport_allocator@PEAVIServiceConfigObserver@@@@@std@@XZ
??C?$AutoCleanup@V?$AutoDelete@VBlockedRecord@@@@PEAVBlockedRecord@@@@QEAAPEAVBlockedRecord@@XZ
??C?$AutoCleanup@V?$AutoDelete@VCBaseConfigCache@@@@PEAVCBaseConfigCache@@@@QEAAPEAVCBaseConfigCache@@XZ
??C?$AutoCleanup@V?$AutoDelete@VCCertMapping@@@@PEAVCCertMapping@@@@QEAAPEAVCCertMapping@@XZ
??C?$AutoCleanup@V?$AutoDelete@VCConfigChangeSource@@@@PEAVCConfigChangeSource@@@@QEAAPEAVCConfigChangeSource@@XZ
??C?$AutoCleanup@V?$AutoDelete@VCListenerSettings@@@@PEAVCListenerSettings@@@@QEAAPEAVCListenerSettings@@XZ
??C?$AutoCleanup@V?$AutoDelete@VCServiceWatcher@CServiceConfigCache@@@@PEAVCServiceWatcher@CServiceConfigCache@@@@QEAAPEAVCServiceWatcher@CServiceConfigCache@@XZ
??C?$AutoCleanup@V?$AutoDelete@VCShellUriSettings@@@@PEAVCShellUriSettings@@@@QEAAPEAVCShellUriSettings@@XZ
??C?$AutoCleanup@V?$AutoDelete@VCWSManEPR@@@@PEAVCWSManEPR@@@@QEAAPEAVCWSManEPR@@XZ
??C?$AutoCleanup@V?$AutoDelete@VCWSManResource@@@@PEAVCWSManResource@@@@QEAAPEAVCWSManResource@@XZ
??C?$AutoCleanup@V?$AutoDelete@VCertHash@@@@PEAVCertHash@@@@QEAAPEAVCertHash@@XZ
??C?$AutoCleanup@V?$AutoDelete@VConfigUpdate@@@@PEAVConfigUpdate@@@@QEAAPEAVConfigUpdate@@XZ
??C?$AutoCleanup@V?$AutoDelete@VEnumSinkEx@@@@PEAVEnumSinkEx@@@@QEAAPEAVEnumSinkEx@@XZ
??C?$AutoCleanup@V?$AutoDelete@VEnumSinkEx@@@@PEAVEnumSinkEx@@@@QEBAQEAVEnumSinkEx@@XZ
??C?$AutoCleanup@V?$AutoDelete@VExpiredOperationIdRecord@@@@PEAVExpiredOperationIdRecord@@@@QEAAPEAVExpiredOperationIdRecord@@XZ
??C?$AutoCleanup@V?$AutoDelete@VGPApiManager@@@@PEAVGPApiManager@@@@QEAAPEAVGPApiManager@@XZ
??C?$AutoCleanup@V?$AutoDelete@VGeneralSinkEx@@@@PEAVGeneralSinkEx@@@@QEAAPEAVGeneralSinkEx@@XZ
??C?$AutoCleanup@V?$AutoDelete@VGeneralSinkEx@@@@PEAVGeneralSinkEx@@@@QEBAQEAVGeneralSinkEx@@XZ
??C?$AutoCleanup@V?$AutoDelete@VIChannelObserverFactory@@@@PEAVIChannelObserverFactory@@@@QEAAPEAVIChannelObserverFactory@@XZ
??C?$AutoCleanup@V?$AutoDelete@VIQueryDASHSMASHInterface@@@@PEAVIQueryDASHSMASHInterface@@@@QEAAPEAVIQueryDASHSMASHInterface@@XZ
??C?$AutoCleanup@V?$AutoDelete@VIQueryDASHSMASHInterface@@@@PEAVIQueryDASHSMASHInterface@@@@QEBAQEAVIQueryDASHSMASHInterface@@XZ
??C?$AutoCleanup@V?$AutoDelete@VISpecification@@@@PEAVISpecification@@@@QEAAPEAVISpecification@@XZ
??C?$AutoCleanup@V?$AutoDelete@VISpecification@@@@PEAVISpecification@@@@QEBAQEAVISpecification@@XZ
??C?$AutoCleanup@V?$AutoDelete@VMasterReceiveData@CListenerReceive@@@@PEAVMasterReceiveData@CListenerReceive@@@@QEAAPEAVMasterReceiveData@CListenerReceive@@XZ
??C?$AutoCleanup@V?$AutoDelete@VOptionValue@SessionOptions@Client@WSMan@@@@PEAVOptionValue@SessionOptions@Client@WSMan@@@@QEAAPEAVOptionValue@SessionOptions@Client@WSMan@@XZ
??C?$AutoCleanup@V?$AutoDelete@VPacketCreator@@@@PEAVPacketCreator@@@@QEAAPEAVPacketCreator@@XZ
??C?$AutoCleanup@V?$AutoDelete@VPacketParser@@@@PEAVPacketParser@@@@QEAAPEAVPacketParser@@XZ
??C?$AutoCleanup@V?$AutoDelete@VRunAsConfiguration@@@@PEAVRunAsConfiguration@@@@QEAAPEAVRunAsConfiguration@@XZ
??C?$AutoCleanup@V?$AutoDelete@VSecurityEntry@Catalog@@@@PEAVSecurityEntry@Catalog@@@@QEAAPEAVSecurityEntry@Catalog@@XZ
??C?$AutoCleanup@V?$AutoDelete@VSendPacketArgs@RobustConnectionBuffer@@@@PEAVSendPacketArgs@RobustConnectionBuffer@@@@QEAAPEAVSendPacketArgs@RobustConnectionBuffer@@XZ
??C?$AutoCleanup@V?$AutoDelete@VServiceSoapProcessor@@@@PEAVServiceSoapProcessor@@@@QEAAPEAVServiceSoapProcessor@@XZ
??C?$AutoCleanup@V?$AutoDelete@VSubscriptionEnumerator@@@@PEAVSubscriptionEnumerator@@@@QEAAPEAVSubscriptionEnumerator@@XZ
??C?$AutoCleanup@V?$AutoDelete@VTSTRBUFFER@@@@PEAVTSTRBUFFER@@@@QEAAPEAVTSTRBUFFER@@XZ
??C?$AutoCleanup@V?$AutoDelete@VTSTRBUFFER@@@@PEAVTSTRBUFFER@@@@QEBAQEAVTSTRBUFFER@@XZ
??C?$AutoCleanup@V?$AutoDelete@VUniqueStringOverflow@@@@PEAVUniqueStringOverflow@@@@QEAAPEAVUniqueStringOverflow@@XZ
??C?$AutoCleanup@V?$AutoDelete@VWSMANCONFIGTABLE_IDENTITY@@@@PEAVWSMANCONFIGTABLE_IDENTITY@@@@QEAAPEAVWSMANCONFIGTABLE_IDENTITY@@XZ
??C?$AutoCleanup@V?$AutoDelete@VWmiEnumContext@@@@PEAVWmiEnumContext@@@@QEAAPEAVWmiEnumContext@@XZ
??C?$AutoCleanup@V?$AutoDelete@VWmiEnumContext@@@@PEAVWmiEnumContext@@@@QEBAQEAVWmiEnumContext@@XZ
??C?$AutoCleanup@V?$AutoDelete@VXmlReader@@@@PEAVXmlReader@@@@QEAAPEAVXmlReader@@XZ
??C?$AutoCleanup@V?$AutoDeleteVector@E@@PEAE@@QEAAPEAEXZ
??C?$AutoCleanup@V?$AutoDeleteVector@E@@PEAE@@QEBAQEAEXZ
??C?$AutoCleanup@V?$AutoDeleteVector@G@@PEAG@@QEAAPEAGXZ
??C?$AutoCleanup@V?$AutoDeleteVector@G@@PEAG@@QEBAQEAGXZ
??C?$AutoCleanup@V?$AutoDeleteVector@PEAG@@PEAPEAG@@QEAAPEAPEAGXZ
??C?$AutoCleanup@V?$AutoDeleteVector@PEAG@@PEAPEAG@@QEBAQEAPEAGXZ
??C?$AutoCleanup@V?$AutoDeleteVector@PEBG@@PEAPEBG@@QEAAPEAPEBGXZ
??C?$AutoCleanup@V?$AutoDeleteVector@PEBG@@PEAPEBG@@QEBAQEAPEBGXZ
??C?$AutoCleanup@V?$AutoDeleteVector@U_WINRS_CREATE_SHELL_ENVIRONMENT_VARIABLE@@@@PEAU_WINRS_CREATE_SHELL_ENVIRONMENT_VARIABLE@@@@QEAAPEAU_WINRS_CREATE_SHELL_ENVIRONMENT_VARIABLE@@XZ
??C?$AutoCleanup@V?$AutoDeleteVector@U_WINRS_CREATE_SHELL_ENVIRONMENT_VARIABLE@@@@PEAU_WINRS_CREATE_SHELL_ENVIRONMENT_VARIABLE@@@@QEBAQEAU_WINRS_CREATE_SHELL_ENVIRONMENT_VARIABLE@@XZ
??C?$AutoCleanup@V?$AutoDeleteVector@U_WINRS_RUN_COMMAND_ARG@@@@PEAU_WINRS_RUN_COMMAND_ARG@@@@QEAAPEAU_WINRS_RUN_COMMAND_ARG@@XZ
??C?$AutoCleanup@V?$AutoDeleteVector@U_WINRS_RUN_COMMAND_ARG@@@@PEAU_WINRS_RUN_COMMAND_ARG@@@@QEBAQEAU_WINRS_RUN_COMMAND_ARG@@XZ
??C?$AutoCleanup@V?$AutoRelease@UIAppHostAdminManager@@@@PEAUIAppHostAdminManager@@@@QEAAPEAUIAppHostAdminManager@@XZ
??C?$AutoCleanup@V?$AutoRelease@UIAppHostChildElementCollection@@@@PEAUIAppHostChildElementCollection@@@@QEAAPEAUIAppHostChildElementCollection@@XZ
??C?$AutoCleanup@V?$AutoRelease@UIAppHostConfigException@@@@PEAUIAppHostConfigException@@@@QEAAPEAUIAppHostConfigException@@XZ
??C?$AutoCleanup@V?$AutoRelease@UIAppHostElementCollection@@@@PEAUIAppHostElementCollection@@@@QEAAPEAUIAppHostElementCollection@@XZ
??C?$AutoCleanup@V?$AutoRelease@UIAppHostProperty@@@@PEAUIAppHostProperty@@@@QEAAPEAUIAppHostProperty@@XZ
??C?$AutoCleanup@V?$AutoRelease@UIAppHostPropertyCollection@@@@PEAUIAppHostPropertyCollection@@@@QEAAPEAUIAppHostPropertyCollection@@XZ
??C?$AutoCleanup@V?$AutoRelease@UIClientSecurity@@@@PEAUIClientSecurity@@@@QEAAPEAUIClientSecurity@@XZ
??C?$AutoCleanup@V?$AutoRelease@UIClientSecurity@@@@PEAUIClientSecurity@@@@QEBAQEAUIClientSecurity@@XZ
??C?$AutoCleanup@V?$AutoRelease@UIEnumWbemClassObject@@@@PEAUIEnumWbemClassObject@@@@QEAAPEAUIEnumWbemClassObject@@XZ
??C?$AutoCleanup@V?$AutoRelease@UIEnumWbemClassObject@@@@PEAUIEnumWbemClassObject@@@@QEBAQEAUIEnumWbemClassObject@@XZ
??C?$AutoCleanup@V?$AutoRelease@UIErrorInfo@@@@PEAUIErrorInfo@@@@QEAAPEAUIErrorInfo@@XZ
??C?$AutoCleanup@V?$AutoRelease@UIErrorInfo@@@@PEAUIErrorInfo@@@@QEBAQEAUIErrorInfo@@XZ
??C?$AutoCleanup@V?$AutoRelease@UIUnknown@@@@PEAUIUnknown@@@@QEAAPEAUIUnknown@@XZ
??C?$AutoCleanup@V?$AutoRelease@UIUnknown@@@@PEAUIUnknown@@@@QEBAQEAUIUnknown@@XZ
??C?$AutoCleanup@V?$AutoRelease@UIWbemClassObject@@@@PEAUIWbemClassObject@@@@QEAAPEAUIWbemClassObject@@XZ
??C?$AutoCleanup@V?$AutoRelease@UIWbemClassObject@@@@PEAUIWbemClassObject@@@@QEBAQEAUIWbemClassObject@@XZ
??C?$AutoCleanup@V?$AutoRelease@UIWbemContext@@@@PEAUIWbemContext@@@@QEAAPEAUIWbemContext@@XZ
??C?$AutoCleanup@V?$AutoRelease@UIWbemContext@@@@PEAUIWbemContext@@@@QEBAQEAUIWbemContext@@XZ
??C?$AutoCleanup@V?$AutoRelease@UIWbemLocator@@@@PEAUIWbemLocator@@@@QEAAPEAUIWbemLocator@@XZ
??C?$AutoCleanup@V?$AutoRelease@UIWbemLocator@@@@PEAUIWbemLocator@@@@QEBAQEAUIWbemLocator@@XZ
??C?$AutoCleanup@V?$AutoRelease@UIWbemObjectTextSrc@@@@PEAUIWbemObjectTextSrc@@@@QEAAPEAUIWbemObjectTextSrc@@XZ
??C?$AutoCleanup@V?$AutoRelease@UIWbemObjectTextSrc@@@@PEAUIWbemObjectTextSrc@@@@QEBAQEAUIWbemObjectTextSrc@@XZ
??C?$AutoCleanup@V?$AutoRelease@UIWbemPath@@@@PEAUIWbemPath@@@@QEAAPEAUIWbemPath@@XZ
??C?$AutoCleanup@V?$AutoRelease@UIWbemPath@@@@PEAUIWbemPath@@@@QEBAQEAUIWbemPath@@XZ
??C?$AutoCleanup@V?$AutoRelease@UIWbemPathKeyList@@@@PEAUIWbemPathKeyList@@@@QEAAPEAUIWbemPathKeyList@@XZ
??C?$AutoCleanup@V?$AutoRelease@UIWbemPathKeyList@@@@PEAUIWbemPathKeyList@@@@QEBAQEAUIWbemPathKeyList@@XZ
??C?$AutoCleanup@V?$AutoRelease@UIWbemQualifierSet@@@@PEAUIWbemQualifierSet@@@@QEAAPEAUIWbemQualifierSet@@XZ
??C?$AutoCleanup@V?$AutoRelease@UIWbemQualifierSet@@@@PEAUIWbemQualifierSet@@@@QEBAQEAUIWbemQualifierSet@@XZ
??C?$AutoCleanup@V?$AutoRelease@UIWbemQuery@@@@PEAUIWbemQuery@@@@QEAAPEAUIWbemQuery@@XZ
??C?$AutoCleanup@V?$AutoRelease@UIWbemQuery@@@@PEAUIWbemQuery@@@@QEBAQEAUIWbemQuery@@XZ
??C?$AutoCleanup@V?$AutoRelease@UIWbemServices@@@@PEAUIWbemServices@@@@QEAAPEAUIWbemServices@@XZ
??C?$AutoCleanup@V?$AutoRelease@UIWbemServices@@@@PEAUIWbemServices@@@@QEBAQEAUIWbemServices@@XZ
??C?$AutoCleanup@V?$AutoRelease@VCBaseConfigCache@@@@PEAVCBaseConfigCache@@@@QEAAPEAVCBaseConfigCache@@XZ
??C?$AutoCleanup@V?$AutoRelease@VCClientConfigSettings@@@@PEAVCClientConfigSettings@@@@QEAAPEAVCClientConfigSettings@@XZ
??C?$AutoCleanup@V?$AutoRelease@VCConfigCacheMap@CBaseConfigCache@@@@PEAVCConfigCacheMap@CBaseConfigCache@@@@QEAAPEAVCConfigCacheMap@CBaseConfigCache@@XZ
??C?$AutoCleanup@V?$AutoRelease@VCConfigManager@@@@PEAVCConfigManager@@@@QEAAPEAVCConfigManager@@XZ
??C?$AutoCleanup@V?$AutoRelease@VCListenerReceive@@@@PEAVCListenerReceive@@@@QEAAPEAVCListenerReceive@@XZ
??C?$AutoCleanup@V?$AutoRelease@VCRemoteSession@@@@PEAVCRemoteSession@@@@QEAAPEAVCRemoteSession@@XZ
??C?$AutoCleanup@V?$AutoRelease@VCRemoteSession@@@@PEAVCRemoteSession@@@@QEBAQEAVCRemoteSession@@XZ
??C?$AutoCleanup@V?$AutoRelease@VCRequestContext@@@@PEAVCRequestContext@@@@QEAAPEAVCRequestContext@@XZ
??C?$AutoCleanup@V?$AutoRelease@VCServiceCommonConfigSettings@@@@PEAVCServiceCommonConfigSettings@@@@QEAAPEAVCServiceCommonConfigSettings@@XZ
??C?$AutoCleanup@V?$AutoRelease@VCServiceConfigCache@@@@PEAVCServiceConfigCache@@@@QEAAPEAVCServiceConfigCache@@XZ
??C?$AutoCleanup@V?$AutoRelease@VCServiceConfigSettings@@@@PEAVCServiceConfigSettings@@@@QEAAPEAVCServiceConfigSettings@@XZ
??C?$AutoCleanup@V?$AutoRelease@VCWSManEPR@@@@PEAVCWSManEPR@@@@QEAAPEAVCWSManEPR@@XZ
??C?$AutoCleanup@V?$AutoRelease@VCWSManEPR@@@@PEAVCWSManEPR@@@@QEBAQEAVCWSManEPR@@XZ
??C?$AutoCleanup@V?$AutoRelease@VCWSManGroupPolicyCache@@@@PEAVCWSManGroupPolicyCache@@@@QEAAPEAVCWSManGroupPolicyCache@@XZ
??C?$AutoCleanup@V?$AutoRelease@VCWSManGroupPolicyManager@@@@PEAVCWSManGroupPolicyManager@@@@QEAAPEAVCWSManGroupPolicyManager@@XZ
??C?$AutoCleanup@V?$AutoRelease@VCWSManObject@@@@PEAVCWSManObject@@@@QEAAPEAVCWSManObject@@XZ
??C?$AutoCleanup@V?$AutoRelease@VCWSManResource@@@@PEAVCWSManResource@@@@QEAAPEAVCWSManResource@@XZ
??C?$AutoCleanup@V?$AutoRelease@VCWinRSPluginConfigCache@@@@PEAVCWinRSPluginConfigCache@@@@QEAAPEAVCWinRSPluginConfigCache@@XZ
??C?$AutoCleanup@V?$AutoRelease@VCWinRSPluginConfigCache@@@@PEAVCWinRSPluginConfigCache@@@@QEBAQEAVCWinRSPluginConfigCache@@XZ
??C?$AutoCleanup@V?$AutoRelease@VCWinRSPluginConfigSettings@@@@PEAVCWinRSPluginConfigSettings@@@@QEAAPEAVCWinRSPluginConfigSettings@@XZ
??C?$AutoCleanup@V?$AutoRelease@VCommand@Client@WSMan@@@@PEAVCommand@Client@WSMan@@@@QEAAPEAVCommand@Client@WSMan@@XZ
??C?$AutoCleanup@V?$AutoRelease@VConfigNotification@@@@PEAVConfigNotification@@@@QEAAPEAVConfigNotification@@XZ
??C?$AutoCleanup@V?$AutoRelease@VConnectShellOperation@Client@WSMan@@@@PEAVConnectShellOperation@Client@WSMan@@@@QEAAPEAVConnectShellOperation@Client@WSMan@@XZ
??C?$AutoCleanup@V?$AutoRelease@VCreateShellOperation@Client@WSMan@@@@PEAVCreateShellOperation@Client@WSMan@@@@QEAAPEAVCreateShellOperation@Client@WSMan@@XZ
??C?$AutoCleanup@V?$AutoRelease@VDeleteShellOperation@Client@WSMan@@@@PEAVDeleteShellOperation@Client@WSMan@@@@QEAAPEAVDeleteShellOperation@Client@WSMan@@XZ
??C?$AutoCleanup@V?$AutoRelease@VDisconnectOperation@Client@WSMan@@@@PEAVDisconnectOperation@Client@WSMan@@@@QEAAPEAVDisconnectOperation@Client@WSMan@@XZ
??C?$AutoCleanup@V?$AutoRelease@VEnumSinkEx@@@@PEAVEnumSinkEx@@@@QEAAPEAVEnumSinkEx@@XZ
??C?$AutoCleanup@V?$AutoRelease@VEnumSinkEx@@@@PEAVEnumSinkEx@@@@QEBAQEAVEnumSinkEx@@XZ
??C?$AutoCleanup@V?$AutoRelease@VGeneralSinkEx@@@@PEAVGeneralSinkEx@@@@QEAAPEAVGeneralSinkEx@@XZ
??C?$AutoCleanup@V?$AutoRelease@VGeneralSinkEx@@@@PEAVGeneralSinkEx@@@@QEBAQEAVGeneralSinkEx@@XZ
??C?$AutoCleanup@V?$AutoRelease@VIPCSoapProcessor@@@@PEAVIPCSoapProcessor@@@@QEAAPEAVIPCSoapProcessor@@XZ
??C?$AutoCleanup@V?$AutoRelease@VIRequestContext@@@@PEAVIRequestContext@@@@QEAAPEAVIRequestContext@@XZ
??C?$AutoCleanup@V?$AutoRelease@VIRequestContext@@@@PEAVIRequestContext@@@@QEBAQEAVIRequestContext@@XZ
??C?$AutoCleanup@V?$AutoRelease@VInboundRequestDetails@@@@PEAVInboundRequestDetails@@@@QEAAPEAVInboundRequestDetails@@XZ
??C?$AutoCleanup@V?$AutoRelease@VInboundRequestDetails@@@@PEAVInboundRequestDetails@@@@QEBAQEAVInboundRequestDetails@@XZ
??C?$AutoCleanup@V?$AutoRelease@VReceiveOperation@Client@WSMan@@@@PEAVReceiveOperation@Client@WSMan@@@@QEAAPEAVReceiveOperation@Client@WSMan@@XZ
??C?$AutoCleanup@V?$AutoRelease@VReconnectOperation@Client@WSMan@@@@PEAVReconnectOperation@Client@WSMan@@@@QEAAPEAVReconnectOperation@Client@WSMan@@XZ
??C?$AutoCleanup@V?$AutoRelease@VSendOperation@Client@WSMan@@@@PEAVSendOperation@Client@WSMan@@@@QEAAPEAVSendOperation@Client@WSMan@@XZ
??C?$AutoCleanup@V?$AutoRelease@VShell@Client@WSMan@@@@PEAVShell@Client@WSMan@@@@QEAAPEAVShell@Client@WSMan@@XZ
??C?$AutoCleanup@V?$AutoRelease@VShell@Client@WSMan@@@@PEAVShell@Client@WSMan@@@@QEBAQEAVShell@Client@WSMan@@XZ
??C?$AutoCleanup@V?$AutoRelease@VSignalOperation@Client@WSMan@@@@PEAVSignalOperation@Client@WSMan@@@@QEAAPEAVSignalOperation@Client@WSMan@@XZ
??C?$AutoCleanup@V?$AutoRelease@VUserRecord@@@@PEAVUserRecord@@@@QEAAPEAVUserRecord@@XZ
??C?$AutoCleanup@V?$AutoRelease@VWSManHttpListener@@@@PEAVWSManHttpListener@@@@QEAAPEAVWSManHttpListener@@XZ
??C?$AutoCleanup@VAutoBstrNoAlloc@@PEAG@@QEAAPEAGXZ
??C?$AutoCleanup@VAutoBstrNoAlloc@@PEAG@@QEBAQEAGXZ
??C?$AutoCleanup@VAutoChainContext@@PEBU_CERT_CHAIN_CONTEXT@@@@QEAAPEBU_CERT_CHAIN_CONTEXT@@XZ
??C?$AutoCleanup@VAutoImpersonateUser@@PEAX@@QEAAPEAXXZ
??C?$AutoCleanup@VAutoImpersonateUser@@PEAX@@QEBAQEAXXZ
??C?$AutoCleanup@VAutoMIClass@@PEAU_MI_Class@@@@QEAAPEAU_MI_Class@@XZ
??C?$SafeMap_Iterator@VStringKeyStore@@PEAVExpiredOperationIdRecord@@@@QEBAAEAPEAVExpiredOperationIdRecord@@XZ
??C?$SafeSet_Iterator@PEAVCListenerOperation@@@@QEBAAEBQEAVCListenerOperation@@XZ
??D?$SafeMap_Iterator@VCertThumbprintKey@@VCertThumbprintMappedSet@CServiceConfigSettings@@@@QEBAAEAVCertThumbprintMappedSet@CServiceConfigSettings@@XZ
??D?$SafeMap_Iterator@VKey@Locale@@K@@QEBAAEAKXZ
??D?$SafeMap_Iterator@VStringKeyStore@@PEAVExpiredOperationIdRecord@@@@QEBAAEAPEAVExpiredOperationIdRecord@@XZ
??D?$SafeMap_Iterator@W4WSManSessionOption@@PEAVOptionValue@SessionOptions@Client@WSMan@@@@QEBAAEAPEAVOptionValue@SessionOptions@Client@WSMan@@XZ
??D?$SafeSet_Iterator@PEAVCCertMapping@@@@QEBAAEBQEAVCCertMapping@@XZ
??D?$SafeSet_Iterator@PEAVCListenerOperation@@@@QEBAAEBQEAVCListenerOperation@@XZ
??D?$SafeSet_Iterator@PEAVCShellUriSettings@@@@QEBAAEBQEAVCShellUriSettings@@XZ
??E?$SafeMap_Iterator@PEAVCCertMapping@@UEmpty@@@@QEAAXH@Z
??E?$SafeMap_Iterator@PEAVCListenerOperation@@UEmpty@@@@QEAAXH@Z
??E?$SafeMap_Iterator@PEAVCShellUriSettings@@UEmpty@@@@QEAAXH@Z
??E?$SafeMap_Iterator@VCertThumbprintKey@@VCertThumbprintMappedSet@CServiceConfigSettings@@@@QEAAXH@Z
??E?$SafeMap_Iterator@VStringKeyCI@@K@@QEAAXH@Z
??E?$SafeMap_Iterator@VStringKeyCI@@UUSER_CONTEXT_INFO@WSManHttpListener@@@@QEAAXH@Z
??E?$SafeMap_Iterator@VStringKeyStore@@PEAVExpiredOperationIdRecord@@@@QEAAXH@Z
??E?$SafeMap_Iterator@W4WSManSessionOption@@PEAVOptionValue@SessionOptions@Client@WSMan@@@@QEAAXH@Z
??_7?$SafeMap@PEAVCCertMapping@@UEmpty@@V?$SafeSet_Iterator@PEAVCCertMapping@@@@@@6B@ DATA
??_7?$SafeMap@PEAVCListenerOperation@@UEmpty@@V?$SafeSet_Iterator@PEAVCListenerOperation@@@@@@6B@ DATA
??_7?$SafeMap@PEAVCShellUriSettings@@UEmpty@@V?$SafeSet_Iterator@PEAVCShellUriSettings@@@@@@6B@ DATA
??_7?$SafeMap@PEAVCollector@@UEmpty@@V?$SafeSet_Iterator@PEAVCollector@@@@@@6B@ DATA
??_7?$SafeMap@PEAVHostOperation@@UEmpty@@V?$SafeSet_Iterator@PEAVHostOperation@@@@@@6B@ DATA
??_7?$SafeMap@PEAVIOperation@@UEmpty@@V?$SafeSet_Iterator@PEAVIOperation@@@@@@6B@ DATA
??_7?$SafeMap@PEAVListenerSourceSubscription@@UEmpty@@V?$SafeSet_Iterator@PEAVListenerSourceSubscription@@@@@@6B@ DATA
??_7?$SafeMap@PEAVPushSubscription@@UEmpty@@V?$SafeSet_Iterator@PEAVPushSubscription@@@@@@6B@ DATA
??_7?$SafeMap@PEAXUEmpty@@V?$SafeSet_Iterator@PEAX@@@@6B@ DATA
??_7?$SafeMap@UPluginKey@@KV?$SafeMap_Iterator@UPluginKey@@K@@@@6B@ DATA
??_7?$SafeMap@UUserKey@@PEAVBlockedRecord@@V?$SafeMap_Iterator@UUserKey@@PEAVBlockedRecord@@@@@@6B@ DATA
??_7?$SafeMap@VCertThumbprintKey@@VCertThumbprintMappedSet@CServiceConfigSettings@@V?$SafeMap_Iterator@VCertThumbprintKey@@VCertThumbprintMappedSet@CServiceConfigSettings@@@@@@6B@ DATA
??_7?$SafeMap@VKey@Locale@@KV?$SafeMap_Iterator@VKey@Locale@@K@@@@6B@ DATA
??_7?$SafeMap@VStringKeyCI@@KV?$SafeMap_Iterator@VStringKeyCI@@K@@@@6B@ DATA
??_7?$SafeMap@VStringKeyCI@@UEmpty@@V?$SafeSet_Iterator@VStringKeyCI@@@@@@6B@ DATA
??_7?$SafeMap@VStringKeyCI@@UUSER_CONTEXT_INFO@WSManHttpListener@@V?$SafeMap_Iterator@VStringKeyCI@@UUSER_CONTEXT_INFO@WSManHttpListener@@@@@@6B@ DATA
??_7?$SafeMap@VStringKeyStore@@PEAVExpiredOperationIdRecord@@V?$SafeMap_Iterator@VStringKeyStore@@PEAVExpiredOperationIdRecord@@@@@@6B@ DATA
??_7?$SafeMap@VStringKeyStore@@PEAVServerFullDuplexChannel@@V?$SafeMap_Iterator@VStringKeyStore@@PEAVServerFullDuplexChannel@@@@@@6B@ DATA
??_7?$SafeMap@W4WSManSessionOption@@PEAVOptionValue@SessionOptions@Client@WSMan@@V?$SafeMap_Iterator@W4WSManSessionOption@@PEAVOptionValue@SessionOptions@Client@WSMan@@@@@@6B@ DATA
??_7?$SafeMap@_KPEAVSendPacketArgs@RobustConnectionBuffer@@V?$SafeMap_Iterator@_KPEAVSendPacketArgs@RobustConnectionBuffer@@@@@@6B@ DATA
??_7?$SafeSet@PEAVCCertMapping@@@@6B@ DATA
??_7?$SafeSet@PEAVCListenerOperation@@@@6B@ DATA
??_7?$SafeSet@PEAVCShellUriSettings@@@@6B@ DATA
??_7?$SafeSet@PEAX@@6B@ DATA
??_7BufferFormatter@@6B@ DATA
??_7CBaseConfigCache@@6BIConfigChangeObserver@@@ DATA
??_7CBaseConfigCache@@6BILifeTimeMgmt@@@ DATA
??_7CClientConfigCache@@6BIConfigChangeObserver@@@ DATA
??_7CClientConfigCache@@6BILifeTimeMgmt@@@ DATA
??_7CConfigManager@@6B@ DATA
??_7CErrorContext@@6B@ DATA
??_7CRequestContext@@6BCErrorContext@@@ DATA
??_7CRequestContext@@6BEtwCorrelationHelper@@@ DATA
??_7CServiceConfigCache@@6BIConfigChangeObserver@@@ DATA
??_7CServiceConfigCache@@6BILifeTimeMgmt@@@ DATA
??_7CWSManEPR@@6B@ DATA
??_7CWSManGroupPolicyManager@@6B@ DATA
??_7CWSManResource@@6B@ DATA
??_7CWSManResourceNoResourceUri@@6B@ DATA
??_7CWSManSecurityUI@@6B@ DATA
??_7CWinRSPluginConfigCache@@6BIConfigChangeObserver@@@ DATA
??_7CWinRSPluginConfigCache@@6BILifeTimeMgmt@@@ DATA
??_7CircularBufferFormatter@@6B@ DATA
??_7EtwCorrelationHelper@@6B@ DATA
??_7IConfigChangeObserver@@6B@ DATA
??_7ILifeTimeMgmt@@6B@ DATA
??_7IRequestContext@@6B@ DATA
??_7IWSManGroupPolicyObserver@@6B@ DATA
??_7IWSManGroupPolicyPublisher@@6B@ DATA
??_7PacketParser@@6B@ DATA
??_7UserAuthzRecord@@6B@ DATA
??_7UserRecord@@6B@ DATA
??_FCErrorContext@@QEAAXXZ
??_FRBUFFER@@QEAAXXZ
?Acquire@?$SafeMap@PEAVCCertMapping@@UEmpty@@V?$SafeMap_Iterator@PEAVCCertMapping@@UEmpty@@@@@@UEBAXXZ
?Acquire@?$SafeMap@PEAVCCertMapping@@UEmpty@@V?$SafeSet_Iterator@PEAVCCertMapping@@@@@@UEBAXXZ
?Acquire@?$SafeMap@PEAVCListenerConnect@@PEAV1@V?$SafeMap_Iterator@PEAVCListenerConnect@@PEAV1@@@@@UEBAXXZ
?Acquire@?$SafeMap@PEAVCListenerOperation@@UEmpty@@V?$SafeMap_Iterator@PEAVCListenerOperation@@UEmpty@@@@@@UEBAXXZ
?Acquire@?$SafeMap@PEAVCListenerOperation@@UEmpty@@V?$SafeSet_Iterator@PEAVCListenerOperation@@@@@@UEBAXXZ
?Acquire@?$SafeMap@PEAVCListenerReceive@@PEAV1@V?$SafeMap_Iterator@PEAVCListenerReceive@@PEAV1@@@@@UEBAXXZ
?Acquire@?$SafeMap@PEAVCListenerSend@@PEAV1@V?$SafeMap_Iterator@PEAVCListenerSend@@PEAV1@@@@@UEBAXXZ
?Acquire@?$SafeMap@PEAVCListenerSignal@@PEAV1@V?$SafeMap_Iterator@PEAVCListenerSignal@@PEAV1@@@@@UEBAXXZ
?Acquire@?$SafeMap@PEAVCShellUriSettings@@UEmpty@@V?$SafeSet_Iterator@PEAVCShellUriSettings@@@@@@UEBAXXZ
?Acquire@?$SafeMap@PEAVCollector@@UEmpty@@V?$SafeMap_Iterator@PEAVCollector@@UEmpty@@@@@@UEBAXXZ
?Acquire@?$SafeMap@PEAVCollector@@UEmpty@@V?$SafeSet_Iterator@PEAVCollector@@@@@@UEBAXXZ
?Acquire@?$SafeMap@PEAVHostOperation@@UEmpty@@V?$SafeMap_Iterator@PEAVHostOperation@@UEmpty@@@@@@UEBAXXZ
?Acquire@?$SafeMap@PEAVHostOperation@@UEmpty@@V?$SafeSet_Iterator@PEAVHostOperation@@@@@@UEBAXXZ
?Acquire@?$SafeMap@PEAVIOperation@@UEmpty@@V?$SafeMap_Iterator@PEAVIOperation@@UEmpty@@@@@@UEBAXXZ
?Acquire@?$SafeMap@PEAVIOperation@@UEmpty@@V?$SafeSet_Iterator@PEAVIOperation@@@@@@UEBAXXZ
?Acquire@?$SafeMap@PEAVListenerSourceSubscription@@UEmpty@@V?$SafeMap_Iterator@PEAVListenerSourceSubscription@@UEmpty@@@@@@UEBAXXZ
?Acquire@?$SafeMap@PEAVListenerSourceSubscription@@UEmpty@@V?$SafeSet_Iterator@PEAVListenerSourceSubscription@@@@@@UEBAXXZ
?Acquire@?$SafeMap@PEAVPushSubscription@@UEmpty@@V?$SafeMap_Iterator@PEAVPushSubscription@@UEmpty@@@@@@UEBAXXZ
?Acquire@?$SafeMap@PEAVPushSubscription@@UEmpty@@V?$SafeSet_Iterator@PEAVPushSubscription@@@@@@UEBAXXZ
?Acquire@?$SafeMap@PEAXUEmpty@@V?$SafeSet_Iterator@PEAX@@@@UEBAXXZ
?Acquire@?$SafeMap@UPluginKey@@KV?$SafeMap_Iterator@UPluginKey@@K@@@@UEBAXXZ
?Acquire@?$SafeMap@UUserKey@@PEAVBlockedRecord@@V?$SafeMap_Iterator@UUserKey@@PEAVBlockedRecord@@@@@@UEBAXXZ
?Acquire@?$SafeMap@VCertThumbprintKey@@VCertThumbprintMappedSet@CServiceConfigSettings@@V?$SafeMap_Iterator@VCertThumbprintKey@@VCertThumbprintMappedSet@CServiceConfigSettings@@@@@@UEBAXXZ
?Acquire@?$SafeMap@VGuidKey@@PEAVCListenerCommand@@V?$SafeMap_Iterator@VGuidKey@@PEAVCListenerCommand@@@@@@UEBAXXZ
?Acquire@?$SafeMap@VKey@CWmiPtrCache@@VMapping@2@V?$SafeMap_Iterator@VKey@CWmiPtrCache@@VMapping@2@@@@@UEBAXXZ
?Acquire@?$SafeMap@VKey@Locale@@KV?$SafeMap_Iterator@VKey@Locale@@K@@@@UEBAXXZ
?Acquire@?$SafeMap@VStringKey@@PEAVListenerEvents@@V?$SafeMap_Iterator@VStringKey@@PEAVListenerEvents@@@@@@UEBAXXZ
?Acquire@?$SafeMap@VStringKey@@PEAVListenerSourceSubscription@@V?$SafeMap_Iterator@VStringKey@@PEAVListenerSourceSubscription@@@@@@UEBAXXZ
?Acquire@?$SafeMap@VStringKey@@UOption@WinRM_OperationOptions@@V?$SafeMap_Iterator@VStringKey@@UOption@WinRM_OperationOptions@@@@@@UEBAXXZ
?Acquire@?$SafeMap@VStringKeyCI@@KV?$SafeMap_Iterator@VStringKeyCI@@K@@@@UEBAXXZ
?Acquire@?$SafeMap@VStringKeyCI@@PEAVIISEndpoint@@V?$SafeMap_Iterator@VStringKeyCI@@PEAVIISEndpoint@@@@@@UEBAXXZ
?Acquire@?$SafeMap@VStringKeyCI@@UEmpty@@V?$SafeMap_Iterator@VStringKeyCI@@UEmpty@@@@@@UEBAXXZ
?Acquire@?$SafeMap@VStringKeyCI@@UEmpty@@V?$SafeSet_Iterator@VStringKeyCI@@@@@@UEBAXXZ
?Acquire@?$SafeMap@VStringKeyCI@@UUSER_CONTEXT_INFO@WSManHttpListener@@V?$SafeMap_Iterator@VStringKeyCI@@UUSER_CONTEXT_INFO@WSManHttpListener@@@@@@UEBAXXZ
?Acquire@?$SafeMap@VStringKeyStore@@PEAVExpiredOperationIdRecord@@V?$SafeMap_Iterator@VStringKeyStore@@PEAVExpiredOperationIdRecord@@@@@@UEBAXXZ
?Acquire@?$SafeMap@VStringKeyStore@@PEAVServerFullDuplexChannel@@V?$SafeMap_Iterator@VStringKeyStore@@PEAVServerFullDuplexChannel@@@@@@UEBAXXZ
?Acquire@?$SafeMap@VTokenCacheKey@ServiceSoapProcessor@@VTokenCacheMapping@2@V?$SafeMap_Iterator@VTokenCacheKey@ServiceSoapProcessor@@VTokenCacheMapping@2@@@@@UEBAXXZ
?Acquire@?$SafeMap@W4WSManSessionOption@@PEAVOptionValue@SessionOptions@Client@WSMan@@V?$SafeMap_Iterator@W4WSManSessionOption@@PEAVOptionValue@SessionOptions@Client@WSMan@@@@@@UEBAXXZ
?Acquire@?$SafeMap@_KPEAVSendPacketArgs@RobustConnectionBuffer@@V?$SafeMap_Iterator@_KPEAVSendPacketArgs@RobustConnectionBuffer@@@@@@UEBAXXZ
?Acquire@?$SafeMap_Lock@PEAVCCertMapping@@UEmpty@@V?$SafeMap_Iterator@PEAVCCertMapping@@UEmpty@@@@@@QEAAXXZ
?Acquire@?$SafeMap_Lock@PEAVCCertMapping@@UEmpty@@V?$SafeSet_Iterator@PEAVCCertMapping@@@@@@QEAAXXZ
?Acquire@?$SafeMap_Lock@PEAVCListenerOperation@@UEmpty@@V?$SafeMap_Iterator@PEAVCListenerOperation@@UEmpty@@@@@@QEAAXXZ
?Acquire@?$SafeMap_Lock@PEAVCListenerOperation@@UEmpty@@V?$SafeSet_Iterator@PEAVCListenerOperation@@@@@@QEAAXXZ
?Acquire@?$SafeMap_Lock@PEAVCShellUriSettings@@UEmpty@@V?$SafeMap_Iterator@PEAVCShellUriSettings@@UEmpty@@@@@@QEAAXXZ
?Acquire@?$SafeMap_Lock@PEAVCShellUriSettings@@UEmpty@@V?$SafeSet_Iterator@PEAVCShellUriSettings@@@@@@QEAAXXZ
?Acquire@?$SafeMap_Lock@PEAXUEmpty@@V?$SafeMap_Iterator@PEAXUEmpty@@@@@@QEAAXXZ
?Acquire@?$SafeMap_Lock@PEAXUEmpty@@V?$SafeSet_Iterator@PEAX@@@@QEAAXXZ
?Acquire@?$SafeMap_Lock@UPluginKey@@KV?$SafeMap_Iterator@UPluginKey@@K@@@@QEAAXXZ
?Acquire@?$SafeMap_Lock@UUserKey@@PEAVBlockedRecord@@V?$SafeMap_Iterator@UUserKey@@PEAVBlockedRecord@@@@@@QEAAXXZ
?Acquire@?$SafeMap_Lock@VCertThumbprintKey@@VCertThumbprintMappedSet@CServiceConfigSettings@@V?$SafeMap_Iterator@VCertThumbprintKey@@VCertThumbprintMappedSet@CServiceConfigSettings@@@@@@QEAAXXZ
?Acquire@?$SafeMap_Lock@VKey@Locale@@KV?$SafeMap_Iterator@VKey@Locale@@K@@@@QEAAXXZ
?Acquire@?$SafeMap_Lock@VStringKeyCI@@KV?$SafeMap_Iterator@VStringKeyCI@@K@@@@QEAAXXZ
?Acquire@?$SafeMap_Lock@VStringKeyCI@@UEmpty@@V?$SafeSet_Iterator@VStringKeyCI@@@@@@QEAAXXZ
?Acquire@?$SafeMap_Lock@VStringKeyCI@@UUSER_CONTEXT_INFO@WSManHttpListener@@V?$SafeMap_Iterator@VStringKeyCI@@UUSER_CONTEXT_INFO@WSManHttpListener@@@@@@QEAAXXZ
?Acquire@?$SafeMap_Lock@VStringKeyStore@@PEAVExpiredOperationIdRecord@@V?$SafeMap_Iterator@VStringKeyStore@@PEAVExpiredOperationIdRecord@@@@@@QEAAXXZ
?Acquire@?$SafeMap_Lock@VStringKeyStore@@PEAVServerFullDuplexChannel@@V?$SafeMap_Iterator@VStringKeyStore@@PEAVServerFullDuplexChannel@@@@@@QEAAXXZ
?Acquire@?$SafeMap_Lock@W4WSManSessionOption@@PEAVOptionValue@SessionOptions@Client@WSMan@@V?$SafeMap_Iterator@W4WSManSessionOption@@PEAVOptionValue@SessionOptions@Client@WSMan@@@@@@QEAAXXZ
?Acquire@?$SafeMap_Lock@_KPEAVSendPacketArgs@RobustConnectionBuffer@@V?$SafeMap_Iterator@_KPEAVSendPacketArgs@RobustConnectionBuffer@@@@@@QEAAXXZ
?Acquire@CWSManCriticalSection@@QEAAXXZ
?AcquireExclusive@FastLock@@QEAAXXZ
?AcquireShared@FastLock@@QEAAXXZ
?Acquired@?$SafeMap_Lock@PEAVCCertMapping@@UEmpty@@V?$SafeMap_Iterator@PEAVCCertMapping@@UEmpty@@@@@@QEAA_NXZ
?Acquired@?$SafeMap_Lock@PEAVCListenerConnect@@PEAV1@V?$SafeMap_Iterator@PEAVCListenerConnect@@PEAV1@@@@@QEAA_NXZ
?Acquired@?$SafeMap_Lock@PEAVCListenerOperation@@UEmpty@@V?$SafeMap_Iterator@PEAVCListenerOperation@@UEmpty@@@@@@QEAA_NXZ
?Acquired@?$SafeMap_Lock@PEAVCListenerReceive@@PEAV1@V?$SafeMap_Iterator@PEAVCListenerReceive@@PEAV1@@@@@QEAA_NXZ
?Acquired@?$SafeMap_Lock@PEAVCListenerSend@@PEAV1@V?$SafeMap_Iterator@PEAVCListenerSend@@PEAV1@@@@@QEAA_NXZ
?Acquired@?$SafeMap_Lock@PEAVCListenerSignal@@PEAV1@V?$SafeMap_Iterator@PEAVCListenerSignal@@PEAV1@@@@@QEAA_NXZ
?Acquired@?$SafeMap_Lock@PEAVCShellUriSettings@@UEmpty@@V?$SafeMap_Iterator@PEAVCShellUriSettings@@UEmpty@@@@@@QEAA_NXZ
?Acquired@?$SafeMap_Lock@PEAVCollector@@UEmpty@@V?$SafeMap_Iterator@PEAVCollector@@UEmpty@@@@@@QEAA_NXZ
?Acquired@?$SafeMap_Lock@PEAVHostOperation@@UEmpty@@V?$SafeMap_Iterator@PEAVHostOperation@@UEmpty@@@@@@QEAA_NXZ
?Acquired@?$SafeMap_Lock@PEAVIOperation@@UEmpty@@V?$SafeMap_Iterator@PEAVIOperation@@UEmpty@@@@@@QEAA_NXZ
?Acquired@?$SafeMap_Lock@PEAVListenerSourceSubscription@@UEmpty@@V?$SafeMap_Iterator@PEAVListenerSourceSubscription@@UEmpty@@@@@@QEAA_NXZ
?Acquired@?$SafeMap_Lock@PEAVPushSubscription@@UEmpty@@V?$SafeMap_Iterator@PEAVPushSubscription@@UEmpty@@@@@@QEAA_NXZ
?Acquired@?$SafeMap_Lock@PEAXUEmpty@@V?$SafeMap_Iterator@PEAXUEmpty@@@@@@QEAA_NXZ
?Acquired@?$SafeMap_Lock@UPluginKey@@KV?$SafeMap_Iterator@UPluginKey@@K@@@@QEAA_NXZ
?Acquired@?$SafeMap_Lock@UUserKey@@PEAVBlockedRecord@@V?$SafeMap_Iterator@UUserKey@@PEAVBlockedRecord@@@@@@QEAA_NXZ
?Acquired@?$SafeMap_Lock@VCertThumbprintKey@@VCertThumbprintMappedSet@CServiceConfigSettings@@V?$SafeMap_Iterator@VCertThumbprintKey@@VCertThumbprintMappedSet@CServiceConfigSettings@@@@@@QEAA_NXZ
?Acquired@?$SafeMap_Lock@VGuidKey@@PEAVCListenerCommand@@V?$SafeMap_Iterator@VGuidKey@@PEAVCListenerCommand@@@@@@QEAA_NXZ
?Acquired@?$SafeMap_Lock@VKey@Locale@@KV?$SafeMap_Iterator@VKey@Locale@@K@@@@QEAA_NXZ
?Acquired@?$SafeMap_Lock@VStringKeyCI@@KV?$SafeMap_Iterator@VStringKeyCI@@K@@@@QEAA_NXZ
?Acquired@?$SafeMap_Lock@VStringKeyCI@@UEmpty@@V?$SafeMap_Iterator@VStringKeyCI@@UEmpty@@@@@@QEAA_NXZ
?Acquired@?$SafeMap_Lock@VStringKeyCI@@UUSER_CONTEXT_INFO@WSManHttpListener@@V?$SafeMap_Iterator@VStringKeyCI@@UUSER_CONTEXT_INFO@WSManHttpListener@@@@@@QEAA_NXZ
?Acquired@?$SafeMap_Lock@VStringKeyStore@@PEAVExpiredOperationIdRecord@@V?$SafeMap_Iterator@VStringKeyStore@@PEAVExpiredOperationIdRecord@@@@@@QEAA_NXZ
?Acquired@?$SafeMap_Lock@VStringKeyStore@@PEAVServerFullDuplexChannel@@V?$SafeMap_Iterator@VStringKeyStore@@PEAVServerFullDuplexChannel@@@@@@QEAA_NXZ
?Acquired@?$SafeMap_Lock@W4WSManSessionOption@@PEAVOptionValue@SessionOptions@Client@WSMan@@V?$SafeMap_Iterator@W4WSManSessionOption@@PEAVOptionValue@SessionOptions@Client@WSMan@@@@@@QEAA_NXZ
?Acquired@?$SafeMap_Lock@_KPEAVSendPacketArgs@RobustConnectionBuffer@@V?$SafeMap_Iterator@_KPEAVSendPacketArgs@RobustConnectionBuffer@@@@@@QEAA_NXZ
?Add@?$SafeMap@PEAVCCertMapping@@UEmpty@@V?$SafeSet_Iterator@PEAVCCertMapping@@@@@@QEAA_NAEBQEAVCCertMapping@@AEBUEmpty@@AEAVIRequestContext@@@Z
?Add@?$SafeMap@PEAVCListenerOperation@@UEmpty@@V?$SafeSet_Iterator@PEAVCListenerOperation@@@@@@QEAA_NAEBQEAVCListenerOperation@@AEBUEmpty@@AEAVIRequestContext@@@Z
?Add@?$SafeMap@PEAVCShellUriSettings@@UEmpty@@V?$SafeSet_Iterator@PEAVCShellUriSettings@@@@@@QEAA_NAEBQEAVCShellUriSettings@@AEBUEmpty@@AEAVIRequestContext@@@Z
?Add@?$SafeMap@PEAXUEmpty@@V?$SafeSet_Iterator@PEAX@@@@QEAA_NAEBQEAXAEBUEmpty@@AEAVIRequestContext@@@Z
?Add@?$SafeMap@UPluginKey@@KV?$SafeMap_Iterator@UPluginKey@@K@@@@QEAA_NAEBUPluginKey@@AEBKAEAVIRequestContext@@@Z
?Add@?$SafeMap@UUserKey@@PEAVBlockedRecord@@V?$SafeMap_Iterator@UUserKey@@PEAVBlockedRecord@@@@@@QEAA_NAEBUUserKey@@AEBQEAVBlockedRecord@@AEAVIRequestContext@@@Z
?Add@?$SafeMap@VCertThumbprintKey@@VCertThumbprintMappedSet@CServiceConfigSettings@@V?$SafeMap_Iterator@VCertThumbprintKey@@VCertThumbprintMappedSet@CServiceConfigSettings@@@@@@QEAA_NAEBVCertThumbprintKey@@AEBVCertThumbprintMappedSet@CServiceConfigSettings@@AEAVIRequestContext@@@Z
?Add@?$SafeMap@VKey@Locale@@KV?$SafeMap_Iterator@VKey@Locale@@K@@@@QEAA_NAEBVKey@Locale@@AEBKAEAVIRequestContext@@@Z
?Add@?$SafeMap@VStringKeyCI@@KV?$SafeMap_Iterator@VStringKeyCI@@K@@@@QEAA_NAEBVStringKeyCI@@AEBKAEAVIRequestContext@@@Z
?Add@?$SafeMap@VStringKeyCI@@UEmpty@@V?$SafeSet_Iterator@VStringKeyCI@@@@@@QEAA_NAEBVStringKeyCI@@AEBUEmpty@@AEAVIRequestContext@@@Z
?Add@?$SafeMap@VStringKeyCI@@UUSER_CONTEXT_INFO@WSManHttpListener@@V?$SafeMap_Iterator@VStringKeyCI@@UUSER_CONTEXT_INFO@WSManHttpListener@@@@@@QEAA_NAEBVStringKeyCI@@AEBUUSER_CONTEXT_INFO@WSManHttpListener@@AEAVIRequestContext@@@Z
?Add@?$SafeMap@VStringKeyStore@@PEAVExpiredOperationIdRecord@@V?$SafeMap_Iterator@VStringKeyStore@@PEAVExpiredOperationIdRecord@@@@@@QEAA_NAEBVStringKeyStore@@AEBQEAVExpiredOperationIdRecord@@AEAVIRequestContext@@@Z
?Add@?$SafeMap@VStringKeyStore@@PEAVServerFullDuplexChannel@@V?$SafeMap_Iterator@VStringKeyStore@@PEAVServerFullDuplexChannel@@@@@@QEAA_NAEBVStringKeyStore@@AEBQEAVServerFullDuplexChannel@@AEAVIRequestContext@@@Z
?Add@?$SafeMap@W4WSManSessionOption@@PEAVOptionValue@SessionOptions@Client@WSMan@@V?$SafeMap_Iterator@W4WSManSessionOption@@PEAVOptionValue@SessionOptions@Client@WSMan@@@@@@QEAA_NAEBW4WSManSessionOption@@AEBQEAVOptionValue@SessionOptions@Client@WSMan@@AEAVIRequestContext@@@Z
?Add@?$SafeMap@_KPEAVSendPacketArgs@RobustConnectionBuffer@@V?$SafeMap_Iterator@_KPEAVSendPacketArgs@RobustConnectionBuffer@@@@@@QEAA_NAEB_KAEBQEAVSendPacketArgs@RobustConnectionBuffer@@AEAVIRequestContext@@@Z
?Add@?$SafeSet@PEAVCCertMapping@@@@QEAA_NAEBQEAVCCertMapping@@AEAVIRequestContext@@@Z
?Add@?$SafeSet@PEAVCListenerOperation@@@@QEAA_NAEBQEAVCListenerOperation@@AEAVIRequestContext@@@Z
?Add@?$SafeSet@PEAVCShellUriSettings@@@@QEAA_NAEBQEAVCShellUriSettings@@AEAVIRequestContext@@@Z
?Add@?$SafeSet@PEAX@@QEAA_NAEBQEAXAEAVIRequestContext@@@Z
?Add@?$SafeSet@VStringKeyCI@@@@QEAA_NAEBVStringKeyCI@@AEAVIRequestContext@@@Z
?AddDefaultPlugins@ConfigUpdate@@SAHPEAVIRequestContext@@H@Z
?AddKey@CWSManResourceNoResourceUri@@QEAAHPEBG0PEAVIRequestContext@@@Z
?AddMessage@CRequestContext@@AEAAHPEBGPEAPEAD1@Z
?AddOption@CWSManResourceNoResourceUri@@QEAAHPEBG0HPEAVIRequestContext@@@Z
?AddOptionSet@CWSManResourceNoResourceUri@@QEAAHPEAU_WSMAN_OPTION_SET@@PEAVIRequestContext@@@Z
?AddPacket@PacketParser@@QEAA_NPEAVPacket@@_N11@Z
?AddRef@CWSManSecurityUI@@UEAAKXZ
?AddRef@ILifeTimeMgmt@@UEAAJXZ
?AddRef@UserRecord@@QEAA_NAEAVIRequestContext@@@Z
?AddSource@CBaseConfigCache@@IEAAHPEAVIRequestContext@@PEAVCConfigChangeSource@@@Z
?AddToMap@CBaseConfigCache@@AEAAHPEAVIRequestContext@@AEAVAutoLocalFree@@@Z
?Alloc@WSManMemory@@SAPEAX_KHW4_NitsFaultMode@@@Z
?AllocBstr@WSManMemory@@SAPEAGPEBGHH@Z
?AllocBstrLen@WSManMemory@@SAPEAGPEBGIHH@Z
?AllocCache@CClientConfigCache@@CAPEAVCBaseConfigCache@@XZ
?AllocCache@CServiceConfigCache@@CAPEAVCBaseConfigCache@@XZ
?AllocCache@CWinRSPluginConfigCache@@CAPEAVCBaseConfigCache@@XZ
?AllocSysString@TSTRBUFFER@@QEBAJPEAPEAG@Z
?AllowBasic@CCommonConfigSettings@@UEBAHXZ
?AllowClientCertificate@CCommonConfigSettings@@UEBAHXZ
?AllowCredSsp@CCommonConfigSettings@@UEBAHXZ
?AllowKerberos@CCommonConfigSettings@@UEBAHXZ
?AllowNegotiate@CCommonConfigSettings@@UEBAHXZ
?AllowUnencrypted@CCommonConfigSettings@@UEBAHXZ
?Append@SBUFFER@@QEAAJPEAEI@Z
?Append@SBUFFER@@QEAAJPEAV1@@Z
?Append@TSTRBUFFER@@QEAAJPEBG@Z
?Append@TSTRBUFFER@@QEAAJPEBGII@Z
?AppendChar@TSTRBUFFER@@QEAAJG@Z
?AppendEscapeXmlAttribute@TSTRBUFFER@@QEAAJPEBGG@Z
?AppendEscapeXmlContent@TSTRBUFFER@@QEAAJPEBG_N@Z
?AppendXmlElem@TSTRBUFFER@@QEAAJPEBG0HKPEAU_XML_ATTRIB@@@Z
?AppendXmlElemWithNamespace@TSTRBUFFER@@QEAAJPEBG00HKPEAU_XML_ATTRIB@@@Z
?AppendXmlElemWithNamespaceAndPrefix@TSTRBUFFER@@QEAAJPEBG000HKPEAU_XML_ATTRIB@@@Z
?AppendXmlElemWithPrefix@TSTRBUFFER@@QEAAJPEBG00HKPEAU_XML_ATTRIB@@@Z
?AppendXmlEndElem@TSTRBUFFER@@QEAAJPEBG@Z
?AppendXmlEndElemWithPrefix@TSTRBUFFER@@QEAAJPEBG0@Z
?AppendXmlEndFragment@TSTRBUFFER@@QEAAJXZ
?AppendXmlEndItem@TSTRBUFFER@@QEAAJXZ
?AppendXmlStartElem@TSTRBUFFER@@QEAAJPEBGHKPEAU_XML_ATTRIB@@@Z
?AppendXmlStartElemWithNamespace@TSTRBUFFER@@QEAAJPEBG0HKPEAU_XML_ATTRIB@@@Z
?AppendXmlStartElemWithNamespaceAndPrefix@TSTRBUFFER@@QEAAJPEBG00HKPEAU_XML_ATTRIB@@@Z
?AppendXmlStartElemWithNamespaces@TSTRBUFFER@@QEAAJPEBGKPEAU_XML_NAMESPACE_PREFIX@@HKPEAU_XML_ATTRIB@@@Z
?AppendXmlStartElemWithNamespacesAndPrefixes@TSTRBUFFER@@QEAAJPEBG0KPEAU_XML_NAMESPACE_PREFIX@@HKPEAU_XML_ATTRIB@@@Z
?AppendXmlStartElemWithPrefix@TSTRBUFFER@@QEAAJPEBG0HKPEAU_XML_ATTRIB@@@Z
?AppendXmlStartFragment@TSTRBUFFER@@QEAAJXZ
?AppendXmlStartItem@TSTRBUFFER@@QEAAJXZ
?ApplyQuota@UserRecord@@QEAA_NW4OperationType@@AEAVIRequestContext@@PEBVProvider@Catalog@@PEAVCServiceConfigSettings@@@Z
?ApplySecurity@ConfigRegistry@@IEAAHPEAVIRequestContext@@PEAUHKEY__@@PEBG2@Z
?AsReference@?$SafeMap@PEAVCCertMapping@@UEmpty@@V?$SafeSet_Iterator@PEAVCCertMapping@@@@@@QEAAAEAV1@XZ
?AsReference@?$SafeMap@PEAVCListenerOperation@@UEmpty@@V?$SafeSet_Iterator@PEAVCListenerOperation@@@@@@QEAAAEAV1@XZ
?AsReference@?$SafeMap@PEAVCShellUriSettings@@UEmpty@@V?$SafeSet_Iterator@PEAVCShellUriSettings@@@@@@QEAAAEAV1@XZ
?AsReference@?$SafeMap@PEAXUEmpty@@V?$SafeSet_Iterator@PEAX@@@@QEAAAEAV1@XZ
?AsReference@?$SafeMap@UPluginKey@@KV?$SafeMap_Iterator@UPluginKey@@K@@@@QEAAAEAV1@XZ
?AsReference@?$SafeMap@UUserKey@@PEAVBlockedRecord@@V?$SafeMap_Iterator@UUserKey@@PEAVBlockedRecord@@@@@@QEAAAEAV1@XZ
?AsReference@?$SafeMap@VCertThumbprintKey@@VCertThumbprintMappedSet@CServiceConfigSettings@@V?$SafeMap_Iterator@VCertThumbprintKey@@VCertThumbprintMappedSet@CServiceConfigSettings@@@@@@QEAAAEAV1@XZ
?AsReference@?$SafeMap@VKey@Locale@@KV?$SafeMap_Iterator@VKey@Locale@@K@@@@QEAAAEAV1@XZ
?AsReference@?$SafeMap@VStringKeyCI@@KV?$SafeMap_Iterator@VStringKeyCI@@K@@@@QEAAAEAV1@XZ
?AsReference@?$SafeMap@VStringKeyCI@@UUSER_CONTEXT_INFO@WSManHttpListener@@V?$SafeMap_Iterator@VStringKeyCI@@UUSER_CONTEXT_INFO@WSManHttpListener@@@@@@QEAAAEAV1@XZ
?AsReference@?$SafeMap@VStringKeyStore@@PEAVExpiredOperationIdRecord@@V?$SafeMap_Iterator@VStringKeyStore@@PEAVExpiredOperationIdRecord@@@@@@QEAAAEAV1@XZ
?AsReference@?$SafeMap@VStringKeyStore@@PEAVServerFullDuplexChannel@@V?$SafeMap_Iterator@VStringKeyStore@@PEAVServerFullDuplexChannel@@@@@@QEAAAEAV1@XZ
?AsReference@?$SafeMap@W4WSManSessionOption@@PEAVOptionValue@SessionOptions@Client@WSMan@@V?$SafeMap_Iterator@W4WSManSessionOption@@PEAVOptionValue@SessionOptions@Client@WSMan@@@@@@QEAAAEAV1@XZ
?AsReference@?$SafeMap@_KPEAVSendPacketArgs@RobustConnectionBuffer@@V?$SafeMap_Iterator@_KPEAVSendPacketArgs@RobustConnectionBuffer@@@@@@QEAAAEAV1@XZ
?AuthzComplete@UserRecord@@UEAAKPEAX0W4AdministratorType@UserAuthzRecord@@KPEBG@Z
?BOMS@PacketFormatter@@0QBUBOMInfo@1@B DATA
?BeginRevertToSelf@CSecurity@@SAHPEAPEAXK@Z
?BuildFragmentTransfer@CWSManResourceNoResourceUri@@UEAAHAEAVBufferFormatter@@@Z
?BuildOptionSet@CWSManResourceNoResourceUri@@QEAAHAEAVBufferFormatter@@@Z
?BuildSelectorSet@CWSManEPR@@UEAAHAEAVBufferFormatter@@@Z
?BuildSelectorSet@CWSManResourceNoResourceUri@@UEAAHAEAVBufferFormatter@@@Z
?CHARSETS@PacketFormatter@@0QBUCharsetInfo@1@B DATA
?ChangeLogging@CServiceConfigCache@@QEAAXW4ErrorLogging@@@Z
?CheckSharedSSLConfiguration@ConfigRegistry@@IEAAHPEAVIRequestContext@@PEBG1HPEAH@Z
?Clear@?$SafeMap@UPluginKey@@KV?$SafeMap_Iterator@UPluginKey@@K@@@@QEAAXXZ
?Clear@?$SafeMap@VStringKeyCI@@KV?$SafeMap_Iterator@VStringKeyCI@@K@@@@QEAAXXZ
?Clear@?$SafeMap@VStringKeyCI@@UUSER_CONTEXT_INFO@WSManHttpListener@@V?$SafeMap_Iterator@VStringKeyCI@@UUSER_CONTEXT_INFO@WSManHttpListener@@@@@@QEAAXXZ
?Clear@?$SafeMap@VStringKeyStore@@PEAVExpiredOperationIdRecord@@V?$SafeMap_Iterator@VStringKeyStore@@PEAVExpiredOperationIdRecord@@@@@@QEAAXXZ
?ClearKeys@CWSManResourceNoResourceUri@@QEAAHXZ
?ClearOptions@CWSManResourceNoResourceUri@@QEAAHXZ
?ClearRegistryKeys@ConfigRegistry@@IEAAHPEAVIRequestContext@@@Z
?ClearSubKeys@@YAHPEAUHKEY__@@PEAVIRequestContext@@@Z
?CompleteWithErrorContext@CRequestContext@@QEAAXPEAU_WSMAN_PLUGIN_REQUEST@@@Z
?Confirm@ExtendedSemantic@@2KB DATA
?Copy@TSTRBUFFER@@QEAAJPEBG@Z
?CopyString@@YAPEAGPEAVIRequestContext@@W4CallSiteId@@PEBG@Z
?CopyString@@YAPEAGPEBGAEBHAEAVIRequestContext@@@Z
?CopyString@MessageId@PacketParser@@QEAAKPEBGH@Z
?CopyTo@CErrorContext@@UEBAXPEAVIRequestContext@@@Z
?CopyTo@CRequestContext@@UEBAXPEAVIRequestContext@@@Z
?CreateActivityId@EventHandler@WSMan@@SAXAEAU_GUID@@@Z
?CreateAnEvent@SoapSemanticConverter@@QEAAKKPEAVSemanticMessage@@AEAVBufferFormatter@@PEAVIRequestContext@@@Z
?CreateAutoConfiguredListener@CConfigManager@@AEAAHPEAVIRequestContext@@PEAVLISTENER_IDENTITY@@@Z
?CreateInstance@?$ILoader@VAdminSid@CSecurity@@@@IEAA_NAEAVIRequestContext@@@Z
?CreateInstance@?$ILoader@VEventHandler@WSMan@@@@IEAA_NAEAVIRequestContext@@@Z
?CreateInstance@?$ILoader@VInteractiveSid@CSecurity@@@@IEAA_NAEAVIRequestContext@@@Z
?CreateInstance@?$ILoader@VIpHlpApiDllLoader@@@@IEAA_NAEAVIRequestContext@@@Z
?CreateInstance@?$ILoader@VMachineName@@@@IEAA_NAEAVIRequestContext@@@Z
?CreateInstance@?$ILoader@VNetworkServiceSid@CSecurity@@@@IEAA_NAEAVIRequestContext@@@Z
?CreateInstance@?$ILoader@VNtDsApiDllLoader@@@@IEAA_NAEAVIRequestContext@@@Z
?CreateInstance@?$ILoader@VResources@Locale@@@@IEAA_NAEAVIRequestContext@@@Z
?CreateInstance@?$ILoader@VShell32DllLoader@@@@IEAA_NAEAVIRequestContext@@@Z
?CreateInstance@?$ILoader@VShlWApiDllLoader@@@@IEAA_NAEAVIRequestContext@@@Z
?CreateInstance@?$ILoader@VSubscriptionManager@@@@IEAA_NAEAVIRequestContext@@@Z
?CreateInstance@?$ILoader@VUser32DllLoader@@@@IEAA_NAEAVIRequestContext@@@Z
?CreateInstance@?$ILoader@VWSManMemCryptManager@@@@IEAA_NAEAVIRequestContext@@@Z
?CreateKey@ConfigRegistry@@IEAAHPEAVIRequestContext@@PEBGPEAPEAUHKEY__@@1KPEAK@Z
?CreateNew@CBaseConfigCache@@CAPEAV1@PEAVIRequestContext@@PEAVCConfigCacheMap@1@P6APEAV1@XZW4ErrorLogging@@H@Z
?CreateProvHost@@YAPEAXPEAUHWND__@@PEAK1PEAJ@Z
?CreateRenderingInformation@CWSManSecurityUI@@AEAAHPEAVIRequestContext@@@Z
?CreateResponse@SoapSemanticConverter@@QEAAKKW4_MI_OperationCallback_ResponseType@@AEAVBufferFormatter@@PEAVIRequestContext@@@Z
?CreateSessionGuid@SessionId@PacketParser@@QEAAKPEBGH@Z
?Data@?$SafeMap_Iterator@PEAVCCertMapping@@UEmpty@@@@IEBAAEAV?$STLMap@PEAVCCertMapping@@UEmpty@@@@XZ
?Data@?$SafeMap_Iterator@PEAVCListenerOperation@@UEmpty@@@@IEBAAEAV?$STLMap@PEAVCListenerOperation@@UEmpty@@@@XZ
?Data@?$SafeMap_Iterator@PEAVCShellUriSettings@@UEmpty@@@@IEBAAEAV?$STLMap@PEAVCShellUriSettings@@UEmpty@@@@XZ
?Data@?$SafeMap_Iterator@PEAXUEmpty@@@@IEBAAEAV?$STLMap@PEAXUEmpty@@@@XZ
?Data@?$SafeMap_Iterator@UPluginKey@@K@@IEBAAEAV?$STLMap@UPluginKey@@K@@XZ
?Data@?$SafeMap_Iterator@UUserKey@@PEAVBlockedRecord@@@@IEBAAEAV?$STLMap@UUserKey@@PEAVBlockedRecord@@@@XZ
?Data@?$SafeMap_Iterator@VCertThumbprintKey@@VCertThumbprintMappedSet@CServiceConfigSettings@@@@IEBAAEAV?$STLMap@VCertThumbprintKey@@VCertThumbprintMappedSet@CServiceConfigSettings@@@@XZ
?Data@?$SafeMap_Iterator@VKey@Locale@@K@@IEBAAEAV?$STLMap@VKey@Locale@@K@@XZ
?Data@?$SafeMap_Iterator@VStringKeyCI@@K@@IEBAAEAV?$STLMap@VStringKeyCI@@K@@XZ
?Data@?$SafeMap_Iterator@VStringKeyCI@@UUSER_CONTEXT_INFO@WSManHttpListener@@@@IEBAAEAV?$STLMap@VStringKeyCI@@UUSER_CONTEXT_INFO@WSManHttpListener@@@@XZ
?Data@?$SafeMap_Iterator@VStringKeyStore@@PEAVExpiredOperationIdRecord@@@@IEBAAEAV?$STLMap@VStringKeyStore@@PEAVExpiredOperationIdRecord@@@@XZ
?Data@?$SafeMap_Iterator@VStringKeyStore@@PEAVServerFullDuplexChannel@@@@IEBAAEAV?$STLMap@VStringKeyStore@@PEAVServerFullDuplexChannel@@@@XZ
?Data@?$SafeMap_Iterator@W4WSManSessionOption@@PEAVOptionValue@SessionOptions@Client@WSMan@@@@IEBAAEAV?$STLMap@W4WSManSessionOption@@PEAVOptionValue@SessionOptions@Client@WSMan@@@@XZ
?Data@?$SafeMap_Iterator@_KPEAVSendPacketArgs@RobustConnectionBuffer@@@@IEBAAEAV?$STLMap@_KPEAVSendPacketArgs@RobustConnectionBuffer@@@@XZ
?DeInitialize@?$SafeMap@PEAVCCertMapping@@UEmpty@@V?$SafeMap_Iterator@PEAVCCertMapping@@UEmpty@@@@@@UEAA_NAEAVIRequestContext@@@Z
?DeInitialize@?$SafeMap@PEAVCCertMapping@@UEmpty@@V?$SafeSet_Iterator@PEAVCCertMapping@@@@@@UEAA_NAEAVIRequestContext@@@Z
?DeInitialize@?$SafeMap@PEAVCListenerConnect@@PEAV1@V?$SafeMap_Iterator@PEAVCListenerConnect@@PEAV1@@@@@UEAA_NAEAVIRequestContext@@@Z
?DeInitialize@?$SafeMap@PEAVCListenerOperation@@UEmpty@@V?$SafeMap_Iterator@PEAVCListenerOperation@@UEmpty@@@@@@UEAA_NAEAVIRequestContext@@@Z
?DeInitialize@?$SafeMap@PEAVCListenerOperation@@UEmpty@@V?$SafeSet_Iterator@PEAVCListenerOperation@@@@@@UEAA_NAEAVIRequestContext@@@Z
?DeInitialize@?$SafeMap@PEAVCListenerReceive@@PEAV1@V?$SafeMap_Iterator@PEAVCListenerReceive@@PEAV1@@@@@UEAA_NAEAVIRequestContext@@@Z
?DeInitialize@?$SafeMap@PEAVCListenerSend@@PEAV1@V?$SafeMap_Iterator@PEAVCListenerSend@@PEAV1@@@@@UEAA_NAEAVIRequestContext@@@Z
?DeInitialize@?$SafeMap@PEAVCListenerSignal@@PEAV1@V?$SafeMap_Iterator@PEAVCListenerSignal@@PEAV1@@@@@UEAA_NAEAVIRequestContext@@@Z
?DeInitialize@?$SafeMap@PEAVCShellUriSettings@@UEmpty@@V?$SafeSet_Iterator@PEAVCShellUriSettings@@@@@@UEAA_NAEAVIRequestContext@@@Z
?DeInitialize@?$SafeMap@PEAVCollector@@UEmpty@@V?$SafeMap_Iterator@PEAVCollector@@UEmpty@@@@@@UEAA_NAEAVIRequestContext@@@Z
?DeInitialize@?$SafeMap@PEAVCollector@@UEmpty@@V?$SafeSet_Iterator@PEAVCollector@@@@@@UEAA_NAEAVIRequestContext@@@Z
?DeInitialize@?$SafeMap@PEAVHostOperation@@UEmpty@@V?$SafeMap_Iterator@PEAVHostOperation@@UEmpty@@@@@@UEAA_NAEAVIRequestContext@@@Z
?DeInitialize@?$SafeMap@PEAVHostOperation@@UEmpty@@V?$SafeSet_Iterator@PEAVHostOperation@@@@@@UEAA_NAEAVIRequestContext@@@Z
?DeInitialize@?$SafeMap@PEAVIOperation@@UEmpty@@V?$SafeMap_Iterator@PEAVIOperation@@UEmpty@@@@@@UEAA_NAEAVIRequestContext@@@Z
?DeInitialize@?$SafeMap@PEAVIOperation@@UEmpty@@V?$SafeSet_Iterator@PEAVIOperation@@@@@@UEAA_NAEAVIRequestContext@@@Z
?DeInitialize@?$SafeMap@PEAVListenerSourceSubscription@@UEmpty@@V?$SafeMap_Iterator@PEAVListenerSourceSubscription@@UEmpty@@@@@@UEAA_NAEAVIRequestContext@@@Z
?DeInitialize@?$SafeMap@PEAVListenerSourceSubscription@@UEmpty@@V?$SafeSet_Iterator@PEAVListenerSourceSubscription@@@@@@UEAA_NAEAVIRequestContext@@@Z
?DeInitialize@?$SafeMap@PEAVPushSubscription@@UEmpty@@V?$SafeMap_Iterator@PEAVPushSubscription@@UEmpty@@@@@@UEAA_NAEAVIRequestContext@@@Z
?DeInitialize@?$SafeMap@PEAVPushSubscription@@UEmpty@@V?$SafeSet_Iterator@PEAVPushSubscription@@@@@@UEAA_NAEAVIRequestContext@@@Z
?DeInitialize@?$SafeMap@PEAXUEmpty@@V?$SafeSet_Iterator@PEAX@@@@UEAA_NAEAVIRequestContext@@@Z
?DeInitialize@?$SafeMap@UPluginKey@@KV?$SafeMap_Iterator@UPluginKey@@K@@@@UEAA_NAEAVIRequestContext@@@Z
?DeInitialize@?$SafeMap@UUserKey@@PEAVBlockedRecord@@V?$SafeMap_Iterator@UUserKey@@PEAVBlockedRecord@@@@@@UEAA_NAEAVIRequestContext@@@Z
?DeInitialize@?$SafeMap@VCertThumbprintKey@@VCertThumbprintMappedSet@CServiceConfigSettings@@V?$SafeMap_Iterator@VCertThumbprintKey@@VCertThumbprintMappedSet@CServiceConfigSettings@@@@@@UEAA_NAEAVIRequestContext@@@Z
?DeInitialize@?$SafeMap@VGuidKey@@PEAVCListenerCommand@@V?$SafeMap_Iterator@VGuidKey@@PEAVCListenerCommand@@@@@@UEAA_NAEAVIRequestContext@@@Z
?DeInitialize@?$SafeMap@VKey@CWmiPtrCache@@VMapping@2@V?$SafeMap_Iterator@VKey@CWmiPtrCache@@VMapping@2@@@@@UEAA_NAEAVIRequestContext@@@Z
?DeInitialize@?$SafeMap@VKey@Locale@@KV?$SafeMap_Iterator@VKey@Locale@@K@@@@UEAA_NAEAVIRequestContext@@@Z
?DeInitialize@?$SafeMap@VStringKey@@PEAVListenerEvents@@V?$SafeMap_Iterator@VStringKey@@PEAVListenerEvents@@@@@@UEAA_NAEAVIRequestContext@@@Z
?DeInitialize@?$SafeMap@VStringKey@@PEAVListenerSourceSubscription@@V?$SafeMap_Iterator@VStringKey@@PEAVListenerSourceSubscription@@@@@@UEAA_NAEAVIRequestContext@@@Z
?DeInitialize@?$SafeMap@VStringKey@@UOption@WinRM_OperationOptions@@V?$SafeMap_Iterator@VStringKey@@UOption@WinRM_OperationOptions@@@@@@UEAA_NAEAVIRequestContext@@@Z
?DeInitialize@?$SafeMap@VStringKeyCI@@KV?$SafeMap_Iterator@VStringKeyCI@@K@@@@UEAA_NAEAVIRequestContext@@@Z
?DeInitialize@?$SafeMap@VStringKeyCI@@PEAVIISEndpoint@@V?$SafeMap_Iterator@VStringKeyCI@@PEAVIISEndpoint@@@@@@UEAA_NAEAVIRequestContext@@@Z
?DeInitialize@?$SafeMap@VStringKeyCI@@UEmpty@@V?$SafeMap_Iterator@VStringKeyCI@@UEmpty@@@@@@UEAA_NAEAVIRequestContext@@@Z
?DeInitialize@?$SafeMap@VStringKeyCI@@UEmpty@@V?$SafeSet_Iterator@VStringKeyCI@@@@@@UEAA_NAEAVIRequestContext@@@Z
?DeInitialize@?$SafeMap@VStringKeyCI@@UUSER_CONTEXT_INFO@WSManHttpListener@@V?$SafeMap_Iterator@VStringKeyCI@@UUSER_CONTEXT_INFO@WSManHttpListener@@@@@@UEAA_NAEAVIRequestContext@@@Z
?DeInitialize@?$SafeMap@VStringKeyStore@@PEAVExpiredOperationIdRecord@@V?$SafeMap_Iterator@VStringKeyStore@@PEAVExpiredOperationIdRecord@@@@@@UEAA_NAEAVIRequestContext@@@Z
?DeInitialize@?$SafeMap@VStringKeyStore@@PEAVServerFullDuplexChannel@@V?$SafeMap_Iterator@VStringKeyStore@@PEAVServerFullDuplexChannel@@@@@@UEAA_NAEAVIRequestContext@@@Z
?DeInitialize@?$SafeMap@VTokenCacheKey@ServiceSoapProcessor@@VTokenCacheMapping@2@V?$SafeMap_Iterator@VTokenCacheKey@ServiceSoapProcessor@@VTokenCacheMapping@2@@@@@UEAA_NAEAVIRequestContext@@@Z
?DeInitialize@?$SafeMap@W4WSManSessionOption@@PEAVOptionValue@SessionOptions@Client@WSMan@@V?$SafeMap_Iterator@W4WSManSessionOption@@PEAVOptionValue@SessionOptions@Client@WSMan@@@@@@UEAA_NAEAVIRequestContext@@@Z
?DeInitialize@?$SafeMap@_KPEAVSendPacketArgs@RobustConnectionBuffer@@V?$SafeMap_Iterator@_KPEAVSendPacketArgs@RobustConnectionBuffer@@@@@@UEAA_NAEAVIRequestContext@@@Z
?DeInitialize@CWSManGroupPolicyManager@@AEAAHXZ
?DeInitialize@EventHandler@WSMan@@QEAA_NAEAVIRequestContext@@@Z
?Debug@ExtendedSemantic@@2KB DATA
?Decode@PacketFormatter@@QEBAKPEAPEAVPacket@@_N@Z
?DecodeFaultObject@CRequestContext@@AEAAKPEAU_FWXML_ELEMENT@@AEAPEBG11@Z
?DecodeFaultObject@CRequestContext@@AEAAKPEBGKAEAPEBG11@Z
?DecodeFaultObjectProvider@CRequestContext@@AEAAKPEAU_FWXML_ELEMENT@@AEAPEBG1@Z
?DecodeFaultObjectProviderMessage@CRequestContext@@AEAAKPEAU_FWXML_ELEMENT@@AEAPEBG@Z
?DecodeFaultReason@CRequestContext@@AEAAKPEAU_FWXML_ELEMENT@@AEAPEBG@Z
?DecreaseProfileCount@UserRecord@@QEAAXXZ
?DeleteConfigKey@ConfigRegistry@@KAHPEAVIRequestContext@@PEBG1H@Z
?DeleteCredentialsFromCredmanStore@CConfigManager@@SAHPEAVIRequestContext@@PEAG@Z
?DeleteKey@@YAHPEAVIRequestContext@@PEBG1@Z
?DeleteKey@ConfigRegistry@@KAHPEAVIRequestContext@@PEBGH@Z
?DeleteSubkeys@ConfigRegistry@@KAHPEAVIRequestContext@@PEAUHKEY__@@PEBGHH@Z
?DeleteValues@ConfigRegistry@@KAHPEAVIRequestContext@@PEAUHKEY__@@@Z
?Detach@?$AutoCleanup@V?$AutoDelete@G@@PEAG@@QEAAPEAGXZ
?Detach@?$AutoCleanup@V?$AutoDelete@UIPRange@CWSManIPFilter@@@@PEAUIPRange@CWSManIPFilter@@@@QEAAPEAUIPRange@CWSManIPFilter@@XZ
?Detach@?$AutoCleanup@V?$AutoDelete@U_WSMAN_STREAM_ID_SET@@@@PEAU_WSMAN_STREAM_ID_SET@@@@QEAAPEAU_WSMAN_STREAM_ID_SET@@XZ
?Detach@?$AutoCleanup@V?$AutoDelete@V?$Handle@VISubscription@@@@@@PEAV?$Handle@VISubscription@@@@@@QEAAPEAV?$Handle@VISubscription@@@@XZ
?Detach@?$AutoCleanup@V?$AutoDelete@V?$SafeSet@PEAVCCertMapping@@@@@@PEAV?$SafeSet@PEAVCCertMapping@@@@@@QEAAPEAV?$SafeSet@PEAVCCertMapping@@@@XZ
?Detach@?$AutoCleanup@V?$AutoDelete@V?$SafeSet@PEAVCShellUriSettings@@@@@@PEAV?$SafeSet@PEAVCShellUriSettings@@@@@@QEAAPEAV?$SafeSet@PEAVCShellUriSettings@@@@XZ
?Detach@?$AutoCleanup@V?$AutoDelete@V?$set@PEAVCListenerSettings@@VCListenerSettingsLessFunctor@CServiceConfigSettings@@V?$transport_allocator@PEAVCListenerSettings@@@@@std@@@@PEAV?$set@PEAVCListenerSettings@@VCListenerSettingsLessFunctor@CServiceConfigSettings@@V?$transport_allocator@PEAVCListenerSettings@@@@@std@@@@QEAAPEAV?$set@PEAVCListenerSettings@@VCListenerSettingsLessFunctor@CServiceConfigSettings@@V?$transport_allocator@PEAVCListenerSettings@@@@@std@@XZ
?Detach@?$AutoCleanup@V?$AutoDelete@VAdminSid@CSecurity@@@@PEAVAdminSid@CSecurity@@@@QEAAPEAVAdminSid@CSecurity@@XZ
?Detach@?$AutoCleanup@V?$AutoDelete@VBlockedRecord@@@@PEAVBlockedRecord@@@@QEAAPEAVBlockedRecord@@XZ
?Detach@?$AutoCleanup@V?$AutoDelete@VCBaseConfigCache@@@@PEAVCBaseConfigCache@@@@QEAAPEAVCBaseConfigCache@@XZ
?Detach@?$AutoCleanup@V?$AutoDelete@VCCertMapping@@@@PEAVCCertMapping@@@@QEAAPEAVCCertMapping@@XZ
?Detach@?$AutoCleanup@V?$AutoDelete@VCListenerSettings@@@@PEAVCListenerSettings@@@@QEAAPEAVCListenerSettings@@XZ
?Detach@?$AutoCleanup@V?$AutoDelete@VCServiceWatcher@CServiceConfigCache@@@@PEAVCServiceWatcher@CServiceConfigCache@@@@QEAAPEAVCServiceWatcher@CServiceConfigCache@@XZ
?Detach@?$AutoCleanup@V?$AutoDelete@VCShellUriSettings@@@@PEAVCShellUriSettings@@@@QEAAPEAVCShellUriSettings@@XZ
?Detach@?$AutoCleanup@V?$AutoDelete@VCWSManEPR@@@@PEAVCWSManEPR@@@@QEAAPEAVCWSManEPR@@XZ
?Detach@?$AutoCleanup@V?$AutoDelete@VCWSManResource@@@@PEAVCWSManResource@@@@QEAAPEAVCWSManResource@@XZ
?Detach@?$AutoCleanup@V?$AutoDelete@VCertHash@@@@PEAVCertHash@@@@QEAAPEAVCertHash@@XZ
?Detach@?$AutoCleanup@V?$AutoDelete@VConfigUpdate@@@@PEAVConfigUpdate@@@@QEAAPEAVConfigUpdate@@XZ
?Detach@?$AutoCleanup@V?$AutoDelete@VEnumSinkEx@@@@PEAVEnumSinkEx@@@@QEAAPEAVEnumSinkEx@@XZ
?Detach@?$AutoCleanup@V?$AutoDelete@VEventHandler@WSMan@@@@PEAVEventHandler@WSMan@@@@QEAAPEAVEventHandler@WSMan@@XZ
?Detach@?$AutoCleanup@V?$AutoDelete@VExpiredOperationIdRecord@@@@PEAVExpiredOperationIdRecord@@@@QEAAPEAVExpiredOperationIdRecord@@XZ
?Detach@?$AutoCleanup@V?$AutoDelete@VGeneralSinkEx@@@@PEAVGeneralSinkEx@@@@QEAAPEAVGeneralSinkEx@@XZ
?Detach@?$AutoCleanup@V?$AutoDelete@VIQueryDASHSMASHInterface@@@@PEAVIQueryDASHSMASHInterface@@@@QEAAPEAVIQueryDASHSMASHInterface@@XZ
?Detach@?$AutoCleanup@V?$AutoDelete@VISpecification@@@@PEAVISpecification@@@@QEAAPEAVISpecification@@XZ
?Detach@?$AutoCleanup@V?$AutoDelete@VInteractiveSid@CSecurity@@@@PEAVInteractiveSid@CSecurity@@@@QEAAPEAVInteractiveSid@CSecurity@@XZ
?Detach@?$AutoCleanup@V?$AutoDelete@VIpHlpApiDllLoader@@@@PEAVIpHlpApiDllLoader@@@@QEAAPEAVIpHlpApiDllLoader@@XZ
?Detach@?$AutoCleanup@V?$AutoDelete@VMachineName@@@@PEAVMachineName@@@@QEAAPEAVMachineName@@XZ
?Detach@?$AutoCleanup@V?$AutoDelete@VNetworkServiceSid@CSecurity@@@@PEAVNetworkServiceSid@CSecurity@@@@QEAAPEAVNetworkServiceSid@CSecurity@@XZ
?Detach@?$AutoCleanup@V?$AutoDelete@VNtDsApiDllLoader@@@@PEAVNtDsApiDllLoader@@@@QEAAPEAVNtDsApiDllLoader@@XZ
?Detach@?$AutoCleanup@V?$AutoDelete@VOptionValue@SessionOptions@Client@WSMan@@@@PEAVOptionValue@SessionOptions@Client@WSMan@@@@QEAAPEAVOptionValue@SessionOptions@Client@WSMan@@XZ
?Detach@?$AutoCleanup@V?$AutoDelete@VResources@Locale@@@@PEAVResources@Locale@@@@QEAAPEAVResources@Locale@@XZ
?Detach@?$AutoCleanup@V?$AutoDelete@VSecurityEntry@Catalog@@@@PEAVSecurityEntry@Catalog@@@@QEAAPEAVSecurityEntry@Catalog@@XZ
?Detach@?$AutoCleanup@V?$AutoDelete@VServiceSoapProcessor@@@@PEAVServiceSoapProcessor@@@@QEAAPEAVServiceSoapProcessor@@XZ
?Detach@?$AutoCleanup@V?$AutoDelete@VShell32DllLoader@@@@PEAVShell32DllLoader@@@@QEAAPEAVShell32DllLoader@@XZ
?Detach@?$AutoCleanup@V?$AutoDelete@VShlWApiDllLoader@@@@PEAVShlWApiDllLoader@@@@QEAAPEAVShlWApiDllLoader@@XZ
?Detach@?$AutoCleanup@V?$AutoDelete@VSubscriptionManager@@@@PEAVSubscriptionManager@@@@QEAAPEAVSubscriptionManager@@XZ
?Detach@?$AutoCleanup@V?$AutoDelete@VTSTRBUFFER@@@@PEAVTSTRBUFFER@@@@QEAAPEAVTSTRBUFFER@@XZ
?Detach@?$AutoCleanup@V?$AutoDelete@VUser32DllLoader@@@@PEAVUser32DllLoader@@@@QEAAPEAVUser32DllLoader@@XZ
?Detach@?$AutoCleanup@V?$AutoDelete@VWSManMemCryptManager@@@@PEAVWSManMemCryptManager@@@@QEAAPEAVWSManMemCryptManager@@XZ
?Detach@?$AutoCleanup@V?$AutoDelete@VWmiEnumContext@@@@PEAVWmiEnumContext@@@@QEAAPEAVWmiEnumContext@@XZ
?Detach@?$AutoCleanup@V?$AutoDelete@VXmlReader@@@@PEAVXmlReader@@@@QEAAPEAVXmlReader@@XZ
?Detach@?$AutoCleanup@V?$AutoDeleteVector@$$CBG@@PEBG@@QEAAPEBGXZ
?Detach@?$AutoCleanup@V?$AutoDeleteVector@D@@PEAD@@QEAAPEADXZ
?Detach@?$AutoCleanup@V?$AutoDeleteVector@E@@PEAE@@QEAAPEAEXZ
?Detach@?$AutoCleanup@V?$AutoDeleteVector@G@@PEAG@@QEAAPEAGXZ
?Detach@?$AutoCleanup@V?$AutoDeleteVector@PEAG@@PEAPEAG@@QEAAPEAPEAGXZ
?Detach@?$AutoCleanup@V?$AutoDeleteVector@PEBG@@PEAPEBG@@QEAAPEAPEBGXZ
?Detach@?$AutoCleanup@V?$AutoDeleteVector@U_WINRS_CREATE_SHELL_ENVIRONMENT_VARIABLE@@@@PEAU_WINRS_CREATE_SHELL_ENVIRONMENT_VARIABLE@@@@QEAAPEAU_WINRS_CREATE_SHELL_ENVIRONMENT_VARIABLE@@XZ
?Detach@?$AutoCleanup@V?$AutoDeleteVector@U_WINRS_RUN_COMMAND_ARG@@@@PEAU_WINRS_RUN_COMMAND_ARG@@@@QEAAPEAU_WINRS_RUN_COMMAND_ARG@@XZ
?Detach@?$AutoCleanup@V?$AutoDeleteVector@U_WSMAN_OPTION@@@@PEAU_WSMAN_OPTION@@@@QEAAPEAU_WSMAN_OPTION@@XZ
?Detach@?$AutoCleanup@V?$AutoFree@E@@PEAE@@QEAAPEAEXZ
?Detach@?$AutoCleanup@V?$AutoLocklessItemRecycle@VPacket@@@@PEAVPacket@@@@QEAAPEAVPacket@@XZ
?Detach@?$AutoCleanup@V?$AutoRelease@UIClientSecurity@@@@PEAUIClientSecurity@@@@QEAAPEAUIClientSecurity@@XZ
?Detach@?$AutoCleanup@V?$AutoRelease@UIEnumWbemClassObject@@@@PEAUIEnumWbemClassObject@@@@QEAAPEAUIEnumWbemClassObject@@XZ
?Detach@?$AutoCleanup@V?$AutoRelease@UIErrorInfo@@@@PEAUIErrorInfo@@@@QEAAPEAUIErrorInfo@@XZ
?Detach@?$AutoCleanup@V?$AutoRelease@UIUnknown@@@@PEAUIUnknown@@@@QEAAPEAUIUnknown@@XZ
?Detach@?$AutoCleanup@V?$AutoRelease@UIWbemClassObject@@@@PEAUIWbemClassObject@@@@QEAAPEAUIWbemClassObject@@XZ
?Detach@?$AutoCleanup@V?$AutoRelease@UIWbemContext@@@@PEAUIWbemContext@@@@QEAAPEAUIWbemContext@@XZ
?Detach@?$AutoCleanup@V?$AutoRelease@UIWbemLocator@@@@PEAUIWbemLocator@@@@QEAAPEAUIWbemLocator@@XZ
?Detach@?$AutoCleanup@V?$AutoRelease@UIWbemObjectTextSrc@@@@PEAUIWbemObjectTextSrc@@@@QEAAPEAUIWbemObjectTextSrc@@XZ
?Detach@?$AutoCleanup@V?$AutoRelease@UIWbemPath@@@@PEAUIWbemPath@@@@QEAAPEAUIWbemPath@@XZ
?Detach@?$AutoCleanup@V?$AutoRelease@UIWbemPathKeyList@@@@PEAUIWbemPathKeyList@@@@QEAAPEAUIWbemPathKeyList@@XZ
?Detach@?$AutoCleanup@V?$AutoRelease@UIWbemQualifierSet@@@@PEAUIWbemQualifierSet@@@@QEAAPEAUIWbemQualifierSet@@XZ
?Detach@?$AutoCleanup@V?$AutoRelease@UIWbemQuery@@@@PEAUIWbemQuery@@@@QEAAPEAUIWbemQuery@@XZ
?Detach@?$AutoCleanup@V?$AutoRelease@UIWbemServices@@@@PEAUIWbemServices@@@@QEAAPEAUIWbemServices@@XZ
?Detach@?$AutoCleanup@V?$AutoRelease@VApplication@Client@WSMan@@@@PEAVApplication@Client@WSMan@@@@QEAAPEAVApplication@Client@WSMan@@XZ
?Detach@?$AutoCleanup@V?$AutoRelease@VCBaseConfigCache@@@@PEAVCBaseConfigCache@@@@QEAAPEAVCBaseConfigCache@@XZ
?Detach@?$AutoCleanup@V?$AutoRelease@VCClientConfigSettings@@@@PEAVCClientConfigSettings@@@@QEAAPEAVCClientConfigSettings@@XZ
?Detach@?$AutoCleanup@V?$AutoRelease@VCCommonConfigSettings@@@@PEAVCCommonConfigSettings@@@@QEAAPEAVCCommonConfigSettings@@XZ
?Detach@?$AutoCleanup@V?$AutoRelease@VCConfigManager@@@@PEAVCConfigManager@@@@QEAAPEAVCConfigManager@@XZ
?Detach@?$AutoCleanup@V?$AutoRelease@VCRemoteSession@@@@PEAVCRemoteSession@@@@QEAAPEAVCRemoteSession@@XZ
?Detach@?$AutoCleanup@V?$AutoRelease@VCRequestContext@@@@PEAVCRequestContext@@@@QEAAPEAVCRequestContext@@XZ
?Detach@?$AutoCleanup@V?$AutoRelease@VCServiceConfigSettings@@@@PEAVCServiceConfigSettings@@@@QEAAPEAVCServiceConfigSettings@@XZ
?Detach@?$AutoCleanup@V?$AutoRelease@VCWSManEPR@@@@PEAVCWSManEPR@@@@QEAAPEAVCWSManEPR@@XZ
?Detach@?$AutoCleanup@V?$AutoRelease@VCWSManGroupPolicyCache@@@@PEAVCWSManGroupPolicyCache@@@@QEAAPEAVCWSManGroupPolicyCache@@XZ
?Detach@?$AutoCleanup@V?$AutoRelease@VCWSManGroupPolicyManager@@@@PEAVCWSManGroupPolicyManager@@@@QEAAPEAVCWSManGroupPolicyManager@@XZ
?Detach@?$AutoCleanup@V?$AutoRelease@VCWSManObject@@@@PEAVCWSManObject@@@@QEAAPEAVCWSManObject@@XZ
?Detach@?$AutoCleanup@V?$AutoRelease@VCWinRSPluginConfigCache@@@@PEAVCWinRSPluginConfigCache@@@@QEAAPEAVCWinRSPluginConfigCache@@XZ
?Detach@?$AutoCleanup@V?$AutoRelease@VCWinRSPluginConfigSettings@@@@PEAVCWinRSPluginConfigSettings@@@@QEAAPEAVCWinRSPluginConfigSettings@@XZ
?Detach@?$AutoCleanup@V?$AutoRelease@VCommand@Client@WSMan@@@@PEAVCommand@Client@WSMan@@@@QEAAPEAVCommand@Client@WSMan@@XZ
?Detach@?$AutoCleanup@V?$AutoRelease@VEnumSinkEx@@@@PEAVEnumSinkEx@@@@QEAAPEAVEnumSinkEx@@XZ
?Detach@?$AutoCleanup@V?$AutoRelease@VGeneralSinkEx@@@@PEAVGeneralSinkEx@@@@QEAAPEAVGeneralSinkEx@@XZ
?Detach@?$AutoCleanup@V?$AutoRelease@VIPCSoapProcessor@@@@PEAVIPCSoapProcessor@@@@QEAAPEAVIPCSoapProcessor@@XZ
?Detach@?$AutoCleanup@V?$AutoRelease@VIRequestContext@@@@PEAVIRequestContext@@@@QEAAPEAVIRequestContext@@XZ
?Detach@?$AutoCleanup@V?$AutoRelease@VReceiveOperation@Client@WSMan@@@@PEAVReceiveOperation@Client@WSMan@@@@QEAAPEAVReceiveOperation@Client@WSMan@@XZ
?Detach@?$AutoCleanup@V?$AutoRelease@VSendOperation@Client@WSMan@@@@PEAVSendOperation@Client@WSMan@@@@QEAAPEAVSendOperation@Client@WSMan@@XZ
?Detach@?$AutoCleanup@V?$AutoRelease@VShell@Client@WSMan@@@@PEAVShell@Client@WSMan@@@@QEAAPEAVShell@Client@WSMan@@XZ
?Detach@?$AutoCleanup@V?$AutoRelease@VSignalOperation@Client@WSMan@@@@PEAVSignalOperation@Client@WSMan@@@@QEAAPEAVSignalOperation@Client@WSMan@@XZ
?Detach@?$AutoCleanup@VAutoBstrNoAlloc@@PEAG@@QEAAPEAGXZ
?Detach@?$AutoCleanup@VAutoCertContext@@PEBU_CERT_CONTEXT@@@@QEAAPEBU_CERT_CONTEXT@@XZ
?Detach@?$AutoCleanup@VAutoHandle@@PEAX@@QEAAPEAXXZ
?Detach@?$AutoCleanup@VAutoImpersonateUser@@PEAX@@QEAAPEAXXZ
?Detach@?$AutoCleanup@VAutoLocalFree@@PEAX@@QEAAPEAXXZ
?Detach@?$AutoCleanup@VAutoMIClass@@PEAU_MI_Class@@@@QEAAPEAU_MI_Class@@XZ
?Detach@?$AutoCleanup@VAutoMIInstance@@PEAU_MI_Instance@@@@QEAAPEAU_MI_Instance@@XZ
?Detach@?$AutoCleanup@VAutoRegKey@@PEAUHKEY__@@@@QEAAPEAUHKEY__@@XZ
?Detach@?$AutoCleanup@VAutoSecurityDescriptor@@PEAX@@QEAAPEAXXZ
?Detach@?$AutoCleanup@VAutoWaitHandle@@PEAX@@QEAAPEAXXZ
?Detach@BufferFormatter@@QEAAPEAEXZ
?Discard@CServiceWatcher@CServiceConfigCache@@QEAAXXZ
?DoOnChange@CBaseConfigCache@@IEAAXW4ConfigChangeSources@@KW4ConfigChangeSeverityType@@@Z
?DoesThreadOwnLock@CWSManCriticalSection@@QEAAHXZ
?Down@?$LoaderSerializer@VSubscriptionManager@@$01@@AEAAJXZ
?DropData@CircularBufferFormatter@@QEAAXK@Z
?DuplicateCurrentToken@CSecurity@@SAHPEAPEAXKPEAU_SECURITY_ATTRIBUTES@@W4_SECURITY_IMPERSONATION_LEVEL@@W4_TOKEN_TYPE@@H@Z
?EnableAllPrivileges@@YAHPEAPEAE@Z
?Encode@PacketFormatter@@QEBAKPEAPEAVPacket@@@Z
?Encode@PacketFormatter@@QEBAKPEBGKPEAEKPEAPEAEPEAK_N@Z
?EndOfStream@PacketParser@@QEAAXK@Z
?EndRevertToSelf@CSecurity@@SAHPEAX@Z
?EnsureActivityIdOnThread@EventHandler@WSMan@@SAXXZ
?EnsureNoActiveCaches@CClientConfigCache@@SAXXZ
?EnsureNoActiveCaches@CServiceConfigCache@@SAXXZ
?Error@EventLog@@SAXK@Z
?Error@EventLog@@SAXKGPEAPEBG@Z
?Error@EventLog@@SAXKPEBG@Z
?ErrorAction@ExtendedSemantic@@2KB DATA
?EventEnabled@EventHandler@WSMan@@AEAA_NAEBU_EVENT_DESCRIPTOR@@@Z
?EventProviderEnabled@EventHandler@WSMan@@AEAA_NXZ
?EventWrite@EventHandler@WSMan@@AEAAXAEBU_EVENT_DESCRIPTOR@@KPEAU_EVENT_DATA_DESCRIPTOR@@@Z
?ExtractContextId@PacketParser@@QEAAHPEAPEBGKPEBG@Z
?ExtractShellId@PacketParser@@QEAAHPEAVCRequestContext@@PEAGK@Z
?ExtractSidFromToken@CSecurity@@SAHPEAVIRequestContext@@PEAXAEAVAutoLocalFree@@@Z
?FindExisting@CBaseConfigCache@@CAPEAV1@PEAVCConfigCacheMap@1@PEBGW4ErrorLogging@@@Z
?FindMatch@CResourceAlias@@AEAAPEAU_ALIAS_INFORMATION@@PEBG@Z
?First@TSTRBUFFER@@QEBAPEBGXZ
?Format@Locale@@AEBA_NKPEAPEADPEAPEAXPEAGKGW4CallSiteId@@@Z
?FormatDataDescriptor@EventHandler@WSMan@@SAXAEAU_EVENT_DATA_DESCRIPTOR@@AEAG@Z
?FormatDataDescriptor@EventHandler@WSMan@@SAXAEAU_EVENT_DATA_DESCRIPTOR@@AEAJ@Z
?FormatDataDescriptor@EventHandler@WSMan@@SAXAEAU_EVENT_DATA_DESCRIPTOR@@AEAK@Z
?FormatDataDescriptor@EventHandler@WSMan@@SAXAEAU_EVENT_DATA_DESCRIPTOR@@PEBD@Z
?FormatDataDescriptor@EventHandler@WSMan@@SAXAEAU_EVENT_DATA_DESCRIPTOR@@PEBG@Z
?FormatWithFallback@Locale@@AEBA_NKPEAPEAD0PEAPEAXPEAGK@Z
?Free@WSManMemory@@SAXPEAXH@Z
?FreeBstr@WSManMemory@@SAXPEAGHH@Z
?FreeInstance@?$ILoader@VAdminSid@CSecurity@@@@QEAA_NAEAVIRequestContext@@_N@Z
?FreeInstance@?$ILoader@VEventHandler@WSMan@@@@QEAA_NAEAVIRequestContext@@_N@Z
?FreeInstance@?$ILoader@VInteractiveSid@CSecurity@@@@QEAA_NAEAVIRequestContext@@_N@Z
?FreeInstance@?$ILoader@VIpHlpApiDllLoader@@@@QEAA_NAEAVIRequestContext@@_N@Z
?FreeInstance@?$ILoader@VMachineName@@@@QEAA_NAEAVIRequestContext@@_N@Z
?FreeInstance@?$ILoader@VNetworkServiceSid@CSecurity@@@@QEAA_NAEAVIRequestContext@@_N@Z
?FreeInstance@?$ILoader@VNtDsApiDllLoader@@@@QEAA_NAEAVIRequestContext@@_N@Z
?FreeInstance@?$ILoader@VResources@Locale@@@@QEAA_NAEAVIRequestContext@@_N@Z
?FreeInstance@?$ILoader@VShell32DllLoader@@@@QEAA_NAEAVIRequestContext@@_N@Z
?FreeInstance@?$ILoader@VShlWApiDllLoader@@@@QEAA_NAEAVIRequestContext@@_N@Z
?FreeInstance@?$ILoader@VSubscriptionManager@@@@QEAA_NAEAVIRequestContext@@_N@Z
?FreeInstance@?$ILoader@VUser32DllLoader@@@@QEAA_NAEAVIRequestContext@@_N@Z
?FreeInstance@?$ILoader@VWSManMemCryptManager@@@@QEAA_NAEAVIRequestContext@@_N@Z
?FreeInstance@?$LoaderSerializer@VSubscriptionManager@@$01@@QEAA_NAEAVIRequestContext@@_N@Z
?FreeMemory@RBUFFER@@QEAAXXZ
?FreeMemory@SBUFFER@@QEAAXXZ
?FreePacket@PacketParser@@QEAAXXZ
?FreeXmlStructure@PacketParser@@QEAAXXZ
?GenerateTransferId@EventHandler@WSMan@@SAXAEBU_EVENT_DESCRIPTOR@@PEBU_GUID@@1@Z
?GenerateTransferIdImp@EventHandler@WSMan@@AEAAXAEBU_EVENT_DESCRIPTOR@@PEBU_GUID@@1@Z
?GetAccessRights@CWSManSecurityUI@@UEAAJPEBU_GUID@@KPEAPEAU_SI_ACCESS@@PEAK2@Z
?GetAction@PacketParser@@QEBAAEBV?$PacketElement@PEBG@1@XZ
?GetActionType@SoapSemanticConverter@@AEAA_NPEBGPEAW4_MI_OperationCallback_ResponseType@@PEAW4_MI_CallbackMode@@PEAVIRequestContext@@@Z
?GetActivityIdOnCurrentThread@EventHandler@WSMan@@SAXAEAU_GUID@@@Z
?GetBaseUri@CWSManResource@@QEAAPEBGXZ
?GetBomIndex@PacketFormatter@@QEBA?AW4Charset@1@XZ
?GetBookmarkXml@PacketParser@@QEAAAEBV?$PacketElement@PEAU_FWXML_ELEMENT@@@1@XZ
?GetBool@CConfigManager@@QEAAHPEAVIRequestContext@@W4ConfigSetting@@PEAHPEAW4WSManConfigSource@@@Z
?GetBool@CWSManGroupPolicyManager@@QEAAHPEAVIRequestContext@@W4WSManGroupPolicySetting@@PEAHPEAW4WSManGroupPolicySettingState@@@Z
?GetBuffer@BufferFormatter@@UEAAPEAEXZ
?GetBuffer@BufferFormatter@@UEBAPEBEXZ
?GetBuffer@CircularBufferFormatter@@UEAAPEAEXZ
?GetBuffer@CircularBufferFormatter@@UEBAPEBEXZ
?GetBuffer@XmlReader@@QEAAPEBGXZ
?GetBufferLength@PacketParser@@UEAAKXZ
?GetBufferPtr@PacketParser@@UEAAPEAPEAGXZ
?GetBufferSize@BufferFormatter@@QEBAKXZ
?GetCacheCount@CClientConfigCache@@SAKXZ
?GetCacheCount@CServiceConfigCache@@SAKXZ
?GetCalculationSize@BufferFormatter@@UEBAK_N@Z
?GetCalculationSize@CircularBufferFormatter@@UEBAK_N@Z
?GetCharInUse@TSTRBUFFER@@QEBAIXZ
?GetCharset@PacketFormatter@@QEBA?AW4Charset@1@XZ
?GetCharsetLen@PacketFormatter@@QEBAKXZ
?GetCharsetName@PacketFormatter@@QEBAPEBDXZ
?GetChildCount@ChildLifeTimeManager@@QEBAJXZ
?GetConfigCache@CBaseConfigCache@@KAPEAV1@PEAVIRequestContext@@W4ErrorLogging@@P6APEAV1@XZPEAVFastLock@@AEAV?$AutoRelease@VCConfigCacheMap@CBaseConfigCache@@@@H@Z
?GetConfigCache@CClientConfigCache@@SAPEAV1@PEAVIRequestContext@@H@Z
?GetConfigCache@CServiceConfigCache@@SAPEAV1@PEAVIRequestContext@@W4ErrorLogging@@H@Z
?GetConfigCache@CWinRSPluginConfigCache@@SAPEAV1@PEAVIRequestContext@@W4ErrorLogging@@H@Z
?GetConfigManager@CConfigManager@@SAPEAV1@XZ
?GetConfigManagerForCertMapping@CConfigManager@@SAPEAV1@PEAVCERTMAPPING_IDENTITY@@PEAVIRequestContext@@@Z
?GetConfigManagerForListener@CConfigManager@@SAPEAV1@PEAVLISTENER_IDENTITY@@PEAVIRequestContext@@@Z
?GetConfigManagerForShellUri@CConfigManager@@SAPEAV1@PEAVSHELLURI_IDENTITY@@PEAVIRequestContext@@@Z
?GetConfigManagerForTable@CConfigManager@@SAPEAV1@PEAVWSMANCONFIGTABLE_IDENTITY@@PEAVIRequestContext@@@Z
?GetConfigXml@CConfigManager@@QEAAHPEAVIRequestContext@@PEAPEBGPEAPEAVXmlReader@@PEAH@Z
?GetCorrelationId@PacketParser@@QEAAAEAU_GUID@@XZ
?GetCurrentCertMappingIdentity@CConfigManager@@QEAAHPEAVCERTMAPPING_IDENTITY@@PEAVIRequestContext@@@Z
?GetCurrentListenerIdentity@CConfigManager@@QEAAHPEAVLISTENER_IDENTITY@@PEAVIRequestContext@@@Z
?GetCurrentSettings@CBaseConfigCache@@IEAAPEAVCCommonConfigSettings@@PEAVIRequestContext@@@Z
?GetCurrentSettings@CClientConfigCache@@QEAAPEAVCClientConfigSettings@@PEAVIRequestContext@@@Z
?GetCurrentSettings@CServiceConfigCache@@QEAAPEAVCServiceConfigSettings@@PEAVIRequestContext@@@Z
?GetCurrentSettings@CWinRSPluginConfigCache@@QEAAPEAVCWinRSPluginConfigSettings@@PEAVIRequestContext@@@Z
?GetCurrentShellUriIdentity@CConfigManager@@QEAAHPEAVSHELLURI_IDENTITY@@PEAVIRequestContext@@@Z
?GetCurrentTableIdentity@CConfigManager@@QEAAHPEAVWSMANCONFIGTABLE_IDENTITY@@PEAVIRequestContext@@@Z
?GetDataLocale@PacketParser@@QEBAAEBV?$PacketElement@PEBG@1@XZ
?GetDataLocaleHelper@PacketParser@@QEAAAEAVLocale@@XZ
?GetDescriptionElement@SoapSemanticConverter@@QEAAPEAU_FWXML_ELEMENT@@PEAU2@PEAVIRequestContext@@@Z
?GetDestructorIter@?$SafeMap@PEAVCCertMapping@@UEmpty@@V?$SafeSet_Iterator@PEAVCCertMapping@@@@@@QEAAAEAV?$SafeSet_Iterator@PEAVCCertMapping@@@@XZ
?GetDestructorIter@?$SafeMap@PEAVCShellUriSettings@@UEmpty@@V?$SafeSet_Iterator@PEAVCShellUriSettings@@@@@@QEAAAEAV?$SafeSet_Iterator@PEAVCShellUriSettings@@@@XZ
?GetDestructorIter@?$SafeMap@VCertThumbprintKey@@VCertThumbprintMappedSet@CServiceConfigSettings@@V?$SafeMap_Iterator@VCertThumbprintKey@@VCertThumbprintMappedSet@CServiceConfigSettings@@@@@@QEAAAEAV?$SafeMap_Iterator@VCertThumbprintKey@@VCertThumbprintMappedSet@CServiceConfigSettings@@@@XZ
?GetDestructorIter@?$SafeMap@VStringKeyStore@@PEAVExpiredOperationIdRecord@@V?$SafeMap_Iterator@VStringKeyStore@@PEAVExpiredOperationIdRecord@@@@@@QEAAAEAV?$SafeMap_Iterator@VStringKeyStore@@PEAVExpiredOperationIdRecord@@@@XZ
?GetDestructorIter@?$SafeMap@W4WSManSessionOption@@PEAVOptionValue@SessionOptions@Client@WSMan@@V?$SafeMap_Iterator@W4WSManSessionOption@@PEAVOptionValue@SessionOptions@Client@WSMan@@@@@@QEAAAEAV?$SafeMap_Iterator@W4WSManSessionOption@@PEAVOptionValue@SessionOptions@Client@WSMan@@@@XZ
?GetDialect@Fragment@PacketParser@@QEBAPEBGXZ
?GetError@BufferFormatter@@QEBAKXZ
?GetErrorCode@CErrorContext@@UEBAKXZ
?GetEventType@SoapSemanticConverter@@AEAAKPEBGPEAVIRequestContext@@@Z
?GetEventTypeAndResponseElement@SoapSemanticConverter@@AEAAPEAU_FWXML_ELEMENT@@PEAU2@PEAKPEAVIRequestContext@@@Z
?GetExtendedErrorString@CErrorContext@@UEAAPEAGXZ
?GetExtendedErrorString@CRequestContext@@UEAAPEAGXZ
?GetFaultToXml@PacketParser@@QEBAAEBVReferenceParameters@1@XZ
?GetFaultXML@CErrorContext@@UEBAPEBGXZ
?GetFaultXML@CRequestContext@@UEBAPEBGXZ
?GetFaultXMLPrivate@CRequestContext@@AEAAXPEAPEAD0KHKKPEBG11@Z
?GetFirstConfigManagerForCertMapping@CConfigManager@@SAPEAV1@PEBG@Z
?GetFirstConfigManagerForListener@CConfigManager@@SAPEAV1@PEBG@Z
?GetFirstConfigManagerForShellUri@CConfigManager@@SAPEAV1@PEBG@Z
?GetFirstConfigManagerForTable@CConfigManager@@SAPEAV1@W4WSMANTableConfigType@@PEBG@Z
?GetFormat@PacketFormatter@@QEBA?AW4Charset@1@XZ
?GetFormatterMode@BufferFormatter@@QEAA?AW4Charset@PacketFormatter@@XZ
?GetFragment@PacketParser@@QEBAAEBVFragment@1@XZ
?GetFragmentDialect@CWSManResourceNoResourceUri@@QEAAPEBGXZ
?GetFragmentPath@CWSManResourceNoResourceUri@@QEAAPEBGXZ
?GetGroupPolicyManager@CWSManGroupPolicyManager@@SAPEAV1@PEAVIRequestContext@@PEBG@Z
?GetHeap@WSManMemory@@SAPEAXXZ
?GetIISConfiguration@CConfigManager@@SAHPEAVIRequestContext@@PEBGPEAPEAVXmlReader@@@Z
?GetImpersonationToken@UserRecord@@QEAAPEAXXZ
?GetInheritTypes@CWSManSecurityUI@@UEAAJPEAPEAU_SI_INHERIT_TYPE@@PEAK@Z
?GetInitError@CWSManCriticalSection@@QEBAKXZ
?GetInstance@?$LoaderSerializer@VAdminSid@CSecurity@@$00@@QEAAPEAVAdminSid@CSecurity@@AEAVIRequestContext@@@Z
?GetInstance@?$LoaderSerializer@VEventHandler@WSMan@@$00@@QEAAPEAVEventHandler@WSMan@@AEAVIRequestContext@@@Z
?GetInstance@?$LoaderSerializer@VInteractiveSid@CSecurity@@$00@@QEAAPEAVInteractiveSid@CSecurity@@AEAVIRequestContext@@@Z
?GetInstance@?$LoaderSerializer@VIpHlpApiDllLoader@@$00@@QEAAPEAVIpHlpApiDllLoader@@AEAVIRequestContext@@@Z
?GetInstance@?$LoaderSerializer@VMachineName@@$00@@QEAAPEAVMachineName@@AEAVIRequestContext@@@Z
?GetInstance@?$LoaderSerializer@VNetworkServiceSid@CSecurity@@$00@@QEAAPEAVNetworkServiceSid@CSecurity@@AEAVIRequestContext@@@Z
?GetInstance@?$LoaderSerializer@VNtDsApiDllLoader@@$00@@QEAAPEAVNtDsApiDllLoader@@AEAVIRequestContext@@@Z
?GetInstance@?$LoaderSerializer@VResources@Locale@@$0A@@@QEAAPEAVResources@Locale@@AEAVIRequestContext@@@Z
?GetInstance@?$LoaderSerializer@VShell32DllLoader@@$00@@QEAAPEAVShell32DllLoader@@AEAVIRequestContext@@@Z
?GetInstance@?$LoaderSerializer@VShlWApiDllLoader@@$00@@QEAAPEAVShlWApiDllLoader@@AEAVIRequestContext@@@Z
?GetInstance@?$LoaderSerializer@VSubscriptionManager@@$01@@QEAAPEAVSubscriptionManager@@AEAVIRequestContext@@@Z
?GetInstance@?$LoaderSerializer@VUser32DllLoader@@$00@@QEAAPEAVUser32DllLoader@@AEAVIRequestContext@@@Z
?GetInstance@?$LoaderSerializer@VWSManMemCryptManager@@$00@@QEAAPEAVWSManMemCryptManager@@AEAVIRequestContext@@@Z
?GetInt@CConfigManager@@QEAAHPEAVIRequestContext@@W4ConfigSetting@@PEAKPEAW4WSManConfigSource@@@Z
?GetInt@CWSManGroupPolicyManager@@QEAAHPEAVIRequestContext@@W4WSManGroupPolicySetting@@PEAKPEAW4WSManGroupPolicySettingState@@@Z
?GetKey@UserRecord@@QEBA?AUUserKey@@XZ
?GetKeyCount@CWSManResourceNoResourceUri@@QEAAKXZ
?GetKeyValue@CWSManResourceNoResourceUri@@QEAAPEBGPEBG@Z
?GetKeys@CWSManResourceNoResourceUri@@QEAAPEAU_WSMAN_KEY@@XZ
?GetLCID@Locale@@QEAAKXZ
?GetLength@XmlReader@@QEAA_KXZ
?GetLocale@CRequestContext@@QEAAAEAVLocale@@XZ
?GetLocale@PacketParser@@QEBAAEBV?$PacketElement@PEBG@1@XZ
?GetLocaleHelper@PacketParser@@QEAAAEAVLocale@@XZ
?GetLocaleString@CRequestContext@@QEAAPEBGXZ
?GetLocator@CWSManResource@@QEAAPEAU_WSMAN_RESOURCE_LOCATOR@@XZ
?GetMachineId@PacketParser@@QEBAAEBV?$PacketElement@PEBG@1@XZ
?GetMap@?$SafeMap_Iterator@PEAVCCertMapping@@UEmpty@@@@QEBAAEAV?$SafeMap@PEAVCCertMapping@@UEmpty@@V?$SafeMap_Iterator@PEAVCCertMapping@@UEmpty@@@@@@XZ
?GetMap@?$SafeMap_Iterator@PEAVCListenerConnect@@PEAV1@@@QEBAAEAV?$SafeMap@PEAVCListenerConnect@@PEAV1@V?$SafeMap_Iterator@PEAVCListenerConnect@@PEAV1@@@@@XZ
?GetMap@?$SafeMap_Iterator@PEAVCListenerOperation@@UEmpty@@@@QEBAAEAV?$SafeMap@PEAVCListenerOperation@@UEmpty@@V?$SafeMap_Iterator@PEAVCListenerOperation@@UEmpty@@@@@@XZ
?GetMap@?$SafeMap_Iterator@PEAVCListenerReceive@@PEAV1@@@QEBAAEAV?$SafeMap@PEAVCListenerReceive@@PEAV1@V?$SafeMap_Iterator@PEAVCListenerReceive@@PEAV1@@@@@XZ
?GetMap@?$SafeMap_Iterator@PEAVCListenerSend@@PEAV1@@@QEBAAEAV?$SafeMap@PEAVCListenerSend@@PEAV1@V?$SafeMap_Iterator@PEAVCListenerSend@@PEAV1@@@@@XZ
?GetMap@?$SafeMap_Iterator@PEAVCListenerSignal@@PEAV1@@@QEBAAEAV?$SafeMap@PEAVCListenerSignal@@PEAV1@V?$SafeMap_Iterator@PEAVCListenerSignal@@PEAV1@@@@@XZ
?GetMap@?$SafeMap_Iterator@PEAVCShellUriSettings@@UEmpty@@@@QEBAAEAV?$SafeMap@PEAVCShellUriSettings@@UEmpty@@V?$SafeMap_Iterator@PEAVCShellUriSettings@@UEmpty@@@@@@XZ
?GetMap@?$SafeMap_Iterator@PEAVCollector@@UEmpty@@@@QEBAAEAV?$SafeMap@PEAVCollector@@UEmpty@@V?$SafeMap_Iterator@PEAVCollector@@UEmpty@@@@@@XZ
?GetMap@?$SafeMap_Iterator@PEAVHostOperation@@UEmpty@@@@QEBAAEAV?$SafeMap@PEAVHostOperation@@UEmpty@@V?$SafeMap_Iterator@PEAVHostOperation@@UEmpty@@@@@@XZ
?GetMap@?$SafeMap_Iterator@PEAVIOperation@@UEmpty@@@@QEBAAEAV?$SafeMap@PEAVIOperation@@UEmpty@@V?$SafeMap_Iterator@PEAVIOperation@@UEmpty@@@@@@XZ
?GetMap@?$SafeMap_Iterator@PEAVListenerSourceSubscription@@UEmpty@@@@QEBAAEAV?$SafeMap@PEAVListenerSourceSubscription@@UEmpty@@V?$SafeMap_Iterator@PEAVListenerSourceSubscription@@UEmpty@@@@@@XZ
?GetMap@?$SafeMap_Iterator@PEAVPushSubscription@@UEmpty@@@@QEBAAEAV?$SafeMap@PEAVPushSubscription@@UEmpty@@V?$SafeMap_Iterator@PEAVPushSubscription@@UEmpty@@@@@@XZ
?GetMap@?$SafeMap_Iterator@PEAXUEmpty@@@@QEBAAEAV?$SafeMap@PEAXUEmpty@@V?$SafeMap_Iterator@PEAXUEmpty@@@@@@XZ
?GetMap@?$SafeMap_Iterator@UPluginKey@@K@@QEBAAEAV?$SafeMap@UPluginKey@@KV?$SafeMap_Iterator@UPluginKey@@K@@@@XZ
?GetMap@?$SafeMap_Iterator@UUserKey@@PEAVBlockedRecord@@@@QEBAAEAV?$SafeMap@UUserKey@@PEAVBlockedRecord@@V?$SafeMap_Iterator@UUserKey@@PEAVBlockedRecord@@@@@@XZ
?GetMap@?$SafeMap_Iterator@VCertThumbprintKey@@VCertThumbprintMappedSet@CServiceConfigSettings@@@@QEBAAEAV?$SafeMap@VCertThumbprintKey@@VCertThumbprintMappedSet@CServiceConfigSettings@@V?$SafeMap_Iterator@VCertThumbprintKey@@VCertThumbprintMappedSet@CServiceConfigSettings@@@@@@XZ
?GetMap@?$SafeMap_Iterator@VGuidKey@@PEAVCListenerCommand@@@@QEBAAEAV?$SafeMap@VGuidKey@@PEAVCListenerCommand@@V?$SafeMap_Iterator@VGuidKey@@PEAVCListenerCommand@@@@@@XZ
?GetMap@?$SafeMap_Iterator@VKey@Locale@@K@@QEBAAEAV?$SafeMap@VKey@Locale@@KV?$SafeMap_Iterator@VKey@Locale@@K@@@@XZ
?GetMap@?$SafeMap_Iterator@VStringKeyCI@@K@@QEBAAEAV?$SafeMap@VStringKeyCI@@KV?$SafeMap_Iterator@VStringKeyCI@@K@@@@XZ
?GetMap@?$SafeMap_Iterator@VStringKeyCI@@UEmpty@@@@QEBAAEAV?$SafeMap@VStringKeyCI@@UEmpty@@V?$SafeMap_Iterator@VStringKeyCI@@UEmpty@@@@@@XZ
?GetMap@?$SafeMap_Iterator@VStringKeyCI@@UUSER_CONTEXT_INFO@WSManHttpListener@@@@QEBAAEAV?$SafeMap@VStringKeyCI@@UUSER_CONTEXT_INFO@WSManHttpListener@@V?$SafeMap_Iterator@VStringKeyCI@@UUSER_CONTEXT_INFO@WSManHttpListener@@@@@@XZ
?GetMap@?$SafeMap_Iterator@VStringKeyStore@@PEAVExpiredOperationIdRecord@@@@QEBAAEAV?$SafeMap@VStringKeyStore@@PEAVExpiredOperationIdRecord@@V?$SafeMap_Iterator@VStringKeyStore@@PEAVExpiredOperationIdRecord@@@@@@XZ
?GetMap@?$SafeMap_Iterator@VStringKeyStore@@PEAVServerFullDuplexChannel@@@@QEBAAEAV?$SafeMap@VStringKeyStore@@PEAVServerFullDuplexChannel@@V?$SafeMap_Iterator@VStringKeyStore@@PEAVServerFullDuplexChannel@@@@@@XZ
?GetMap@?$SafeMap_Iterator@W4WSManSessionOption@@PEAVOptionValue@SessionOptions@Client@WSMan@@@@QEBAAEAV?$SafeMap@W4WSManSessionOption@@PEAVOptionValue@SessionOptions@Client@WSMan@@V?$SafeMap_Iterator@W4WSManSessionOption@@PEAVOptionValue@SessionOptions@Client@WSMan@@@@@@XZ
?GetMap@?$SafeMap_Iterator@_KPEAVSendPacketArgs@RobustConnectionBuffer@@@@QEBAAEAV?$SafeMap@_KPEAVSendPacketArgs@RobustConnectionBuffer@@V?$SafeMap_Iterator@_KPEAVSendPacketArgs@RobustConnectionBuffer@@@@@@XZ
?GetMap@?$SafeMap_Lock@PEAVCCertMapping@@UEmpty@@V?$SafeMap_Iterator@PEAVCCertMapping@@UEmpty@@@@@@QEBAAEBV?$SafeMap@PEAVCCertMapping@@UEmpty@@V?$SafeMap_Iterator@PEAVCCertMapping@@UEmpty@@@@@@XZ
?GetMap@?$SafeMap_Lock@PEAVCListenerConnect@@PEAV1@V?$SafeMap_Iterator@PEAVCListenerConnect@@PEAV1@@@@@QEBAAEBV?$SafeMap@PEAVCListenerConnect@@PEAV1@V?$SafeMap_Iterator@PEAVCListenerConnect@@PEAV1@@@@@XZ
?GetMap@?$SafeMap_Lock@PEAVCListenerOperation@@UEmpty@@V?$SafeMap_Iterator@PEAVCListenerOperation@@UEmpty@@@@@@QEBAAEBV?$SafeMap@PEAVCListenerOperation@@UEmpty@@V?$SafeMap_Iterator@PEAVCListenerOperation@@UEmpty@@@@@@XZ
?GetMap@?$SafeMap_Lock@PEAVCListenerReceive@@PEAV1@V?$SafeMap_Iterator@PEAVCListenerReceive@@PEAV1@@@@@QEBAAEBV?$SafeMap@PEAVCListenerReceive@@PEAV1@V?$SafeMap_Iterator@PEAVCListenerReceive@@PEAV1@@@@@XZ
?GetMap@?$SafeMap_Lock@PEAVCListenerSend@@PEAV1@V?$SafeMap_Iterator@PEAVCListenerSend@@PEAV1@@@@@QEBAAEBV?$SafeMap@PEAVCListenerSend@@PEAV1@V?$SafeMap_Iterator@PEAVCListenerSend@@PEAV1@@@@@XZ
?GetMap@?$SafeMap_Lock@PEAVCListenerSignal@@PEAV1@V?$SafeMap_Iterator@PEAVCListenerSignal@@PEAV1@@@@@QEBAAEBV?$SafeMap@PEAVCListenerSignal@@PEAV1@V?$SafeMap_Iterator@PEAVCListenerSignal@@PEAV1@@@@@XZ
?GetMap@?$SafeMap_Lock@PEAVCShellUriSettings@@UEmpty@@V?$SafeMap_Iterator@PEAVCShellUriSettings@@UEmpty@@@@@@QEBAAEBV?$SafeMap@PEAVCShellUriSettings@@UEmpty@@V?$SafeMap_Iterator@PEAVCShellUriSettings@@UEmpty@@@@@@XZ
?GetMap@?$SafeMap_Lock@PEAVCollector@@UEmpty@@V?$SafeMap_Iterator@PEAVCollector@@UEmpty@@@@@@QEBAAEBV?$SafeMap@PEAVCollector@@UEmpty@@V?$SafeMap_Iterator@PEAVCollector@@UEmpty@@@@@@XZ
?GetMap@?$SafeMap_Lock@PEAVHostOperation@@UEmpty@@V?$SafeMap_Iterator@PEAVHostOperation@@UEmpty@@@@@@QEBAAEBV?$SafeMap@PEAVHostOperation@@UEmpty@@V?$SafeMap_Iterator@PEAVHostOperation@@UEmpty@@@@@@XZ
?GetMap@?$SafeMap_Lock@PEAVIOperation@@UEmpty@@V?$SafeMap_Iterator@PEAVIOperation@@UEmpty@@@@@@QEBAAEBV?$SafeMap@PEAVIOperation@@UEmpty@@V?$SafeMap_Iterator@PEAVIOperation@@UEmpty@@@@@@XZ
?GetMap@?$SafeMap_Lock@PEAVListenerSourceSubscription@@UEmpty@@V?$SafeMap_Iterator@PEAVListenerSourceSubscription@@UEmpty@@@@@@QEBAAEBV?$SafeMap@PEAVListenerSourceSubscription@@UEmpty@@V?$SafeMap_Iterator@PEAVListenerSourceSubscription@@UEmpty@@@@@@XZ
?GetMap@?$SafeMap_Lock@PEAVPushSubscription@@UEmpty@@V?$SafeMap_Iterator@PEAVPushSubscription@@UEmpty@@@@@@QEBAAEBV?$SafeMap@PEAVPushSubscription@@UEmpty@@V?$SafeMap_Iterator@PEAVPushSubscription@@UEmpty@@@@@@XZ
?GetMap@?$SafeMap_Lock@PEAXUEmpty@@V?$SafeMap_Iterator@PEAXUEmpty@@@@@@QEBAAEBV?$SafeMap@PEAXUEmpty@@V?$SafeMap_Iterator@PEAXUEmpty@@@@@@XZ
?GetMap@?$SafeMap_Lock@UPluginKey@@KV?$SafeMap_Iterator@UPluginKey@@K@@@@QEBAAEBV?$SafeMap@UPluginKey@@KV?$SafeMap_Iterator@UPluginKey@@K@@@@XZ
?GetMap@?$SafeMap_Lock@UUserKey@@PEAVBlockedRecord@@V?$SafeMap_Iterator@UUserKey@@PEAVBlockedRecord@@@@@@QEBAAEBV?$SafeMap@UUserKey@@PEAVBlockedRecord@@V?$SafeMap_Iterator@UUserKey@@PEAVBlockedRecord@@@@@@XZ
?GetMap@?$SafeMap_Lock@VCertThumbprintKey@@VCertThumbprintMappedSet@CServiceConfigSettings@@V?$SafeMap_Iterator@VCertThumbprintKey@@VCertThumbprintMappedSet@CServiceConfigSettings@@@@@@QEBAAEBV?$SafeMap@VCertThumbprintKey@@VCertThumbprintMappedSet@CServiceConfigSettings@@V?$SafeMap_Iterator@VCertThumbprintKey@@VCertThumbprintMappedSet@CServiceConfigSettings@@@@@@XZ
?GetMap@?$SafeMap_Lock@VGuidKey@@PEAVCListenerCommand@@V?$SafeMap_Iterator@VGuidKey@@PEAVCListenerCommand@@@@@@QEBAAEBV?$SafeMap@VGuidKey@@PEAVCListenerCommand@@V?$SafeMap_Iterator@VGuidKey@@PEAVCListenerCommand@@@@@@XZ
?GetMap@?$SafeMap_Lock@VKey@Locale@@KV?$SafeMap_Iterator@VKey@Locale@@K@@@@QEBAAEBV?$SafeMap@VKey@Locale@@KV?$SafeMap_Iterator@VKey@Locale@@K@@@@XZ
?GetMap@?$SafeMap_Lock@VStringKeyCI@@KV?$SafeMap_Iterator@VStringKeyCI@@K@@@@QEBAAEBV?$SafeMap@VStringKeyCI@@KV?$SafeMap_Iterator@VStringKeyCI@@K@@@@XZ
?GetMap@?$SafeMap_Lock@VStringKeyCI@@UEmpty@@V?$SafeMap_Iterator@VStringKeyCI@@UEmpty@@@@@@QEBAAEBV?$SafeMap@VStringKeyCI@@UEmpty@@V?$SafeMap_Iterator@VStringKeyCI@@UEmpty@@@@@@XZ
?GetMap@?$SafeMap_Lock@VStringKeyCI@@UUSER_CONTEXT_INFO@WSManHttpListener@@V?$SafeMap_Iterator@VStringKeyCI@@UUSER_CONTEXT_INFO@WSManHttpListener@@@@@@QEBAAEBV?$SafeMap@VStringKeyCI@@UUSER_CONTEXT_INFO@WSManHttpListener@@V?$SafeMap_Iterator@VStringKeyCI@@UUSER_CONTEXT_INFO@WSManHttpListener@@@@@@XZ
?GetMap@?$SafeMap_Lock@VStringKeyStore@@PEAVExpiredOperationIdRecord@@V?$SafeMap_Iterator@VStringKeyStore@@PEAVExpiredOperationIdRecord@@@@@@QEBAAEBV?$SafeMap@VStringKeyStore@@PEAVExpiredOperationIdRecord@@V?$SafeMap_Iterator@VStringKeyStore@@PEAVExpiredOperationIdRecord@@@@@@XZ
?GetMap@?$SafeMap_Lock@VStringKeyStore@@PEAVServerFullDuplexChannel@@V?$SafeMap_Iterator@VStringKeyStore@@PEAVServerFullDuplexChannel@@@@@@QEBAAEBV?$SafeMap@VStringKeyStore@@PEAVServerFullDuplexChannel@@V?$SafeMap_Iterator@VStringKeyStore@@PEAVServerFullDuplexChannel@@@@@@XZ
?GetMap@?$SafeMap_Lock@W4WSManSessionOption@@PEAVOptionValue@SessionOptions@Client@WSMan@@V?$SafeMap_Iterator@W4WSManSessionOption@@PEAVOptionValue@SessionOptions@Client@WSMan@@@@@@QEBAAEBV?$SafeMap@W4WSManSessionOption@@PEAVOptionValue@SessionOptions@Client@WSMan@@V?$SafeMap_Iterator@W4WSManSessionOption@@PEAVOptionValue@SessionOptions@Client@WSMan@@@@@@XZ
?GetMap@?$SafeMap_Lock@_KPEAVSendPacketArgs@RobustConnectionBuffer@@V?$SafeMap_Iterator@_KPEAVSendPacketArgs@RobustConnectionBuffer@@@@@@QEBAAEBV?$SafeMap@_KPEAVSendPacketArgs@RobustConnectionBuffer@@V?$SafeMap_Iterator@_KPEAVSendPacketArgs@RobustConnectionBuffer@@@@@@XZ
?GetMaxBatchItems@CCommonConfigSettings@@UEAAKXZ
?GetMaxBatchSize@CCommonConfigSettings@@UEAAKXZ
?GetMaxEnvelopeSize@CCommonConfigSettings@@UEAAKXZ
?GetMaxEnvelopeSize@PacketParser@@QEBAAEBV?$PacketElement@K@1@XZ
?GetMaxTimeOut@CCommonConfigSettings@@UEAAKXZ
?GetMessageAlloc@Locale@@QEBAPEBGAEAVAutoLocalFree@@KZZ
?GetMessageEmpty@Locale@@QEBAPEBGAEAVAutoLocalFree@@K@Z
?GetMessageId@CErrorContext@@UEBAKXZ
?GetMessageId@CRequestContext@@UEBAKXZ
?GetMessageId@PacketParser@@QEBAAEBV?$PacketElement@PEBG@1@XZ
?GetMessageW@Locale@@QEBA_NKPEAPEAD0PEAGK@Z
?GetMinBatchItems@CCommonConfigSettings@@UEAAKXZ
?GetMinBatchSize@CCommonConfigSettings@@UEAAKXZ
?GetMinBatchTimeout@CCommonConfigSettings@@UEAAKXZ
?GetMinEnvelopeSize@CCommonConfigSettings@@UEAAKXZ
?GetMinTimeOut@CCommonConfigSettings@@UEAAKXZ
?GetNamespacePrefix@NotUnderstandSoapHeader@PacketParser@@QEBAPEBGXZ
?GetNamespaceUrl@NotUnderstandSoapHeader@PacketParser@@QEBAPEBGXZ
?GetNewStorage@RBUFFER@@IEAAHI@Z
?GetNotUnderstandHeader@PacketParser@@QEBAAEBVNotUnderstandSoapHeader@1@XZ
?GetObjectInformation@CWSManSecurityUI@@UEAAJPEAU_SI_OBJECT_INFO@@@Z
?GetObjectW@?$ILoader@VAdminSid@CSecurity@@@@IEBAPEAVAdminSid@CSecurity@@XZ
?GetObjectW@?$ILoader@VEventHandler@WSMan@@@@IEBAPEAVEventHandler@WSMan@@XZ
?GetObjectW@?$ILoader@VInteractiveSid@CSecurity@@@@IEBAPEAVInteractiveSid@CSecurity@@XZ
?GetObjectW@?$ILoader@VIpHlpApiDllLoader@@@@IEBAPEAVIpHlpApiDllLoader@@XZ
?GetObjectW@?$ILoader@VMachineName@@@@IEBAPEAVMachineName@@XZ
?GetObjectW@?$ILoader@VNetworkServiceSid@CSecurity@@@@IEBAPEAVNetworkServiceSid@CSecurity@@XZ
?GetObjectW@?$ILoader@VNtDsApiDllLoader@@@@IEBAPEAVNtDsApiDllLoader@@XZ
?GetObjectW@?$ILoader@VResources@Locale@@@@IEBAPEAVResources@Locale@@XZ
?GetObjectW@?$ILoader@VShell32DllLoader@@@@IEBAPEAVShell32DllLoader@@XZ
?GetObjectW@?$ILoader@VShlWApiDllLoader@@@@IEBAPEAVShlWApiDllLoader@@XZ
?GetObjectW@?$ILoader@VSubscriptionManager@@@@IEBAPEAVSubscriptionManager@@XZ
?GetObjectW@?$ILoader@VUser32DllLoader@@@@IEBAPEAVUser32DllLoader@@XZ
?GetObjectW@?$ILoader@VWSManMemCryptManager@@@@IEBAPEAVWSManMemCryptManager@@XZ
?GetOperationId@PacketParser@@QEBAAEBV?$PacketElement@PEBG@1@XZ
?GetOptionCount@CWSManResourceNoResourceUri@@QEAAKXZ
?GetOptionTypes@CWSManResourceNoResourceUri@@QEAAPEAPEBGXZ
?GetOptionValue@CWSManResourceNoResourceUri@@QEAAPEBGPEBG@Z
?GetOptions@CWSManResourceNoResourceUri@@QEAAPEAU_WSMAN_OPTION@@XZ
?GetOptionsMustUnderstandValue@CWSManResourceNoResourceUri@@QEAAHXZ
?GetOptionsSetXml@PacketParser@@QEAAAEBV?$PacketElement@PEAU_FWXML_ELEMENT@@@1@XZ
?GetOriginalUri@CWSManResource@@QEAAPEBGXZ
?GetPacket@PacketParser@@QEAAPEAVPacket@@XZ
?GetPacketPool@PacketParser@@QEAAAEAVPacketPool@@XZ
?GetParser@XmlReader@@QEAAPEAXXZ
?GetPath@Fragment@PacketParser@@QEBAPEBGXZ
?GetPolicyLocation@CWSManGroupPolicyManager@@AEAAPEBGPEBU_WSMAN_POLICY_INFO@@@Z
?GetPolicyValueForConfigSetting@CConfigManager@@AEAAJW4ConfigSetting@@KPEAGPEAKPEAW4WSManGroupPolicySettingState@@PEAVIRequestContext@@@Z
?GetPolicyValueForConfigSetting@CConfigManager@@AEAAJW4ConfigSetting@@PEAKPEAW4WSManGroupPolicySettingState@@PEAVIRequestContext@@@Z
?GetProfileCount@UserRecord@@QEAAJXZ
?GetProfileHandle@UserRecord@@QEAA_JXZ
?GetPromptType@SoapSemanticConverter@@AEAA_NPEBGPEAW4_MI_PromptType@@PEAVIRequestContext@@@Z
?GetQuotaRecord@UserRecord@@QEBAPEBVQuotaRecord@@XZ
?GetRefCount@ILifeTimeMgmt@@QEAAJXZ
?GetReferenceParameters@ReferenceParameters@PacketParser@@QEBAPEBGXZ
?GetReferenceProperties@ReferenceParameters@PacketParser@@QEBAPEBGXZ
?GetRemainderPacket@PacketParser@@QEAAPEAVPacket@@PEAVIRequestContext@@@Z
?GetReplyToXml@PacketParser@@QEBAAEBVReferenceParameters@1@XZ
?GetRequestedDataLocale@PacketParser@@QEBAAEBV?$PacketElement@PEBG@1@XZ
?GetRequestedLocale@PacketParser@@QEBAAEBV?$PacketElement@PEBG@1@XZ
?GetResourceUri@PacketParser@@QEBAAEBV?$PacketElement@PEBG@1@XZ
?GetRoot@XmlReader@@QEAAPEAU_FWXML_ELEMENT@@XZ
?GetSecurity@CWSManSecurityUI@@UEAAJKPEAPEAXH@Z
?GetSecurityDescriptor@CConfigManager@@QEAAHPEAVIRequestContext@@W4ConfigSetting@@PEAPEAXPEAW4WSManConfigSource@@@Z
?GetSelectorSetXml@PacketParser@@QEAAAEBV?$PacketElement@PEAU_FWXML_ELEMENT@@@1@XZ
?GetSequenceId@PacketParser@@QEBAAEBV?$PacketElement@_K@1@XZ
?GetServiceCatalog@@YAPEAVCatalog@@XZ
?GetSessionId@PacketParser@@QEBAAEBV?$PacketElement@PEBG@1@XZ
?GetSessionIdGuid@PacketParser@@QEAAAEAU_GUID@@XZ
?GetSessionIdGuid@SessionId@PacketParser@@QEAAAEAU_GUID@@XZ
?GetSetting@CConfigManager@@QEAAHPEAVIRequestContext@@W4ConfigSetting@@KPEAGPEAKPEAW4WSManConfigSource@@@Z
?GetShellCompressionType@PacketParser@@QEBAAEBV?$PacketElement@PEBG@1@XZ
?GetSid@CSecurity@@SAPEAXXZ
?GetSizeInUse@SBUFFER@@QEBAIXZ
?GetSoapBody@PacketParser@@QEAAPEAU_FWXML_ELEMENT@@XZ
?GetSoapHeaders@PacketParser@@QEAAPEAU_FWXML_ELEMENT@@XZ
?GetSourceSubscriptionId@PacketParser@@QEBAAEBV?$PacketElement@PEBG@1@XZ
?GetSpaceUsed@BufferFormatter@@UEBAK_N@Z
?GetSpaceUsed@CircularBufferFormatter@@UEBAK_N@Z
?GetStrPtr@TSTRBUFFER@@QEAAPEAGXZ
?GetString@CConfigManager@@QEAAHPEAVIRequestContext@@W4ConfigSetting@@KPEAGPEAKPEAW4WSManConfigSource@@@Z
?GetString@CWSManGroupPolicyManager@@QEAAHPEAVIRequestContext@@W4WSManGroupPolicySetting@@KPEAGPEAKPEAW4WSManGroupPolicySettingState@@@Z
?GetString@Locale@@QEAAPEBGXZ
?GetStringInternal@CConfigManager@@AEAAHPEAVIRequestContext@@W4ConfigSetting@@KKPEAGPEAKPEAW4WSManConfigSource@@@Z
?GetStringInternal@CWSManGroupPolicyManager@@AEAAHPEAVIRequestContext@@W4WSManGroupPolicySetting@@KKPEAGPEAKPEAW4WSManGroupPolicySettingState@@@Z
?GetSubscriptionId@PacketParser@@QEBAAEBV?$PacketElement@PEBG@1@XZ
?GetSuccessCode@OnHTTPInitialize@@QEBAKXZ
?GetTimeout@PacketParser@@QEBAAEBV?$PacketElement@K@1@XZ
?GetTo@PacketParser@@QEBAAEBV?$PacketElement@PEBG@1@XZ
?GetToken@CSecurity@@SAPEAXXZ
?GetToken@UserRecord@@QEAAPEAXXZ
?GetUpdatedSDDL@CWSManSecurityUI@@QEAAPEAGPEAVIRequestContext@@@Z
?GetUri@CWSManResource@@QEAAPEBGXZ
?GetUserAdministratorType@UserRecord@@QEBA?AW4AdministratorType@UserAuthzRecord@@XZ
?GetUserNameW@UserRecord@@QEAAPEBGXZ
?GetValue@?$PacketElement@K@PacketParser@@QEBAKXZ
?GetValue@?$PacketElement@PEAU_FWXML_ELEMENT@@@PacketParser@@QEBAPEAU_FWXML_ELEMENT@@XZ
?GetValue@?$PacketElement@PEBG@PacketParser@@QEBAPEBGXZ
?GetValue@?$PacketElement@_K@PacketParser@@QEBA_KXZ
?GetWsmanData@TSTRBUFFER@@QEAAXPEAU_WSMAN_DATA@@@Z
?GetXmlDoc@PacketParser@@QEAAPEAUFWXML_DOCUMENT@@XZ
?GrowBuffer@BufferFormatter@@UEAAKK@Z
?GrowBuffer@BufferFormatter@@UEAAKXZ
?GrowBuffer@CircularBufferFormatter@@UEAAKK@Z
?GrowBuffer@CircularBufferFormatter@@UEAAKXZ
?HandleAutoConfiguredListener@CConfigManager@@QEAAHPEAVIRequestContext@@PEAVLISTENER_IDENTITY@@@Z
?HandleMigration@@YAHPEAVWSManMigrationContext@@@Z
?HasFaultXML@CRequestContext@@QEBAHXZ
?HasHtmlError@CRequestContext@@AEBAHXZ
?HasOption@CWSManResourceNoResourceUri@@QEAAHPEBG@Z
?ImpersonateUserOrSelf@CSecurity@@SAHW4CallSiteId@@PEAX@Z
?IncreaseProfileCount@UserRecord@@QEAAXXZ
?Info@EventLog@@SAXK@Z
?Info@EventLog@@SAXKGPEAPEBG@Z
?Info@EventLog@@SAXKPEBG@Z
?Init@CBaseConfigCache@@IEAAHPEAVIRequestContext@@H@Z
?Init@CWSManSecurityUI@@QEAAHPEAG0PEAVIRequestContext@@@Z
?Init@ConfigRegistry@@IEAAHXZ
?Init@XmlReader@@QEAAHPEAVIRequestContext@@PEAUWSMAN_OBJECT@@@Z
?Init@XmlReader@@QEAAHPEAVIRequestContext@@PEBG@Z
?InitCfgMgr@CConfigManager@@AEAAHPEAVWSMANCONFIGTABLE_IDENTITY@@@Z
?InitCfgMgr@CConfigManager@@AEAAHPEAVWSMANCONFIGTABLE_IDENTITY@@PEAUHKEY__@@1@Z
?InitMap@CBaseConfigCache@@CAHPEAVIRequestContext@@AEAV?$AutoRelease@VCConfigCacheMap@CBaseConfigCache@@@@@Z
?Initialize@?$SafeMap@PEAVCCertMapping@@UEmpty@@V?$SafeMap_Iterator@PEAVCCertMapping@@UEmpty@@@@@@UEAA_NAEAVIRequestContext@@@Z
?Initialize@?$SafeMap@PEAVCCertMapping@@UEmpty@@V?$SafeSet_Iterator@PEAVCCertMapping@@@@@@UEAA_NAEAVIRequestContext@@@Z
?Initialize@?$SafeMap@PEAVCListenerConnect@@PEAV1@V?$SafeMap_Iterator@PEAVCListenerConnect@@PEAV1@@@@@UEAA_NAEAVIRequestContext@@@Z
?Initialize@?$SafeMap@PEAVCListenerOperation@@UEmpty@@V?$SafeMap_Iterator@PEAVCListenerOperation@@UEmpty@@@@@@UEAA_NAEAVIRequestContext@@@Z
?Initialize@?$SafeMap@PEAVCListenerOperation@@UEmpty@@V?$SafeSet_Iterator@PEAVCListenerOperation@@@@@@UEAA_NAEAVIRequestContext@@@Z
?Initialize@?$SafeMap@PEAVCListenerReceive@@PEAV1@V?$SafeMap_Iterator@PEAVCListenerReceive@@PEAV1@@@@@UEAA_NAEAVIRequestContext@@@Z
?Initialize@?$SafeMap@PEAVCListenerSend@@PEAV1@V?$SafeMap_Iterator@PEAVCListenerSend@@PEAV1@@@@@UEAA_NAEAVIRequestContext@@@Z
?Initialize@?$SafeMap@PEAVCListenerSignal@@PEAV1@V?$SafeMap_Iterator@PEAVCListenerSignal@@PEAV1@@@@@UEAA_NAEAVIRequestContext@@@Z
?Initialize@?$SafeMap@PEAVCShellUriSettings@@UEmpty@@V?$SafeSet_Iterator@PEAVCShellUriSettings@@@@@@UEAA_NAEAVIRequestContext@@@Z
?Initialize@?$SafeMap@PEAVCollector@@UEmpty@@V?$SafeMap_Iterator@PEAVCollector@@UEmpty@@@@@@UEAA_NAEAVIRequestContext@@@Z
?Initialize@?$SafeMap@PEAVCollector@@UEmpty@@V?$SafeSet_Iterator@PEAVCollector@@@@@@UEAA_NAEAVIRequestContext@@@Z
?Initialize@?$SafeMap@PEAVHostOperation@@UEmpty@@V?$SafeMap_Iterator@PEAVHostOperation@@UEmpty@@@@@@UEAA_NAEAVIRequestContext@@@Z
?Initialize@?$SafeMap@PEAVHostOperation@@UEmpty@@V?$SafeSet_Iterator@PEAVHostOperation@@@@@@UEAA_NAEAVIRequestContext@@@Z
?Initialize@?$SafeMap@PEAVIOperation@@UEmpty@@V?$SafeMap_Iterator@PEAVIOperation@@UEmpty@@@@@@UEAA_NAEAVIRequestContext@@@Z
?Initialize@?$SafeMap@PEAVIOperation@@UEmpty@@V?$SafeSet_Iterator@PEAVIOperation@@@@@@UEAA_NAEAVIRequestContext@@@Z
?Initialize@?$SafeMap@PEAVListenerSourceSubscription@@UEmpty@@V?$SafeMap_Iterator@PEAVListenerSourceSubscription@@UEmpty@@@@@@UEAA_NAEAVIRequestContext@@@Z
?Initialize@?$SafeMap@PEAVListenerSourceSubscription@@UEmpty@@V?$SafeSet_Iterator@PEAVListenerSourceSubscription@@@@@@UEAA_NAEAVIRequestContext@@@Z
?Initialize@?$SafeMap@PEAVPushSubscription@@UEmpty@@V?$SafeMap_Iterator@PEAVPushSubscription@@UEmpty@@@@@@UEAA_NAEAVIRequestContext@@@Z
?Initialize@?$SafeMap@PEAVPushSubscription@@UEmpty@@V?$SafeSet_Iterator@PEAVPushSubscription@@@@@@UEAA_NAEAVIRequestContext@@@Z
?Initialize@?$SafeMap@PEAXUEmpty@@V?$SafeSet_Iterator@PEAX@@@@UEAA_NAEAVIRequestContext@@@Z
?Initialize@?$SafeMap@UPluginKey@@KV?$SafeMap_Iterator@UPluginKey@@K@@@@UEAA_NAEAVIRequestContext@@@Z
?Initialize@?$SafeMap@UUserKey@@PEAVBlockedRecord@@V?$SafeMap_Iterator@UUserKey@@PEAVBlockedRecord@@@@@@UEAA_NAEAVIRequestContext@@@Z
?Initialize@?$SafeMap@VCertThumbprintKey@@VCertThumbprintMappedSet@CServiceConfigSettings@@V?$SafeMap_Iterator@VCertThumbprintKey@@VCertThumbprintMappedSet@CServiceConfigSettings@@@@@@UEAA_NAEAVIRequestContext@@@Z
?Initialize@?$SafeMap@VGuidKey@@PEAVCListenerCommand@@V?$SafeMap_Iterator@VGuidKey@@PEAVCListenerCommand@@@@@@UEAA_NAEAVIRequestContext@@@Z
?Initialize@?$SafeMap@VKey@CWmiPtrCache@@VMapping@2@V?$SafeMap_Iterator@VKey@CWmiPtrCache@@VMapping@2@@@@@UEAA_NAEAVIRequestContext@@@Z
?Initialize@?$SafeMap@VKey@Locale@@KV?$SafeMap_Iterator@VKey@Locale@@K@@@@UEAA_NAEAVIRequestContext@@@Z
?Initialize@?$SafeMap@VStringKey@@PEAVListenerEvents@@V?$SafeMap_Iterator@VStringKey@@PEAVListenerEvents@@@@@@UEAA_NAEAVIRequestContext@@@Z
?Initialize@?$SafeMap@VStringKey@@PEAVListenerSourceSubscription@@V?$SafeMap_Iterator@VStringKey@@PEAVListenerSourceSubscription@@@@@@UEAA_NAEAVIRequestContext@@@Z
?Initialize@?$SafeMap@VStringKey@@UOption@WinRM_OperationOptions@@V?$SafeMap_Iterator@VStringKey@@UOption@WinRM_OperationOptions@@@@@@UEAA_NAEAVIRequestContext@@@Z
?Initialize@?$SafeMap@VStringKeyCI@@KV?$SafeMap_Iterator@VStringKeyCI@@K@@@@UEAA_NAEAVIRequestContext@@@Z
?Initialize@?$SafeMap@VStringKeyCI@@PEAVIISEndpoint@@V?$SafeMap_Iterator@VStringKeyCI@@PEAVIISEndpoint@@@@@@UEAA_NAEAVIRequestContext@@@Z
?Initialize@?$SafeMap@VStringKeyCI@@UEmpty@@V?$SafeMap_Iterator@VStringKeyCI@@UEmpty@@@@@@UEAA_NAEAVIRequestContext@@@Z
?Initialize@?$SafeMap@VStringKeyCI@@UEmpty@@V?$SafeSet_Iterator@VStringKeyCI@@@@@@UEAA_NAEAVIRequestContext@@@Z
?Initialize@?$SafeMap@VStringKeyCI@@UUSER_CONTEXT_INFO@WSManHttpListener@@V?$SafeMap_Iterator@VStringKeyCI@@UUSER_CONTEXT_INFO@WSManHttpListener@@@@@@UEAA_NAEAVIRequestContext@@@Z
?Initialize@?$SafeMap@VStringKeyStore@@PEAVExpiredOperationIdRecord@@V?$SafeMap_Iterator@VStringKeyStore@@PEAVExpiredOperationIdRecord@@@@@@UEAA_NAEAVIRequestContext@@@Z
?Initialize@?$SafeMap@VStringKeyStore@@PEAVServerFullDuplexChannel@@V?$SafeMap_Iterator@VStringKeyStore@@PEAVServerFullDuplexChannel@@@@@@UEAA_NAEAVIRequestContext@@@Z
?Initialize@?$SafeMap@VTokenCacheKey@ServiceSoapProcessor@@VTokenCacheMapping@2@V?$SafeMap_Iterator@VTokenCacheKey@ServiceSoapProcessor@@VTokenCacheMapping@2@@@@@UEAA_NAEAVIRequestContext@@@Z
?Initialize@?$SafeMap@W4WSManSessionOption@@PEAVOptionValue@SessionOptions@Client@WSMan@@V?$SafeMap_Iterator@W4WSManSessionOption@@PEAVOptionValue@SessionOptions@Client@WSMan@@@@@@UEAA_NAEAVIRequestContext@@@Z
?Initialize@?$SafeMap@_KPEAVSendPacketArgs@RobustConnectionBuffer@@V?$SafeMap_Iterator@_KPEAVSendPacketArgs@RobustConnectionBuffer@@@@@@UEAA_NAEAVIRequestContext@@@Z
?Initialize@?$SafeMap_Iterator@PEAVCCertMapping@@UEmpty@@@@QEAAAEAV1@XZ
?Initialize@?$SafeMap_Iterator@PEAVCListenerOperation@@UEmpty@@@@QEAAAEAV1@XZ
?Initialize@?$SafeMap_Iterator@PEAVCShellUriSettings@@UEmpty@@@@QEAAAEAV1@XZ
?Initialize@?$SafeMap_Iterator@VCertThumbprintKey@@VCertThumbprintMappedSet@CServiceConfigSettings@@@@QEAAAEAV1@XZ
?Initialize@?$SafeMap_Iterator@VStringKeyCI@@K@@QEAAAEAV1@XZ
?Initialize@?$SafeMap_Iterator@VStringKeyStore@@PEAVExpiredOperationIdRecord@@@@QEAAAEAV1@XZ
?Initialize@?$SafeMap_Iterator@W4WSManSessionOption@@PEAVOptionValue@SessionOptions@Client@WSMan@@@@QEAAAEAV1@XZ
?Initialize@CWSManGroupPolicyManager@@AEAAHPEAVIRequestContext@@PEBG@Z
?Initialize@EventHandler@WSMan@@QEAA_NAEAVIRequestContext@@@Z
?Initialize@UserRecord@@SAXAEAV1@AEBUInitializer@1@@Z
?InitializeSources@CBaseConfigCache@@IEAAHPEAVIRequestContext@@HH@Z
?InitializeSourcesHelper@CBaseConfigCache@@MEAAHPEAVIRequestContext@@H@Z
?InitializeSourcesHelper@CClientConfigCache@@EEAAHPEAVIRequestContext@@H@Z
?InsertAtPosition@TSTRBUFFER@@QEAAJPEBGI@Z
?InternalFailure@CErrorContext@@UEAAXKZZ
?InternalFailure@CRequestContext@@UEAAXKZZ
?InternalHResult@CErrorContext@@UEAAXKKZZ
?InternalHResult@CRequestContext@@UEAAXKKZZ
?InternalParse@CWSManEPR@@MEAAHPEAVIRequestContext@@@Z
?InternalParse@CWSManResource@@MEAAHPEAVIRequestContext@@@Z
?IsActive@ChildLifeTimeManager@@QEAA_NXZ
?IsAdmin@UserRecord@@QEBA_NXZ
?IsAutoListenerConfigurationOn@CConfigManager@@SAHPEAVIRequestContext@@PEAH@Z
?IsCIM_Error@CRequestContext@@QEAAHXZ
?IsCurrentListenerAutoConfigured@CConfigManager@@QEAAHPEAVIRequestContext@@PEAH@Z
?IsCurrentListenerCompat@CConfigManager@@QEBA_NXZ
?IsDynAlloced@RBUFFER@@IEBAHXZ
?IsEPR@CWSManEPR@@UEAAHXZ
?IsEPR@CWSManResourceNoResourceUri@@UEAAHXZ
?IsEmpty@?$ILoader@VAdminSid@CSecurity@@@@QEBA_NXZ
?IsEmpty@?$ILoader@VEventHandler@WSMan@@@@QEBA_NXZ
?IsEmpty@?$ILoader@VInteractiveSid@CSecurity@@@@QEBA_NXZ
?IsEmpty@?$ILoader@VIpHlpApiDllLoader@@@@QEBA_NXZ
?IsEmpty@?$ILoader@VMachineName@@@@QEBA_NXZ
?IsEmpty@?$ILoader@VNetworkServiceSid@CSecurity@@@@QEBA_NXZ
?IsEmpty@?$ILoader@VNtDsApiDllLoader@@@@QEBA_NXZ
?IsEmpty@?$ILoader@VResources@Locale@@@@QEBA_NXZ
?IsEmpty@?$ILoader@VShell32DllLoader@@@@QEBA_NXZ
?IsEmpty@?$ILoader@VShlWApiDllLoader@@@@QEBA_NXZ
?IsEmpty@?$ILoader@VSubscriptionManager@@@@QEBA_NXZ
?IsEmpty@?$ILoader@VUser32DllLoader@@@@QEBA_NXZ
?IsEmpty@?$ILoader@VWSManMemCryptManager@@@@QEBA_NXZ
?IsEmpty@?$SafeMap@PEAVCListenerOperation@@UEmpty@@V?$SafeSet_Iterator@PEAVCListenerOperation@@@@@@QEBA_NXZ
?IsEmpty@?$SafeMap@VStringKeyCI@@KV?$SafeMap_Iterator@VStringKeyCI@@K@@@@QEBA_NXZ
?IsEmpty@?$SafeMap@VStringKeyCI@@UEmpty@@V?$SafeSet_Iterator@VStringKeyCI@@@@@@QEBA_NXZ
?IsEvent@SoapSemanticConverter@@QEAA_NPEAU_FWXML_ELEMENT@@@Z
?IsEventEnabled@EventHandler@WSMan@@SA_NAEBU_EVENT_DESCRIPTOR@@@Z
?IsEventProviderEnabled@EventHandler@WSMan@@SA_NXZ
?IsFound@?$PacketElement@K@PacketParser@@QEBAHXZ
?IsFound@?$PacketElement@PEAU_FWXML_ELEMENT@@@PacketParser@@QEBAHXZ
?IsFound@?$PacketElement@PEBG@PacketParser@@QEBAHXZ
?IsFound@?$PacketElement@_K@PacketParser@@QEBAHXZ
?IsGeneratingError@CErrorContext@@UEBA_NXZ
?IsIdentifyPacket@PacketParser@@QEBAHXZ
?IsInCommitMode@BufferFormatter@@QEAA_NXZ
?IsInteractive@UserRecord@@QEBA_NXZ
?IsLocalSystemSid@CSecurity@@SAHPEAX@Z
?IsMustUnderstand@?$PacketElement@PEBG@PacketParser@@QEBAHXZ
?IsNonOperativePacket@PacketParser@@QEBAHXZ
?IsPolicyControlledSetting@CConfigManager@@QEAAHPEAVIRequestContext@@W4ConfigSetting@@PEAH@Z
?IsRobustConnectionPacket@PacketParser@@QEBAHXZ
?IsStreamingEvent@SoapSemanticConverter@@QEAA_NPEAU_FWXML_ELEMENT@@PEAVIRequestContext@@@Z
?IsStringNullOrEmpty@@YAHPEBG@Z
?IsValid@?$SafeMap@PEAVCListenerOperation@@UEmpty@@V?$SafeSet_Iterator@PEAVCListenerOperation@@@@@@QEBA_NXZ
?IsValid@?$SafeMap@UPluginKey@@KV?$SafeMap_Iterator@UPluginKey@@K@@@@QEBA_NXZ
?IsValid@?$SafeMap@VStringKeyCI@@KV?$SafeMap_Iterator@VStringKeyCI@@K@@@@QEBA_NXZ
?IsValid@?$SafeMap@VStringKeyCI@@UUSER_CONTEXT_INFO@WSManHttpListener@@V?$SafeMap_Iterator@VStringKeyCI@@UUSER_CONTEXT_INFO@WSManHttpListener@@@@@@QEBA_NXZ
?IsValid@?$SafeMap@VStringKeyStore@@PEAVServerFullDuplexChannel@@V?$SafeMap_Iterator@VStringKeyStore@@PEAVServerFullDuplexChannel@@@@@@QEBA_NXZ
?IsValid@?$SafeMap@W4WSManSessionOption@@PEAVOptionValue@SessionOptions@Client@WSMan@@V?$SafeMap_Iterator@W4WSManSessionOption@@PEAVOptionValue@SessionOptions@Client@WSMan@@@@@@QEBA_NXZ
?IsValid@?$SafeMap_Iterator@PEAVCCertMapping@@UEmpty@@@@QEBA_NXZ
?IsValid@?$SafeMap_Iterator@PEAVCListenerConnect@@PEAV1@@@QEBA_NXZ
?IsValid@?$SafeMap_Iterator@PEAVCListenerOperation@@UEmpty@@@@QEBA_NXZ
?IsValid@?$SafeMap_Iterator@PEAVCListenerReceive@@PEAV1@@@QEBA_NXZ
?IsValid@?$SafeMap_Iterator@PEAVCListenerSend@@PEAV1@@@QEBA_NXZ
?IsValid@?$SafeMap_Iterator@PEAVCListenerSignal@@PEAV1@@@QEBA_NXZ
?IsValid@?$SafeMap_Iterator@PEAVCShellUriSettings@@UEmpty@@@@QEBA_NXZ
?IsValid@?$SafeMap_Iterator@PEAVCollector@@UEmpty@@@@QEBA_NXZ
?IsValid@?$SafeMap_Iterator@PEAVHostOperation@@UEmpty@@@@QEBA_NXZ
?IsValid@?$SafeMap_Iterator@PEAVIOperation@@UEmpty@@@@QEBA_NXZ
?IsValid@?$SafeMap_Iterator@PEAVListenerSourceSubscription@@UEmpty@@@@QEBA_NXZ
?IsValid@?$SafeMap_Iterator@PEAVPushSubscription@@UEmpty@@@@QEBA_NXZ
?IsValid@?$SafeMap_Iterator@PEAXUEmpty@@@@QEBA_NXZ
?IsValid@?$SafeMap_Iterator@UPluginKey@@K@@QEBA_NXZ
?IsValid@?$SafeMap_Iterator@UUserKey@@PEAVBlockedRecord@@@@QEBA_NXZ
?IsValid@?$SafeMap_Iterator@VCertThumbprintKey@@VCertThumbprintMappedSet@CServiceConfigSettings@@@@QEBA_NXZ
?IsValid@?$SafeMap_Iterator@VGuidKey@@PEAVCListenerCommand@@@@QEBA_NXZ
?IsValid@?$SafeMap_Iterator@VKey@CWmiPtrCache@@VMapping@2@@@QEBA_NXZ
?IsValid@?$SafeMap_Iterator@VKey@Locale@@K@@QEBA_NXZ
?IsValid@?$SafeMap_Iterator@VStringKey@@PEAVListenerEvents@@@@QEBA_NXZ
?IsValid@?$SafeMap_Iterator@VStringKey@@PEAVListenerSourceSubscription@@@@QEBA_NXZ
?IsValid@?$SafeMap_Iterator@VStringKey@@UOption@WinRM_OperationOptions@@@@QEBA_NXZ
?IsValid@?$SafeMap_Iterator@VStringKeyCI@@K@@QEBA_NXZ
?IsValid@?$SafeMap_Iterator@VStringKeyCI@@PEAVIISEndpoint@@@@QEBA_NXZ
?IsValid@?$SafeMap_Iterator@VStringKeyCI@@UEmpty@@@@QEBA_NXZ
?IsValid@?$SafeMap_Iterator@VStringKeyCI@@UUSER_CONTEXT_INFO@WSManHttpListener@@@@QEBA_NXZ
?IsValid@?$SafeMap_Iterator@VStringKeyStore@@PEAVExpiredOperationIdRecord@@@@QEBA_NXZ
?IsValid@?$SafeMap_Iterator@VStringKeyStore@@PEAVServerFullDuplexChannel@@@@QEBA_NXZ
?IsValid@?$SafeMap_Iterator@VTokenCacheKey@ServiceSoapProcessor@@VTokenCacheMapping@2@@@QEBA_NXZ
?IsValid@?$SafeMap_Iterator@W4WSManSessionOption@@PEAVOptionValue@SessionOptions@Client@WSMan@@@@QEBA_NXZ
?IsValid@?$SafeMap_Iterator@_KPEAVSendPacketArgs@RobustConnectionBuffer@@@@QEBA_NXZ
?IsValid@CWSManCriticalSection@@QEBAHXZ
?IsValid@RBUFFER@@IEBAHXZ
?Key@?$SafeMap@VStringKeyCI@@KV?$SafeMap_Iterator@VStringKeyCI@@K@@@@QEBAPEBVStringKeyCI@@AEBV2@@Z
?Key@?$SafeMap@VStringKeyCI@@UUSER_CONTEXT_INFO@WSManHttpListener@@V?$SafeMap_Iterator@VStringKeyCI@@UUSER_CONTEXT_INFO@WSManHttpListener@@@@@@QEBAPEBVStringKeyCI@@AEBV2@@Z
?Key@?$SafeMap_Iterator@VKey@Locale@@K@@QEBAAEBV0Locale@@XZ
?Key@?$SafeMap_Iterator@VStringKeyCI@@K@@QEBAAEBVStringKeyCI@@XZ
?Key@?$SafeMap_Iterator@VStringKeyCI@@UUSER_CONTEXT_INFO@WSManHttpListener@@@@QEBAAEBVStringKeyCI@@XZ
?LogError@CBaseConfigCache@@UEAAXKK@Z
?LogErrorCode@CErrorContext@@QEAAXXZ
?LogErrorCode@CRequestContext@@QEAAXXZ
?LogErrorMessage@CRequestContext@@QEAAXXZ
?LogNotificationEvent@CWSManGroupPolicyManager@@CAXK@Z
?LogReadErrors@CBaseConfigCache@@IEAA?AW4ErrorLogging@@W4ConfigChangeSources@@@Z
?LowerBound@?$SafeMap_Iterator@VKey@Locale@@K@@QEAAXAEBVKey@Locale@@@Z
?MakeUrlBinding@@YAHKPEAGPEAKPEBG222@Z
?MakeUrlBinding@@YAPEAGPEAVIRequestContext@@PEBG111@Z
?MapGeneric@CWSManSecurityUI@@UEAAJPEBU_GUID@@PEAEPEAK@Z
?Me@?$AutoCleanup@V?$AutoDelete@D@@PEAD@@AEAAAEAV?$AutoDelete@D@@XZ
?Me@?$AutoCleanup@V?$AutoDelete@G@@PEAG@@AEAAAEAV?$AutoDelete@G@@XZ
?Me@?$AutoCleanup@V?$AutoDelete@UIPRange@CWSManIPFilter@@@@PEAUIPRange@CWSManIPFilter@@@@AEAAAEAV?$AutoDelete@UIPRange@CWSManIPFilter@@@@XZ
?Me@?$AutoCleanup@V?$AutoDelete@U_SID@@@@PEAU_SID@@@@AEAAAEAV?$AutoDelete@U_SID@@@@XZ
?Me@?$AutoCleanup@V?$AutoDelete@U_WSMAN_STREAM_ID_SET@@@@PEAU_WSMAN_STREAM_ID_SET@@@@AEAAAEAV?$AutoDelete@U_WSMAN_STREAM_ID_SET@@@@XZ
?Me@?$AutoCleanup@V?$AutoDelete@V?$Handle@VISubscription@@@@@@PEAV?$Handle@VISubscription@@@@@@AEAAAEAV?$AutoDelete@V?$Handle@VISubscription@@@@@@XZ
?Me@?$AutoCleanup@V?$AutoDelete@V?$SafeMap_Iterator@PEAVCListenerConnect@@PEAV1@@@@@PEAV?$SafeMap_Iterator@PEAVCListenerConnect@@PEAV1@@@@@AEAAAEAV?$AutoDelete@V?$SafeMap_Iterator@PEAVCListenerConnect@@PEAV1@@@@@XZ
?Me@?$AutoCleanup@V?$AutoDelete@V?$SafeMap_Iterator@PEAVCListenerReceive@@PEAV1@@@@@PEAV?$SafeMap_Iterator@PEAVCListenerReceive@@PEAV1@@@@@AEAAAEAV?$AutoDelete@V?$SafeMap_Iterator@PEAVCListenerReceive@@PEAV1@@@@@XZ
?Me@?$AutoCleanup@V?$AutoDelete@V?$SafeMap_Iterator@PEAVCListenerSend@@PEAV1@@@@@PEAV?$SafeMap_Iterator@PEAVCListenerSend@@PEAV1@@@@@AEAAAEAV?$AutoDelete@V?$SafeMap_Iterator@PEAVCListenerSend@@PEAV1@@@@@XZ
?Me@?$AutoCleanup@V?$AutoDelete@V?$SafeMap_Iterator@PEAVCListenerSignal@@PEAV1@@@@@PEAV?$SafeMap_Iterator@PEAVCListenerSignal@@PEAV1@@@@@AEAAAEAV?$AutoDelete@V?$SafeMap_Iterator@PEAVCListenerSignal@@PEAV1@@@@@XZ
?Me@?$AutoCleanup@V?$AutoDelete@V?$SafeMap_Iterator@VGuidKey@@PEAVCListenerCommand@@@@@@PEAV?$SafeMap_Iterator@VGuidKey@@PEAVCListenerCommand@@@@@@AEAAAEAV?$AutoDelete@V?$SafeMap_Iterator@VGuidKey@@PEAVCListenerCommand@@@@@@XZ
?Me@?$AutoCleanup@V?$AutoDelete@V?$SafeMap_Iterator@VStringKeyCI@@K@@@@PEAV?$SafeMap_Iterator@VStringKeyCI@@K@@@@AEAAAEAV?$AutoDelete@V?$SafeMap_Iterator@VStringKeyCI@@K@@@@XZ
?Me@?$AutoCleanup@V?$AutoDelete@V?$SafeMap_Iterator@W4WSManSessionOption@@PEAVOptionValue@SessionOptions@Client@WSMan@@@@@@PEAV?$SafeMap_Iterator@W4WSManSessionOption@@PEAVOptionValue@SessionOptions@Client@WSMan@@@@@@AEAAAEAV?$AutoDelete@V?$SafeMap_Iterator@W4WSManSessionOption@@PEAVOptionValue@SessionOptions@Client@WSMan@@@@@@XZ
?Me@?$AutoCleanup@V?$AutoDelete@V?$SafeSet@PEAVCCertMapping@@@@@@PEAV?$SafeSet@PEAVCCertMapping@@@@@@AEAAAEAV?$AutoDelete@V?$SafeSet@PEAVCCertMapping@@@@@@XZ
?Me@?$AutoCleanup@V?$AutoDelete@V?$SafeSet@PEAVCShellUriSettings@@@@@@PEAV?$SafeSet@PEAVCShellUriSettings@@@@@@AEAAAEAV?$AutoDelete@V?$SafeSet@PEAVCShellUriSettings@@@@@@XZ
?Me@?$AutoCleanup@V?$AutoDelete@V?$SafeSet_Iterator@PEAVCListenerOperation@@@@@@PEAV?$SafeSet_Iterator@PEAVCListenerOperation@@@@@@AEAAAEAV?$AutoDelete@V?$SafeSet_Iterator@PEAVCListenerOperation@@@@@@XZ
?Me@?$AutoCleanup@V?$AutoDelete@V?$SafeSet_Iterator@PEAVCollector@@@@@@PEAV?$SafeSet_Iterator@PEAVCollector@@@@@@AEAAAEAV?$AutoDelete@V?$SafeSet_Iterator@PEAVCollector@@@@@@XZ
?Me@?$AutoCleanup@V?$AutoDelete@V?$SafeSet_Iterator@PEAVHostOperation@@@@@@PEAV?$SafeSet_Iterator@PEAVHostOperation@@@@@@AEAAAEAV?$AutoDelete@V?$SafeSet_Iterator@PEAVHostOperation@@@@@@XZ
?Me@?$AutoCleanup@V?$AutoDelete@V?$SafeSet_Iterator@PEAVListenerSourceSubscription@@@@@@PEAV?$SafeSet_Iterator@PEAVListenerSourceSubscription@@@@@@AEAAAEAV?$AutoDelete@V?$SafeSet_Iterator@PEAVListenerSourceSubscription@@@@@@XZ
?Me@?$AutoCleanup@V?$AutoDelete@V?$SimpleStack@VCListenerOperation@@@@@@PEAV?$SimpleStack@VCListenerOperation@@@@@@AEAAAEAV?$AutoDelete@V?$SimpleStack@VCListenerOperation@@@@@@XZ
?Me@?$AutoCleanup@V?$AutoDelete@V?$SimpleStack@VShellHostEntry@@@@@@PEAV?$SimpleStack@VShellHostEntry@@@@@@AEAAAEAV?$AutoDelete@V?$SimpleStack@VShellHostEntry@@@@@@XZ
?Me@?$AutoCleanup@V?$AutoDelete@V?$queue@PEAU_WSMAN_PUBLISHER_EVENT_STRUCT@@V?$deque@PEAU_WSMAN_PUBLISHER_EVENT_STRUCT@@V?$transport_allocator@PEAU_WSMAN_PUBLISHER_EVENT_STRUCT@@@@@std@@@std@@@@PEAV?$queue@PEAU_WSMAN_PUBLISHER_EVENT_STRUCT@@V?$deque@PEAU_WSMAN_PUBLISHER_EVENT_STRUCT@@V?$transport_allocator@PEAU_WSMAN_PUBLISHER_EVENT_STRUCT@@@@@std@@@std@@@@AEAAAEAV?$AutoDelete@V?$queue@PEAU_WSMAN_PUBLISHER_EVENT_STRUCT@@V?$deque@PEAU_WSMAN_PUBLISHER_EVENT_STRUCT@@V?$transport_allocator@PEAU_WSMAN_PUBLISHER_EVENT_STRUCT@@@@@std@@@std@@@@XZ
?Me@?$AutoCleanup@V?$AutoDelete@V?$set@PEAVCListenerSettings@@VCListenerSettingsLessFunctor@CServiceConfigSettings@@V?$transport_allocator@PEAVCListenerSettings@@@@@std@@@@PEAV?$set@PEAVCListenerSettings@@VCListenerSettingsLessFunctor@CServiceConfigSettings@@V?$transport_allocator@PEAVCListenerSettings@@@@@std@@@@AEAAAEAV?$AutoDelete@V?$set@PEAVCListenerSettings@@VCListenerSettingsLessFunctor@CServiceConfigSettings@@V?$transport_allocator@PEAVCListenerSettings@@@@@std@@@@XZ
?Me@?$AutoCleanup@V?$AutoDelete@V?$set@Usockaddr_storage@@VSockAddrLessFunctor@CListenerSettings@@V?$transport_allocator@Usockaddr_storage@@@@@std@@@@PEAV?$set@Usockaddr_storage@@VSockAddrLessFunctor@CListenerSettings@@V?$transport_allocator@Usockaddr_storage@@@@@std@@@@AEAAAEAV?$AutoDelete@V?$set@Usockaddr_storage@@VSockAddrLessFunctor@CListenerSettings@@V?$transport_allocator@Usockaddr_storage@@@@@std@@@@XZ
?Me@?$AutoCleanup@V?$AutoDelete@V?$vector@PEAVCWSManRequest@@V?$transport_allocator@PEAVCWSManRequest@@@@@std@@@@PEAV?$vector@PEAVCWSManRequest@@V?$transport_allocator@PEAVCWSManRequest@@@@@std@@@@AEAAAEAV?$AutoDelete@V?$vector@PEAVCWSManRequest@@V?$transport_allocator@PEAVCWSManRequest@@@@@std@@@@XZ
?Me@?$AutoCleanup@V?$AutoDelete@V?$vector@PEAVHandleImpl@Client@WSMan@@V?$transport_allocator@PEAVHandleImpl@Client@WSMan@@@@@std@@@@PEAV?$vector@PEAVHandleImpl@Client@WSMan@@V?$transport_allocator@PEAVHandleImpl@Client@WSMan@@@@@std@@@@AEAAAEAV?$AutoDelete@V?$vector@PEAVHandleImpl@Client@WSMan@@V?$transport_allocator@PEAVHandleImpl@Client@WSMan@@@@@std@@@@XZ
?Me@?$AutoCleanup@V?$AutoDelete@V?$vector@PEAVIServiceConfigObserver@@V?$transport_allocator@PEAVIServiceConfigObserver@@@@@std@@@@PEAV?$vector@PEAVIServiceConfigObserver@@V?$transport_allocator@PEAVIServiceConfigObserver@@@@@std@@@@AEAAAEAV?$AutoDelete@V?$vector@PEAVIServiceConfigObserver@@V?$transport_allocator@PEAVIServiceConfigObserver@@@@@std@@@@XZ
?Me@?$AutoCleanup@V?$AutoDelete@V?$vector@PEAVWSManHttpSenderConnection@@V?$transport_allocator@PEAVWSManHttpSenderConnection@@@@@std@@@@PEAV?$vector@PEAVWSManHttpSenderConnection@@V?$transport_allocator@PEAVWSManHttpSenderConnection@@@@@std@@@@AEAAAEAV?$AutoDelete@V?$vector@PEAVWSManHttpSenderConnection@@V?$transport_allocator@PEAVWSManHttpSenderConnection@@@@@std@@@@XZ
?Me@?$AutoCleanup@V?$AutoDelete@VAdminSid@CSecurity@@@@PEAVAdminSid@CSecurity@@@@AEAAAEAV?$AutoDelete@VAdminSid@CSecurity@@@@XZ
?Me@?$AutoCleanup@V?$AutoDelete@VBlockedRecord@@@@PEAVBlockedRecord@@@@AEAAAEAV?$AutoDelete@VBlockedRecord@@@@XZ
?Me@?$AutoCleanup@V?$AutoDelete@VCBaseConfigCache@@@@PEAVCBaseConfigCache@@@@AEAAAEAV?$AutoDelete@VCBaseConfigCache@@@@XZ
?Me@?$AutoCleanup@V?$AutoDelete@VCCertMapping@@@@PEAVCCertMapping@@@@AEAAAEAV?$AutoDelete@VCCertMapping@@@@XZ
?Me@?$AutoCleanup@V?$AutoDelete@VCConfigChangeSource@@@@PEAVCConfigChangeSource@@@@AEAAAEAV?$AutoDelete@VCConfigChangeSource@@@@XZ
?Me@?$AutoCleanup@V?$AutoDelete@VCListenerSettings@@@@PEAVCListenerSettings@@@@AEAAAEAV?$AutoDelete@VCListenerSettings@@@@XZ
?Me@?$AutoCleanup@V?$AutoDelete@VCObserverConfigChangeErrors@@@@PEAVCObserverConfigChangeErrors@@@@AEAAAEAV?$AutoDelete@VCObserverConfigChangeErrors@@@@XZ
?Me@?$AutoCleanup@V?$AutoDelete@VCServiceWatcher@CServiceConfigCache@@@@PEAVCServiceWatcher@CServiceConfigCache@@@@AEAAAEAV?$AutoDelete@VCServiceWatcher@CServiceConfigCache@@@@XZ
?Me@?$AutoCleanup@V?$AutoDelete@VCShellUriSettings@@@@PEAVCShellUriSettings@@@@AEAAAEAV?$AutoDelete@VCShellUriSettings@@@@XZ
?Me@?$AutoCleanup@V?$AutoDelete@VCWSManEPR@@@@PEAVCWSManEPR@@@@AEAAAEAV?$AutoDelete@VCWSManEPR@@@@XZ
?Me@?$AutoCleanup@V?$AutoDelete@VCWSManResource@@@@PEAVCWSManResource@@@@AEAAAEAV?$AutoDelete@VCWSManResource@@@@XZ
?Me@?$AutoCleanup@V?$AutoDelete@VCertHash@@@@PEAVCertHash@@@@AEAAAEAV?$AutoDelete@VCertHash@@@@XZ
?Me@?$AutoCleanup@V?$AutoDelete@VConfigUpdate@@@@PEAVConfigUpdate@@@@AEAAAEAV?$AutoDelete@VConfigUpdate@@@@XZ
?Me@?$AutoCleanup@V?$AutoDelete@VEnumSinkEx@@@@PEAVEnumSinkEx@@@@AEAAAEAV?$AutoDelete@VEnumSinkEx@@@@XZ
?Me@?$AutoCleanup@V?$AutoDelete@VEventHandler@WSMan@@@@PEAVEventHandler@WSMan@@@@AEAAAEAV?$AutoDelete@VEventHandler@WSMan@@@@XZ
?Me@?$AutoCleanup@V?$AutoDelete@VExpiredOperationIdRecord@@@@PEAVExpiredOperationIdRecord@@@@AEAAAEAV?$AutoDelete@VExpiredOperationIdRecord@@@@XZ
?Me@?$AutoCleanup@V?$AutoDelete@VGPApiManager@@@@PEAVGPApiManager@@@@AEAAAEAV?$AutoDelete@VGPApiManager@@@@XZ
?Me@?$AutoCleanup@V?$AutoDelete@VGeneralSinkEx@@@@PEAVGeneralSinkEx@@@@AEAAAEAV?$AutoDelete@VGeneralSinkEx@@@@XZ
?Me@?$AutoCleanup@V?$AutoDelete@VIChannelObserverFactory@@@@PEAVIChannelObserverFactory@@@@AEAAAEAV?$AutoDelete@VIChannelObserverFactory@@@@XZ
?Me@?$AutoCleanup@V?$AutoDelete@VIQueryDASHSMASHInterface@@@@PEAVIQueryDASHSMASHInterface@@@@AEAAAEAV?$AutoDelete@VIQueryDASHSMASHInterface@@@@XZ
?Me@?$AutoCleanup@V?$AutoDelete@VISpecification@@@@PEAVISpecification@@@@AEAAAEAV?$AutoDelete@VISpecification@@@@XZ
?Me@?$AutoCleanup@V?$AutoDelete@VInteractiveSid@CSecurity@@@@PEAVInteractiveSid@CSecurity@@@@AEAAAEAV?$AutoDelete@VInteractiveSid@CSecurity@@@@XZ
?Me@?$AutoCleanup@V?$AutoDelete@VIpHlpApiDllLoader@@@@PEAVIpHlpApiDllLoader@@@@AEAAAEAV?$AutoDelete@VIpHlpApiDllLoader@@@@XZ
?Me@?$AutoCleanup@V?$AutoDelete@VMachineName@@@@PEAVMachineName@@@@AEAAAEAV?$AutoDelete@VMachineName@@@@XZ
?Me@?$AutoCleanup@V?$AutoDelete@VMasterReceiveData@CListenerReceive@@@@PEAVMasterReceiveData@CListenerReceive@@@@AEAAAEAV?$AutoDelete@VMasterReceiveData@CListenerReceive@@@@XZ
?Me@?$AutoCleanup@V?$AutoDelete@VNetworkServiceSid@CSecurity@@@@PEAVNetworkServiceSid@CSecurity@@@@AEAAAEAV?$AutoDelete@VNetworkServiceSid@CSecurity@@@@XZ
?Me@?$AutoCleanup@V?$AutoDelete@VNtDsApiDllLoader@@@@PEAVNtDsApiDllLoader@@@@AEAAAEAV?$AutoDelete@VNtDsApiDllLoader@@@@XZ
?Me@?$AutoCleanup@V?$AutoDelete@VOptionValue@SessionOptions@Client@WSMan@@@@PEAVOptionValue@SessionOptions@Client@WSMan@@@@AEAAAEAV?$AutoDelete@VOptionValue@SessionOptions@Client@WSMan@@@@XZ
?Me@?$AutoCleanup@V?$AutoDelete@VPacketCreator@@@@PEAVPacketCreator@@@@AEAAAEAV?$AutoDelete@VPacketCreator@@@@XZ
?Me@?$AutoCleanup@V?$AutoDelete@VPacketParser@@@@PEAVPacketParser@@@@AEAAAEAV?$AutoDelete@VPacketParser@@@@XZ
?Me@?$AutoCleanup@V?$AutoDelete@VResources@Locale@@@@PEAVResources@Locale@@@@AEAAAEAV?$AutoDelete@VResources@Locale@@@@XZ
?Me@?$AutoCleanup@V?$AutoDelete@VRunAsConfiguration@@@@PEAVRunAsConfiguration@@@@AEAAAEAV?$AutoDelete@VRunAsConfiguration@@@@XZ
?Me@?$AutoCleanup@V?$AutoDelete@VSecurityEntry@Catalog@@@@PEAVSecurityEntry@Catalog@@@@AEAAAEAV?$AutoDelete@VSecurityEntry@Catalog@@@@XZ
?Me@?$AutoCleanup@V?$AutoDelete@VSendPacketArgs@RobustConnectionBuffer@@@@PEAVSendPacketArgs@RobustConnectionBuffer@@@@AEAAAEAV?$AutoDelete@VSendPacketArgs@RobustConnectionBuffer@@@@XZ
?Me@?$AutoCleanup@V?$AutoDelete@VServiceSoapProcessor@@@@PEAVServiceSoapProcessor@@@@AEAAAEAV?$AutoDelete@VServiceSoapProcessor@@@@XZ
?Me@?$AutoCleanup@V?$AutoDelete@VShell32DllLoader@@@@PEAVShell32DllLoader@@@@AEAAAEAV?$AutoDelete@VShell32DllLoader@@@@XZ
?Me@?$AutoCleanup@V?$AutoDelete@VShlWApiDllLoader@@@@PEAVShlWApiDllLoader@@@@AEAAAEAV?$AutoDelete@VShlWApiDllLoader@@@@XZ
?Me@?$AutoCleanup@V?$AutoDelete@VSubscriptionEnumerator@@@@PEAVSubscriptionEnumerator@@@@AEAAAEAV?$AutoDelete@VSubscriptionEnumerator@@@@XZ
?Me@?$AutoCleanup@V?$AutoDelete@VSubscriptionManager@@@@PEAVSubscriptionManager@@@@AEAAAEAV?$AutoDelete@VSubscriptionManager@@@@XZ
?Me@?$AutoCleanup@V?$AutoDelete@VTSTRBUFFER@@@@PEAVTSTRBUFFER@@@@AEAAAEAV?$AutoDelete@VTSTRBUFFER@@@@XZ
?Me@?$AutoCleanup@V?$AutoDelete@VUniqueStringOverflow@@@@PEAVUniqueStringOverflow@@@@AEAAAEAV?$AutoDelete@VUniqueStringOverflow@@@@XZ
?Me@?$AutoCleanup@V?$AutoDelete@VUser32DllLoader@@@@PEAVUser32DllLoader@@@@AEAAAEAV?$AutoDelete@VUser32DllLoader@@@@XZ
?Me@?$AutoCleanup@V?$AutoDelete@VWSMANCONFIGTABLE_IDENTITY@@@@PEAVWSMANCONFIGTABLE_IDENTITY@@@@AEAAAEAV?$AutoDelete@VWSMANCONFIGTABLE_IDENTITY@@@@XZ
?Me@?$AutoCleanup@V?$AutoDelete@VWSManMemCryptManager@@@@PEAVWSManMemCryptManager@@@@AEAAAEAV?$AutoDelete@VWSManMemCryptManager@@@@XZ
?Me@?$AutoCleanup@V?$AutoDelete@VWmiEnumContext@@@@PEAVWmiEnumContext@@@@AEAAAEAV?$AutoDelete@VWmiEnumContext@@@@XZ
?Me@?$AutoCleanup@V?$AutoDelete@VXmlReader@@@@PEAVXmlReader@@@@AEAAAEAV?$AutoDelete@VXmlReader@@@@XZ
?Me@?$AutoCleanup@V?$AutoDeleteVector@$$CBG@@PEBG@@AEAAAEAV?$AutoDeleteVector@$$CBG@@XZ
?Me@?$AutoCleanup@V?$AutoDeleteVector@D@@PEAD@@AEAAAEAV?$AutoDeleteVector@D@@XZ
?Me@?$AutoCleanup@V?$AutoDeleteVector@E@@PEAE@@AEAAAEAV?$AutoDeleteVector@E@@XZ
?Me@?$AutoCleanup@V?$AutoDeleteVector@G@@PEAG@@AEAAAEAV?$AutoDeleteVector@G@@XZ
?Me@?$AutoCleanup@V?$AutoDeleteVector@H@@PEAH@@AEAAAEAV?$AutoDeleteVector@H@@XZ
?Me@?$AutoCleanup@V?$AutoDeleteVector@PEAG@@PEAPEAG@@AEAAAEAV?$AutoDeleteVector@PEAG@@XZ
?Me@?$AutoCleanup@V?$AutoDeleteVector@PEBG@@PEAPEBG@@AEAAAEAV?$AutoDeleteVector@PEBG@@XZ
?Me@?$AutoCleanup@V?$AutoDeleteVector@U_CONFIG_UPDATE@@@@PEAU_CONFIG_UPDATE@@@@AEAAAEAV?$AutoDeleteVector@U_CONFIG_UPDATE@@@@XZ
?Me@?$AutoCleanup@V?$AutoDeleteVector@U_WINRS_CREATE_SHELL_ENVIRONMENT_VARIABLE@@@@PEAU_WINRS_CREATE_SHELL_ENVIRONMENT_VARIABLE@@@@AEAAAEAV?$AutoDeleteVector@U_WINRS_CREATE_SHELL_ENVIRONMENT_VARIABLE@@@@XZ
?Me@?$AutoCleanup@V?$AutoDeleteVector@U_WINRS_RUN_COMMAND_ARG@@@@PEAU_WINRS_RUN_COMMAND_ARG@@@@AEAAAEAV?$AutoDeleteVector@U_WINRS_RUN_COMMAND_ARG@@@@XZ
?Me@?$AutoCleanup@V?$AutoDeleteVector@U_WSMAN_OPTION@@@@PEAU_WSMAN_OPTION@@@@AEAAAEAV?$AutoDeleteVector@U_WSMAN_OPTION@@@@XZ
?Me@?$AutoCleanup@V?$AutoDeleteVector@X@@PEAX@@AEAAAEAV?$AutoDeleteVector@X@@XZ
?Me@?$AutoCleanup@V?$AutoFree@E@@PEAE@@AEAAAEAV?$AutoFree@E@@XZ
?Me@?$AutoCleanup@V?$AutoLocklessItemRecycle@VPacket@@@@PEAVPacket@@@@AEAAAEAV?$AutoLocklessItemRecycle@VPacket@@@@XZ
?Me@?$AutoCleanup@V?$AutoRelease@UIAppHostAdminManager@@@@PEAUIAppHostAdminManager@@@@AEAAAEAV?$AutoRelease@UIAppHostAdminManager@@@@XZ
?Me@?$AutoCleanup@V?$AutoRelease@UIAppHostChildElementCollection@@@@PEAUIAppHostChildElementCollection@@@@AEAAAEAV?$AutoRelease@UIAppHostChildElementCollection@@@@XZ
?Me@?$AutoCleanup@V?$AutoRelease@UIAppHostConfigException@@@@PEAUIAppHostConfigException@@@@AEAAAEAV?$AutoRelease@UIAppHostConfigException@@@@XZ
?Me@?$AutoCleanup@V?$AutoRelease@UIAppHostElement@@@@PEAUIAppHostElement@@@@AEAAAEAV?$AutoRelease@UIAppHostElement@@@@XZ
?Me@?$AutoCleanup@V?$AutoRelease@UIAppHostElementCollection@@@@PEAUIAppHostElementCollection@@@@AEAAAEAV?$AutoRelease@UIAppHostElementCollection@@@@XZ
?Me@?$AutoCleanup@V?$AutoRelease@UIAppHostProperty@@@@PEAUIAppHostProperty@@@@AEAAAEAV?$AutoRelease@UIAppHostProperty@@@@XZ
?Me@?$AutoCleanup@V?$AutoRelease@UIAppHostPropertyCollection@@@@PEAUIAppHostPropertyCollection@@@@AEAAAEAV?$AutoRelease@UIAppHostPropertyCollection@@@@XZ
?Me@?$AutoCleanup@V?$AutoRelease@UIClientSecurity@@@@PEAUIClientSecurity@@@@AEAAAEAV?$AutoRelease@UIClientSecurity@@@@XZ
?Me@?$AutoCleanup@V?$AutoRelease@UIEnumWbemClassObject@@@@PEAUIEnumWbemClassObject@@@@AEAAAEAV?$AutoRelease@UIEnumWbemClassObject@@@@XZ
?Me@?$AutoCleanup@V?$AutoRelease@UIErrorInfo@@@@PEAUIErrorInfo@@@@AEAAAEAV?$AutoRelease@UIErrorInfo@@@@XZ
?Me@?$AutoCleanup@V?$AutoRelease@UIUnknown@@@@PEAUIUnknown@@@@AEAAAEAV?$AutoRelease@UIUnknown@@@@XZ
?Me@?$AutoCleanup@V?$AutoRelease@UIWbemClassObject@@@@PEAUIWbemClassObject@@@@AEAAAEAV?$AutoRelease@UIWbemClassObject@@@@XZ
?Me@?$AutoCleanup@V?$AutoRelease@UIWbemContext@@@@PEAUIWbemContext@@@@AEAAAEAV?$AutoRelease@UIWbemContext@@@@XZ
?Me@?$AutoCleanup@V?$AutoRelease@UIWbemLocator@@@@PEAUIWbemLocator@@@@AEAAAEAV?$AutoRelease@UIWbemLocator@@@@XZ
?Me@?$AutoCleanup@V?$AutoRelease@UIWbemObjectTextSrc@@@@PEAUIWbemObjectTextSrc@@@@AEAAAEAV?$AutoRelease@UIWbemObjectTextSrc@@@@XZ
?Me@?$AutoCleanup@V?$AutoRelease@UIWbemPath@@@@PEAUIWbemPath@@@@AEAAAEAV?$AutoRelease@UIWbemPath@@@@XZ
?Me@?$AutoCleanup@V?$AutoRelease@UIWbemPathKeyList@@@@PEAUIWbemPathKeyList@@@@AEAAAEAV?$AutoRelease@UIWbemPathKeyList@@@@XZ
?Me@?$AutoCleanup@V?$AutoRelease@UIWbemQualifierSet@@@@PEAUIWbemQualifierSet@@@@AEAAAEAV?$AutoRelease@UIWbemQualifierSet@@@@XZ
?Me@?$AutoCleanup@V?$AutoRelease@UIWbemQuery@@@@PEAUIWbemQuery@@@@AEAAAEAV?$AutoRelease@UIWbemQuery@@@@XZ
?Me@?$AutoCleanup@V?$AutoRelease@UIWbemServices@@@@PEAUIWbemServices@@@@AEAAAEAV?$AutoRelease@UIWbemServices@@@@XZ
?Me@?$AutoCleanup@V?$AutoRelease@VApplication@Client@WSMan@@@@PEAVApplication@Client@WSMan@@@@AEAAAEAV?$AutoRelease@VApplication@Client@WSMan@@@@XZ
?Me@?$AutoCleanup@V?$AutoRelease@VCBaseConfigCache@@@@PEAVCBaseConfigCache@@@@AEAAAEAV?$AutoRelease@VCBaseConfigCache@@@@XZ
?Me@?$AutoCleanup@V?$AutoRelease@VCClientConfigCache@@@@PEAVCClientConfigCache@@@@AEAAAEAV?$AutoRelease@VCClientConfigCache@@@@XZ
?Me@?$AutoCleanup@V?$AutoRelease@VCClientConfigSettings@@@@PEAVCClientConfigSettings@@@@AEAAAEAV?$AutoRelease@VCClientConfigSettings@@@@XZ
?Me@?$AutoCleanup@V?$AutoRelease@VCCommonConfigSettings@@@@PEAVCCommonConfigSettings@@@@AEAAAEAV?$AutoRelease@VCCommonConfigSettings@@@@XZ
?Me@?$AutoCleanup@V?$AutoRelease@VCConfigCacheMap@CBaseConfigCache@@@@PEAVCConfigCacheMap@CBaseConfigCache@@@@AEAAAEAV?$AutoRelease@VCConfigCacheMap@CBaseConfigCache@@@@XZ
?Me@?$AutoCleanup@V?$AutoRelease@VCConfigManager@@@@PEAVCConfigManager@@@@AEAAAEAV?$AutoRelease@VCConfigManager@@@@XZ
?Me@?$AutoCleanup@V?$AutoRelease@VCListenerCommand@@@@PEAVCListenerCommand@@@@AEAAAEAV?$AutoRelease@VCListenerCommand@@@@XZ
?Me@?$AutoCleanup@V?$AutoRelease@VCListenerMasterOperation@@@@PEAVCListenerMasterOperation@@@@AEAAAEAV?$AutoRelease@VCListenerMasterOperation@@@@XZ
?Me@?$AutoCleanup@V?$AutoRelease@VCListenerReceive@@@@PEAVCListenerReceive@@@@AEAAAEAV?$AutoRelease@VCListenerReceive@@@@XZ
?Me@?$AutoCleanup@V?$AutoRelease@VCListenerShell@@@@PEAVCListenerShell@@@@AEAAAEAV?$AutoRelease@VCListenerShell@@@@XZ
?Me@?$AutoCleanup@V?$AutoRelease@VCRemoteOperation@@@@PEAVCRemoteOperation@@@@AEAAAEAV?$AutoRelease@VCRemoteOperation@@@@XZ
?Me@?$AutoCleanup@V?$AutoRelease@VCRemoteSession@@@@PEAVCRemoteSession@@@@AEAAAEAV?$AutoRelease@VCRemoteSession@@@@XZ
?Me@?$AutoCleanup@V?$AutoRelease@VCRequestContext@@@@PEAVCRequestContext@@@@AEAAAEAV?$AutoRelease@VCRequestContext@@@@XZ
?Me@?$AutoCleanup@V?$AutoRelease@VCServiceCommonConfigSettings@@@@PEAVCServiceCommonConfigSettings@@@@AEAAAEAV?$AutoRelease@VCServiceCommonConfigSettings@@@@XZ
?Me@?$AutoCleanup@V?$AutoRelease@VCServiceConfigCache@@@@PEAVCServiceConfigCache@@@@AEAAAEAV?$AutoRelease@VCServiceConfigCache@@@@XZ
?Me@?$AutoCleanup@V?$AutoRelease@VCServiceConfigSettings@@@@PEAVCServiceConfigSettings@@@@AEAAAEAV?$AutoRelease@VCServiceConfigSettings@@@@XZ
?Me@?$AutoCleanup@V?$AutoRelease@VCWSManEPR@@@@PEAVCWSManEPR@@@@AEAAAEAV?$AutoRelease@VCWSManEPR@@@@XZ
?Me@?$AutoCleanup@V?$AutoRelease@VCWSManGroupPolicyCache@@@@PEAVCWSManGroupPolicyCache@@@@AEAAAEAV?$AutoRelease@VCWSManGroupPolicyCache@@@@XZ
?Me@?$AutoCleanup@V?$AutoRelease@VCWSManGroupPolicyManager@@@@PEAVCWSManGroupPolicyManager@@@@AEAAAEAV?$AutoRelease@VCWSManGroupPolicyManager@@@@XZ
?Me@?$AutoCleanup@V?$AutoRelease@VCWSManObject@@@@PEAVCWSManObject@@@@AEAAAEAV?$AutoRelease@VCWSManObject@@@@XZ
?Me@?$AutoCleanup@V?$AutoRelease@VCWSManResource@@@@PEAVCWSManResource@@@@AEAAAEAV?$AutoRelease@VCWSManResource@@@@XZ
?Me@?$AutoCleanup@V?$AutoRelease@VCWSManSession@@@@PEAVCWSManSession@@@@AEAAAEAV?$AutoRelease@VCWSManSession@@@@XZ
?Me@?$AutoCleanup@V?$AutoRelease@VCWinRSPluginConfigCache@@@@PEAVCWinRSPluginConfigCache@@@@AEAAAEAV?$AutoRelease@VCWinRSPluginConfigCache@@@@XZ
?Me@?$AutoCleanup@V?$AutoRelease@VCWinRSPluginConfigSettings@@@@PEAVCWinRSPluginConfigSettings@@@@AEAAAEAV?$AutoRelease@VCWinRSPluginConfigSettings@@@@XZ
?Me@?$AutoCleanup@V?$AutoRelease@VCommand@Client@WSMan@@@@PEAVCommand@Client@WSMan@@@@AEAAAEAV?$AutoRelease@VCommand@Client@WSMan@@@@XZ
?Me@?$AutoCleanup@V?$AutoRelease@VConfigNotification@@@@PEAVConfigNotification@@@@AEAAAEAV?$AutoRelease@VConfigNotification@@@@XZ
?Me@?$AutoCleanup@V?$AutoRelease@VConnectShellOperation@Client@WSMan@@@@PEAVConnectShellOperation@Client@WSMan@@@@AEAAAEAV?$AutoRelease@VConnectShellOperation@Client@WSMan@@@@XZ
?Me@?$AutoCleanup@V?$AutoRelease@VCreateShellOperation@Client@WSMan@@@@PEAVCreateShellOperation@Client@WSMan@@@@AEAAAEAV?$AutoRelease@VCreateShellOperation@Client@WSMan@@@@XZ
?Me@?$AutoCleanup@V?$AutoRelease@VDeleteShellOperation@Client@WSMan@@@@PEAVDeleteShellOperation@Client@WSMan@@@@AEAAAEAV?$AutoRelease@VDeleteShellOperation@Client@WSMan@@@@XZ
?Me@?$AutoCleanup@V?$AutoRelease@VDisconnectOperation@Client@WSMan@@@@PEAVDisconnectOperation@Client@WSMan@@@@AEAAAEAV?$AutoRelease@VDisconnectOperation@Client@WSMan@@@@XZ
?Me@?$AutoCleanup@V?$AutoRelease@VEnumSinkEx@@@@PEAVEnumSinkEx@@@@AEAAAEAV?$AutoRelease@VEnumSinkEx@@@@XZ
?Me@?$AutoCleanup@V?$AutoRelease@VGeneralSinkEx@@@@PEAVGeneralSinkEx@@@@AEAAAEAV?$AutoRelease@VGeneralSinkEx@@@@XZ
?Me@?$AutoCleanup@V?$AutoRelease@VHostMappingTable@@@@PEAVHostMappingTable@@@@AEAAAEAV?$AutoRelease@VHostMappingTable@@@@XZ
?Me@?$AutoCleanup@V?$AutoRelease@VIISConfigSettings@@@@PEAVIISConfigSettings@@@@AEAAAEAV?$AutoRelease@VIISConfigSettings@@@@XZ
?Me@?$AutoCleanup@V?$AutoRelease@VIPCSoapProcessor@@@@PEAVIPCSoapProcessor@@@@AEAAAEAV?$AutoRelease@VIPCSoapProcessor@@@@XZ
?Me@?$AutoCleanup@V?$AutoRelease@VIRequestContext@@@@PEAVIRequestContext@@@@AEAAAEAV?$AutoRelease@VIRequestContext@@@@XZ
?Me@?$AutoCleanup@V?$AutoRelease@VISubscription@@@@PEAVISubscription@@@@AEAAAEAV?$AutoRelease@VISubscription@@@@XZ
?Me@?$AutoCleanup@V?$AutoRelease@VInboundRequestDetails@@@@PEAVInboundRequestDetails@@@@AEAAAEAV?$AutoRelease@VInboundRequestDetails@@@@XZ
?Me@?$AutoCleanup@V?$AutoRelease@VProxyManager@Client@WSMan@@@@PEAVProxyManager@Client@WSMan@@@@AEAAAEAV?$AutoRelease@VProxyManager@Client@WSMan@@@@XZ
?Me@?$AutoCleanup@V?$AutoRelease@VProxySelection@Client@WSMan@@@@PEAVProxySelection@Client@WSMan@@@@AEAAAEAV?$AutoRelease@VProxySelection@Client@WSMan@@@@XZ
?Me@?$AutoCleanup@V?$AutoRelease@VPushSubscribeOperation@@@@PEAVPushSubscribeOperation@@@@AEAAAEAV?$AutoRelease@VPushSubscribeOperation@@@@XZ
?Me@?$AutoCleanup@V?$AutoRelease@VPushSubscription@@@@PEAVPushSubscription@@@@AEAAAEAV?$AutoRelease@VPushSubscription@@@@XZ
?Me@?$AutoCleanup@V?$AutoRelease@VReceiveOperation@Client@WSMan@@@@PEAVReceiveOperation@Client@WSMan@@@@AEAAAEAV?$AutoRelease@VReceiveOperation@Client@WSMan@@@@XZ
?Me@?$AutoCleanup@V?$AutoRelease@VReconnectOperation@Client@WSMan@@@@PEAVReconnectOperation@Client@WSMan@@@@AEAAAEAV?$AutoRelease@VReconnectOperation@Client@WSMan@@@@XZ
?Me@?$AutoCleanup@V?$AutoRelease@VSendOperation@Client@WSMan@@@@PEAVSendOperation@Client@WSMan@@@@AEAAAEAV?$AutoRelease@VSendOperation@Client@WSMan@@@@XZ
?Me@?$AutoCleanup@V?$AutoRelease@VShell@Client@WSMan@@@@PEAVShell@Client@WSMan@@@@AEAAAEAV?$AutoRelease@VShell@Client@WSMan@@@@XZ
?Me@?$AutoCleanup@V?$AutoRelease@VShellInfo@@@@PEAVShellInfo@@@@AEAAAEAV?$AutoRelease@VShellInfo@@@@XZ
?Me@?$AutoCleanup@V?$AutoRelease@VSignalOperation@Client@WSMan@@@@PEAVSignalOperation@Client@WSMan@@@@AEAAAEAV?$AutoRelease@VSignalOperation@Client@WSMan@@@@XZ
?Me@?$AutoCleanup@V?$AutoRelease@VUserRecord@@@@PEAVUserRecord@@@@AEAAAEAV?$AutoRelease@VUserRecord@@@@XZ
?Me@?$AutoCleanup@V?$AutoRelease@VWSManHttpListener@@@@PEAVWSManHttpListener@@@@AEAAAEAV?$AutoRelease@VWSManHttpListener@@@@XZ
?Me@?$AutoCleanup@V?$AutoReleaseEx@VHostMappingTableEntry@@@@PEAVHostMappingTableEntry@@@@AEAAAEAV?$AutoReleaseEx@VHostMappingTableEntry@@@@XZ
?Me@?$AutoCleanup@V?$AutoReleaseEx@VShell@Client@WSMan@@@@PEAVShell@Client@WSMan@@@@AEAAAEAV?$AutoReleaseEx@VShell@Client@WSMan@@@@XZ
?Me@?$AutoCleanup@VAutoBstr@@PEAG@@AEAAAEAVAutoBstr@@XZ
?Me@?$AutoCleanup@VAutoBstrNoAlloc@@PEAG@@AEAAAEAVAutoBstrNoAlloc@@XZ
?Me@?$AutoCleanup@VAutoCertContext@@PEBU_CERT_CONTEXT@@@@AEAAAEAVAutoCertContext@@XZ
?Me@?$AutoCleanup@VAutoChainContext@@PEBU_CERT_CHAIN_CONTEXT@@@@AEAAAEAVAutoChainContext@@XZ
?Me@?$AutoCleanup@VAutoCoTaskMemFree@@PEAX@@AEAAAEAVAutoCoTaskMemFree@@XZ
?Me@?$AutoCleanup@VAutoFwXmlCloseParser@@PEAX@@AEAAAEAVAutoFwXmlCloseParser@@XZ
?Me@?$AutoCleanup@VAutoHandle@@PEAX@@AEAAAEAVAutoHandle@@XZ
?Me@?$AutoCleanup@VAutoImpersonateUser@@PEAX@@AEAAAEAVAutoImpersonateUser@@XZ
?Me@?$AutoCleanup@VAutoLibrary@@PEAUHINSTANCE__@@@@AEAAAEAVAutoLibrary@@XZ
?Me@?$AutoCleanup@VAutoLocalFree@@PEAX@@AEAAAEAVAutoLocalFree@@XZ
?Me@?$AutoCleanup@VAutoMIClass@@PEAU_MI_Class@@@@AEAAAEAVAutoMIClass@@XZ
?Me@?$AutoCleanup@VAutoMIInstance@@PEAU_MI_Instance@@@@AEAAAEAVAutoMIInstance@@XZ
?Me@?$AutoCleanup@VAutoObject@@PEAUWSMAN_OBJECT@@@@AEAAAEAVAutoObject@@XZ
?Me@?$AutoCleanup@VAutoRegKey@@PEAUHKEY__@@@@AEAAAEAVAutoRegKey@@XZ
?Me@?$AutoCleanup@VAutoSecurityDescriptor@@PEAX@@AEAAAEAVAutoSecurityDescriptor@@XZ
?Me@?$AutoCleanup@VAutoWaitHandle@@PEAX@@AEAAAEAVAutoWaitHandle@@XZ
?MoveSettingsToMigrationKey@@YAHPEAVIRequestContext@@_N@Z
?NUM_BOMS@PacketFormatter@@0HB DATA
?NUM_CHARSETS@PacketFormatter@@0HB DATA
?Next@TSTRBUFFER@@QEBAPEBGPEBG@Z
?NextCertMapping@CConfigManager@@QEAAHXZ
?NextListener@CConfigManager@@QEAAHXZ
?NextRow@CConfigManager@@QEAAHXZ
?NextShellUri@CConfigManager@@QEAAHXZ
?NoSemantics@ExtendedSemantic@@2KB DATA
?NotifyObservers@CWSManGroupPolicyManager@@UEAAHPEAVIRequestContext@@PEAVIWSManGroupPolicyCacheDataProvider@@@Z
?OnChange@CBaseConfigCache@@UEAAXW4ConfigChangeSources@@KW4ConfigChangeSeverityType@@@Z
?OpenRegKey@ConfigRegistry@@IEAAJPEAU_CONFIG_INFO@@KPEAVWSMANCONFIGTABLE_IDENTITY@@PEAVAutoRegKey@@PEAUHKEY__@@@Z
?OverrideMaxEnvelopeSize@PacketParser@@QEAAXK@Z
?OverrideTimeout@PacketParser@@QEAAXK@Z
?Parse@CWSManResource@@SAPEAV1@PEAVIRequestContext@@PEBG11PEAU_WSMAN_SELECTOR_SET@@PEAU_WSMAN_OPTION_SET@@H@Z
?Parse@CWSManResource@@SAPEAV1@PEAVIRequestContext@@PEBGH@Z
?Parse@XmlReader@@AEAAHPEAVIRequestContext@@@Z
?ParseAction@PacketParser@@AEAAHPEAVIRequestContext@@PEAU_FWXML_ELEMENT@@_N@Z
?ParseActivityId@PacketParser@@AEAAHPEAVIRequestContext@@PEAU_FWXML_ELEMENT@@H@Z
?ParseBookmark@PacketParser@@AEAAHPEAVIRequestContext@@PEAU_FWXML_ELEMENT@@H@Z
?ParseDataLocale@PacketParser@@AEAAHPEAVIRequestContext@@PEAU_FWXML_ELEMENT@@H@Z
?ParseEprElement@CWSManEPR@@SAPEAV1@PEAVIRequestContext@@PEAU_FWXML_ELEMENT@@@Z
?ParseEvent@SoapSemanticConverter@@QEAAPEAVSemanticMessage@@PEAU_FWXML_ELEMENT@@PEAKPEAVIRequestContext@@@Z
?ParseFaultTo@PacketParser@@AEAAHPEAVIRequestContext@@PEAU_FWXML_ELEMENT@@H@Z
?ParseFragment@PacketParser@@AEAAHPEAVIRequestContext@@PEAU_FWXML_ELEMENT@@H@Z
?ParseHeader@PacketParser@@AEAAHPEAVCRequestContext@@PEAU_FWXML_ELEMENT@@HPEAVCServiceCommonConfigSettings@@@Z
?ParseHeaders@CWSManResourceNoResourceUri@@QEAAHPEAVIRequestContext@@PEAU_FWXML_ELEMENT@@11@Z
?ParseHeaders@PacketParser@@AEAAHPEAVCRequestContext@@PEAVCServiceCommonConfigSettings@@@Z
?ParseLocale@PacketParser@@AEAAHPEAVIRequestContext@@PEAU_FWXML_ELEMENT@@H@Z
?ParseMachineID@PacketParser@@AEAAHPEAVIRequestContext@@PEAU_FWXML_ELEMENT@@@Z
?ParseMaxEnvelopeSize@PacketParser@@AEAAHPEAVIRequestContext@@PEAU_FWXML_ELEMENT@@HPEAVCServiceCommonConfigSettings@@@Z
?ParseMessageId@PacketParser@@AEAAHPEAVIRequestContext@@PEAU_FWXML_ELEMENT@@_N@Z
?ParseOperationId@PacketParser@@AEAAHPEAVIRequestContext@@PEAU_FWXML_ELEMENT@@H@Z
?ParseOptionSet@CWSManResourceNoResourceUri@@QEAAHPEAVIRequestContext@@PEAU_FWXML_ELEMENT@@@Z
?ParseOptions@PacketParser@@AEAAHPEAVIRequestContext@@PEAU_FWXML_ELEMENT@@H@Z
?ParsePacket@PacketParser@@QEAAHPEAVCRequestContext@@PEAVPacket@@PEAVCServiceCommonConfigSettings@@@Z
?ParsePacketInternal@PacketParser@@AEAAHPEAVCRequestContext@@PEAU_FWXML_ELEMENT@@PEAVCServiceCommonConfigSettings@@@Z
?ParseReplyTo@PacketParser@@AEAAHPEAVIRequestContext@@PEAU_FWXML_ELEMENT@@@Z
?ParseResourceLocator@CWSManResource@@SAPEAV1@PEAVIRequestContext@@PEAU_WSMAN_RESOURCE_LOCATOR@@@Z
?ParseResourceUri@PacketParser@@AEAAHPEAVIRequestContext@@PEAU_FWXML_ELEMENT@@H@Z
?ParseResponse@SoapSemanticConverter@@QEAA_NPEAU_FWXML_ELEMENT@@PEAKPEA_NPEAVIRequestContext@@@Z
?ParseRobustConnectionAckSequenceId@PacketParser@@AEAAKPEA_K@Z
?ParseRobustConnectionMessages@PacketParser@@QEAAKPEAW4PacketType@1@PEA_NPEA_K2@Z
?ParseSelectors@PacketParser@@AEAAHPEAVIRequestContext@@PEAU_FWXML_ELEMENT@@H@Z
?ParseSequenceId@PacketParser@@AEAAHPEAVIRequestContext@@PEAU_FWXML_ELEMENT@@@Z
?ParseSessionId@PacketParser@@AEAAHPEAVIRequestContext@@PEAU_FWXML_ELEMENT@@H@Z
?ParseShellCompression@PacketParser@@AEAAHPEAVIRequestContext@@PEAU_FWXML_ELEMENT@@H@Z
?ParseStream@PacketParser@@QEAAXPEAVCRequestContext@@PEAVITransportReceiver@@PEAVPacket@@PEAVCServiceCommonConfigSettings@@@Z
?ParseSubscriptionAgentPacket@PacketParser@@QEAAHPEAVCRequestContext@@PEAVPacket@@PEAVCServiceConfigSettings@@@Z
?ParseSubscriptionID@PacketParser@@AEAAHPEAVIRequestContext@@PEAU_FWXML_ELEMENT@@H@Z
?ParseTimeout@PacketParser@@AEAAHPEAVIRequestContext@@PEAU_FWXML_ELEMENT@@HPEAVCServiceCommonConfigSettings@@@Z
?ParseToAddress@PacketParser@@AEAAHPEAVCRequestContext@@PEAU_FWXML_ELEMENT@@@Z
?Passed@CErrorContext@@UEBAHXZ
?PolicyChanged@CWSManGroupPolicyManager@@AEAAXE@Z
?PostChange@CBaseConfigCache@@MEAAHPEAVIRequestContext@@PEAVCCommonConfigSettings@@1@Z
?PostChange@CServiceConfigCache@@EEAAHPEAVIRequestContext@@PEAVCCommonConfigSettings@@1@Z
?PostError@CBaseConfigCache@@MEAAXK@Z
?PostError@CServiceConfigCache@@EEAAXK@Z
?PrepareToCommitWithSize@BufferFormatter@@UEAAKK@Z
?PrepareToCommitWithSize@CircularBufferFormatter@@UEAAKK@Z
?PrintHandleTrace@@YAXPEAX@Z
?PrintReleaseTrace@@YAXPEAXJ@Z
?PrintUnregisterWaitTrace@@YAXPEAX@Z
?ProcessContext@CErrorContext@@UEAAHHPEAKPEAU_WSMAN_FAULT_OBJECT@@@Z
?ProcessContext@CErrorContext@@UEAAHHPEAU_WSMAN_ERROR@@@Z
?ProcessContext@CRequestContext@@QEAAHHPEAU_WSMAN_ENUMERATOR_RESULT@@@Z
?ProcessContext@CRequestContext@@QEAAHHPEAU_WSMAN_EVENTS_RESULT@@@Z
?ProcessContext@CRequestContext@@QEAAHHPEAU_WSMAN_RESULT@@@Z
?ProcessContext@CRequestContext@@QEAAHHPEAU_WSMAN_STATUS@@@Z
?ProcessContext@CRequestContext@@UEAAHHPEAKPEAU_WSMAN_FAULT_OBJECT@@@Z
?ProcessContext@CRequestContext@@UEAAHHPEAU_WSMAN_ERROR@@@Z
?ProcessEPR@CWSManEPR@@AEAAHPEAVIRequestContext@@PEAU_FWXML_ELEMENT@@@Z
?ProcessFragmentDialect@CWSManResourceNoResourceUri@@IEAAHPEAVIRequestContext@@PEBGK@Z
?ProcessFragmentPath@CWSManResourceNoResourceUri@@IEAAHPEAVIRequestContext@@PEBGK@Z
?ProcessKey@CWSManResourceNoResourceUri@@IEAAHPEAVIRequestContext@@PEBG1@Z
?ProcessNestedEPR@CWSManResourceNoResourceUri@@IEAAHPEAVIRequestContext@@PEBGPEAU_FWXML_ELEMENT@@@Z
?ProcessOption@CWSManResourceNoResourceUri@@IEAAHPEAVIRequestContext@@PEBG11H@Z
?ProcessRefParameters@CWSManEPR@@AEAAHPEAVIRequestContext@@PEAU_FWXML_ELEMENT@@@Z
?ProcessRefProperties@CWSManEPR@@AEAAHPEAVIRequestContext@@PEAU_FWXML_ELEMENT@@@Z
?ProcessUri@CWSManResource@@QEAAHPEAVIRequestContext@@PEBGK@Z
?Progress@ExtendedSemantic@@2KB DATA
?PropertySheetPageCallback@CWSManSecurityUI@@UEAAJPEAUHWND__@@IW4_SI_PAGE_TYPE@@@Z
?ProviderFailure@CErrorContext@@UEBAHXZ
?ProviderShutdownCleanup@CWinRSPluginConfigCache@@SAXXZ
?PutOverrideValue@?$PacketElement@K@PacketParser@@QEAAXK@Z
?PutOverrideValue@?$PacketElement@PEBG@PacketParser@@QEAAXPEBG@Z
?PutValue@?$PacketElement@K@PacketParser@@QEAAXKH@Z
?PutValue@?$PacketElement@PEAU_FWXML_ELEMENT@@@PacketParser@@QEAAXPEAU_FWXML_ELEMENT@@H@Z
?PutValue@?$PacketElement@PEBG@PacketParser@@QEAAXPEBGH@Z
?PutValue@?$PacketElement@_K@PacketParser@@QEAAX_KH@Z
?PutValue@Fragment@PacketParser@@QEAAXPEBG0H@Z
?PutValue@NotUnderstandSoapHeader@PacketParser@@QEAAXPEBG00@Z
?PutValue@ReferenceParameters@PacketParser@@QEAAKPEAU_FWXML_ELEMENT@@H@Z
?QueryInterface@CWSManSecurityUI@@UEAAJAEBU_GUID@@PEAPEAX@Z
?QueryPtr@RBUFFER@@QEBAPEAXXZ
?QueryRegValue@CConfigManager@@AEAAJPEAU_CONFIG_INFO@@PEAKKPEAE1@Z
?QueryRegValue@CWSManGroupPolicyManager@@AEAAJPEAVIRequestContext@@PEBU_WSMAN_POLICY_INFO@@PEAKKPEAE2@Z
?QuerySize@RBUFFER@@QEBAIXZ
?QueryStr@TSTRBUFFER@@QEBAPEBGXZ
?QuotaComplete@UserRecord@@UEAAXPEAU_WSMAN_AUTHZ_QUOTA@@KPEBG@Z
?ReAlloc@WSManMemory@@SAPEAXPEAX_KHW4_NitsFaultMode@@@Z
?ReadCertMappingRegistryKey@CConfigManager@@SAHPEAVIRequestContext@@PEAVCERTMAPPING_IDENTITY@@PEAG@Z
?ReadCredentialsFromCredmanStore@CConfigManager@@SAHPEAVIRequestContext@@PEAG1@Z
?ReadCurrentSettings@CClientConfigCache@@EEAAPEAVCCommonConfigSettings@@PEAVIRequestContext@@W4ErrorLogging@@@Z
?ReadCurrentSettings@CServiceConfigCache@@EEAAPEAVCCommonConfigSettings@@PEAVIRequestContext@@W4ErrorLogging@@@Z
?ReadCurrentSettings@CWinRSPluginConfigCache@@EEAAPEAVCCommonConfigSettings@@PEAVIRequestContext@@W4ErrorLogging@@@Z
?ReadDefaultSettings@CClientConfigCache@@EEAAPEAVCCommonConfigSettings@@PEAVIRequestContext@@@Z
?ReadDefaultSettings@CServiceConfigCache@@EEAAPEAVCCommonConfigSettings@@PEAVIRequestContext@@@Z
?ReadDefaultSettings@CWinRSPluginConfigCache@@EEAAPEAVCCommonConfigSettings@@PEAVIRequestContext@@@Z
?ReadShellUriRegistryKey@CConfigManager@@SAHPEAVIRequestContext@@PEAVSHELLURI_IDENTITY@@PEAG@Z
?ReadTableRegistryKey@CConfigManager@@SAHPEAVIRequestContext@@PEAVWSMANCONFIGTABLE_IDENTITY@@PEAG@Z
?ReallocStorage@RBUFFER@@IEAAHI@Z
?RecordAccessDenied@CErrorContext@@UEAAXXZ
?RecordAccessDenied@CRequestContext@@UEAAXXZ
?RecordAccessDeniedWithDetail@CErrorContext@@UEAAXKZZ
?RecordAccessDeniedWithDetail@CRequestContext@@UEAAXKZZ
?RecordFailure@CErrorContext@@UEAAXK@Z
?RecordFailure@CErrorContext@@UEAAXKKZZ
?RecordFailure@CErrorContext@@UEAAXPEAU_WSMAN_FAULT_OBJECT@@@Z
?RecordFailure@CErrorContext@@UEAAXW4_MI_Result@@KKZZ
?RecordFailure@CRequestContext@@AEAAXKKPEAPEAD0@Z
?RecordFailure@CRequestContext@@UEAAXK@Z
?RecordFailure@CRequestContext@@UEAAXKKZZ
?RecordFailure@CRequestContext@@UEAAXPEAU_WSMAN_FAULT_OBJECT@@@Z
?RecordFailure@CRequestContext@@UEAAXW4_MI_Result@@KKZZ
?RecordHresult@CErrorContext@@UEAAXKKZZ
?RecordHresult@CRequestContext@@UEAAXKKZZ
?RecordHtmlError@CRequestContext@@QEAAHKPEAU_FWXML_ELEMENT@@@Z
?RecordHtmlError@CRequestContext@@QEAAHKPEBGK@Z
?RecordMIFailure@IRequestContext@@QEAAXW4_MI_Result@@K@Z
?RecordOutOfMemory@CErrorContext@@UEAAXXZ
?RecordOutOfMemory@CRequestContext@@UEAAXXZ
?RecordProviderFailure@CErrorContext@@UEAAXPEAU_WSMAN_FAULT_OBJECT@@PEBG1@Z
?RecordProviderFailure@CRequestContext@@QEAAXKHPEBG00@Z
?RecordProviderFailure@CRequestContext@@UEAAXPEAU_WSMAN_FAULT_OBJECT@@PEBG1@Z
?RecordSoapError@CErrorContext@@UEAAHKPEBG@Z
?RecordSoapError@CRequestContext@@QEAAHKPEAU_FWXML_ELEMENT@@@Z
?RecordSoapError@CRequestContext@@UEAAHKPEBG@Z
?RecordText@CRequestContext@@AEAAHKPEBG_KK@Z
?RecordXml@CRequestContext@@AEAAHKPEAU_FWXML_ELEMENT@@K@Z
?Refresh@UserRecord@@QEAAXXZ
?RegisterChild@ChildLifeTimeManager@@QEAA_NXZ
?RegisterChunkBoundary@CircularBufferFormatter@@QEAAKXZ
?RegisterConfigChangeNotification@CConfigManager@@QEAAPEAVConfigNotification@@PEAX@Z
?RegisterForPolicyNotification@CWSManGroupPolicyManager@@AEAAHPEAVIRequestContext@@H@Z
?RegisterModule@@YAJKPEAVIHttpModuleRegistrationInfo@@PEAVIHttpServer@@@Z
?Release@?$SafeMap@PEAVCCertMapping@@UEmpty@@V?$SafeMap_Iterator@PEAVCCertMapping@@UEmpty@@@@@@UEBAXXZ
?Release@?$SafeMap@PEAVCCertMapping@@UEmpty@@V?$SafeSet_Iterator@PEAVCCertMapping@@@@@@UEBAXXZ
?Release@?$SafeMap@PEAVCListenerConnect@@PEAV1@V?$SafeMap_Iterator@PEAVCListenerConnect@@PEAV1@@@@@UEBAXXZ
?Release@?$SafeMap@PEAVCListenerOperation@@UEmpty@@V?$SafeMap_Iterator@PEAVCListenerOperation@@UEmpty@@@@@@UEBAXXZ
?Release@?$SafeMap@PEAVCListenerOperation@@UEmpty@@V?$SafeSet_Iterator@PEAVCListenerOperation@@@@@@UEBAXXZ
?Release@?$SafeMap@PEAVCListenerReceive@@PEAV1@V?$SafeMap_Iterator@PEAVCListenerReceive@@PEAV1@@@@@UEBAXXZ
?Release@?$SafeMap@PEAVCListenerSend@@PEAV1@V?$SafeMap_Iterator@PEAVCListenerSend@@PEAV1@@@@@UEBAXXZ
?Release@?$SafeMap@PEAVCListenerSignal@@PEAV1@V?$SafeMap_Iterator@PEAVCListenerSignal@@PEAV1@@@@@UEBAXXZ
?Release@?$SafeMap@PEAVCShellUriSettings@@UEmpty@@V?$SafeSet_Iterator@PEAVCShellUriSettings@@@@@@UEBAXXZ
?Release@?$SafeMap@PEAVCollector@@UEmpty@@V?$SafeMap_Iterator@PEAVCollector@@UEmpty@@@@@@UEBAXXZ
?Release@?$SafeMap@PEAVCollector@@UEmpty@@V?$SafeSet_Iterator@PEAVCollector@@@@@@UEBAXXZ
?Release@?$SafeMap@PEAVHostOperation@@UEmpty@@V?$SafeMap_Iterator@PEAVHostOperation@@UEmpty@@@@@@UEBAXXZ
?Release@?$SafeMap@PEAVHostOperation@@UEmpty@@V?$SafeSet_Iterator@PEAVHostOperation@@@@@@UEBAXXZ
?Release@?$SafeMap@PEAVIOperation@@UEmpty@@V?$SafeMap_Iterator@PEAVIOperation@@UEmpty@@@@@@UEBAXXZ
?Release@?$SafeMap@PEAVIOperation@@UEmpty@@V?$SafeSet_Iterator@PEAVIOperation@@@@@@UEBAXXZ
?Release@?$SafeMap@PEAVListenerSourceSubscription@@UEmpty@@V?$SafeMap_Iterator@PEAVListenerSourceSubscription@@UEmpty@@@@@@UEBAXXZ
?Release@?$SafeMap@PEAVListenerSourceSubscription@@UEmpty@@V?$SafeSet_Iterator@PEAVListenerSourceSubscription@@@@@@UEBAXXZ
?Release@?$SafeMap@PEAVPushSubscription@@UEmpty@@V?$SafeMap_Iterator@PEAVPushSubscription@@UEmpty@@@@@@UEBAXXZ
?Release@?$SafeMap@PEAVPushSubscription@@UEmpty@@V?$SafeSet_Iterator@PEAVPushSubscription@@@@@@UEBAXXZ
?Release@?$SafeMap@PEAXUEmpty@@V?$SafeSet_Iterator@PEAX@@@@UEBAXXZ
?Release@?$SafeMap@UPluginKey@@KV?$SafeMap_Iterator@UPluginKey@@K@@@@UEBAXXZ
?Release@?$SafeMap@UUserKey@@PEAVBlockedRecord@@V?$SafeMap_Iterator@UUserKey@@PEAVBlockedRecord@@@@@@UEBAXXZ
?Release@?$SafeMap@VCertThumbprintKey@@VCertThumbprintMappedSet@CServiceConfigSettings@@V?$SafeMap_Iterator@VCertThumbprintKey@@VCertThumbprintMappedSet@CServiceConfigSettings@@@@@@UEBAXXZ
?Release@?$SafeMap@VGuidKey@@PEAVCListenerCommand@@V?$SafeMap_Iterator@VGuidKey@@PEAVCListenerCommand@@@@@@UEBAXXZ
?Release@?$SafeMap@VKey@CWmiPtrCache@@VMapping@2@V?$SafeMap_Iterator@VKey@CWmiPtrCache@@VMapping@2@@@@@UEBAXXZ
?Release@?$SafeMap@VKey@Locale@@KV?$SafeMap_Iterator@VKey@Locale@@K@@@@UEBAXXZ
?Release@?$SafeMap@VStringKey@@PEAVListenerEvents@@V?$SafeMap_Iterator@VStringKey@@PEAVListenerEvents@@@@@@UEBAXXZ
?Release@?$SafeMap@VStringKey@@PEAVListenerSourceSubscription@@V?$SafeMap_Iterator@VStringKey@@PEAVListenerSourceSubscription@@@@@@UEBAXXZ
?Release@?$SafeMap@VStringKey@@UOption@WinRM_OperationOptions@@V?$SafeMap_Iterator@VStringKey@@UOption@WinRM_OperationOptions@@@@@@UEBAXXZ
?Release@?$SafeMap@VStringKeyCI@@KV?$SafeMap_Iterator@VStringKeyCI@@K@@@@UEBAXXZ
?Release@?$SafeMap@VStringKeyCI@@PEAVIISEndpoint@@V?$SafeMap_Iterator@VStringKeyCI@@PEAVIISEndpoint@@@@@@UEBAXXZ
?Release@?$SafeMap@VStringKeyCI@@UEmpty@@V?$SafeMap_Iterator@VStringKeyCI@@UEmpty@@@@@@UEBAXXZ
?Release@?$SafeMap@VStringKeyCI@@UEmpty@@V?$SafeSet_Iterator@VStringKeyCI@@@@@@UEBAXXZ
?Release@?$SafeMap@VStringKeyCI@@UUSER_CONTEXT_INFO@WSManHttpListener@@V?$SafeMap_Iterator@VStringKeyCI@@UUSER_CONTEXT_INFO@WSManHttpListener@@@@@@UEBAXXZ
?Release@?$SafeMap@VStringKeyStore@@PEAVExpiredOperationIdRecord@@V?$SafeMap_Iterator@VStringKeyStore@@PEAVExpiredOperationIdRecord@@@@@@UEBAXXZ
?Release@?$SafeMap@VStringKeyStore@@PEAVServerFullDuplexChannel@@V?$SafeMap_Iterator@VStringKeyStore@@PEAVServerFullDuplexChannel@@@@@@UEBAXXZ
?Release@?$SafeMap@VTokenCacheKey@ServiceSoapProcessor@@VTokenCacheMapping@2@V?$SafeMap_Iterator@VTokenCacheKey@ServiceSoapProcessor@@VTokenCacheMapping@2@@@@@UEBAXXZ
?Release@?$SafeMap@W4WSManSessionOption@@PEAVOptionValue@SessionOptions@Client@WSMan@@V?$SafeMap_Iterator@W4WSManSessionOption@@PEAVOptionValue@SessionOptions@Client@WSMan@@@@@@UEBAXXZ
?Release@?$SafeMap@_KPEAVSendPacketArgs@RobustConnectionBuffer@@V?$SafeMap_Iterator@_KPEAVSendPacketArgs@RobustConnectionBuffer@@@@@@UEBAXXZ
?Release@?$SafeMap_Iterator@PEAVCCertMapping@@UEmpty@@@@QEAAXXZ
?Release@?$SafeMap_Iterator@PEAVCListenerOperation@@UEmpty@@@@QEAAXXZ
?Release@?$SafeMap_Iterator@PEAVCShellUriSettings@@UEmpty@@@@QEAAXXZ
?Release@?$SafeMap_Iterator@VCertThumbprintKey@@VCertThumbprintMappedSet@CServiceConfigSettings@@@@QEAAXXZ
?Release@?$SafeMap_Iterator@VStringKeyCI@@K@@QEAAXXZ
?Release@?$SafeMap_Iterator@VStringKeyStore@@PEAVExpiredOperationIdRecord@@@@QEAAXXZ
?Release@?$SafeMap_Iterator@W4WSManSessionOption@@PEAVOptionValue@SessionOptions@Client@WSMan@@@@QEAAXXZ
?Release@?$SafeMap_Lock@PEAVCCertMapping@@UEmpty@@V?$SafeMap_Iterator@PEAVCCertMapping@@UEmpty@@@@@@QEAAXXZ
?Release@?$SafeMap_Lock@PEAVCListenerOperation@@UEmpty@@V?$SafeMap_Iterator@PEAVCListenerOperation@@UEmpty@@@@@@QEAAXXZ
?Release@?$SafeMap_Lock@PEAVCShellUriSettings@@UEmpty@@V?$SafeMap_Iterator@PEAVCShellUriSettings@@UEmpty@@@@@@QEAAXXZ
?Release@?$SafeMap_Lock@VCertThumbprintKey@@VCertThumbprintMappedSet@CServiceConfigSettings@@V?$SafeMap_Iterator@VCertThumbprintKey@@VCertThumbprintMappedSet@CServiceConfigSettings@@@@@@QEAAXXZ
?Release@?$SafeMap_Lock@VStringKeyCI@@KV?$SafeMap_Iterator@VStringKeyCI@@K@@@@QEAAXXZ
?Release@?$SafeMap_Lock@VStringKeyStore@@PEAVExpiredOperationIdRecord@@V?$SafeMap_Iterator@VStringKeyStore@@PEAVExpiredOperationIdRecord@@@@@@QEAAXXZ
?Release@?$SafeMap_Lock@W4WSManSessionOption@@PEAVOptionValue@SessionOptions@Client@WSMan@@V?$SafeMap_Iterator@W4WSManSessionOption@@PEAVOptionValue@SessionOptions@Client@WSMan@@@@@@QEAAXXZ
?Release@CBaseConfigCache@@UEAAJP6AXPEAX@Z0@Z
?Release@CWSManCriticalSection@@QEAAXXZ
?Release@CWSManSecurityUI@@UEAAKXZ
?Release@ILifeTimeMgmt@@UEAAJP6AXPEAX@Z0@Z
?Release@UserRecord@@QEAAJXZ
?ReleaseExclusive@FastLock@@QEAAXXZ
?ReleasePtr@?$AutoCleanup@V?$AutoDelete@D@@PEAD@@AEAAXXZ
?ReleasePtr@?$AutoCleanup@V?$AutoDelete@G@@PEAG@@AEAAXXZ
?ReleasePtr@?$AutoCleanup@V?$AutoDelete@UIPRange@CWSManIPFilter@@@@PEAUIPRange@CWSManIPFilter@@@@AEAAXXZ
?ReleasePtr@?$AutoCleanup@V?$AutoDelete@U_SID@@@@PEAU_SID@@@@AEAAXXZ
?ReleasePtr@?$AutoCleanup@V?$AutoDelete@U_WSMAN_STREAM_ID_SET@@@@PEAU_WSMAN_STREAM_ID_SET@@@@AEAAXXZ
?ReleasePtr@?$AutoCleanup@V?$AutoDelete@V?$Handle@VISubscription@@@@@@PEAV?$Handle@VISubscription@@@@@@AEAAXXZ
?ReleasePtr@?$AutoCleanup@V?$AutoDelete@V?$SafeMap_Iterator@PEAVCListenerConnect@@PEAV1@@@@@PEAV?$SafeMap_Iterator@PEAVCListenerConnect@@PEAV1@@@@@AEAAXXZ
?ReleasePtr@?$AutoCleanup@V?$AutoDelete@V?$SafeMap_Iterator@PEAVCListenerReceive@@PEAV1@@@@@PEAV?$SafeMap_Iterator@PEAVCListenerReceive@@PEAV1@@@@@AEAAXXZ
?ReleasePtr@?$AutoCleanup@V?$AutoDelete@V?$SafeMap_Iterator@PEAVCListenerSend@@PEAV1@@@@@PEAV?$SafeMap_Iterator@PEAVCListenerSend@@PEAV1@@@@@AEAAXXZ
?ReleasePtr@?$AutoCleanup@V?$AutoDelete@V?$SafeMap_Iterator@PEAVCListenerSignal@@PEAV1@@@@@PEAV?$SafeMap_Iterator@PEAVCListenerSignal@@PEAV1@@@@@AEAAXXZ
?ReleasePtr@?$AutoCleanup@V?$AutoDelete@V?$SafeMap_Iterator@VGuidKey@@PEAVCListenerCommand@@@@@@PEAV?$SafeMap_Iterator@VGuidKey@@PEAVCListenerCommand@@@@@@AEAAXXZ
?ReleasePtr@?$AutoCleanup@V?$AutoDelete@V?$SafeMap_Iterator@VStringKeyCI@@K@@@@PEAV?$SafeMap_Iterator@VStringKeyCI@@K@@@@AEAAXXZ
?ReleasePtr@?$AutoCleanup@V?$AutoDelete@V?$SafeMap_Iterator@W4WSManSessionOption@@PEAVOptionValue@SessionOptions@Client@WSMan@@@@@@PEAV?$SafeMap_Iterator@W4WSManSessionOption@@PEAVOptionValue@SessionOptions@Client@WSMan@@@@@@AEAAXXZ
?ReleasePtr@?$AutoCleanup@V?$AutoDelete@V?$SafeSet@PEAVCCertMapping@@@@@@PEAV?$SafeSet@PEAVCCertMapping@@@@@@AEAAXXZ
?ReleasePtr@?$AutoCleanup@V?$AutoDelete@V?$SafeSet@PEAVCShellUriSettings@@@@@@PEAV?$SafeSet@PEAVCShellUriSettings@@@@@@AEAAXXZ
?ReleasePtr@?$AutoCleanup@V?$AutoDelete@V?$SafeSet_Iterator@PEAVCListenerOperation@@@@@@PEAV?$SafeSet_Iterator@PEAVCListenerOperation@@@@@@AEAAXXZ
?ReleasePtr@?$AutoCleanup@V?$AutoDelete@V?$SafeSet_Iterator@PEAVCollector@@@@@@PEAV?$SafeSet_Iterator@PEAVCollector@@@@@@AEAAXXZ
?ReleasePtr@?$AutoCleanup@V?$AutoDelete@V?$SafeSet_Iterator@PEAVHostOperation@@@@@@PEAV?$SafeSet_Iterator@PEAVHostOperation@@@@@@AEAAXXZ
?ReleasePtr@?$AutoCleanup@V?$AutoDelete@V?$SafeSet_Iterator@PEAVListenerSourceSubscription@@@@@@PEAV?$SafeSet_Iterator@PEAVListenerSourceSubscription@@@@@@AEAAXXZ
?ReleasePtr@?$AutoCleanup@V?$AutoDelete@V?$SimpleStack@VCListenerOperation@@@@@@PEAV?$SimpleStack@VCListenerOperation@@@@@@AEAAXXZ
?ReleasePtr@?$AutoCleanup@V?$AutoDelete@V?$SimpleStack@VShellHostEntry@@@@@@PEAV?$SimpleStack@VShellHostEntry@@@@@@AEAAXXZ
?ReleasePtr@?$AutoCleanup@V?$AutoDelete@V?$queue@PEAU_WSMAN_PUBLISHER_EVENT_STRUCT@@V?$deque@PEAU_WSMAN_PUBLISHER_EVENT_STRUCT@@V?$transport_allocator@PEAU_WSMAN_PUBLISHER_EVENT_STRUCT@@@@@std@@@std@@@@PEAV?$queue@PEAU_WSMAN_PUBLISHER_EVENT_STRUCT@@V?$deque@PEAU_WSMAN_PUBLISHER_EVENT_STRUCT@@V?$transport_allocator@PEAU_WSMAN_PUBLISHER_EVENT_STRUCT@@@@@std@@@std@@@@AEAAXXZ
?ReleasePtr@?$AutoCleanup@V?$AutoDelete@V?$set@PEAVCListenerSettings@@VCListenerSettingsLessFunctor@CServiceConfigSettings@@V?$transport_allocator@PEAVCListenerSettings@@@@@std@@@@PEAV?$set@PEAVCListenerSettings@@VCListenerSettingsLessFunctor@CServiceConfigSettings@@V?$transport_allocator@PEAVCListenerSettings@@@@@std@@@@AEAAXXZ
?ReleasePtr@?$AutoCleanup@V?$AutoDelete@V?$set@Usockaddr_storage@@VSockAddrLessFunctor@CListenerSettings@@V?$transport_allocator@Usockaddr_storage@@@@@std@@@@PEAV?$set@Usockaddr_storage@@VSockAddrLessFunctor@CListenerSettings@@V?$transport_allocator@Usockaddr_storage@@@@@std@@@@AEAAXXZ
?ReleasePtr@?$AutoCleanup@V?$AutoDelete@V?$vector@PEAVCWSManRequest@@V?$transport_allocator@PEAVCWSManRequest@@@@@std@@@@PEAV?$vector@PEAVCWSManRequest@@V?$transport_allocator@PEAVCWSManRequest@@@@@std@@@@AEAAXXZ
?ReleasePtr@?$AutoCleanup@V?$AutoDelete@V?$vector@PEAVHandleImpl@Client@WSMan@@V?$transport_allocator@PEAVHandleImpl@Client@WSMan@@@@@std@@@@PEAV?$vector@PEAVHandleImpl@Client@WSMan@@V?$transport_allocator@PEAVHandleImpl@Client@WSMan@@@@@std@@@@AEAAXXZ
?ReleasePtr@?$AutoCleanup@V?$AutoDelete@V?$vector@PEAVIServiceConfigObserver@@V?$transport_allocator@PEAVIServiceConfigObserver@@@@@std@@@@PEAV?$vector@PEAVIServiceConfigObserver@@V?$transport_allocator@PEAVIServiceConfigObserver@@@@@std@@@@AEAAXXZ
?ReleasePtr@?$AutoCleanup@V?$AutoDelete@V?$vector@PEAVWSManHttpSenderConnection@@V?$transport_allocator@PEAVWSManHttpSenderConnection@@@@@std@@@@PEAV?$vector@PEAVWSManHttpSenderConnection@@V?$transport_allocator@PEAVWSManHttpSenderConnection@@@@@std@@@@AEAAXXZ
?ReleasePtr@?$AutoCleanup@V?$AutoDelete@VAdminSid@CSecurity@@@@PEAVAdminSid@CSecurity@@@@AEAAXXZ
?ReleasePtr@?$AutoCleanup@V?$AutoDelete@VBlockedRecord@@@@PEAVBlockedRecord@@@@AEAAXXZ
?ReleasePtr@?$AutoCleanup@V?$AutoDelete@VCBaseConfigCache@@@@PEAVCBaseConfigCache@@@@AEAAXXZ
?ReleasePtr@?$AutoCleanup@V?$AutoDelete@VCCertMapping@@@@PEAVCCertMapping@@@@AEAAXXZ
?ReleasePtr@?$AutoCleanup@V?$AutoDelete@VCConfigChangeSource@@@@PEAVCConfigChangeSource@@@@AEAAXXZ
?ReleasePtr@?$AutoCleanup@V?$AutoDelete@VCListenerSettings@@@@PEAVCListenerSettings@@@@AEAAXXZ
?ReleasePtr@?$AutoCleanup@V?$AutoDelete@VCObserverConfigChangeErrors@@@@PEAVCObserverConfigChangeErrors@@@@AEAAXXZ
?ReleasePtr@?$AutoCleanup@V?$AutoDelete@VCServiceWatcher@CServiceConfigCache@@@@PEAVCServiceWatcher@CServiceConfigCache@@@@AEAAXXZ
?ReleasePtr@?$AutoCleanup@V?$AutoDelete@VCShellUriSettings@@@@PEAVCShellUriSettings@@@@AEAAXXZ
?ReleasePtr@?$AutoCleanup@V?$AutoDelete@VCWSManEPR@@@@PEAVCWSManEPR@@@@AEAAXXZ
?ReleasePtr@?$AutoCleanup@V?$AutoDelete@VCWSManResource@@@@PEAVCWSManResource@@@@AEAAXXZ
?ReleasePtr@?$AutoCleanup@V?$AutoDelete@VCertHash@@@@PEAVCertHash@@@@AEAAXXZ
?ReleasePtr@?$AutoCleanup@V?$AutoDelete@VConfigUpdate@@@@PEAVConfigUpdate@@@@AEAAXXZ
?ReleasePtr@?$AutoCleanup@V?$AutoDelete@VEnumSinkEx@@@@PEAVEnumSinkEx@@@@AEAAXXZ
?ReleasePtr@?$AutoCleanup@V?$AutoDelete@VEventHandler@WSMan@@@@PEAVEventHandler@WSMan@@@@AEAAXXZ
?ReleasePtr@?$AutoCleanup@V?$AutoDelete@VExpiredOperationIdRecord@@@@PEAVExpiredOperationIdRecord@@@@AEAAXXZ
?ReleasePtr@?$AutoCleanup@V?$AutoDelete@VGPApiManager@@@@PEAVGPApiManager@@@@AEAAXXZ
?ReleasePtr@?$AutoCleanup@V?$AutoDelete@VGeneralSinkEx@@@@PEAVGeneralSinkEx@@@@AEAAXXZ
?ReleasePtr@?$AutoCleanup@V?$AutoDelete@VIChannelObserverFactory@@@@PEAVIChannelObserverFactory@@@@AEAAXXZ
?ReleasePtr@?$AutoCleanup@V?$AutoDelete@VIQueryDASHSMASHInterface@@@@PEAVIQueryDASHSMASHInterface@@@@AEAAXXZ
?ReleasePtr@?$AutoCleanup@V?$AutoDelete@VISpecification@@@@PEAVISpecification@@@@AEAAXXZ
?ReleasePtr@?$AutoCleanup@V?$AutoDelete@VInteractiveSid@CSecurity@@@@PEAVInteractiveSid@CSecurity@@@@AEAAXXZ
?ReleasePtr@?$AutoCleanup@V?$AutoDelete@VIpHlpApiDllLoader@@@@PEAVIpHlpApiDllLoader@@@@AEAAXXZ
?ReleasePtr@?$AutoCleanup@V?$AutoDelete@VMachineName@@@@PEAVMachineName@@@@AEAAXXZ
?ReleasePtr@?$AutoCleanup@V?$AutoDelete@VMasterReceiveData@CListenerReceive@@@@PEAVMasterReceiveData@CListenerReceive@@@@AEAAXXZ
?ReleasePtr@?$AutoCleanup@V?$AutoDelete@VNetworkServiceSid@CSecurity@@@@PEAVNetworkServiceSid@CSecurity@@@@AEAAXXZ
?ReleasePtr@?$AutoCleanup@V?$AutoDelete@VNtDsApiDllLoader@@@@PEAVNtDsApiDllLoader@@@@AEAAXXZ
?ReleasePtr@?$AutoCleanup@V?$AutoDelete@VOptionValue@SessionOptions@Client@WSMan@@@@PEAVOptionValue@SessionOptions@Client@WSMan@@@@AEAAXXZ
?ReleasePtr@?$AutoCleanup@V?$AutoDelete@VPacketCreator@@@@PEAVPacketCreator@@@@AEAAXXZ
?ReleasePtr@?$AutoCleanup@V?$AutoDelete@VPacketParser@@@@PEAVPacketParser@@@@AEAAXXZ
?ReleasePtr@?$AutoCleanup@V?$AutoDelete@VResources@Locale@@@@PEAVResources@Locale@@@@AEAAXXZ
?ReleasePtr@?$AutoCleanup@V?$AutoDelete@VRunAsConfiguration@@@@PEAVRunAsConfiguration@@@@AEAAXXZ
?ReleasePtr@?$AutoCleanup@V?$AutoDelete@VSecurityEntry@Catalog@@@@PEAVSecurityEntry@Catalog@@@@AEAAXXZ
?ReleasePtr@?$AutoCleanup@V?$AutoDelete@VSendPacketArgs@RobustConnectionBuffer@@@@PEAVSendPacketArgs@RobustConnectionBuffer@@@@AEAAXXZ
?ReleasePtr@?$AutoCleanup@V?$AutoDelete@VServiceSoapProcessor@@@@PEAVServiceSoapProcessor@@@@AEAAXXZ
?ReleasePtr@?$AutoCleanup@V?$AutoDelete@VShell32DllLoader@@@@PEAVShell32DllLoader@@@@AEAAXXZ
?ReleasePtr@?$AutoCleanup@V?$AutoDelete@VShlWApiDllLoader@@@@PEAVShlWApiDllLoader@@@@AEAAXXZ
?ReleasePtr@?$AutoCleanup@V?$AutoDelete@VSubscriptionEnumerator@@@@PEAVSubscriptionEnumerator@@@@AEAAXXZ
?ReleasePtr@?$AutoCleanup@V?$AutoDelete@VSubscriptionManager@@@@PEAVSubscriptionManager@@@@AEAAXXZ
?ReleasePtr@?$AutoCleanup@V?$AutoDelete@VTSTRBUFFER@@@@PEAVTSTRBUFFER@@@@AEAAXXZ
?ReleasePtr@?$AutoCleanup@V?$AutoDelete@VUniqueStringOverflow@@@@PEAVUniqueStringOverflow@@@@AEAAXXZ
?ReleasePtr@?$AutoCleanup@V?$AutoDelete@VUser32DllLoader@@@@PEAVUser32DllLoader@@@@AEAAXXZ
?ReleasePtr@?$AutoCleanup@V?$AutoDelete@VWSMANCONFIGTABLE_IDENTITY@@@@PEAVWSMANCONFIGTABLE_IDENTITY@@@@AEAAXXZ
?ReleasePtr@?$AutoCleanup@V?$AutoDelete@VWSManMemCryptManager@@@@PEAVWSManMemCryptManager@@@@AEAAXXZ
?ReleasePtr@?$AutoCleanup@V?$AutoDelete@VWmiEnumContext@@@@PEAVWmiEnumContext@@@@AEAAXXZ
?ReleasePtr@?$AutoCleanup@V?$AutoDelete@VXmlReader@@@@PEAVXmlReader@@@@AEAAXXZ
?ReleasePtr@?$AutoCleanup@V?$AutoDeleteVector@$$CBG@@PEBG@@AEAAXXZ
?ReleasePtr@?$AutoCleanup@V?$AutoDeleteVector@D@@PEAD@@AEAAXXZ
?ReleasePtr@?$AutoCleanup@V?$AutoDeleteVector@E@@PEAE@@AEAAXXZ
?ReleasePtr@?$AutoCleanup@V?$AutoDeleteVector@G@@PEAG@@AEAAXXZ
?ReleasePtr@?$AutoCleanup@V?$AutoDeleteVector@H@@PEAH@@AEAAXXZ
?ReleasePtr@?$AutoCleanup@V?$AutoDeleteVector@PEAG@@PEAPEAG@@AEAAXXZ
?ReleasePtr@?$AutoCleanup@V?$AutoDeleteVector@PEBG@@PEAPEBG@@AEAAXXZ
?ReleasePtr@?$AutoCleanup@V?$AutoDeleteVector@U_CONFIG_UPDATE@@@@PEAU_CONFIG_UPDATE@@@@AEAAXXZ
?ReleasePtr@?$AutoCleanup@V?$AutoDeleteVector@U_WINRS_CREATE_SHELL_ENVIRONMENT_VARIABLE@@@@PEAU_WINRS_CREATE_SHELL_ENVIRONMENT_VARIABLE@@@@AEAAXXZ
?ReleasePtr@?$AutoCleanup@V?$AutoDeleteVector@U_WINRS_RUN_COMMAND_ARG@@@@PEAU_WINRS_RUN_COMMAND_ARG@@@@AEAAXXZ
?ReleasePtr@?$AutoCleanup@V?$AutoDeleteVector@U_WSMAN_OPTION@@@@PEAU_WSMAN_OPTION@@@@AEAAXXZ
?ReleasePtr@?$AutoCleanup@V?$AutoDeleteVector@X@@PEAX@@AEAAXXZ
?ReleasePtr@?$AutoCleanup@V?$AutoFree@E@@PEAE@@AEAAXXZ
?ReleasePtr@?$AutoCleanup@V?$AutoLocklessItemRecycle@VPacket@@@@PEAVPacket@@@@AEAAXXZ
?ReleasePtr@?$AutoCleanup@V?$AutoRelease@UIAppHostAdminManager@@@@PEAUIAppHostAdminManager@@@@AEAAXXZ
?ReleasePtr@?$AutoCleanup@V?$AutoRelease@UIAppHostChildElementCollection@@@@PEAUIAppHostChildElementCollection@@@@AEAAXXZ
?ReleasePtr@?$AutoCleanup@V?$AutoRelease@UIAppHostConfigException@@@@PEAUIAppHostConfigException@@@@AEAAXXZ
?ReleasePtr@?$AutoCleanup@V?$AutoRelease@UIAppHostElement@@@@PEAUIAppHostElement@@@@AEAAXXZ
?ReleasePtr@?$AutoCleanup@V?$AutoRelease@UIAppHostElementCollection@@@@PEAUIAppHostElementCollection@@@@AEAAXXZ
?ReleasePtr@?$AutoCleanup@V?$AutoRelease@UIAppHostProperty@@@@PEAUIAppHostProperty@@@@AEAAXXZ
?ReleasePtr@?$AutoCleanup@V?$AutoRelease@UIAppHostPropertyCollection@@@@PEAUIAppHostPropertyCollection@@@@AEAAXXZ
?ReleasePtr@?$AutoCleanup@V?$AutoRelease@UIClientSecurity@@@@PEAUIClientSecurity@@@@AEAAXXZ
?ReleasePtr@?$AutoCleanup@V?$AutoRelease@UIEnumWbemClassObject@@@@PEAUIEnumWbemClassObject@@@@AEAAXXZ
?ReleasePtr@?$AutoCleanup@V?$AutoRelease@UIErrorInfo@@@@PEAUIErrorInfo@@@@AEAAXXZ
?ReleasePtr@?$AutoCleanup@V?$AutoRelease@UIUnknown@@@@PEAUIUnknown@@@@AEAAXXZ
?ReleasePtr@?$AutoCleanup@V?$AutoRelease@UIWbemClassObject@@@@PEAUIWbemClassObject@@@@AEAAXXZ
?ReleasePtr@?$AutoCleanup@V?$AutoRelease@UIWbemContext@@@@PEAUIWbemContext@@@@AEAAXXZ
?ReleasePtr@?$AutoCleanup@V?$AutoRelease@UIWbemLocator@@@@PEAUIWbemLocator@@@@AEAAXXZ
?ReleasePtr@?$AutoCleanup@V?$AutoRelease@UIWbemObjectTextSrc@@@@PEAUIWbemObjectTextSrc@@@@AEAAXXZ
?ReleasePtr@?$AutoCleanup@V?$AutoRelease@UIWbemPath@@@@PEAUIWbemPath@@@@AEAAXXZ
?ReleasePtr@?$AutoCleanup@V?$AutoRelease@UIWbemPathKeyList@@@@PEAUIWbemPathKeyList@@@@AEAAXXZ
?ReleasePtr@?$AutoCleanup@V?$AutoRelease@UIWbemQualifierSet@@@@PEAUIWbemQualifierSet@@@@AEAAXXZ
?ReleasePtr@?$AutoCleanup@V?$AutoRelease@UIWbemQuery@@@@PEAUIWbemQuery@@@@AEAAXXZ
?ReleasePtr@?$AutoCleanup@V?$AutoRelease@UIWbemServices@@@@PEAUIWbemServices@@@@AEAAXXZ
?ReleasePtr@?$AutoCleanup@V?$AutoRelease@VApplication@Client@WSMan@@@@PEAVApplication@Client@WSMan@@@@AEAAXXZ
?ReleasePtr@?$AutoCleanup@V?$AutoRelease@VCBaseConfigCache@@@@PEAVCBaseConfigCache@@@@AEAAXXZ
?ReleasePtr@?$AutoCleanup@V?$AutoRelease@VCClientConfigCache@@@@PEAVCClientConfigCache@@@@AEAAXXZ
?ReleasePtr@?$AutoCleanup@V?$AutoRelease@VCClientConfigSettings@@@@PEAVCClientConfigSettings@@@@AEAAXXZ
?ReleasePtr@?$AutoCleanup@V?$AutoRelease@VCCommonConfigSettings@@@@PEAVCCommonConfigSettings@@@@AEAAXXZ
?ReleasePtr@?$AutoCleanup@V?$AutoRelease@VCConfigCacheMap@CBaseConfigCache@@@@PEAVCConfigCacheMap@CBaseConfigCache@@@@AEAAXXZ
?ReleasePtr@?$AutoCleanup@V?$AutoRelease@VCConfigManager@@@@PEAVCConfigManager@@@@AEAAXXZ
?ReleasePtr@?$AutoCleanup@V?$AutoRelease@VCListenerCommand@@@@PEAVCListenerCommand@@@@AEAAXXZ
?ReleasePtr@?$AutoCleanup@V?$AutoRelease@VCListenerMasterOperation@@@@PEAVCListenerMasterOperation@@@@AEAAXXZ
?ReleasePtr@?$AutoCleanup@V?$AutoRelease@VCListenerReceive@@@@PEAVCListenerReceive@@@@AEAAXXZ
?ReleasePtr@?$AutoCleanup@V?$AutoRelease@VCListenerShell@@@@PEAVCListenerShell@@@@AEAAXXZ
?ReleasePtr@?$AutoCleanup@V?$AutoRelease@VCRemoteOperation@@@@PEAVCRemoteOperation@@@@AEAAXXZ
?ReleasePtr@?$AutoCleanup@V?$AutoRelease@VCRemoteSession@@@@PEAVCRemoteSession@@@@AEAAXXZ
?ReleasePtr@?$AutoCleanup@V?$AutoRelease@VCRequestContext@@@@PEAVCRequestContext@@@@AEAAXXZ
?ReleasePtr@?$AutoCleanup@V?$AutoRelease@VCServiceCommonConfigSettings@@@@PEAVCServiceCommonConfigSettings@@@@AEAAXXZ
?ReleasePtr@?$AutoCleanup@V?$AutoRelease@VCServiceConfigCache@@@@PEAVCServiceConfigCache@@@@AEAAXXZ
?ReleasePtr@?$AutoCleanup@V?$AutoRelease@VCServiceConfigSettings@@@@PEAVCServiceConfigSettings@@@@AEAAXXZ
?ReleasePtr@?$AutoCleanup@V?$AutoRelease@VCWSManEPR@@@@PEAVCWSManEPR@@@@AEAAXXZ
?ReleasePtr@?$AutoCleanup@V?$AutoRelease@VCWSManGroupPolicyCache@@@@PEAVCWSManGroupPolicyCache@@@@AEAAXXZ
?ReleasePtr@?$AutoCleanup@V?$AutoRelease@VCWSManGroupPolicyManager@@@@PEAVCWSManGroupPolicyManager@@@@AEAAXXZ
?ReleasePtr@?$AutoCleanup@V?$AutoRelease@VCWSManObject@@@@PEAVCWSManObject@@@@AEAAXXZ
?ReleasePtr@?$AutoCleanup@V?$AutoRelease@VCWSManResource@@@@PEAVCWSManResource@@@@AEAAXXZ
?ReleasePtr@?$AutoCleanup@V?$AutoRelease@VCWSManSession@@@@PEAVCWSManSession@@@@AEAAXXZ
?ReleasePtr@?$AutoCleanup@V?$AutoRelease@VCWinRSPluginConfigCache@@@@PEAVCWinRSPluginConfigCache@@@@AEAAXXZ
?ReleasePtr@?$AutoCleanup@V?$AutoRelease@VCWinRSPluginConfigSettings@@@@PEAVCWinRSPluginConfigSettings@@@@AEAAXXZ
?ReleasePtr@?$AutoCleanup@V?$AutoRelease@VCommand@Client@WSMan@@@@PEAVCommand@Client@WSMan@@@@AEAAXXZ
?ReleasePtr@?$AutoCleanup@V?$AutoRelease@VConfigNotification@@@@PEAVConfigNotification@@@@AEAAXXZ
?ReleasePtr@?$AutoCleanup@V?$AutoRelease@VConnectShellOperation@Client@WSMan@@@@PEAVConnectShellOperation@Client@WSMan@@@@AEAAXXZ
?ReleasePtr@?$AutoCleanup@V?$AutoRelease@VCreateShellOperation@Client@WSMan@@@@PEAVCreateShellOperation@Client@WSMan@@@@AEAAXXZ
?ReleasePtr@?$AutoCleanup@V?$AutoRelease@VDeleteShellOperation@Client@WSMan@@@@PEAVDeleteShellOperation@Client@WSMan@@@@AEAAXXZ
?ReleasePtr@?$AutoCleanup@V?$AutoRelease@VDisconnectOperation@Client@WSMan@@@@PEAVDisconnectOperation@Client@WSMan@@@@AEAAXXZ
?ReleasePtr@?$AutoCleanup@V?$AutoRelease@VEnumSinkEx@@@@PEAVEnumSinkEx@@@@AEAAXXZ
?ReleasePtr@?$AutoCleanup@V?$AutoRelease@VGeneralSinkEx@@@@PEAVGeneralSinkEx@@@@AEAAXXZ
?ReleasePtr@?$AutoCleanup@V?$AutoRelease@VHostMappingTable@@@@PEAVHostMappingTable@@@@AEAAXXZ
?ReleasePtr@?$AutoCleanup@V?$AutoRelease@VIISConfigSettings@@@@PEAVIISConfigSettings@@@@AEAAXXZ
?ReleasePtr@?$AutoCleanup@V?$AutoRelease@VIPCSoapProcessor@@@@PEAVIPCSoapProcessor@@@@AEAAXXZ
?ReleasePtr@?$AutoCleanup@V?$AutoRelease@VIRequestContext@@@@PEAVIRequestContext@@@@AEAAXXZ
?ReleasePtr@?$AutoCleanup@V?$AutoRelease@VISubscription@@@@PEAVISubscription@@@@AEAAXXZ
?ReleasePtr@?$AutoCleanup@V?$AutoRelease@VInboundRequestDetails@@@@PEAVInboundRequestDetails@@@@AEAAXXZ
?ReleasePtr@?$AutoCleanup@V?$AutoRelease@VProxyManager@Client@WSMan@@@@PEAVProxyManager@Client@WSMan@@@@AEAAXXZ
?ReleasePtr@?$AutoCleanup@V?$AutoRelease@VProxySelection@Client@WSMan@@@@PEAVProxySelection@Client@WSMan@@@@AEAAXXZ
?ReleasePtr@?$AutoCleanup@V?$AutoRelease@VPushSubscribeOperation@@@@PEAVPushSubscribeOperation@@@@AEAAXXZ
?ReleasePtr@?$AutoCleanup@V?$AutoRelease@VPushSubscription@@@@PEAVPushSubscription@@@@AEAAXXZ
?ReleasePtr@?$AutoCleanup@V?$AutoRelease@VReceiveOperation@Client@WSMan@@@@PEAVReceiveOperation@Client@WSMan@@@@AEAAXXZ
?ReleasePtr@?$AutoCleanup@V?$AutoRelease@VReconnectOperation@Client@WSMan@@@@PEAVReconnectOperation@Client@WSMan@@@@AEAAXXZ
?ReleasePtr@?$AutoCleanup@V?$AutoRelease@VSendOperation@Client@WSMan@@@@PEAVSendOperation@Client@WSMan@@@@AEAAXXZ
?ReleasePtr@?$AutoCleanup@V?$AutoRelease@VShell@Client@WSMan@@@@PEAVShell@Client@WSMan@@@@AEAAXXZ
?ReleasePtr@?$AutoCleanup@V?$AutoRelease@VShellInfo@@@@PEAVShellInfo@@@@AEAAXXZ
?ReleasePtr@?$AutoCleanup@V?$AutoRelease@VSignalOperation@Client@WSMan@@@@PEAVSignalOperation@Client@WSMan@@@@AEAAXXZ
?ReleasePtr@?$AutoCleanup@V?$AutoRelease@VUserRecord@@@@PEAVUserRecord@@@@AEAAXXZ
?ReleasePtr@?$AutoCleanup@V?$AutoRelease@VWSManHttpListener@@@@PEAVWSManHttpListener@@@@AEAAXXZ
?ReleasePtr@?$AutoCleanup@V?$AutoReleaseEx@VHostMappingTableEntry@@@@PEAVHostMappingTableEntry@@@@AEAAXXZ
?ReleasePtr@?$AutoCleanup@V?$AutoReleaseEx@VShell@Client@WSMan@@@@PEAVShell@Client@WSMan@@@@AEAAXXZ
?ReleasePtr@?$AutoCleanup@VAutoBstr@@PEAG@@AEAAXXZ
?ReleasePtr@?$AutoCleanup@VAutoBstrNoAlloc@@PEAG@@AEAAXXZ
?ReleasePtr@?$AutoCleanup@VAutoCertContext@@PEBU_CERT_CONTEXT@@@@AEAAXXZ
?ReleasePtr@?$AutoCleanup@VAutoChainContext@@PEBU_CERT_CHAIN_CONTEXT@@@@AEAAXXZ
?ReleasePtr@?$AutoCleanup@VAutoCoTaskMemFree@@PEAX@@AEAAXXZ
?ReleasePtr@?$AutoCleanup@VAutoFwXmlCloseParser@@PEAX@@AEAAXXZ
?ReleasePtr@?$AutoCleanup@VAutoHandle@@PEAX@@AEAAXXZ
?ReleasePtr@?$AutoCleanup@VAutoImpersonateUser@@PEAX@@AEAAXXZ
?ReleasePtr@?$AutoCleanup@VAutoLibrary@@PEAUHINSTANCE__@@@@AEAAXXZ
?ReleasePtr@?$AutoCleanup@VAutoLocalFree@@PEAX@@AEAAXXZ
?ReleasePtr@?$AutoCleanup@VAutoMIClass@@PEAU_MI_Class@@@@AEAAXXZ
?ReleasePtr@?$AutoCleanup@VAutoMIInstance@@PEAU_MI_Instance@@@@AEAAXXZ
?ReleasePtr@?$AutoCleanup@VAutoObject@@PEAUWSMAN_OBJECT@@@@AEAAXXZ
?ReleasePtr@?$AutoCleanup@VAutoRegKey@@PEAUHKEY__@@@@AEAAXXZ
?ReleasePtr@?$AutoCleanup@VAutoSecurityDescriptor@@PEAX@@AEAAXXZ
?ReleasePtr@?$AutoCleanup@VAutoWaitHandle@@PEAX@@AEAAXXZ
?ReleaseQuota@UserRecord@@QEAAXW4OperationType@@PEBVProvider@Catalog@@@Z
?ReleaseShared@FastLock@@QEAAXXZ
?Remove@?$SafeMap@PEAVCListenerOperation@@UEmpty@@V?$SafeSet_Iterator@PEAVCListenerOperation@@@@@@QEAA_NAEBQEAVCListenerOperation@@@Z
?Remove@?$SafeMap@UUserKey@@PEAVBlockedRecord@@V?$SafeMap_Iterator@UUserKey@@PEAVBlockedRecord@@@@@@QEAA_NAEBUUserKey@@@Z
?Remove@?$SafeMap@VStringKeyCI@@KV?$SafeMap_Iterator@VStringKeyCI@@K@@@@QEAA_NAEBVStringKeyCI@@@Z
?Remove@?$SafeMap@VStringKeyCI@@UUSER_CONTEXT_INFO@WSManHttpListener@@V?$SafeMap_Iterator@VStringKeyCI@@UUSER_CONTEXT_INFO@WSManHttpListener@@@@@@QEAA_NAEBVStringKeyCI@@@Z
?Remove@?$SafeMap@VStringKeyStore@@PEAVExpiredOperationIdRecord@@V?$SafeMap_Iterator@VStringKeyStore@@PEAVExpiredOperationIdRecord@@@@@@QEAA_NAEBVStringKeyStore@@@Z
?Remove@?$SafeMap@VStringKeyStore@@PEAVServerFullDuplexChannel@@V?$SafeMap_Iterator@VStringKeyStore@@PEAVServerFullDuplexChannel@@@@@@QEAA_NAEBVStringKeyStore@@@Z
?Remove@?$SafeMap@_KPEAVSendPacketArgs@RobustConnectionBuffer@@V?$SafeMap_Iterator@_KPEAVSendPacketArgs@RobustConnectionBuffer@@@@@@QEAA_NAEB_K@Z
?RemoveAll@CBaseConfigCache@@KAXPEAVFastLock@@AEAV?$AutoRelease@VCConfigCacheMap@CBaseConfigCache@@@@@Z
?RemoveFromMap@CBaseConfigCache@@AEAAHXZ
?RemoveHttpsBinding@@YAXPEBG@Z
?RemoveHttpsCertificate@@YAXPEBG0@Z
?RemoveObserver@CServiceConfigCache@@AEAAHPEAVIServiceConfigObserver@@@Z
?RemovePluginXmlNewAttrForThresholdOrGreater@@YAHPEAVIRequestContext@@@Z
?ReportEventW@EventLog@@SAXGKGPEAPEBG@Z
?Reset@?$PacketElement@K@PacketParser@@QEAAX_N@Z
?Reset@?$PacketElement@PEAU_FWXML_ELEMENT@@@PacketParser@@QEAAX_N@Z
?Reset@?$PacketElement@PEBG@PacketParser@@QEAAX_N@Z
?Reset@?$PacketElement@_K@PacketParser@@QEAAX_N@Z
?Reset@?$SafeMap_Iterator@PEAVCCertMapping@@UEmpty@@@@QEAAXXZ
?Reset@?$SafeMap_Iterator@PEAVCListenerOperation@@UEmpty@@@@QEAAXXZ
?Reset@?$SafeMap_Iterator@PEAVCShellUriSettings@@UEmpty@@@@QEAAXXZ
?Reset@?$SafeMap_Iterator@PEAXUEmpty@@@@QEAAXXZ
?Reset@?$SafeMap_Iterator@UPluginKey@@K@@QEAAXXZ
?Reset@?$SafeMap_Iterator@UUserKey@@PEAVBlockedRecord@@@@QEAAXXZ
?Reset@?$SafeMap_Iterator@VCertThumbprintKey@@VCertThumbprintMappedSet@CServiceConfigSettings@@@@QEAAXXZ
?Reset@?$SafeMap_Iterator@VKey@Locale@@K@@QEAAXXZ
?Reset@?$SafeMap_Iterator@VStringKeyCI@@K@@QEAAXXZ
?Reset@?$SafeMap_Iterator@VStringKeyCI@@UUSER_CONTEXT_INFO@WSManHttpListener@@@@QEAAXXZ
?Reset@?$SafeMap_Iterator@VStringKeyStore@@PEAVExpiredOperationIdRecord@@@@QEAAXXZ
?Reset@?$SafeMap_Iterator@VStringKeyStore@@PEAVServerFullDuplexChannel@@@@QEAAXXZ
?Reset@?$SafeMap_Iterator@W4WSManSessionOption@@PEAVOptionValue@SessionOptions@Client@WSMan@@@@QEAAXXZ
?Reset@?$SafeMap_Iterator@_KPEAVSendPacketArgs@RobustConnectionBuffer@@@@QEAAXXZ
?Reset@BufferFormatter@@UEAAXXZ
?Reset@CErrorContext@@UEAAXH@Z
?Reset@CRequestContext@@UEAAXH@Z
?Reset@CircularBufferFormatter@@UEAAXXZ
?Reset@Locale@@QEAAXXZ
?Reset@TSTRBUFFER@@QEAAXXZ
?Reset@UserRecord@@QEAAXXZ
?ResetProfileCount@UserRecord@@QEAAXXZ
?ResetRobustConnectionHeaders@PacketParser@@AEAAXXZ
?Resize@RBUFFER@@QEAAHI@Z
?Resize@RBUFFER@@QEAAHII@Z
?ResizeOptionList@CWSManResourceNoResourceUri@@IEAA_NIAEAVIRequestContext@@@Z
?RestoreAllPrivileges@@YAHPEAU_TOKEN_PRIVILEGES@@@Z
?RetrieveCertMappingIdentity@CConfigManager@@AEAAHPEAUHKEY__@@PEAVCERTMAPPING_IDENTITY@@@Z
?RetrieveListenerIdentity@CConfigManager@@AEAAHPEAUHKEY__@@PEAGPEAPEAGPEAVLISTENER_IDENTITY@@@Z
?RetrieveShellUriIdentity@CConfigManager@@AEAAHPEAUHKEY__@@PEAVSHELLURI_IDENTITY@@@Z
?RetrieveTableIdentity@CConfigManager@@AEAAHPEAUHKEY__@@PEAVWSMANCONFIGTABLE_IDENTITY@@@Z
?RevertToSelf@CSecurity@@SAHXZ
?RtlSecureZeroMemory@XmlReader@@QEAAXXZ
?SafeStringToUI64@@YAJPEBGEHPEA_KPEAVIRequestContext@@K@Z
?SetBOM@PacketFormatter@@QEAA_NPEAVPacket@@@Z
?SetBOM@PacketFormatter@@QEAA_NPEBEK@Z
?SetCIM_Error@CErrorContext@@UEAAXXZ
?SetCIM_Error@CRequestContext@@UEAAXXZ
?SetCharset@PacketFormatter@@QEAAXW4Charset@1@@Z
?SetCharset@PacketFormatter@@QEAA_NPEBDK_NPEA_N@Z
?SetCharsetAndBom@PacketFormatter@@QEAAXW4Charset@1@0@Z
?SetConfigToUseDefaults@CErrorContext@@UEAAXH@Z
?SetErrorAction@ExtendedSemantic@@QEAAXW4_MI_OperationCallback_ResponseType@@W4_MI_CallbackMode@@@Z
?SetErrorState@CBaseConfigCache@@AEAAXPEAVCRequestContext@@K@Z
?SetExactCharSize@TSTRBUFFER@@QEAAJI@Z
?SetExtendedErrorString@CErrorContext@@UEAAXPEAG@Z
?SetExtendedErrorString@CRequestContext@@UEAAXPEAG@Z
?SetExtraLogInfo@CErrorContext@@QEAAXPEBG000@Z
?SetFault@CErrorContext@@UEAAXKKKPEBG@Z
?SetFault@CRequestContext@@EEAAXKKKPEBG@Z
?SetFinishValue@ConfigRegistry@@IEAAHPEAVIRequestContext@@@Z
?SetFormatterMode@BufferFormatter@@QEAAXW4Charset@PacketFormatter@@0@Z
?SetFragmentDialect@CWSManResourceNoResourceUri@@QEAAHPEBGPEAVIRequestContext@@@Z
?SetFragmentPath@CWSManResourceNoResourceUri@@QEAAHPEBGPEAVIRequestContext@@@Z
?SetGeneratingError@CErrorContext@@UEAAXXZ
?SetLocale@CRequestContext@@QEAA_NPEBGK@Z
?SetLocale@Locale@@QEAA_NKPEBGPEAVIRequestContext@@@Z
?SetMachineName@CRequestContext@@QEAAKPEBG@Z
?SetMachineName@CRequestContext@@QEAAKPEBG_K@Z
?SetMachineName@CRequestContext@@QEAAKXZ
?SetMaxEnvelopeSize@CircularBufferFormatter@@QEAAXK@Z
?SetOptionsMustUnderstandValue@CWSManResourceNoResourceUri@@QEAAXH@Z
?SetProfileHandle@UserRecord@@QEAAX_J@Z
?SetProviderFailure@CErrorContext@@UEAAXH@Z
?SetSecurity@CWSManSecurityUI@@UEAAJKPEAX@Z
?SetSize@TSTRBUFFER@@QEAAJII@Z
?SetSizeInUse@SBUFFER@@QEAAXI@Z
?SetThreadUILanguage@Locale@@QEAA_NPEAVIRequestContext@@@Z
?SetUpdateMode@BufferFormatter@@UEAAXW4Mode@1@@Z
?SetUpdateMode@CircularBufferFormatter@@UEAAXW4Mode@BufferFormatter@@@Z
?SetUri@CWSManResource@@QEAAHPEBGPEAVIRequestContext@@@Z
?SetValid@RBUFFER@@IEAAXH@Z
?SetXml@ReferenceParameters@PacketParser@@AEAAKAEAVBufferFormatter@@PEAU_FWXML_ELEMENT@@@Z
?Shutdown@CBaseConfigCache@@IEAAXXZ
?Shutdown@CConfigManager@@SAHXZ
?Shutdown@CWSManGroupPolicyManager@@SAHXZ
?Shutdown@ChildLifeTimeManager@@QEAAXXZ
?ShutdownLocaleMap@Locale@@SAXXZ
?Size@?$SafeMap@PEAVCListenerOperation@@UEmpty@@V?$SafeSet_Iterator@PEAVCListenerOperation@@@@@@QEBAHXZ
?Size@?$SafeMap@UUserKey@@PEAVBlockedRecord@@V?$SafeMap_Iterator@UUserKey@@PEAVBlockedRecord@@@@@@QEBAHXZ
?Size@?$SafeMap@VCertThumbprintKey@@VCertThumbprintMappedSet@CServiceConfigSettings@@V?$SafeMap_Iterator@VCertThumbprintKey@@VCertThumbprintMappedSet@CServiceConfigSettings@@@@@@QEBAHXZ
?Size@?$SafeMap@VStringKeyCI@@KV?$SafeMap_Iterator@VStringKeyCI@@K@@@@QEBAHXZ
?Size@?$SafeMap@VStringKeyCI@@UEmpty@@V?$SafeSet_Iterator@VStringKeyCI@@@@@@QEBAHXZ
?Size@?$SafeMap@VStringKeyStore@@PEAVExpiredOperationIdRecord@@V?$SafeMap_Iterator@VStringKeyStore@@PEAVExpiredOperationIdRecord@@@@@@QEBAHXZ
?SkipOrphans@?$SafeMap_Iterator@PEAVCCertMapping@@UEmpty@@@@IEAAXXZ
?SkipOrphans@?$SafeMap_Iterator@PEAVCListenerOperation@@UEmpty@@@@IEAAXXZ
?SkipOrphans@?$SafeMap_Iterator@PEAVCShellUriSettings@@UEmpty@@@@IEAAXXZ
?SkipOrphans@?$SafeMap_Iterator@PEAXUEmpty@@@@IEAAXXZ
?SkipOrphans@?$SafeMap_Iterator@UPluginKey@@K@@IEAAXXZ
?SkipOrphans@?$SafeMap_Iterator@UUserKey@@PEAVBlockedRecord@@@@IEAAXXZ
?SkipOrphans@?$SafeMap_Iterator@VCertThumbprintKey@@VCertThumbprintMappedSet@CServiceConfigSettings@@@@IEAAXXZ
?SkipOrphans@?$SafeMap_Iterator@VKey@Locale@@K@@IEAAXXZ
?SkipOrphans@?$SafeMap_Iterator@VStringKeyCI@@K@@IEAAXXZ
?SkipOrphans@?$SafeMap_Iterator@VStringKeyCI@@UUSER_CONTEXT_INFO@WSManHttpListener@@@@IEAAXXZ
?SkipOrphans@?$SafeMap_Iterator@VStringKeyStore@@PEAVExpiredOperationIdRecord@@@@IEAAXXZ
?SkipOrphans@?$SafeMap_Iterator@VStringKeyStore@@PEAVServerFullDuplexChannel@@@@IEAAXXZ
?SkipOrphans@?$SafeMap_Iterator@W4WSManSessionOption@@PEAVOptionValue@SessionOptions@Client@WSMan@@@@IEAAXXZ
?SkipOrphans@?$SafeMap_Iterator@_KPEAVSendPacketArgs@RobustConnectionBuffer@@@@IEAAXXZ
?StartSoapProcessor@@YAHXZ
?StopSoapProcessor@@YAHXZ
?Storage@?$AutoCleanup@V?$AutoDelete@G@@PEAG@@QEAAPEAPEAGXZ
?Storage@?$AutoCleanup@V?$AutoDelete@UIPRange@CWSManIPFilter@@@@PEAUIPRange@CWSManIPFilter@@@@QEAAPEAPEAUIPRange@CWSManIPFilter@@XZ
?Storage@?$AutoCleanup@V?$AutoDelete@VEnumSinkEx@@@@PEAVEnumSinkEx@@@@QEAAPEAPEAVEnumSinkEx@@XZ
?Storage@?$AutoCleanup@V?$AutoDelete@VGeneralSinkEx@@@@PEAVGeneralSinkEx@@@@QEAAPEAPEAVGeneralSinkEx@@XZ
?Storage@?$AutoCleanup@V?$AutoDelete@VIQueryDASHSMASHInterface@@@@PEAVIQueryDASHSMASHInterface@@@@QEAAPEAPEAVIQueryDASHSMASHInterface@@XZ
?Storage@?$AutoCleanup@V?$AutoDelete@VISpecification@@@@PEAVISpecification@@@@QEAAPEAPEAVISpecification@@XZ
?Storage@?$AutoCleanup@V?$AutoDelete@VPacketCreator@@@@PEAVPacketCreator@@@@QEAAPEAPEAVPacketCreator@@XZ
?Storage@?$AutoCleanup@V?$AutoDelete@VTSTRBUFFER@@@@PEAVTSTRBUFFER@@@@QEAAPEAPEAVTSTRBUFFER@@XZ
?Storage@?$AutoCleanup@V?$AutoDelete@VWmiEnumContext@@@@PEAVWmiEnumContext@@@@QEAAPEAPEAVWmiEnumContext@@XZ
?Storage@?$AutoCleanup@V?$AutoDelete@VXmlReader@@@@PEAVXmlReader@@@@QEAAPEAPEAVXmlReader@@XZ
?Storage@?$AutoCleanup@V?$AutoDeleteVector@$$CBG@@PEBG@@QEAAPEAPEBGXZ
?Storage@?$AutoCleanup@V?$AutoDeleteVector@E@@PEAE@@QEAAPEAPEAEXZ
?Storage@?$AutoCleanup@V?$AutoDeleteVector@G@@PEAG@@QEAAPEAPEAGXZ
?Storage@?$AutoCleanup@V?$AutoDeleteVector@PEAG@@PEAPEAG@@QEAAPEAPEAPEAGXZ
?Storage@?$AutoCleanup@V?$AutoDeleteVector@PEBG@@PEAPEBG@@QEAAPEAPEAPEBGXZ
?Storage@?$AutoCleanup@V?$AutoDeleteVector@U_WINRS_CREATE_SHELL_ENVIRONMENT_VARIABLE@@@@PEAU_WINRS_CREATE_SHELL_ENVIRONMENT_VARIABLE@@@@QEAAPEAPEAU_WINRS_CREATE_SHELL_ENVIRONMENT_VARIABLE@@XZ
?Storage@?$AutoCleanup@V?$AutoDeleteVector@U_WINRS_RUN_COMMAND_ARG@@@@PEAU_WINRS_RUN_COMMAND_ARG@@@@QEAAPEAPEAU_WINRS_RUN_COMMAND_ARG@@XZ
?Storage@?$AutoCleanup@V?$AutoDeleteVector@X@@PEAX@@QEAAPEAPEAXXZ
?Storage@?$AutoCleanup@V?$AutoFree@E@@PEAE@@QEAAPEAPEAEXZ
?Storage@?$AutoCleanup@V?$AutoLocklessItemRecycle@VPacket@@@@PEAVPacket@@@@QEAAPEAPEAVPacket@@XZ
?Storage@?$AutoCleanup@V?$AutoRelease@UIAppHostAdminManager@@@@PEAUIAppHostAdminManager@@@@QEAAPEAPEAUIAppHostAdminManager@@XZ
?Storage@?$AutoCleanup@V?$AutoRelease@UIAppHostChildElementCollection@@@@PEAUIAppHostChildElementCollection@@@@QEAAPEAPEAUIAppHostChildElementCollection@@XZ
?Storage@?$AutoCleanup@V?$AutoRelease@UIAppHostConfigException@@@@PEAUIAppHostConfigException@@@@QEAAPEAPEAUIAppHostConfigException@@XZ
?Storage@?$AutoCleanup@V?$AutoRelease@UIAppHostElement@@@@PEAUIAppHostElement@@@@QEAAPEAPEAUIAppHostElement@@XZ
?Storage@?$AutoCleanup@V?$AutoRelease@UIAppHostElementCollection@@@@PEAUIAppHostElementCollection@@@@QEAAPEAPEAUIAppHostElementCollection@@XZ
?Storage@?$AutoCleanup@V?$AutoRelease@UIAppHostProperty@@@@PEAUIAppHostProperty@@@@QEAAPEAPEAUIAppHostProperty@@XZ
?Storage@?$AutoCleanup@V?$AutoRelease@UIAppHostPropertyCollection@@@@PEAUIAppHostPropertyCollection@@@@QEAAPEAPEAUIAppHostPropertyCollection@@XZ
?Storage@?$AutoCleanup@V?$AutoRelease@UIClientSecurity@@@@PEAUIClientSecurity@@@@QEAAPEAPEAUIClientSecurity@@XZ
?Storage@?$AutoCleanup@V?$AutoRelease@UIEnumWbemClassObject@@@@PEAUIEnumWbemClassObject@@@@QEAAPEAPEAUIEnumWbemClassObject@@XZ
?Storage@?$AutoCleanup@V?$AutoRelease@UIErrorInfo@@@@PEAUIErrorInfo@@@@QEAAPEAPEAUIErrorInfo@@XZ
?Storage@?$AutoCleanup@V?$AutoRelease@UIUnknown@@@@PEAUIUnknown@@@@QEAAPEAPEAUIUnknown@@XZ
?Storage@?$AutoCleanup@V?$AutoRelease@UIWbemClassObject@@@@PEAUIWbemClassObject@@@@QEAAPEAPEAUIWbemClassObject@@XZ
?Storage@?$AutoCleanup@V?$AutoRelease@UIWbemContext@@@@PEAUIWbemContext@@@@QEAAPEAPEAUIWbemContext@@XZ
?Storage@?$AutoCleanup@V?$AutoRelease@UIWbemLocator@@@@PEAUIWbemLocator@@@@QEAAPEAPEAUIWbemLocator@@XZ
?Storage@?$AutoCleanup@V?$AutoRelease@UIWbemObjectTextSrc@@@@PEAUIWbemObjectTextSrc@@@@QEAAPEAPEAUIWbemObjectTextSrc@@XZ
?Storage@?$AutoCleanup@V?$AutoRelease@UIWbemPath@@@@PEAUIWbemPath@@@@QEAAPEAPEAUIWbemPath@@XZ
?Storage@?$AutoCleanup@V?$AutoRelease@UIWbemPathKeyList@@@@PEAUIWbemPathKeyList@@@@QEAAPEAPEAUIWbemPathKeyList@@XZ
?Storage@?$AutoCleanup@V?$AutoRelease@UIWbemQualifierSet@@@@PEAUIWbemQualifierSet@@@@QEAAPEAPEAUIWbemQualifierSet@@XZ
?Storage@?$AutoCleanup@V?$AutoRelease@UIWbemQuery@@@@PEAUIWbemQuery@@@@QEAAPEAPEAUIWbemQuery@@XZ
?Storage@?$AutoCleanup@V?$AutoRelease@UIWbemServices@@@@PEAUIWbemServices@@@@QEAAPEAPEAUIWbemServices@@XZ
?Storage@?$AutoCleanup@V?$AutoRelease@VCWSManEPR@@@@PEAVCWSManEPR@@@@QEAAPEAPEAVCWSManEPR@@XZ
?Storage@?$AutoCleanup@V?$AutoRelease@VCWinRSPluginConfigCache@@@@PEAVCWinRSPluginConfigCache@@@@QEAAPEAPEAVCWinRSPluginConfigCache@@XZ
?Storage@?$AutoCleanup@V?$AutoRelease@VCommand@Client@WSMan@@@@PEAVCommand@Client@WSMan@@@@QEAAPEAPEAVCommand@Client@WSMan@@XZ
?Storage@?$AutoCleanup@V?$AutoRelease@VEnumSinkEx@@@@PEAVEnumSinkEx@@@@QEAAPEAPEAVEnumSinkEx@@XZ
?Storage@?$AutoCleanup@V?$AutoRelease@VGeneralSinkEx@@@@PEAVGeneralSinkEx@@@@QEAAPEAPEAVGeneralSinkEx@@XZ
?Storage@?$AutoCleanup@V?$AutoRelease@VIRequestContext@@@@PEAVIRequestContext@@@@QEAAPEAPEAVIRequestContext@@XZ
?Storage@?$AutoCleanup@V?$AutoRelease@VReceiveOperation@Client@WSMan@@@@PEAVReceiveOperation@Client@WSMan@@@@QEAAPEAPEAVReceiveOperation@Client@WSMan@@XZ
?Storage@?$AutoCleanup@V?$AutoRelease@VSendOperation@Client@WSMan@@@@PEAVSendOperation@Client@WSMan@@@@QEAAPEAPEAVSendOperation@Client@WSMan@@XZ
?Storage@?$AutoCleanup@V?$AutoRelease@VShell@Client@WSMan@@@@PEAVShell@Client@WSMan@@@@QEAAPEAPEAVShell@Client@WSMan@@XZ
?Storage@?$AutoCleanup@V?$AutoRelease@VSignalOperation@Client@WSMan@@@@PEAVSignalOperation@Client@WSMan@@@@QEAAPEAPEAVSignalOperation@Client@WSMan@@XZ
?Storage@?$AutoCleanup@VAutoBstr@@PEAG@@QEAAPEAPEAGXZ
?Storage@?$AutoCleanup@VAutoBstrNoAlloc@@PEAG@@QEAAPEAPEAGXZ
?Storage@?$AutoCleanup@VAutoCertContext@@PEBU_CERT_CONTEXT@@@@QEAAPEAPEBU_CERT_CONTEXT@@XZ
?Storage@?$AutoCleanup@VAutoChainContext@@PEBU_CERT_CHAIN_CONTEXT@@@@QEAAPEAPEBU_CERT_CHAIN_CONTEXT@@XZ
?Storage@?$AutoCleanup@VAutoHandle@@PEAX@@QEAAPEAPEAXXZ
?Storage@?$AutoCleanup@VAutoImpersonateUser@@PEAX@@QEAAPEAPEAXXZ
?Storage@?$AutoCleanup@VAutoLocalFree@@PEAX@@QEAAPEAPEAXXZ
?Storage@?$AutoCleanup@VAutoMIClass@@PEAU_MI_Class@@@@QEAAPEAPEAU_MI_Class@@XZ
?Storage@?$AutoCleanup@VAutoMIInstance@@PEAU_MI_Instance@@@@QEAAPEAPEAU_MI_Instance@@XZ
?Storage@?$AutoCleanup@VAutoRegKey@@PEAUHKEY__@@@@QEAAPEAPEAUHKEY__@@XZ
?Storage@?$AutoCleanup@VAutoSecurityDescriptor@@PEAX@@QEAAPEAPEAXXZ
?Storage@?$AutoCleanup@VAutoWaitHandle@@PEAX@@QEAAPEAPEAXXZ
?StoreData@CWSManResource@@AEAAHPEAVIRequestContext@@PEBG11PEAU_WSMAN_SELECTOR_SET@@PEAU_WSMAN_OPTION_SET@@@Z
?StoreData@CWSManResource@@QEAAHPEAVIRequestContext@@PEBG@Z
?StoreDataFromResourceLocator@CWSManResource@@AEAAHPEAVIRequestContext@@PEAU_WSMAN_RESOURCE_LOCATOR@@@Z
?StoreExpansion@CResourceAlias@@AEAAXPEBGPEAU_ALIAS_INFORMATION@@@Z
?StreamingOutput@ExtendedSemantic@@2KB DATA
?StringCchEndsWithCI@@YAHPEBG0@Z
?StringCchEquals@@YAHPEBG0@Z
?StringCchEqualsCI@@YAHPEBG0@Z
?StringCchStartsWith@@YAHPEBG0@Z
?StringCchStartsWithCI@@YAHPEBG0@Z
?StringConcatenate@CWSManResourceNoResourceUri@@IEAAHAEAPEAGAEAKKPEAG@Z
?StringIsBlank@@YAHPEBG@Z
?StringToDword@@YAHPEBDPEAK@Z
?StringToDword@@YAHPEBGPEAK@Z
?StringTrimWhitespace@@YAPEAGPEAG@Z
?Subscribe@CWSManGroupPolicyManager@@UEAAHPEAVIRequestContext@@PEAVIWSManGroupPolicyObserver@@H@Z
?TruncateAt@TSTRBUFFER@@QEAAXI@Z
?TryAcquire@CWSManCriticalSection@@QEAAHXZ
?UnSubscribe@CWSManGroupPolicyManager@@UEAAHPEAVIRequestContext@@PEAVIWSManGroupPolicyObserver@@@Z
?UninstallMigration@@YAHPEAVIRequestContext@@@Z
?UnregisterChild@ChildLifeTimeManager@@QEAAXXZ
?UnregisterPolicyNotification@CWSManGroupPolicyManager@@AEAAHXZ
?Up@?$LoaderSerializer@VSubscriptionManager@@$01@@AEAAJXZ
?UpdateCredentialsInCredmanStore@CConfigManager@@SAHPEAVIRequestContext@@PEAG1@Z
?UpdateHttpsBinding@@YAHPEAVIRequestContext@@PEBG1PEAHHH@Z
?UpdateHttpsCertificate@@YAHPEAVIRequestContext@@PEBG11PEAHHU_GUID@@@Z
?UpdateKey@CWSManResourceNoResourceUri@@QEAAHPEAVIRequestContext@@PEBG1@Z
?Uri@CResourceAlias@@QEAAPEBGXZ
?UseClientToken@UserRecord@@QEAA_NXZ
?UseDefaultConfig@CErrorContext@@UEBAHXZ
?UsingDefaultLCID@Locale@@QEAA_NXZ
?Validate@Locale@@SA_NPEAU_WSMAN_DATA@@@Z
?Validate@Locale@@SA_NPEBG@Z
?ValidateCBTHardeningLevel@ConfigRegistry@@IEAAHPEAVIRequestContext@@PEBG@Z
?ValidateCertificateHash@ConfigRegistry@@IEAAHPEAVIRequestContext@@PEBG111@Z
?ValidateHeaders@PacketParser@@QEAAHPEAVIRequestContext@@K@Z
?ValidateHostnameAndCertificateCN@ConfigRegistry@@IEAAHPEAVIRequestContext@@PEBG1@Z
?ValidateIPFilter@ConfigRegistry@@IEAAHPEAVIRequestContext@@W4ConfigSetting@@PEBG@Z
?ValidateInt@CWSManGroupPolicyManager@@AEAAHPEAVIRequestContext@@PEBU_WSMAN_POLICY_INFO@@K@Z
?ValidateInt@ConfigRegistry@@IEAAHPEAVIRequestContext@@PEAU_CONFIG_INFO@@KPEBG@Z
?ValidateString@CWSManGroupPolicyManager@@AEAAHPEAVIRequestContext@@PEBU_WSMAN_POLICY_INFO@@PEBG@Z
?ValidateString@ConfigRegistry@@IEAAHPEAVIRequestContext@@PEAU_CONFIG_INFO@@PEBG@Z
?ValidateTrustedHosts@ConfigRegistry@@IEAAHPEAVIRequestContext@@PEBG@Z
?ValidateUrlPrefix@ConfigRegistry@@IEAAHPEAVIRequestContext@@PEBG@Z
?Verbose@ExtendedSemantic@@2KB DATA
?VerifyState@RBUFFER@@IEBAXXZ
?WSManError@@YAXPEBGK0KPEAVIRequestContext@@@Z
?WSManMemoryOperation@@YAHW4WSMANMEMOPERATION@@PEAXKK@Z
?WSManPostThreadMessageW@@YAHKI_K_J@Z
?WaitForAllChildrenToUnregister@ChildLifeTimeManager@@QEAAXK@Z
?WaitForConditionVar@CWSManCriticalSectionWithConditionVar@@QEAAKK@Z
?WaitForMore@PacketParser@@UEAA_NXZ
?WakeAllWaitingForConditionVar@CWSManCriticalSectionWithConditionVar@@QEAAXXZ
?WakeAllWaitingOnNoOfChildren@ChildLifeTimeManager@@AEAAXXZ
?Warning@EventLog@@SAXK@Z
?Warning@EventLog@@SAXKGPEAPEBG@Z
?Warning@EventLog@@SAXKPEBG@Z
?Warning@ExtendedSemantic@@2KB DATA
?WatchForChanges@CServiceConfigCache@@QEAAPEAVCServiceWatcher@1@PEAVIRequestContext@@PEAVIServiceConfigObserver@@@Z
?WrapperCoSetProxyBlanket@@YAJPEAUIUnknown@@KKPEAGKKPEAXKW4BehaviourForNoInterfaceError@@@Z
?Write@EventHandler@WSMan@@SAXAEBU_EVENT_DESCRIPTOR@@KPEAU_EVENT_DATA_DESCRIPTOR@@@Z
?WriteCredentialsToCredmanStore@CConfigManager@@SAHPEAVIRequestContext@@PEAG1H@Z
?WriteSoapA@EventHandler@WSMan@@SAXAEBU_EVENT_DESCRIPTOR@@PEBDK@Z
?WriteSoapMessageA@EventHandler@WSMan@@AEAAXAEBU_EVENT_DESCRIPTOR@@PEBDK@Z
?WriteSoapMessageW@EventHandler@WSMan@@AEAAXAEBU_EVENT_DESCRIPTOR@@PEBGK@Z
?WriteSoapMessageW_BE@EventHandler@WSMan@@AEAAXAEBU_EVENT_DESCRIPTOR@@PEBGK@Z
?WriteSoapW@EventHandler@WSMan@@SAXAEBU_EVENT_DESCRIPTOR@@PEBGK@Z
?WriteSoapW_BE@EventHandler@WSMan@@SAXAEBU_EVENT_DESCRIPTOR@@PEBGK@Z
?_PolicyChangedCallback@CWSManGroupPolicyManager@@CAXPEAXE@Z
?back@?$SimpleQueue@T_LARGE_INTEGER@@@@QEBA?BT_LARGE_INTEGER@@XZ
?empty@?$SimpleQueue@T_LARGE_INTEGER@@@@QEBA_NXZ
?front@?$SimpleQueue@T_LARGE_INTEGER@@@@QEBA?BT_LARGE_INTEGER@@XZ
?g_Resources@Locale@@0V?$Loader@VResources@Locale@@$0A@@@A DATA
?isValid@?$SafeSet@PEAVCListenerOperation@@@@QEBA_NXZ
?m_migContext@ConfigRegistry@@2PEAVWSManMigrationContext@@EA DATA
?pop@?$SimpleQueue@T_LARGE_INTEGER@@@@QEAAXXZ
?push@?$SimpleQueue@T_LARGE_INTEGER@@@@QEAAKT_LARGE_INTEGER@@@Z
?s_cacheMap@CClientConfigCache@@0V?$AutoRelease@VCConfigCacheMap@CBaseConfigCache@@@@A DATA
?s_cacheMap@CServiceConfigCache@@0V?$AutoRelease@VCConfigCacheMap@CBaseConfigCache@@@@A DATA
?s_cacheMap@CWinRSPluginConfigCache@@0V?$AutoRelease@VCConfigCacheMap@CBaseConfigCache@@@@A DATA
?s_config@CConfigManager@@0V?$AutoRelease@VCConfigManager@@@@A DATA
?s_lock@CConfigManager@@0VFastLock@@A DATA
?s_lock@CWSManGroupPolicyManager@@0VFastLock@@A DATA
?s_mapLock@CClientConfigCache@@0VFastLock@@A DATA
?s_mapLock@CServiceConfigCache@@0VFastLock@@A DATA
?s_mapLock@CWinRSPluginConfigCache@@0VFastLock@@A DATA
?s_policyManager@CWSManGroupPolicyManager@@0V?$AutoRelease@VCWSManGroupPolicyManager@@@@A DATA
EnumServiceUserResources
FwGetParsedDocument
FwGetRootElement
FwIsXmlEscapedProperly
FwXmlAddAttributeToAttributeList
FwXmlCloseParser
FwXmlCompareAttributeName
FwXmlCompareAttributeNameEx
FwXmlCompareElementName
FwXmlCompareElementNameEx
FwXmlCompareElementNameLen
FwXmlCompareElementNameSpace
FwXmlCompareName
FwXmlCreateXmlFromElement
FwXmlDecodeXmlEscapes
FwXmlEncodeXmlEscapes
FwXmlFindAttribute
FwXmlFindAttributeEx
FwXmlFindChildElement
FwXmlFindChildElementEx
FwXmlGetAttribute
FwXmlGetAttributeNameEx
FwXmlGetAttributeNamespacePrefix
FwXmlGetAttributeValue
FwXmlGetAttributeValueDWord
FwXmlGetBooleanValue
FwXmlGetBuffer
FwXmlGetChild
FwXmlGetElementName
FwXmlGetElementNameEx
FwXmlGetElementNamespacePrefix
FwXmlGetElementNamespaceUrl
FwXmlGetEntryNameEx
FwXmlGetNamespaceForPrefix
FwXmlGetNormalizedString
FwXmlGetReferenceXmlFromElement
FwXmlGetRemainder
FwXmlGetSimpleContent
FwXmlGetSimpleContentEx
FwXmlGetSimpleContentEx2
FwXmlHasText
FwXmlIsEmpty
FwXmlIsMustUnderstand
FwXmlIsNull
FwXmlIsSimpleContent
FwXmlIsSimpleContentOrEmpty
FwXmlIsTrueValue
FwXmlNumAttributes
FwXmlNumChildren
FwXmlNumChildrenWithName
FwXmlNumConsecutiveChildrenWithName
FwXmlParsePrefixedXML
FwXmlParseStream
FwXmlParseText
FwXmlParserCreate
FwXmlUpdatePrefixes
GetServiceSecurity
MI_Application_InitializeV1
SetServiceSecurity
SubscriptionsProvEnumerate
WSManAckEvents
WSManAddSubscriptionManagerInternal
WSManCloseCommand
WSManCloseEnumerationHandle
WSManCloseEnumeratorHandle
WSManCloseObjectHandle
WSManCloseOperation
WSManClosePublisherHandle
WSManCloseSession
WSManCloseSessionHandle
WSManCloseShell
WSManCloseSubscriptionHandle
WSManConnectShell
WSManConnectShellCommand
WSManConstructError
WSManCreateEnumeratorInternal
WSManCreateInternal
WSManCreateInternalEx
WSManCreatePullSubscription
WSManCreatePushSubscription
WSManCreateSession
WSManCreateSessionInternal
WSManCreateShell
WSManCreateShellEx
WSManDecodeObject
WSManDeinitialize
WSManDeleteInternal
WSManDeleteInternalEx
WSManDeliverEndSubscriptionNotification
WSManDeliverEvent
WSManDisconnectShell
WSManEncodeObject
WSManEncodeObjectEx
WSManEncodeObjectInternal
WSManEnumerateInternal
WSManEnumerateInternalEx
WSManEnumeratorAddEvent
WSManEnumeratorAddObject
WSManEnumeratorBatchPolicyViolated
WSManEnumeratorNextObject
WSManEnumeratorObjectCount
WSManGetErrorMessage
WSManGetInternal
WSManGetInternalEx
WSManGetSessionOptionAsDword
WSManGetSessionOptionAsString
WSManIdentifyInternal
WSManInitialize
WSManInvokeInternal
WSManInvokeInternalEx
WSManPluginAuthzOperationComplete
WSManPluginAuthzQueryQuotaComplete
WSManPluginAuthzUserComplete
WSManPluginFreeRequestDetails
WSManPluginGetConfiguration
WSManPluginGetOperationParameters
WSManPluginInteractiveCallback
WSManPluginObjectAndBookmarkResult
WSManPluginObjectAndEprResult
WSManPluginObjectResult
WSManPluginOperationComplete
WSManPluginReceiveResult
WSManPluginReportCompletion
WSManPluginReportContext
WSManPluginShutdown
WSManPluginStartup
WSManProvCreate
WSManProvDelete
WSManProvEnumerate
WSManProvGet
WSManProvInvoke
WSManProvPut
WSManPull
WSManPullEvents
WSManPutInternal
WSManPutInternalEx
WSManReceiveShellOutput
WSManReconnectShell
WSManReconnectShellCommand
WSManRemoveSubscriptionManagerInternal
WSManRunShellCommand
WSManRunShellCommandEx
WSManSendShellInput
WSManSetSessionOption
WSManSignalShell
mi_clientFT_V1 DATA
